 vbsp

 Timestamp is 66ee94ce (Sat Sep 21 16:41:34 2024)

 Preferred load address is 00400000

 Start         Length     Name                   Class
 0001:00000000 000ca8d8H .text                   CODE
 0001:000ca8e0 00000b63H .text$x                 CODE
 0001:000cb450 00000944H .text$yc                CODE
 0001:000cbda0 000006c2H .text$yd                CODE
 0002:00000000 0000025cH .idata$5                DATA
 0002:0000025c 00000004H .CRT$XCA                DATA
 0002:00000260 0000000cH .CRT$XCC                DATA
 0002:0000026c 00000108H .CRT$XCU                DATA
 0002:00000374 00000004H .CRT$XCZ                DATA
 0002:00000378 00000004H .CRT$XIA                DATA
 0002:0000037c 00000014H .CRT$XIC                DATA
 0002:00000390 00000004H .CRT$XIY                DATA
 0002:00000394 00000004H .CRT$XIZ                DATA
 0002:00000398 00000004H .CRT$XPA                DATA
 0002:0000039c 00000004H .CRT$XPX                DATA
 0002:000003a0 00000004H .CRT$XPXA               DATA
 0002:000003a4 00000004H .CRT$XPZ                DATA
 0002:000003a8 00000004H .CRT$XTA                DATA
 0002:000003ac 00000004H .CRT$XTZ                DATA
 0002:000003b0 00014394H .rdata                  DATA
 0002:00014744 00000054H .rdata$debug            DATA
 0002:00014798 00001354H .rdata$r                DATA
 0002:00015aec 00000004H .rtc$IAA                DATA
 0002:00015af0 00000000H .rtc$IMZ                DATA
 0002:00015af0 00000004H .rtc$IZZ                DATA
 0002:00015af4 00000004H .rtc$TAA                DATA
 0002:00015af8 00000000H .rtc$TMZ                DATA
 0002:00015af8 00000004H .rtc$TZZ                DATA
 0002:00015b00 00001c94H .xdata$x                DATA
 0002:00017794 00000050H .idata$2                DATA
 0002:000177e4 00000014H .idata$3                DATA
 0002:000177f8 0000025cH .idata$4                DATA
 0002:00017a54 00000b18H .idata$6                DATA
 0002:00018570 0000004bH .edata                  DATA
 0003:00000000 00003980H .data                   DATA
 0003:00003980 06d22778H .bss                    DATA

  Address         Publics by Value              Rva+Base       Lib:Object

 0000:00000000       ___safe_se_handler_table   00000000     <absolute>
 0000:00000000       ___safe_se_handler_count   00000000     <absolute>
 0000:00000000       __except_list              00000000     <absolute>
 0000:00000000       ___ImageBase               00400000     <linker-defined>
 0001:00000000       ??2@YAPAXIPAX@Z            00401000 f i brushbsp.obj
 0001:00000010       ?UtlMemory_CalcNewAllocationCount@@YAHHHHH@Z 00401010 f i brushbsp.obj
 0001:00000050       ?V_memmove@@YAXPAXPBXH@Z   00401050 f i brushbsp.obj
 0001:00000060       ??0Vector2D@@QAE@MM@Z      00401060 f i brushbsp.obj
 0001:00000080       ??0Vector@@QAE@XZ          00401080 f i brushbsp.obj
 0001:00000090       ??0Vector@@QAE@MMM@Z       00401090 f i brushbsp.obj
 0001:000000b0       ?VectorClear@@YAXAAVVector@@@Z 004010b0 f i brushbsp.obj
 0001:000000c0       ??AVector@@QAEAAMH@Z       004010c0 f i brushbsp.obj
 0001:000000d0       ??AVector@@QBEMH@Z         004010d0 f i brushbsp.obj
 0001:000000e0       ?VectorCopy@@YAXABVVector@@AAV1@@Z 004010e0 f i brushbsp.obj
 0001:00000100       ??ZVector@@QAEAAV0@ABV0@@Z 00401100 f i brushbsp.obj
 0001:00000130       ?VectorAdd@@YAXABVVector@@0AAV1@@Z 00401130 f i brushbsp.obj
 0001:00000160       ?VectorSubtract@@YAXABVVector@@0AAV1@@Z 00401160 f i brushbsp.obj
 0001:00000190       ?VectorMultiply@@YAXABVVector@@MAAV1@@Z 00401190 f i brushbsp.obj
 0001:000001c0       ??_H@YGXPAXIHP6EPAX0@Z@Z   004011c0 f i brushbsp.obj
 0001:00000200       ?DotProduct@@YAMABVVector@@0@Z 00401200 f i brushbsp.obj
 0001:00000230       ?VectorLength@@YAMABVVector@@@Z 00401230 f i brushbsp.obj
 0001:00000270       ??GVector@@QBE?AV0@XZ      00401270 f i brushbsp.obj
 0001:00000290       ??HVector@@QBE?AV0@ABV0@@Z 00401290 f i brushbsp.obj
 0001:000002c0       ??DVector@@QBE?AV0@M@Z     004012c0 f i brushbsp.obj
 0001:000002f0       ??D@YA?AVVector@@MABV0@@Z  004012f0 f i brushbsp.obj
 0001:00000320       ?FindBrushInTree@@YAXPAUnode_t@@H@Z 00401320 f   brushbsp.obj
 0001:00000380       ?DrawBrushList@@YAXPAUbspbrush_t@@PAUnode_t@@@Z 00401380 f   brushbsp.obj
 0001:000003e0       ?WriteBrushList@@YAXPADPAUbspbrush_t@@H@Z 004013e0 f   brushbsp.obj
 0001:00000470       ?PrintBrush@@YAXPAUbspbrush_t@@@Z 00401470 f   brushbsp.obj
 0001:000004c0       ?BoundBrush@@YAXPAUbspbrush_t@@@Z 004014c0 f   brushbsp.obj
 0001:00000550       ?PointInsideBrush@@YA?AVVector@@PAUbspbrush_t@@@Z 00401550 f   brushbsp.obj
 0001:00000840       ?CreateBrushWindings@@YAXPAUbspbrush_t@@@Z 00401840 f   brushbsp.obj
 0001:000009e0       ?BrushVolume@@YAMPAUbspbrush_t@@@Z 004019e0 f   brushbsp.obj
 0001:00000ac0       ?CountBrushList@@YAHPAUbspbrush_t@@@Z 00401ac0 f   brushbsp.obj
 0001:00000ae0       ?AllocTree@@YAPAUtree_t@@XZ 00401ae0 f   brushbsp.obj
 0001:00000b10       ?AllocNode@@YAPAUnode_t@@XZ 00401b10 f   brushbsp.obj
 0001:00000b50       ?AllocBrush@@YAPAUbspbrush_t@@H@Z 00401b50 f   brushbsp.obj
 0001:00000ba0       ?FreeBrush@@YAXPAUbspbrush_t@@@Z 00401ba0 f   brushbsp.obj
 0001:00000bf0       ?FreeBrushList@@YAXPAUbspbrush_t@@@Z 00401bf0 f   brushbsp.obj
 0001:00000c20       ?CopyBrush@@YAPAUbspbrush_t@@PAU1@@Z 00401c20 f   brushbsp.obj
 0001:00000cb0       ?PointInLeaf@@YAPAUnode_t@@PAU1@AAVVector@@@Z 00401cb0 f   brushbsp.obj
 0001:00000d20       ?BrushBspBoxOnPlaneSide@@YAHABVVector@@0PAUdplane_t@@@Z 00401d20 f   brushbsp.obj
 0001:00000e70       ?QuickTestBrushToPlanenum@@YAHPAUbspbrush_t@@HPAH@Z 00401e70 f   brushbsp.obj
 0001:00000f10       ?TestBrushToPlanenum@@YAHPAUbspbrush_t@@HPAH11@Z 00401f10 f   brushbsp.obj
 0001:00001390       ?WindingIsTiny@@YAHPAUwinding_t@@@Z 00402390 f   brushbsp.obj
 0001:00001460       ?WindingIsHuge@@YAHPAUwinding_t@@@Z 00402460 f   brushbsp.obj
 0001:000014e0       ?LeafNode@@YAXPAUnode_t@@PAUbspbrush_t@@@Z 004024e0 f   brushbsp.obj
 0001:00001550       ?RemoveAreaPortalBrushes_R@@YAXPAUnode_t@@@Z 00402550 f   brushbsp.obj
 0001:000015a0       ?CheckPlaneAgainstParents@@YAXHPAUnode_t@@@Z 004025a0 f   brushbsp.obj
 0001:000015e0       ?BrushMostlyOnSide@@YAHPAUbspbrush_t@@PAUplane_t@@@Z 004025e0 f   brushbsp.obj
 0001:00001880       ?Count@?$CUtlVector@HV?$CUtlMemory@H@@@@QBEHXZ 00402880 f i brushbsp.obj
 0001:00001890       ?Base@?$CUtlMemory@H@@QBEPBHXZ 00402890 f i brushbsp.obj
 0001:000018a0       ?Base@?$CUtlMemory@H@@QAEPAHXZ 004028a0 f i brushbsp.obj
 0001:000018b0       ??$Destruct@H@@YAXPAH@Z    004028b0 f i brushbsp.obj
 0001:000018c0       ??$Construct@H@@YAXPAH@Z   004028c0 f i brushbsp.obj
 0001:000018d0       ?NumAllocated@?$CUtlMemory@H@@QBEHXZ 004028d0 f i brushbsp.obj
 0001:000018e0       ?IsExternallyAllocated@?$CUtlMemory@H@@QBE_NXZ 004028e0 f i brushbsp.obj
 0001:000018f0       ?BrushFromBounds@@YAPAUbspbrush_t@@AAVVector@@0@Z 004028f0 f   brushbsp.obj
 0001:000019f0       ?Base@?$CUtlVector@HV?$CUtlMemory@H@@@@QBEPBHXZ 004029f0 f i brushbsp.obj
 0001:00001a00       ?Base@?$CUtlVector@HV?$CUtlMemory@H@@@@QAEPAHXZ 00402a00 f i brushbsp.obj
 0001:00001a10       ?Element@?$CUtlVector@HV?$CUtlMemory@H@@@@QAEAAHH@Z 00402a10 f i brushbsp.obj
 0001:00001a20       ?ShiftElementsRight@?$CUtlVector@HV?$CUtlMemory@H@@@@IAEXHH@Z 00402a20 f i brushbsp.obj
 0001:00001a60       ?ResetDbgInfo@?$CUtlVector@HV?$CUtlMemory@H@@@@IAEXXZ 00402a60 f i brushbsp.obj
 0001:00001a70       ?Grow@?$CUtlMemory@H@@QAEXH@Z 00402a70 f i brushbsp.obj
 0001:00001ae0       ??A?$CUtlVector@HV?$CUtlMemory@H@@@@QAEAAHH@Z 00402ae0 f i brushbsp.obj
 0001:00001af0       ?RemoveAll@?$CUtlVector@HV?$CUtlMemory@H@@@@QAEXXZ 00402af0 f i brushbsp.obj
 0001:00001b00       ?GrowVector@?$CUtlVector@HV?$CUtlMemory@H@@@@IAEXH@Z 00402b00 f i brushbsp.obj
 0001:00001b30       ?InsertMultipleBefore@?$CUtlVector@HV?$CUtlMemory@H@@@@QAEHHHPBH@Z 00402b30 f i brushbsp.obj
 0001:00001bd0       ?AddMultipleToTail@?$CUtlVector@HV?$CUtlMemory@H@@@@QAEHHPBH@Z 00402bd0 f i brushbsp.obj
 0001:00001bf0       ?SetCount@?$CUtlVector@HV?$CUtlMemory@H@@@@QAEXH@Z 00402bf0 f i brushbsp.obj
 0001:00001c10       ?SetSize@?$CUtlVector@HV?$CUtlMemory@H@@@@QAEXH@Z 00402c10 f i brushbsp.obj
 0001:00001c30       ?CopyArray@?$CUtlVector@HV?$CUtlMemory@H@@@@QAEXPBHH@Z 00402c30 f i brushbsp.obj
 0001:00001c70       ??4?$CUtlVector@HV?$CUtlMemory@H@@@@QAEAAV0@ABV0@@Z 00402c70 f i brushbsp.obj
 0001:00001c90       ??4side_t@@QAEAAU0@ABU0@@Z 00402c90 f i brushbsp.obj
 0001:00001d20       ?SplitBrush@@YAXPAUbspbrush_t@@HPAPAU1@1@Z 00402d20 f   brushbsp.obj
 0001:00002570       ?SplitBrushList@@YAXPAUbspbrush_t@@PAUnode_t@@PAPAU1@2@Z 00403570 f   brushbsp.obj
 0001:00002650       ?CheckPlaneAgainstVolume@@YAHHPAUnode_t@@@Z 00403650 f   brushbsp.obj
 0001:000026b0       ?SelectSplitSide@@YAPAUside_t@@PAUbspbrush_t@@PAUnode_t@@@Z 004036b0 f   brushbsp.obj
 0001:000029a0       ?BuildTree_r@@YAPAUnode_t@@PAU1@PAUbspbrush_t@@@Z 004039a0 f   brushbsp.obj
 0001:00002ac0       ?BrushBSP@@YAPAUtree_t@@PAUbspbrush_t@@AAVVector@@1@Z 00403ac0 f   brushbsp.obj
 0001:00002c80       ?FloatBits@@YAAAKAAM@Z     00403c80 f i CollisionUtils.obj
 0001:00002c90       ?BitsToFloat@@YAMK@Z       00403c90 f i CollisionUtils.obj
 0001:00002ca0       ?FloatAbsBits@@YAKM@Z      00403ca0 f i CollisionUtils.obj
 0001:00002cb0       ?FloatMakePositive@@YAMM@Z 00403cb0 f i CollisionUtils.obj
 0001:00002cd0       _fabsf                     00403cd0 f i CollisionUtils.obj
 0001:00002ce0       _sqrtf                     00403ce0 f i CollisionUtils.obj
 0001:00002d00       ?sqrt@@YAMM@Z              00403d00 f i CollisionUtils.obj
 0001:00002d20       ??0Vector2D@@QAE@XZ        00403d20 f i CollisionUtils.obj
 0001:00002d30       ??AVector2D@@QAEAAMH@Z     00403d30 f i CollisionUtils.obj
 0001:00002d40       ??AVector2D@@QBEMH@Z       00403d40 f i CollisionUtils.obj
 0001:00002d50       ?Vector2DSubtract@@YAXABVVector2D@@0AAV1@@Z 00403d50 f i CollisionUtils.obj
 0001:00002d70       ?Vector2DMA@@YAXABVVector2D@@M0AAV1@@Z 00403d70 f i CollisionUtils.obj
 0001:00002da0       ?Vector2DLerp@@YAXABVVector2D@@0MAAV1@@Z 00403da0 f i CollisionUtils.obj
 0001:00002dd0       ?LengthSqr@Vector@@QBEMXZ  00403dd0 f i CollisionUtils.obj
 0001:00002e00       ?Init@Vector@@QAEXMMM@Z    00403e00 f i CollisionUtils.obj
 0001:00002e20       ??4Vector@@QAEAAV0@ABV0@@Z 00403e20 f i CollisionUtils.obj
 0001:00002e40       ?Base@Vector@@QAEPAMXZ     00403e40 f i CollisionUtils.obj
 0001:00002e50       ?Base@Vector@@QBEPBMXZ     00403e50 f i CollisionUtils.obj
 0001:00002e60       ?Negate@Vector@@QAEXXZ     00403e60 f i CollisionUtils.obj
 0001:00002e80       ??YVector@@QAEAAV0@ABV0@@Z 00403e80 f i CollisionUtils.obj
 0001:00002eb0       ??XVector@@QAEAAV0@M@Z     00403eb0 f i CollisionUtils.obj
 0001:00002ee0       ?VectorLerp@@YAXABVVector@@0MAAV1@@Z 00403ee0 f i CollisionUtils.obj
 0001:00002f20       ?Dot@Vector@@QBEMABV1@@Z   00403f20 f i CollisionUtils.obj
 0001:00002f50       ?CrossProduct@@YAXABVVector@@0AAV1@@Z 00403f50 f i CollisionUtils.obj
 0001:00002f90       ?DotProductAbs@@YAMABVVector@@0@Z 00403f90 f i CollisionUtils.obj
 0001:00003000       ?Length@Vector@@QBEMXZ     00404000 f i CollisionUtils.obj
 0001:00003030       ?VectorAbs@@YAXABVVector@@AAV1@@Z 00404030 f i CollisionUtils.obj
 0001:00003090       ??GVector@@QBE?AV0@ABV0@@Z 00404090 f i CollisionUtils.obj
 0001:000030c0       ?Cross@Vector@@QBE?AV1@ABV1@@Z 004040c0 f i CollisionUtils.obj
 0001:00003100       ??8QAngle@@QBE_NABV0@@Z    00404100 f i CollisionUtils.obj
 0001:00003140       ?VectorNormalize@@YAMAAVVector@@@Z 00404140 f i CollisionUtils.obj
 0001:00003150       ??0matrix3x4_t@@QAE@XZ     00404150 f i CollisionUtils.obj
 0001:00003160       ??Amatrix3x4_t@@QAEPAMH@Z  00404160 f i CollisionUtils.obj
 0001:00003170       ??Amatrix3x4_t@@QBEPBMH@Z  00404170 f i CollisionUtils.obj
 0001:00003180       ?DotProduct@@YAMPBM0@Z     00404180 f i CollisionUtils.obj
 0001:000031b0       ?VectorCopy@@YAXPBMPAM@Z   004041b0 f i CollisionUtils.obj
 0001:000031d0       ?InvRSquared@@YAMPBM@Z     004041d0 f i CollisionUtils.obj
 0001:000031e0       ?InvRSquared@@YAMABVVector@@@Z 004041e0 f i CollisionUtils.obj
 0001:000031f0       ?MatrixRowDotProduct@@YAMABUmatrix3x4_t@@HABVVector@@@Z 004041f0 f i CollisionUtils.obj
 0001:00003220       ?MatrixColumnDotProduct@@YAMABUmatrix3x4_t@@HABVVector@@@Z 00404220 f i CollisionUtils.obj
 0001:00003250       ?VectorRotate@@YAXABVVector@@ABUmatrix3x4_t@@AAV1@@Z 00404250 f i CollisionUtils.obj
 0001:00003260       ?VectorIRotate@@YAXABVVector@@ABUmatrix3x4_t@@AAV1@@Z 00404260 f i CollisionUtils.obj
 0001:00003270       ?VectorTransform@@YAXABVVector@@ABUmatrix3x4_t@@AAV1@@Z 00404270 f i CollisionUtils.obj
 0001:00003280       ?VectorITransform@@YAXABVVector@@ABUmatrix3x4_t@@AAV1@@Z 00404280 f i CollisionUtils.obj
 0001:00003290       ?BoxOnPlaneSide@@YAHABVVector@@0PBUcplane_t@@@Z 00404290 f i CollisionUtils.obj
 0001:000032a0       ?MatrixITransformPlane@@YAXABUmatrix3x4_t@@ABUcplane_t@@AAU2@@Z 004042a0 f i CollisionUtils.obj
 0001:00003330       ??0cplane_t@@QAE@XZ        00404330 f i CollisionUtils.obj
 0001:00003340       ?AsVector3D@Vector4D@@QBEABVVector@@XZ 00404340 f i CollisionUtils.obj
 0001:00003440       ?IntersectRayWithTriangle@@YAMABURay_t@@ABVVector@@11_N@Z 00404440 f   CollisionUtils.obj
 0001:00003720       ?ComputeIntersectionBarycentricCoordinates@@YA_NABURay_t@@ABVVector@@11AAM2PAM@Z 00404720 f   CollisionUtils.obj
 0001:00003940       ?IntersectTriangleWithPlaneBarycentric@@YAHABVVector@@00ABVVector4D@@PAVVector2D@@@Z 00404940 f   CollisionUtils.obj
 0001:00003ad0       ?IsSphereIntersectingSphere@@YA_NABVVector@@M0M@Z 00404ad0 f   CollisionUtils.obj
 0001:00003b50       ?IsBoxIntersectingSphere@@YA_NABVVector@@00M@Z 00404b50 f   CollisionUtils.obj
 0001:00003c30       ?IsBoxIntersectingSphereExtents@@YA_NABVVector@@00M@Z 00404c30 f   CollisionUtils.obj
 0001:00003d20       ?IsCircleIntersectingRectangle@@YA_NABVVector2D@@00M@Z 00404d20 f   CollisionUtils.obj
 0001:00003dd0       ?IntersectInfiniteRayWithSphere@@YA_NABVVector@@00MPAM1@Z 00404dd0 f   CollisionUtils.obj
 0001:00003f60       ?IntersectRayWithSphere@@YA_NABVVector@@00MPAM1@Z 00404f60 f   CollisionUtils.obj
 0001:00003fe0       ?IsPointInBox@@YA_NABVVector@@00@Z 00404fe0 f   CollisionUtils.obj
 0001:00004050       ?IsPointInCone@@YA_NABVVector@@00MM@Z 00405050 f   CollisionUtils.obj
 0001:000040e0       ?IsBoxIntersectingBox@@YA_NABVVector@@000@Z 004050e0 f   CollisionUtils.obj
 0001:00004160       ?IsBoxIntersectingBoxExtents@@YA_NABVVector@@000@Z 00405160 f   CollisionUtils.obj
 0001:00004230       ?IsBoxIntersectingRay@@YI_NABVVector@@000M@Z 00405230 f   CollisionUtils.obj
 0001:000043a0       ?IsBoxIntersectingRay@@YI_NABVVector@@0000M@Z 004053a0 f   CollisionUtils.obj
 0001:00004500       ?IsBoxIntersectingRay@@YI_NABVVector@@0ABURay_t@@M@Z 00405500 f   CollisionUtils.obj
 0001:00004610       ?IntersectRayWithRay@@YA_NABURay_t@@0AAM1@Z 00405610 f   CollisionUtils.obj
 0001:00004920       ?IntersectRayWithPlane@@YAMABURay_t@@ABUcplane_t@@@Z 00405920 f   CollisionUtils.obj
 0001:00004990       ?IntersectRayWithPlane@@YAMABVVector@@0ABUcplane_t@@@Z 00405990 f   CollisionUtils.obj
 0001:00004a10       ?IntersectRayWithPlane@@YAMABVVector@@00M@Z 00405a10 f   CollisionUtils.obj
 0001:00004a90       ?IntersectRayWithAAPlane@@YAMABVVector@@0HMM@Z 00405a90 f   CollisionUtils.obj
 0001:00004af0       ?IntersectRayWithBox@@YA_NABVVector@@000MPAUBoxTraceInfo_t@@@Z 00405af0 f   CollisionUtils.obj
 0001:00004ca0       ?IntersectRayWithBox@@YA_NABVVector@@000MPAVCBaseTrace@@@Z 00405ca0 f   CollisionUtils.obj
 0001:00004e50       ?IntersectRayWithBox@@YA_NABURay_t@@ABVVector@@1MPAVCBaseTrace@@@Z 00405e50 f   CollisionUtils.obj
 0001:00004f40       ?IntersectRayWithOBB@@YA_NABVVector@@0ABUmatrix3x4_t@@00MPAUBoxTraceInfo_t@@@Z 00405f40 f   CollisionUtils.obj
 0001:00004fa0       ?ComputeSupportMap@@YAXABVVector@@00QAM@Z 00405fa0 f i CollisionUtils.obj
 0001:00005050       ?ComputeSupportMap@@YAXABVVector@@HH00QAM@Z 00406050 f i CollisionUtils.obj
 0001:000050e0       ?GetNonMajorAxes@@YAXABVVector@@AAVVector2D@@@Z 004060e0 f   CollisionUtils.obj
 0001:000051c0       ??0Ray_t@@QAE@XZ           004061c0 f i CollisionUtils.obj
 0001:000051d0       ?ResolveQuadratic@@YAXNNVVector@@00000HAAN1@Z 004061d0 f   CollisionUtils.obj
 0001:00005450       ?PointInQuadFromBarycentric@@YAXABVVector@@000ABVVector2D@@AAV1@@Z 00406450 f   CollisionUtils.obj
 0001:00005530       ?TexCoordInQuadFromBarycentric@@YAXABVVector2D@@0000AAV1@@Z 00406530 f   CollisionUtils.obj
 0001:000055e0       ?ComputePointFromBarycentric@@YAXABVVector@@00MMAAV1@@Z 004065e0 f   CollisionUtils.obj
 0001:00005660       ?ComputePointFromBarycentric@@YAXABVVector2D@@00MMAAV1@@Z 00406660 f   CollisionUtils.obj
 0001:00006140       ?ComputeSeparatingPlane@@YA_NABVVector@@ABVQAngle@@000100MPAUcplane_t@@@Z 00407140 f   CollisionUtils.obj
 0001:00006260       ?IsRayIntersectingOBB@@YA_NABURay_t@@ABVVector@@ABVQAngle@@11@Z 00407260 f   CollisionUtils.obj
 0001:000067f0       ?FindMinMax@@YAXMMMAAM0@Z  004077f0 f i CollisionUtils.obj
 0001:00006850       ?AxisTestEdgeCrossX2@@YA_NMMMMABVVector@@00M@Z 00407850 f i CollisionUtils.obj
 0001:00006900       ?AxisTestEdgeCrossX3@@YA_NMMMMABVVector@@00M@Z 00407900 f i CollisionUtils.obj
 0001:000069b0       ?AxisTestEdgeCrossY2@@YA_NMMMMABVVector@@00M@Z 004079b0 f i CollisionUtils.obj
 0001:00006a60       ?AxisTestEdgeCrossY3@@YA_NMMMMABVVector@@00M@Z 00407a60 f i CollisionUtils.obj
 0001:00006b10       ?AxisTestEdgeCrossZ1@@YA_NMMMMABVVector@@00M@Z 00407b10 f i CollisionUtils.obj
 0001:00006bc0       ?AxisTestEdgeCrossZ2@@YA_NMMMMABVVector@@00M@Z 00407bc0 f i CollisionUtils.obj
 0001:00006c70       ?IsBoxIntersectingTriangle@@YA_NABVVector@@0000ABUcplane_t@@M@Z 00407c70 f   CollisionUtils.obj
 0001:00007240       ?DistToSqr@Vector@@QBEMABV1@@Z 00408240 f i CollisionUtils.obj
 0001:00007290       ??0CBaseTrace@@QAE@XZ      00408290 f i CollisionUtils.obj
 0001:000072a0       ??0CGameTrace@@QAE@XZ      004082a0 f i CollisionUtils.obj
 0001:000072b0       ?IsRayIntersectingSphere@@YA_NABVVector@@00MM@Z 004082b0 f   CollisionUtils.obj
 0001:000073d0       ?IsOBBIntersectingOBB@@YA_NABVVector@@ABVQAngle@@000100M@Z 004083d0 f   CollisionUtils.obj
 0001:00007420       ?IntersectRayWithOBB@@YA_NABVVector@@0ABUmatrix3x4_t@@00MPAVCBaseTrace@@@Z 00408420 f   CollisionUtils.obj
 0001:00007800       ?IntersectRayWithOBB@@YA_NABVVector@@00ABVQAngle@@00MPAVCBaseTrace@@@Z 00408800 f   CollisionUtils.obj
 0001:00007900       ?IntersectRayWithOBB@@YA_NABURay_t@@ABUmatrix3x4_t@@ABVVector@@2MPAVCBaseTrace@@@Z 00408900 f   CollisionUtils.obj
 0001:000081b0       ?IntersectRayWithOBB@@YA_NABURay_t@@ABVVector@@ABVQAngle@@11MPAVCBaseTrace@@@Z 004091b0 f   CollisionUtils.obj
 0001:000082e0       ?QuadWithParallelEdges@@YA?AW4QuadBarycentricRetval_t@@ABVVector@@0M0M0AAVVector2D@@@Z 004092e0 f   CollisionUtils.obj
 0001:000084c0       ?PointInQuadToBarycentric@@YA?AW4QuadBarycentricRetval_t@@ABVVector@@0000AAVVector2D@@@Z 004094c0 f   CollisionUtils.obj
 0001:00008ce0       ?SplitBrush2@@YAXPAUbspbrush_t@@HPAPAU1@1@Z 00409ce0 f   csg.obj
 0001:00008cf0       ?SubtractBrush@@YAPAUbspbrush_t@@PAU1@0@Z 00409cf0 f   csg.obj
 0001:00008da0       ?IntersectBrush@@YAPAUbspbrush_t@@PAU1@0@Z 00409da0 f   csg.obj
 0001:00008e20       ?BrushesDisjoint@@YAHPAUbspbrush_t@@0@Z 00409e20 f   csg.obj
 0001:00008ed0       ?ClipBrushToBox@@YAPAUbspbrush_t@@PAU1@ABVVector@@1@Z 00409ed0 f   csg.obj
 0001:000091c0       ?MakeBspBrushList@@YAPAUbspbrush_t@@HHABVVector@@0H@Z 0040a1c0 f   csg.obj
 0001:00009250       ?MakeBspBrushList@@YAPAUbspbrush_t@@PAPAUmapbrush_t@@HABVVector@@1@Z 0040a250 f   csg.obj
 0001:000092c0       ?AddBrushListToTail@@YAPAUbspbrush_t@@PAU1@0@Z 0040a2c0 f   csg.obj
 0001:000092f0       ?CullList@@YAPAUbspbrush_t@@PAU1@0@Z 0040a2f0 f   csg.obj
 0001:00009330       ?PrintBrushContentsToString@@YAXHPADH@Z 0040a330 f   csg.obj
 0001:000095c0       ?PrintBrushContents@@YAXH@Z 0040a5c0 f   csg.obj
 0001:00009600       ?BrushGE@@YAHPAUbspbrush_t@@0@Z 0040a600 f   csg.obj
 0001:00009650       ?ChopBrushes@@YAPAUbspbrush_t@@PAU1@@Z 0040a650 f   csg.obj
 0001:00009990       ?Base@?$CUtlMemory@Utexinfo_s@@@@QAEPAUtexinfo_s@@XZ 0040a990 f i csg.obj
 0001:000099a0       ?Base@?$CUtlVector@Utexinfo_s@@V?$CUtlMemory@Utexinfo_s@@@@@@QAEPAUtexinfo_s@@XZ 0040a9a0 f i csg.obj
 0001:000099b0       ??A?$CUtlVector@Utexinfo_s@@V?$CUtlMemory@Utexinfo_s@@@@@@QAEAAUtexinfo_s@@H@Z 0040a9b0 f i csg.obj
 0001:000099c0       ?CopyMatchingTexinfos@@YAXPAUside_t@@HPBUbspbrush_t@@@Z 0040a9c0 f   csg.obj
 0001:00009b00       ?FixupAreaportalWaterBrushes@@YAXPAUbspbrush_t@@@Z 0040ab00 f   csg.obj
 0001:00009ba0       ?WriteBrushMap@@YAXPADPAUbspbrush_t@@@Z 0040aba0 f   csg.obj
 0001:00009d60       ?V_stricmp@@YAHPBD0@Z      0040ad60 f i cubemap.obj
 0001:00009d70       ?V_strlower@@YAPADPAD@Z    0040ad70 f i cubemap.obj
 0001:00009d80       ?VectorScale@@YAXABVVector@@MAAV1@@Z 0040ad80 f i cubemap.obj
 0001:00009db0       ?NormalizeInPlace@Vector@@QAEMXZ 0040adb0 f i cubemap.obj
 0001:00009dc0       ??0MaterialPatchInfo_t@@QAE@XZ 0040adc0 f i cubemap.obj
 0001:00009dd0       ?TellPut@CUtlBuffer@@QBEHXZ 0040add0 f i cubemap.obj
 0001:00009e00       ?SideHasCubemapAndWasntManuallyReferenced@@YA_NH@Z 0040ae00 f i cubemap.obj
 0001:00009e30       ?Cubemap_InsertSample@@YAXABVVector@@H@Z 0040ae30 f   cubemap.obj
 0001:00009fa0       ?VTFNameToHDRVTFName@@YAXPBDPADH_N@Z 0040afa0 f   cubemap.obj
 0001:00009ff0       ?GeneratePatchedName@@YAXPBDABUPatchInfo_t@@_NPADH@Z 0040aff0 f i cubemap.obj
 0001:0000a2a0       ?Cubemap_ResetCubemapSideData@@YAXXZ 0040b2a0 f   cubemap.obj
 0001:0000a2c0       ?DoesMaterialOrDependentsUseEnvmap@@YA_NPBD@Z 0040b2c0 f   cubemap.obj
 0001:0000a310       ?Cubemap_FindClosestCubemap@@YAHABVVector@@PAUside_t@@@Z 0040b310 f   cubemap.obj
 0001:0000a630       ?Cubemap_ClearUnusedTexInfos@@YAXXZ 0040b630 f   cubemap.obj
 0001:0000a640       ?Base@?$CUtlMemory@E@@QAEPAEXZ 0040b640 f i cubemap.obj
 0001:0000a650       ?IsExternallyAllocated@?$CUtlMemory@E@@QBE_NXZ 0040b650 f i cubemap.obj
 0001:0000a660       ?Count@?$CUtlVector@PADV?$CUtlMemory@PAD@@@@QBEHXZ 0040b660 f i cubemap.obj
 0001:0000a670       ?InvalidIndex@?$CUtlRBTree@UCubemapInfo_t@@GP6A_NABU1@0@Z@@SAGXZ 0040b670 f i cubemap.obj
 0001:0000a680       ?Base@?$CUtlMemory@V?$CUtlVector@HV?$CUtlMemory@H@@@@@@QAEPAV?$CUtlVector@HV?$CUtlMemory@H@@@@XZ 0040b680 f i cubemap.obj
 0001:0000a690       ?Base@?$CUtlMemory@PAD@@QAEPAPADXZ 0040b690 f i cubemap.obj
 0001:0000a6a0       ?Base@?$CUtlMemory@UNode_t@?$CUtlRBTree@UCubemapInfo_t@@GP6A_NABU1@0@Z@@@@QAEPAUNode_t@?$CUtlRBTree@UCubemapInfo_t@@GP6A_NABU1@0@Z@@XZ 0040b6a0 f i cubemap.obj
 0001:0000a6b0       ??$CopyConstruct@UCubemapInfo_t@@@@YAXPAUCubemapInfo_t@@ABU0@@Z 0040b6b0 f i cubemap.obj
 0001:0000a6d0       ?Base@?$CUtlMemory@UentitySideList_t@@@@QAEPAUentitySideList_t@@XZ 0040b6d0 f i cubemap.obj
 0001:0000a6e0       ?ValidateGrowSize@?$CUtlMemory@V?$CUtlVector@HV?$CUtlMemory@H@@@@@@IAEXXZ 0040b6e0 f i cubemap.obj
 0001:0000a6f0       ?ValidateGrowSize@?$CUtlMemory@PAD@@IAEXXZ 0040b6f0 f i cubemap.obj
 0001:0000a700       ?ValidateGrowSize@?$CUtlMemory@UNode_t@?$CUtlRBTree@UCubemapInfo_t@@GP6A_NABU1@0@Z@@@@IAEXXZ 0040b700 f i cubemap.obj
 0001:0000a710       ?ValidateGrowSize@?$CUtlMemory@UentitySideList_t@@@@IAEXXZ 0040b710 f i cubemap.obj
 0001:0000a720       ??$CopyConstruct@Utexinfo_s@@@@YAXPAUtexinfo_s@@ABU0@@Z 0040b720 f i cubemap.obj
 0001:0000a740       ??$CopyConstruct@H@@YAXPAHABH@Z 0040b740 f i cubemap.obj
 0001:0000a760       ??$Construct@PAD@@YAXPAPAD@Z 0040b760 f i cubemap.obj
 0001:0000a770       ??A?$CUtlMemory@UNode_t@?$CUtlRBTree@UCubemapInfo_t@@GP6A_NABU1@0@Z@@@@QBEABUNode_t@?$CUtlRBTree@UCubemapInfo_t@@GP6A_NABU1@0@Z@@H@Z 0040b770 f i cubemap.obj
 0001:0000a780       ??A?$CUtlMemory@UNode_t@?$CUtlRBTree@UCubemapInfo_t@@GP6A_NABU1@0@Z@@@@QAEAAUNode_t@?$CUtlRBTree@UCubemapInfo_t@@GP6A_NABU1@0@Z@@H@Z 0040b780 f i cubemap.obj
 0001:0000a790       ??$Destruct@UCubemapInfo_t@@@@YAXPAUCubemapInfo_t@@@Z 0040b790 f i cubemap.obj
 0001:0000a7a0       ??$Destruct@UentitySideList_t@@@@YAXPAUentitySideList_t@@@Z 0040b7a0 f i cubemap.obj
 0001:0000a7b0       ?NumAllocated@?$CUtlMemory@Utexinfo_s@@@@QBEHXZ 0040b7b0 f i cubemap.obj
 0001:0000a7c0       ?NumAllocated@?$CUtlMemory@V?$CUtlVector@HV?$CUtlMemory@H@@@@@@QBEHXZ 0040b7c0 f i cubemap.obj
 0001:0000a7d0       ?IsExternallyAllocated@?$CUtlMemory@V?$CUtlVector@HV?$CUtlMemory@H@@@@@@QBE_NXZ 0040b7d0 f i cubemap.obj
 0001:0000a7e0       ??$Destruct@PAD@@YAXPAPAD@Z 0040b7e0 f i cubemap.obj
 0001:0000a7f0       ?NumAllocated@?$CUtlMemory@PAD@@QBEHXZ 0040b7f0 f i cubemap.obj
 0001:0000a800       ?IsExternallyAllocated@?$CUtlMemory@PAD@@QBE_NXZ 0040b800 f i cubemap.obj
 0001:0000a810       ?Links@?$CUtlRBTree@UCubemapInfo_t@@GP6A_NABU1@0@Z@@IAEAAULinks_t@1@G@Z 0040b810 f i cubemap.obj
 0001:0000a820       ?IsIdxValid@?$CUtlMemory@UNode_t@?$CUtlRBTree@UCubemapInfo_t@@GP6A_NABU1@0@Z@@@@QBE_NH@Z 0040b820 f i cubemap.obj
 0001:0000a840       ?NumAllocated@?$CUtlMemory@UNode_t@?$CUtlRBTree@UCubemapInfo_t@@GP6A_NABU1@0@Z@@@@QBEHXZ 0040b840 f i cubemap.obj
 0001:0000a850       ?IsExternallyAllocated@?$CUtlMemory@UNode_t@?$CUtlRBTree@UCubemapInfo_t@@GP6A_NABU1@0@Z@@@@QBE_NXZ 0040b850 f i cubemap.obj
 0001:0000a860       ??$Construct@UCubemapInfo_t@@@@YAXPAUCubemapInfo_t@@@Z 0040b860 f i cubemap.obj
 0001:0000a870       ??$Construct@UentitySideList_t@@@@YAXPAUentitySideList_t@@@Z 0040b870 f i cubemap.obj
 0001:0000a880       ?IsExternallyAllocated@?$CUtlMemory@UentitySideList_t@@@@QBE_NXZ 0040b880 f i cubemap.obj
 0001:0000a890       ?IsExternallyAllocated@?$CUtlMemory@Utexinfo_s@@@@QBE_NXZ 0040b890 f i cubemap.obj
 0001:0000a8a0       ?IsRoot@?$CUtlRBTree@UCubemapInfo_t@@GP6A_NABU1@0@Z@@QBE_NG@Z 0040b8a0 f i cubemap.obj
 0001:0000a8c0       ?SetColor@?$CUtlRBTree@UCubemapInfo_t@@GP6A_NABU1@0@Z@@IAEXGW4NodeColor_t@1@@Z 0040b8c0 f i cubemap.obj
 0001:0000a8e0       ?NumAllocated@?$CUtlMemory@UentitySideList_t@@@@QBEHXZ 0040b8e0 f i cubemap.obj
 0001:0000a8f0       ?Grow@?$CUtlMemory@UentitySideList_t@@@@QAEXH@Z 0040b8f0 f i cubemap.obj
 0001:0000a960       ?ValidateGrowSize@?$CUtlMemory@H@@IAEXXZ 0040b960 f i cubemap.obj
 0001:0000a970       ?Purge@?$CUtlMemory@H@@QAEXXZ 0040b970 f i cubemap.obj
 0001:0000a9a0       ?SetParent@?$CUtlRBTree@UCubemapInfo_t@@GP6A_NABU1@0@Z@@IAEXGG@Z 0040b9a0 f i cubemap.obj
 0001:0000a9c0       ?SetLeftChild@?$CUtlRBTree@UCubemapInfo_t@@GP6A_NABU1@0@Z@@IAEXGG@Z 0040b9c0 f i cubemap.obj
 0001:0000a9e0       ?SetRightChild@?$CUtlRBTree@UCubemapInfo_t@@GP6A_NABU1@0@Z@@IAEXGG@Z 0040b9e0 f i cubemap.obj
 0001:0000aa00       ?Base@CUtlBuffer@@QAEPAXXZ 0040ba00 f i cubemap.obj
 0001:0000aa10       ?Purge@?$CUtlMemory@E@@QAEXXZ 0040ba10 f i cubemap.obj
 0001:0000aa40       ?Base@?$CUtlVector@V?$CUtlVector@HV?$CUtlMemory@H@@@@V?$CUtlMemory@V?$CUtlVector@HV?$CUtlMemory@H@@@@@@@@QAEPAV?$CUtlVector@HV?$CUtlMemory@H@@@@XZ 0040ba40 f i cubemap.obj
 0001:0000aa50       ?ResetDbgInfo@?$CUtlVector@V?$CUtlVector@HV?$CUtlMemory@H@@@@V?$CUtlMemory@V?$CUtlVector@HV?$CUtlMemory@H@@@@@@@@IAEXXZ 0040ba50 f i cubemap.obj
 0001:0000aa60       ?Base@?$CUtlVector@PADV?$CUtlMemory@PAD@@@@QAEPAPADXZ 0040ba60 f i cubemap.obj
 0001:0000aa70       ?ResetDbgInfo@?$CUtlVector@PADV?$CUtlMemory@PAD@@@@IAEXXZ 0040ba70 f i cubemap.obj
 0001:0000aa80       ?ResetDbgInfo@?$CUtlRBTree@UCubemapInfo_t@@GP6A_NABU1@0@Z@@IAEXXZ 0040ba80 f i cubemap.obj
 0001:0000aa90       ?Base@?$CUtlVector@UentitySideList_t@@V?$CUtlMemory@UentitySideList_t@@@@@@QAEPAUentitySideList_t@@XZ 0040ba90 f i cubemap.obj
 0001:0000aaa0       ?ResetDbgInfo@?$CUtlVector@UentitySideList_t@@V?$CUtlMemory@UentitySideList_t@@@@@@IAEXXZ 0040baa0 f i cubemap.obj
 0001:0000aab0       ??0?$CUtlMemory@V?$CUtlVector@HV?$CUtlMemory@H@@@@@@QAE@HH@Z 0040bab0 f i cubemap.obj
 0001:0000aaf0       ??0?$CUtlMemory@PAD@@QAE@HH@Z 0040baf0 f i cubemap.obj
 0001:0000ab30       ?Element@?$CUtlRBTree@UCubemapInfo_t@@GP6A_NABU1@0@Z@@QBEABUCubemapInfo_t@@G@Z 0040bb30 f i cubemap.obj
 0001:0000ab50       ?Element@?$CUtlRBTree@UCubemapInfo_t@@GP6A_NABU1@0@Z@@QAEAAUCubemapInfo_t@@G@Z 0040bb50 f i cubemap.obj
 0001:0000ab70       ??0?$CUtlMemory@UNode_t@?$CUtlRBTree@UCubemapInfo_t@@GP6A_NABU1@0@Z@@@@QAE@HH@Z 0040bb70 f i cubemap.obj
 0001:0000abb0       ??0?$CUtlMemory@UentitySideList_t@@@@QAE@HH@Z 0040bbb0 f i cubemap.obj
 0001:0000abf0       ?Element@?$CUtlVector@Utexinfo_s@@V?$CUtlMemory@Utexinfo_s@@@@@@QAEAAUtexinfo_s@@H@Z 0040bbf0 f i cubemap.obj
 0001:0000ac00       ?ShiftElementsRight@?$CUtlVector@Utexinfo_s@@V?$CUtlMemory@Utexinfo_s@@@@@@IAEXHH@Z 0040bc00 f i cubemap.obj
 0001:0000ac50       ?Element@?$CUtlVector@V?$CUtlVector@HV?$CUtlMemory@H@@@@V?$CUtlMemory@V?$CUtlVector@HV?$CUtlMemory@H@@@@@@@@QAEAAV?$CUtlVector@HV?$CUtlMemory@H@@@@H@Z 0040bc50 f i cubemap.obj
 0001:0000ac60       ?ShiftElementsRight@?$CUtlVector@V?$CUtlVector@HV?$CUtlMemory@H@@@@V?$CUtlMemory@V?$CUtlVector@HV?$CUtlMemory@H@@@@@@@@IAEXHH@Z 0040bc60 f i cubemap.obj
 0001:0000aca0       ?Purge@?$CUtlMemory@V?$CUtlVector@HV?$CUtlMemory@H@@@@@@QAEXXZ 0040bca0 f i cubemap.obj
 0001:0000acd0       ?Element@?$CUtlVector@PADV?$CUtlMemory@PAD@@@@QAEAAPADH@Z 0040bcd0 f i cubemap.obj
 0001:0000ace0       ?RemoveAll@?$CUtlVector@PADV?$CUtlMemory@PAD@@@@QAEXXZ 0040bce0 f i cubemap.obj
 0001:0000acf0       ?ShiftElementsRight@?$CUtlVector@PADV?$CUtlMemory@PAD@@@@IAEXHH@Z 0040bcf0 f i cubemap.obj
 0001:0000ad30       ?Purge@?$CUtlMemory@PAD@@QAEXXZ 0040bd30 f i cubemap.obj
 0001:0000ad60       ?Links@?$CUtlRBTree@UCubemapInfo_t@@GP6A_NABU1@0@Z@@IBEABULinks_t@1@G@Z 0040bd60 f i cubemap.obj
 0001:0000adc0       ?Purge@?$CUtlMemory@UNode_t@?$CUtlRBTree@UCubemapInfo_t@@GP6A_NABU1@0@Z@@@@QAEXXZ 0040bdc0 f i cubemap.obj
 0001:0000adf0       ?Element@?$CUtlVector@UentitySideList_t@@V?$CUtlMemory@UentitySideList_t@@@@@@QAEAAUentitySideList_t@@H@Z 0040bdf0 f i cubemap.obj
 0001:0000ae00       ?Purge@?$CUtlMemory@UentitySideList_t@@@@QAEXXZ 0040be00 f i cubemap.obj
 0001:0000ae30       ?ResetDbgInfo@?$CUtlVector@Utexinfo_s@@V?$CUtlMemory@Utexinfo_s@@@@@@IAEXXZ 0040be30 f i cubemap.obj
 0001:0000ae40       ?Grow@?$CUtlMemory@Utexinfo_s@@@@QAEXH@Z 0040be40 f i cubemap.obj
 0001:0000aec0       ?Grow@?$CUtlMemory@V?$CUtlVector@HV?$CUtlMemory@H@@@@@@QAEXH@Z 0040bec0 f i cubemap.obj
 0001:0000af30       ?Grow@?$CUtlMemory@PAD@@QAEXH@Z 0040bf30 f i cubemap.obj
 0001:0000afa0       ?Grow@?$CUtlMemory@UNode_t@?$CUtlRBTree@UCubemapInfo_t@@GP6A_NABU1@0@Z@@@@QAEXH@Z 0040bfa0 f i cubemap.obj
 0001:0000b010       ?GrowVector@?$CUtlVector@UentitySideList_t@@V?$CUtlMemory@UentitySideList_t@@@@@@IAEXH@Z 0040c010 f i cubemap.obj
 0001:0000b040       ?ShiftElementsRight@?$CUtlVector@UentitySideList_t@@V?$CUtlMemory@UentitySideList_t@@@@@@IAEXHH@Z 0040c040 f i cubemap.obj
 0001:0000b080       ??0?$CUtlMemory@H@@QAE@HH@Z 0040c080 f i cubemap.obj
 0001:0000b0c0       ??1?$CUtlMemory@H@@QAE@XZ  0040c0c0 f i cubemap.obj
 0001:0000b0f0       ?Parent@?$CUtlRBTree@UCubemapInfo_t@@GP6A_NABU1@0@Z@@QBEGG@Z 0040c0f0 f i cubemap.obj
 0001:0000b110       ?IsRed@?$CUtlRBTree@UCubemapInfo_t@@GP6A_NABU1@0@Z@@IBE_NG@Z 0040c110 f i cubemap.obj
 0001:0000b130       ?Color@?$CUtlRBTree@UCubemapInfo_t@@GP6A_NABU1@0@Z@@IBE?AW4NodeColor_t@1@G@Z 0040c130 f i cubemap.obj
 0001:0000b150       ??1?$CUtlMemory@E@@QAE@XZ  0040c150 f i cubemap.obj
 0001:0000b180       ??A?$CUtlVector@V?$CUtlVector@HV?$CUtlMemory@H@@@@V?$CUtlMemory@V?$CUtlVector@HV?$CUtlMemory@H@@@@@@@@QAEAAV?$CUtlVector@HV?$CUtlMemory@H@@@@H@Z 0040c180 f i cubemap.obj
 0001:0000b190       ??A?$CUtlVector@PADV?$CUtlMemory@PAD@@@@QAEAAPADH@Z 0040c190 f i cubemap.obj
 0001:0000b1a0       ??A?$CUtlRBTree@UCubemapInfo_t@@GP6A_NABU1@0@Z@@QAEAAUCubemapInfo_t@@G@Z 0040c1a0 f i cubemap.obj
 0001:0000b1c0       ??A?$CUtlVector@UentitySideList_t@@V?$CUtlMemory@UentitySideList_t@@@@@@QAEAAUentitySideList_t@@H@Z 0040c1c0 f i cubemap.obj
 0001:0000b1d0       ??1?$CUtlMemory@V?$CUtlVector@HV?$CUtlMemory@H@@@@@@QAE@XZ 0040c1d0 f i cubemap.obj
 0001:0000b200       ?Purge@?$CUtlVector@PADV?$CUtlMemory@PAD@@@@QAEXXZ 0040c200 f i cubemap.obj
 0001:0000b250       ??1?$CUtlMemory@PAD@@QAE@XZ 0040c250 f i cubemap.obj
 0001:0000b280       ?LeftChild@?$CUtlRBTree@UCubemapInfo_t@@GP6A_NABU1@0@Z@@QBEGG@Z 0040c280 f i cubemap.obj
 0001:0000b290       ?RightChild@?$CUtlRBTree@UCubemapInfo_t@@GP6A_NABU1@0@Z@@QBEGG@Z 0040c290 f i cubemap.obj
 0001:0000b2b0       ?FindInsertionPosition@?$CUtlRBTree@UCubemapInfo_t@@GP6A_NABU1@0@Z@@IAEXABUCubemapInfo_t@@AAGAA_N@Z 0040c2b0 f i cubemap.obj
 0001:0000b3c0       ??1?$CUtlMemory@UNode_t@?$CUtlRBTree@UCubemapInfo_t@@GP6A_NABU1@0@Z@@@@QAE@XZ 0040c3c0 f i cubemap.obj
 0001:0000b3f0       ?RemoveAll@?$CUtlVector@UentitySideList_t@@V?$CUtlMemory@UentitySideList_t@@@@@@QAEXXZ 0040c3f0 f i cubemap.obj
 0001:0000b400       ?Purge@?$CUtlVector@UentitySideList_t@@V?$CUtlMemory@UentitySideList_t@@@@@@QAEXXZ 0040c400 f i cubemap.obj
 0001:0000b450       ??1?$CUtlMemory@UentitySideList_t@@@@QAE@XZ 0040c450 f i cubemap.obj
 0001:0000b480       ?GrowVector@?$CUtlVector@Utexinfo_s@@V?$CUtlMemory@Utexinfo_s@@@@@@IAEXH@Z 0040c480 f i cubemap.obj
 0001:0000b4b0       ?GrowVector@?$CUtlVector@V?$CUtlVector@HV?$CUtlMemory@H@@@@V?$CUtlMemory@V?$CUtlVector@HV?$CUtlMemory@H@@@@@@@@IAEXH@Z 0040c4b0 f i cubemap.obj
 0001:0000b4e0       ?GrowVector@?$CUtlVector@PADV?$CUtlMemory@PAD@@@@IAEXH@Z 0040c4e0 f i cubemap.obj
 0001:0000b510       ?IsValidIndex@?$CUtlRBTree@UCubemapInfo_t@@GP6A_NABU1@0@Z@@QBE_NG@Z 0040c510 f i cubemap.obj
 0001:0000b540       ?NewNode@?$CUtlRBTree@UCubemapInfo_t@@GP6A_NABU1@0@Z@@QAEGXZ 0040c540 f i cubemap.obj
 0001:0000b5a0       ?InsertMultipleBefore@?$CUtlVector@UentitySideList_t@@V?$CUtlMemory@UentitySideList_t@@@@@@QAEHHHPBUentitySideList_t@@@Z 0040c5a0 f i cubemap.obj
 0001:0000b640       ??0?$CUtlVector@HV?$CUtlMemory@H@@@@QAE@HH@Z 0040c640 f i cubemap.obj
 0001:0000b690       ?IsLeftChild@?$CUtlRBTree@UCubemapInfo_t@@GP6A_NABU1@0@Z@@QBE_NG@Z 0040c690 f i cubemap.obj
 0001:0000b6c0       ?IsRightChild@?$CUtlRBTree@UCubemapInfo_t@@GP6A_NABU1@0@Z@@QBE_NG@Z 0040c6c0 f i cubemap.obj
 0001:0000b6f0       ?RotateLeft@?$CUtlRBTree@UCubemapInfo_t@@GP6A_NABU1@0@Z@@IAEXG@Z 0040c6f0 f i cubemap.obj
 0001:0000b7e0       ?RotateRight@?$CUtlRBTree@UCubemapInfo_t@@GP6A_NABU1@0@Z@@IAEXG@Z 0040c7e0 f i cubemap.obj
 0001:0000b8e0       ?Purge@?$CUtlVector@HV?$CUtlMemory@H@@@@QAEXXZ 0040c8e0 f i cubemap.obj
 0001:0000b930       ??1CUtlBuffer@@QAE@XZ      0040c930 f i cubemap.obj
 0001:0000b960       ??0?$CUtlVector@V?$CUtlVector@HV?$CUtlMemory@H@@@@V?$CUtlMemory@V?$CUtlVector@HV?$CUtlMemory@H@@@@@@@@QAE@HH@Z 0040c960 f i cubemap.obj
 0001:0000b9b0       ??0?$CUtlVector@PADV?$CUtlMemory@PAD@@@@QAE@HH@Z 0040c9b0 f i cubemap.obj
 0001:0000ba00       ??1?$CUtlVector@PADV?$CUtlMemory@PAD@@@@QAE@XZ 0040ca00 f i cubemap.obj
 0001:0000ba70       ??0?$CUtlRBTree@UCubemapInfo_t@@GP6A_NABU1@0@Z@@QAE@HHABQ6A_NABUCubemapInfo_t@@0@Z@Z 0040ca70 f i cubemap.obj
 0001:0000bad0       ?Find@?$CUtlRBTree@UCubemapInfo_t@@GP6A_NABU1@0@Z@@QBEGABUCubemapInfo_t@@@Z 0040cad0 f i cubemap.obj
 0001:0000bbd0       ??0?$CUtlVector@UentitySideList_t@@V?$CUtlMemory@UentitySideList_t@@@@@@QAE@HH@Z 0040cbd0 f i cubemap.obj
 0001:0000bc20       ??1?$CUtlVector@UentitySideList_t@@V?$CUtlMemory@UentitySideList_t@@@@@@QAE@XZ 0040cc20 f i cubemap.obj
 0001:0000bc90       ?InsertBefore@?$CUtlVector@Utexinfo_s@@V?$CUtlMemory@Utexinfo_s@@@@@@QAEHHABUtexinfo_s@@@Z 0040cc90 f i cubemap.obj
 0001:0000bd10       ?InsertBefore@?$CUtlVector@HV?$CUtlMemory@H@@@@QAEHHABH@Z 0040cd10 f i cubemap.obj
 0001:0000bd80       ?InsertBefore@?$CUtlVector@PADV?$CUtlMemory@PAD@@@@QAEHH@Z 0040cd80 f i cubemap.obj
 0001:0000bde0       ?Purge@?$CUtlRBTree@UCubemapInfo_t@@GP6A_NABU1@0@Z@@QAEXXZ 0040cde0 f i cubemap.obj
 0001:0000be80       ?AddMultipleToTail@?$CUtlVector@UentitySideList_t@@V?$CUtlMemory@UentitySideList_t@@@@@@QAEHHPBUentitySideList_t@@@Z 0040ce80 f i cubemap.obj
 0001:0000bea0       ??$Construct@V?$CUtlVector@HV?$CUtlMemory@H@@@@@@YAXPAV?$CUtlVector@HV?$CUtlMemory@H@@@@@Z 0040cea0 f i cubemap.obj
 0001:0000bec0       ?InsertRebalance@?$CUtlRBTree@UCubemapInfo_t@@GP6A_NABU1@0@Z@@IAEXG@Z 0040cec0 f i cubemap.obj
 0001:0000c4a0       ??1?$CUtlVector@HV?$CUtlMemory@H@@@@QAE@XZ 0040d4a0 f i cubemap.obj
 0001:0000c7e0       ?CreateDefaultCubemaps@@YAX_N@Z 0040d7e0 f   cubemap.obj
 0001:0000cb90       ?Cubemap_CreateDefaultCubemaps@@YAXXZ 0040db90 f   cubemap.obj
 0001:0000cbb0       ?AddToTail@?$CUtlVector@Utexinfo_s@@V?$CUtlMemory@Utexinfo_s@@@@@@QAEHABUtexinfo_s@@@Z 0040dbb0 f i cubemap.obj
 0001:0000cbd0       ?AddToTail@?$CUtlVector@HV?$CUtlMemory@H@@@@QAEHABH@Z 0040dbd0 f i cubemap.obj
 0001:0000cbf0       ?AddToTail@?$CUtlVector@PADV?$CUtlMemory@PAD@@@@QAEHXZ 0040dbf0 f i cubemap.obj
 0001:0000cc00       ??1?$CUtlRBTree@UCubemapInfo_t@@GP6A_NABU1@0@Z@@QAE@XZ 0040dc00 f i cubemap.obj
 0001:0000cc40       ?SetCount@?$CUtlVector@UentitySideList_t@@V?$CUtlMemory@UentitySideList_t@@@@@@QAEXH@Z 0040dc40 f i cubemap.obj
 0001:0000cc60       ?InsertBefore@?$CUtlVector@V?$CUtlVector@HV?$CUtlMemory@H@@@@V?$CUtlMemory@V?$CUtlVector@HV?$CUtlMemory@H@@@@@@@@QAEHH@Z 0040dc60 f i cubemap.obj
 0001:0000cce0       ?LinkToParent@?$CUtlRBTree@UCubemapInfo_t@@GP6A_NABU1@0@Z@@IAEXGG_N@Z 0040dce0 f i cubemap.obj
 0001:0000cd50       ??_G?$CUtlVector@HV?$CUtlMemory@H@@@@QAEPAXI@Z 0040dd50 f i cubemap.obj
 0001:0000d000       ?Cubemap_FixupBrushSidesMaterials@@YAXXZ 0040e000 f   cubemap.obj
 0001:0000d100       ?Cubemap_AddUnreferencedCubemaps@@YAXXZ 0040e100 f   cubemap.obj
 0001:0000d290       ?AddToTail@?$CUtlVector@V?$CUtlVector@HV?$CUtlMemory@H@@@@V?$CUtlMemory@V?$CUtlVector@HV?$CUtlMemory@H@@@@@@@@QAEHXZ 0040e290 f i cubemap.obj
 0001:0000d2a0       ?InsertAt@?$CUtlRBTree@UCubemapInfo_t@@GP6A_NABU1@0@Z@@IAEGG_N@Z 0040e2a0 f i cubemap.obj
 0001:0000d2d0       ??$Destruct@V?$CUtlVector@HV?$CUtlMemory@H@@@@@@YAXPAV?$CUtlVector@HV?$CUtlMemory@H@@@@@Z 0040e2d0 f i cubemap.obj
 0001:0000d2e0       ?Cubemap_SaveBrushSides@@YAXPBD@Z 0040e2e0 f   cubemap.obj
 0001:0000d3e0       ?Insert@?$CUtlRBTree@UCubemapInfo_t@@GP6A_NABU1@0@Z@@QAEGABUCubemapInfo_t@@@Z 0040e3e0 f i cubemap.obj
 0001:0000d450       ?RemoveAll@?$CUtlVector@V?$CUtlVector@HV?$CUtlMemory@H@@@@V?$CUtlMemory@V?$CUtlVector@HV?$CUtlMemory@H@@@@@@@@QAEXXZ 0040e450 f i cubemap.obj
 0001:0000d4e0       ?Cubemap_InitCubemapSideData@@YAXXZ 0040e4e0 f   cubemap.obj
 0001:0000d660       ?Cubemap_AttachDefaultCubemapToSpecularSides@@YAXXZ 0040e660 f   cubemap.obj
 0001:0000d7d0       ?Purge@?$CUtlVector@V?$CUtlVector@HV?$CUtlMemory@H@@@@V?$CUtlMemory@V?$CUtlVector@HV?$CUtlMemory@H@@@@@@@@QAEXXZ 0040e7d0 f i cubemap.obj
 0001:0000d810       ??1?$CUtlVector@V?$CUtlVector@HV?$CUtlMemory@H@@@@V?$CUtlMemory@V?$CUtlVector@HV?$CUtlMemory@H@@@@@@@@QAE@XZ 0040e810 f i cubemap.obj
 0001:0000d870       ?CopyFace@@YAPAUface_t@@PAU1@@Z 0040e870 f   detail.obj
 0001:0000d8a0       ?AddBrushToLeaf@@YAXPAUnode_t@@PAUbspbrush_t@@@Z 0040e8a0 f   detail.obj
 0001:0000d8c0       ?MergeBrush_r@@YAXPAUnode_t@@PAUbspbrush_t@@@Z 0040e8c0 f   detail.obj
 0001:0000d940       ?MergeFace_r@@YA_NPAUnode_t@@PAUface_t@@1@Z 0040e940 f   detail.obj
 0001:0000daf0       ?FilterFacesIntoTree@@YAPAUface_t@@PAUtree_t@@PAU1@@Z 0040eaf0 f   detail.obj
 0001:0000db80       ?TryMergeFaceList@@YAXPAPAUface_t@@@Z 0040eb80 f   detail.obj
 0001:0000dc90       ?FilterBrushesIntoTree@@YAXPAUtree_t@@PAUbspbrush_t@@@Z 0040ec90 f   detail.obj
 0001:0000dcc0       ?BrushBoxOverlap@@YA_NPAUbspbrush_t@@0@Z 0040ecc0 f   detail.obj
 0001:0000dd20       ?MakeBrushFace@@YAPAUface_t@@PAUside_t@@PAUwinding_t@@@Z 0040ed20 f   detail.obj
 0001:0000dd80       ?FindOriginalSide@@YAPAUside_t@@PAUmapbrush_t@@PAU1@@Z 0040ed80 f   detail.obj
 0001:0000de80       ?Size@?$CUtlVector@HV?$CUtlMemory@H@@@@QBEHXZ 0040ee80 f i detail.obj
 0001:0000de90       ?Count@?$CUtlVector@PAUbspbrush_t@@V?$CUtlMemory@PAUbspbrush_t@@@@@@QBEHXZ 0040ee90 f i detail.obj
 0001:0000dea0       ?Base@?$CUtlMemory@PAUbspbrush_t@@@@QBEPBQAUbspbrush_t@@XZ 0040eea0 f i detail.obj
 0001:0000deb0       ?Base@?$CUtlMemory@PAUbspbrush_t@@@@QAEPAPAUbspbrush_t@@XZ 0040eeb0 f i detail.obj
 0001:0000dec0       ??$Destruct@PAUbspbrush_t@@@@YAXPAPAUbspbrush_t@@@Z 0040eec0 f i detail.obj
 0001:0000ded0       ?ValidateGrowSize@?$CUtlMemory@PAUbspbrush_t@@@@IAEXXZ 0040eed0 f i detail.obj
 0001:0000dee0       ??$CopyConstruct@PAUbspbrush_t@@@@YAXPAPAUbspbrush_t@@ABQAU0@@Z 0040eee0 f i detail.obj
 0001:0000df00       ?NumAllocated@?$CUtlMemory@PAUbspbrush_t@@@@QBEHXZ 0040ef00 f i detail.obj
 0001:0000df10       ?IsExternallyAllocated@?$CUtlMemory@PAUbspbrush_t@@@@QBE_NXZ 0040ef10 f i detail.obj
 0001:0000df20       ?Base@?$CUtlVector@PAUbspbrush_t@@V?$CUtlMemory@PAUbspbrush_t@@@@@@QBEPBQAUbspbrush_t@@XZ 0040ef20 f i detail.obj
 0001:0000df30       ?Base@?$CUtlVector@PAUbspbrush_t@@V?$CUtlMemory@PAUbspbrush_t@@@@@@QAEPAPAUbspbrush_t@@XZ 0040ef30 f i detail.obj
 0001:0000df40       ?Element@?$CUtlVector@PAUbspbrush_t@@V?$CUtlMemory@PAUbspbrush_t@@@@@@QAEAAPAUbspbrush_t@@H@Z 0040ef40 f i detail.obj
 0001:0000df50       ??0?$CUtlMemory@PAUbspbrush_t@@@@QAE@HH@Z 0040ef50 f i detail.obj
 0001:0000df90       ?ShiftElementsRight@?$CUtlVector@PAUbspbrush_t@@V?$CUtlMemory@PAUbspbrush_t@@@@@@IAEXHH@Z 0040ef90 f i detail.obj
 0001:0000dfd0       ?Purge@?$CUtlMemory@PAUbspbrush_t@@@@QAEXXZ 0040efd0 f i detail.obj
 0001:0000e000       ?Grow@?$CUtlMemory@PAUbspbrush_t@@@@QAEXH@Z 0040f000 f i detail.obj
 0001:0000e070       ??A?$CUtlVector@PAUbspbrush_t@@V?$CUtlMemory@PAUbspbrush_t@@@@@@QBEABQAUbspbrush_t@@H@Z 0040f070 f i detail.obj
 0001:0000e080       ?RemoveAll@?$CUtlVector@PAUbspbrush_t@@V?$CUtlMemory@PAUbspbrush_t@@@@@@QAEXXZ 0040f080 f i detail.obj
 0001:0000e090       ?ResetDbgInfo@?$CUtlVector@PAUbspbrush_t@@V?$CUtlMemory@PAUbspbrush_t@@@@@@IAEXXZ 0040f090 f i detail.obj
 0001:0000e0a0       ?Purge@?$CUtlVector@PAUbspbrush_t@@V?$CUtlMemory@PAUbspbrush_t@@@@@@QAEXXZ 0040f0a0 f i detail.obj
 0001:0000e0f0       ??1?$CUtlMemory@PAUbspbrush_t@@@@QAE@XZ 0040f0f0 f i detail.obj
 0001:0000e120       ?GrowVector@?$CUtlVector@PAUbspbrush_t@@V?$CUtlMemory@PAUbspbrush_t@@@@@@IAEXH@Z 0040f120 f i detail.obj
 0001:0000e150       ??0?$CUtlVector@PAUbspbrush_t@@V?$CUtlMemory@PAUbspbrush_t@@@@@@QAE@HH@Z 0040f150 f i detail.obj
 0001:0000e1a0       ??1?$CUtlVector@PAUbspbrush_t@@V?$CUtlMemory@PAUbspbrush_t@@@@@@QAE@XZ 0040f1a0 f i detail.obj
 0001:0000e210       ?InsertBefore@?$CUtlVector@PAUbspbrush_t@@V?$CUtlMemory@PAUbspbrush_t@@@@@@QAEHHABQAUbspbrush_t@@@Z 0040f210 f i detail.obj
 0001:0000e280       ?AddToHead@?$CUtlVector@HV?$CUtlMemory@H@@@@QAEHABH@Z 0040f280 f i detail.obj
 0001:0000e290       ?AddToTail@?$CUtlVector@PAUbspbrush_t@@V?$CUtlMemory@PAUbspbrush_t@@@@@@QAEHABQAUbspbrush_t@@@Z 0040f290 f i detail.obj
 0001:0000e2b0       ?ClipFaceToBrush@@YA_NPAUface_t@@PAUbspbrush_t@@PAPAU1@@Z 0040f2b0 f   detail.obj
 0001:0000e5d0       ?GetListOfCutBrushes@@YAHAAV?$CUtlVector@PAUbspbrush_t@@V?$CUtlMemory@PAUbspbrush_t@@@@@@PAUbspbrush_t@@1@Z 0040f5d0 f   detail.obj
 0001:0000e720       ?ComputeVisibleBrushSides@@YAPAUface_t@@PAUbspbrush_t@@@Z 0040f720 f   detail.obj
 0001:0000e900       ?MergeDetailTree@@YAPAUface_t@@PAUtree_t@@HH@Z 0040f900 f   detail.obj
 0001:0000ea40       ?fabs@@YAMM@Z              0040fa40 f i detailObjects.obj
 0001:0000ea50       ??0CUtlSymbol@@QAE@XZ      0040fa50 f i detailObjects.obj
 0001:0000ea60       ??0CUtlSymbol@@QAE@ABV0@@Z 0040fa60 f i detailObjects.obj
 0001:0000ea70       ??4CUtlSymbol@@QAEAAV0@ABV0@@Z 0040fa70 f i detailObjects.obj
 0001:0000ea80       ??8CUtlSymbol@@QBE_NABV0@@Z 0040fa80 f i detailObjects.obj
 0001:0000eaa0       ??BCUtlSymbol@@QBE?BGXZ    0040faa0 f i detailObjects.obj
 0001:0000eab0       ??0Vector2D@@QAE@ABV0@@Z   0040fab0 f i detailObjects.obj
 0001:0000ead0       ?Init@Vector2D@@QAEXMM@Z   0040fad0 f i detailObjects.obj
 0001:0000eae0       ??4Vector2D@@QAEAAV0@ABV0@@Z 0040fae0 f i detailObjects.obj
 0001:0000eb00       ??_0Vector2D@@QAEAAV0@M@Z  0040fb00 f i detailObjects.obj
 0001:0000eb30       ?VectorDivide@@YAXABVVector@@MAAV1@@Z 0040fb30 f i detailObjects.obj
 0001:0000eb70       ??0QAngle@@QAE@XZ          0040fb70 f i detailObjects.obj
 0001:0000eb80       ?Init@QAngle@@QAEXMMM@Z    0040fb80 f i detailObjects.obj
 0001:0000eba0       ?VectorCopy@@YAXABVQAngle@@AAV1@@Z 0040fba0 f i detailObjects.obj
 0001:0000ebc0       ??0VMatrix@@QAE@XZ         0040fbc0 f i detailObjects.obj
 0001:0000ebd0       ?SetForward@VMatrix@@QAEXABVVector@@@Z 0040fbd0 f i detailObjects.obj
 0001:0000ebf0       ?SetLeft@VMatrix@@QAEXABVVector@@@Z 0040fbf0 f i detailObjects.obj
 0001:0000ec10       ?SetUp@VMatrix@@QAEXABVVector@@@Z 0040fc10 f i detailObjects.obj
 0001:0000ec30       ?SetBasisVectors@VMatrix@@QAEXABVVector@@00@Z 0040fc30 f i detailObjects.obj
 0001:0000ec80       ?SetTranslation@VMatrix@@QAEXABVVector@@@Z 0040fc80 f i detailObjects.obj
 0001:0000eca0       ?IsText@CUtlBuffer@@QBE_NXZ 0040fca0 f i detailObjects.obj
 0001:0000ecb0       ??8DetailObject_t@@QBE_NABU0@@Z 0040fcb0 f i detailObjects.obj
 0001:0000ed70       ??0DetailSpriteDictLump_t@@QAE@XZ 0040fd70 f i detailObjects.obj
 0001:0000ede0       ??0StaticPropLookup_t@@QAE@XZ 0040fde0 f i detailObjects.obj
 0001:0000ef80       ??A?$CUtlMemory@E@@QAEAAEH@Z 0040ff80 f i detailObjects.obj
 0001:0000ef90       ?Count@?$CUtlVector@UDetailModel_t@@V?$CUtlMemory@UDetailModel_t@@@@@@QBEHXZ 0040ff90 f i detailObjects.obj
 0001:0000efa0       ?Count@?$CUtlVector@UDetailObjectGroup_t@@V?$CUtlMemory@UDetailObjectGroup_t@@@@@@QBEHXZ 0040ffa0 f i detailObjects.obj
 0001:0000efb0       ?InvalidIndex@?$CUtlRBTree@UStaticPropLookup_t@@GP6A_NABU1@0@Z@@SAGXZ 0040ffb0 f i detailObjects.obj
 0001:0000efc0       ?Base@?$CUtlMemory@UDetailObjectDictLump_t@@@@QAEPAUDetailObjectDictLump_t@@XZ 0040ffc0 f i detailObjects.obj
 0001:0000efd0       ?Count@?$CUtlVector@UDetailObjectDictLump_t@@V?$CUtlMemory@UDetailObjectDictLump_t@@@@@@QBEHXZ 0040ffd0 f i detailObjects.obj
 0001:0000efe0       ?Base@?$CUtlMemory@UDetailObjectLump_t@@@@QAEPAUDetailObjectLump_t@@XZ 0040ffe0 f i detailObjects.obj
 0001:0000eff0       ?Count@?$CUtlVector@UDetailObjectLump_t@@V?$CUtlMemory@UDetailObjectLump_t@@@@@@QBEHXZ 0040fff0 f i detailObjects.obj
 0001:0000f000       ?Base@?$CUtlMemory@UDetailSpriteDictLump_t@@@@QAEPAUDetailSpriteDictLump_t@@XZ 00410000 f i detailObjects.obj
 0001:0000f010       ?Count@?$CUtlVector@UDetailSpriteDictLump_t@@V?$CUtlMemory@UDetailSpriteDictLump_t@@@@@@QBEHXZ 00410010 f i detailObjects.obj
 0001:0000f020       ?Base@?$CUtlMemory@UDetailObjectGroup_t@@@@QBEPBUDetailObjectGroup_t@@XZ 00410020 f i detailObjects.obj
 0001:0000f030       ?Base@?$CUtlMemory@UDetailObjectGroup_t@@@@QAEPAUDetailObjectGroup_t@@XZ 00410030 f i detailObjects.obj
 0001:0000f040       ?Count@?$CUtlVector@UDetailObject_t@@V?$CUtlMemory@UDetailObject_t@@@@@@QBEHXZ 00410040 f i detailObjects.obj
 0001:0000f050       ?Base@?$CUtlMemory@UDetailObject_t@@@@QAEPAUDetailObject_t@@XZ 00410050 f i detailObjects.obj
 0001:0000f060       ?Base@?$CUtlMemory@UNode_t@?$CUtlRBTree@UStaticPropLookup_t@@GP6A_NABU1@0@Z@@@@QAEPAUNode_t@?$CUtlRBTree@UStaticPropLookup_t@@GP6A_NABU1@0@Z@@XZ 00410060 f i detailObjects.obj
 0001:0000f070       ?Base@?$CUtlMemory@UDetailModel_t@@@@QBEPBUDetailModel_t@@XZ 00410070 f i detailObjects.obj
 0001:0000f080       ?Base@?$CUtlMemory@UDetailModel_t@@@@QAEPAUDetailModel_t@@XZ 00410080 f i detailObjects.obj
 0001:0000f090       ??0StaticPropLookup_t@@QAE@ABU0@@Z 00410090 f i detailObjects.obj
 0001:0000f0b0       ?ValidateGrowSize@?$CUtlMemory@UDetailObjectGroup_t@@@@IAEXXZ 004100b0 f i detailObjects.obj
 0001:0000f0c0       ?ValidateGrowSize@?$CUtlMemory@UDetailObject_t@@@@IAEXXZ 004100c0 f i detailObjects.obj
 0001:0000f0d0       ?ValidateGrowSize@?$CUtlMemory@UNode_t@?$CUtlRBTree@UStaticPropLookup_t@@GP6A_NABU1@0@Z@@@@IAEXXZ 004100d0 f i detailObjects.obj
 0001:0000f0e0       ?ValidateGrowSize@?$CUtlMemory@UDetailObjectDictLump_t@@@@IAEXXZ 004100e0 f i detailObjects.obj
 0001:0000f0f0       ?ValidateGrowSize@?$CUtlMemory@UDetailObjectLump_t@@@@IAEXXZ 004100f0 f i detailObjects.obj
 0001:0000f100       ?ValidateGrowSize@?$CUtlMemory@UDetailSpriteDictLump_t@@@@IAEXXZ 00410100 f i detailObjects.obj
 0001:0000f110       ?Base@?$CUtlMemory@UDetailObject_t@@@@QBEPBUDetailObject_t@@XZ 00410110 f i detailObjects.obj
 0001:0000f120       ??A?$CUtlMemory@UNode_t@?$CUtlRBTree@UStaticPropLookup_t@@GP6A_NABU1@0@Z@@@@QBEABUNode_t@?$CUtlRBTree@UStaticPropLookup_t@@GP6A_NABU1@0@Z@@H@Z 00410120 f i detailObjects.obj
 0001:0000f130       ??A?$CUtlMemory@UNode_t@?$CUtlRBTree@UStaticPropLookup_t@@GP6A_NABU1@0@Z@@@@QAEAAUNode_t@?$CUtlRBTree@UStaticPropLookup_t@@GP6A_NABU1@0@Z@@H@Z 00410130 f i detailObjects.obj
 0001:0000f140       ??$Destruct@UStaticPropLookup_t@@@@YAXPAUStaticPropLookup_t@@@Z 00410140 f i detailObjects.obj
 0001:0000f150       ??$CopyConstruct@UDetailObjectDictLump_t@@@@YAXPAUDetailObjectDictLump_t@@ABU0@@Z 00410150 f i detailObjects.obj
 0001:0000f170       ??0DetailModel_t@@QAE@XZ   00410170 f i detailObjects.obj
 0001:0000f180       ??0DetailObjectLump_t@@QAE@XZ 00410180 f i detailObjects.obj
 0001:0000f190       ??0DetailSpriteDictLump_t@@QAE@ABU0@@Z 00410190 f i detailObjects.obj
 0001:0000f1d0       ?NumAllocated@?$CUtlMemory@UDetailModel_t@@@@QBEHXZ 004101d0 f i detailObjects.obj
 0001:0000f1e0       ?NumAllocated@?$CUtlMemory@UDetailObjectGroup_t@@@@QBEHXZ 004101e0 f i detailObjects.obj
 0001:0000f1f0       ?IsExternallyAllocated@?$CUtlMemory@UDetailObjectGroup_t@@@@QBE_NXZ 004101f0 f i detailObjects.obj
 0001:0000f200       ?NumAllocated@?$CUtlMemory@UDetailObject_t@@@@QBEHXZ 00410200 f i detailObjects.obj
 0001:0000f210       ?IsExternallyAllocated@?$CUtlMemory@UDetailObject_t@@@@QBE_NXZ 00410210 f i detailObjects.obj
 0001:0000f220       ?Links@?$CUtlRBTree@UStaticPropLookup_t@@GP6A_NABU1@0@Z@@IAEAAULinks_t@1@G@Z 00410220 f i detailObjects.obj
 0001:0000f240       ?IsIdxValid@?$CUtlMemory@UNode_t@?$CUtlRBTree@UStaticPropLookup_t@@GP6A_NABU1@0@Z@@@@QBE_NH@Z 00410240 f i detailObjects.obj
 0001:0000f260       ?NumAllocated@?$CUtlMemory@UNode_t@?$CUtlRBTree@UStaticPropLookup_t@@GP6A_NABU1@0@Z@@@@QBEHXZ 00410260 f i detailObjects.obj
 0001:0000f270       ?IsExternallyAllocated@?$CUtlMemory@UNode_t@?$CUtlRBTree@UStaticPropLookup_t@@GP6A_NABU1@0@Z@@@@QBE_NXZ 00410270 f i detailObjects.obj
 0001:0000f280       ??$Construct@UStaticPropLookup_t@@@@YAXPAUStaticPropLookup_t@@@Z 00410280 f i detailObjects.obj
 0001:0000f290       ?NumAllocated@?$CUtlMemory@UDetailObjectDictLump_t@@@@QBEHXZ 00410290 f i detailObjects.obj
 0001:0000f2a0       ?IsExternallyAllocated@?$CUtlMemory@UDetailObjectDictLump_t@@@@QBE_NXZ 004102a0 f i detailObjects.obj
 0001:0000f2b0       ??$Destruct@UDetailObjectDictLump_t@@@@YAXPAUDetailObjectDictLump_t@@@Z 004102b0 f i detailObjects.obj
 0001:0000f2c0       ?NumAllocated@?$CUtlMemory@UDetailObjectLump_t@@@@QBEHXZ 004102c0 f i detailObjects.obj
 0001:0000f2d0       ?IsExternallyAllocated@?$CUtlMemory@UDetailObjectLump_t@@@@QBE_NXZ 004102d0 f i detailObjects.obj
 0001:0000f2e0       ??$Destruct@UDetailObjectLump_t@@@@YAXPAUDetailObjectLump_t@@@Z 004102e0 f i detailObjects.obj
 0001:0000f2f0       ?NumAllocated@?$CUtlMemory@UDetailSpriteDictLump_t@@@@QBEHXZ 004102f0 f i detailObjects.obj
 0001:0000f300       ?IsExternallyAllocated@?$CUtlMemory@UDetailSpriteDictLump_t@@@@QBE_NXZ 00410300 f i detailObjects.obj
 0001:0000f310       ??$Destruct@UDetailSpriteDictLump_t@@@@YAXPAUDetailSpriteDictLump_t@@@Z 00410310 f i detailObjects.obj
 0001:0000f320       ?IsExternallyAllocated@?$CUtlMemory@UDetailModel_t@@@@QBE_NXZ 00410320 f i detailObjects.obj
 0001:0000f330       ?IsRoot@?$CUtlRBTree@UStaticPropLookup_t@@GP6A_NABU1@0@Z@@QBE_NG@Z 00410330 f i detailObjects.obj
 0001:0000f350       ?SetColor@?$CUtlRBTree@UStaticPropLookup_t@@GP6A_NABU1@0@Z@@IAEXGW4NodeColor_t@1@@Z 00410350 f i detailObjects.obj
 0001:0000f370       ?ValidateGrowSize@?$CUtlMemory@UDetailModel_t@@@@IAEXXZ 00410370 f i detailObjects.obj
 0001:0000f380       ?Purge@?$CUtlMemory@UDetailModel_t@@@@QAEXXZ 00410380 f i detailObjects.obj
 0001:0000f3b0       ?SetParent@?$CUtlRBTree@UStaticPropLookup_t@@GP6A_NABU1@0@Z@@IAEXGG@Z 004103b0 f i detailObjects.obj
 0001:0000f3d0       ?SetLeftChild@?$CUtlRBTree@UStaticPropLookup_t@@GP6A_NABU1@0@Z@@IAEXGG@Z 004103d0 f i detailObjects.obj
 0001:0000f3f0       ?SetRightChild@?$CUtlRBTree@UStaticPropLookup_t@@GP6A_NABU1@0@Z@@IAEXGG@Z 004103f0 f i detailObjects.obj
 0001:0000f410       ??$Destruct@UDetailModel_t@@@@YAXPAUDetailModel_t@@@Z 00410410 f i detailObjects.obj
 0001:0000f420       ?PeekPut@CUtlBuffer@@QAEPAXH@Z 00410420 f i detailObjects.obj
 0001:0000f430       ?PutLittleEndianData@CUtlBuffer@@IAEXHPAX@Z 00410430 f i detailObjects.obj
 0001:0000f470       ?Base@?$CUtlVector@UDetailObjectDictLump_t@@V?$CUtlMemory@UDetailObjectDictLump_t@@@@@@QAEPAUDetailObjectDictLump_t@@XZ 00410470 f i detailObjects.obj
 0001:0000f480       ?Base@?$CUtlVector@UDetailObjectLump_t@@V?$CUtlMemory@UDetailObjectLump_t@@@@@@QAEPAUDetailObjectLump_t@@XZ 00410480 f i detailObjects.obj
 0001:0000f490       ?Base@?$CUtlVector@UDetailSpriteDictLump_t@@V?$CUtlMemory@UDetailSpriteDictLump_t@@@@@@QAEPAUDetailSpriteDictLump_t@@XZ 00410490 f i detailObjects.obj
 0001:0000f4a0       ??A?$CUtlVector@UDetailObjectDictLump_t@@V?$CUtlMemory@UDetailObjectDictLump_t@@@@@@QAEAAUDetailObjectDictLump_t@@H@Z 004104a0 f i detailObjects.obj
 0001:0000f4b0       ??A?$CUtlVector@UDetailObjectLump_t@@V?$CUtlMemory@UDetailObjectLump_t@@@@@@QAEAAUDetailObjectLump_t@@H@Z 004104b0 f i detailObjects.obj
 0001:0000f4c0       ??A?$CUtlVector@UDetailSpriteDictLump_t@@V?$CUtlMemory@UDetailSpriteDictLump_t@@@@@@QAEAAUDetailSpriteDictLump_t@@H@Z 004104c0 f i detailObjects.obj
 0001:0000f4d0       ?Base@?$CUtlVector@UDetailModel_t@@V?$CUtlMemory@UDetailModel_t@@@@@@QAEPAUDetailModel_t@@XZ 004104d0 f i detailObjects.obj
 0001:0000f4e0       ?Base@?$CUtlVector@UDetailModel_t@@V?$CUtlMemory@UDetailModel_t@@@@@@QBEPBUDetailModel_t@@XZ 004104e0 f i detailObjects.obj
 0001:0000f4f0       ?Base@?$CUtlVector@UDetailObjectGroup_t@@V?$CUtlMemory@UDetailObjectGroup_t@@@@@@QAEPAUDetailObjectGroup_t@@XZ 004104f0 f i detailObjects.obj
 0001:0000f500       ?Base@?$CUtlVector@UDetailObjectGroup_t@@V?$CUtlMemory@UDetailObjectGroup_t@@@@@@QBEPBUDetailObjectGroup_t@@XZ 00410500 f i detailObjects.obj
 0001:0000f510       ?ResetDbgInfo@?$CUtlVector@UDetailObjectGroup_t@@V?$CUtlMemory@UDetailObjectGroup_t@@@@@@IAEXXZ 00410510 f i detailObjects.obj
 0001:0000f520       ?Base@?$CUtlVector@UDetailObject_t@@V?$CUtlMemory@UDetailObject_t@@@@@@QAEPAUDetailObject_t@@XZ 00410520 f i detailObjects.obj
 0001:0000f530       ?ResetDbgInfo@?$CUtlVector@UDetailObject_t@@V?$CUtlMemory@UDetailObject_t@@@@@@IAEXXZ 00410530 f i detailObjects.obj
 0001:0000f540       ?ResetDbgInfo@?$CUtlRBTree@UStaticPropLookup_t@@GP6A_NABU1@0@Z@@IAEXXZ 00410540 f i detailObjects.obj
 0001:0000f550       ?ResetDbgInfo@?$CUtlVector@UDetailObjectDictLump_t@@V?$CUtlMemory@UDetailObjectDictLump_t@@@@@@IAEXXZ 00410550 f i detailObjects.obj
 0001:0000f560       ?ResetDbgInfo@?$CUtlVector@UDetailObjectLump_t@@V?$CUtlMemory@UDetailObjectLump_t@@@@@@IAEXXZ 00410560 f i detailObjects.obj
 0001:0000f570       ?ResetDbgInfo@?$CUtlVector@UDetailSpriteDictLump_t@@V?$CUtlMemory@UDetailSpriteDictLump_t@@@@@@IAEXXZ 00410570 f i detailObjects.obj
 0001:0000f580       ??$PutTypeBin@H@CUtlBuffer@@IAEXH@Z 00410580 f i detailObjects.obj
 0001:0000f5d0       ??0?$CUtlMemory@UDetailObjectGroup_t@@@@QAE@HH@Z 004105d0 f i detailObjects.obj
 0001:0000f610       ??0?$CUtlMemory@UDetailObject_t@@@@QAE@HH@Z 00410610 f i detailObjects.obj
 0001:0000f660       ?Element@?$CUtlRBTree@UStaticPropLookup_t@@GP6A_NABU1@0@Z@@QBEABUStaticPropLookup_t@@G@Z 00410660 f i detailObjects.obj
 0001:0000f680       ?Element@?$CUtlRBTree@UStaticPropLookup_t@@GP6A_NABU1@0@Z@@QAEAAUStaticPropLookup_t@@G@Z 00410680 f i detailObjects.obj
 0001:0000f6a0       ??0?$CUtlMemory@UNode_t@?$CUtlRBTree@UStaticPropLookup_t@@GP6A_NABU1@0@Z@@@@QAE@HH@Z 004106a0 f i detailObjects.obj
 0001:0000f6e0       ??$CopyConstruct@UStaticPropLookup_t@@@@YAXPAUStaticPropLookup_t@@ABU0@@Z 004106e0 f i detailObjects.obj
 0001:0000f700       ??0?$CUtlMemory@UDetailObjectDictLump_t@@@@QAE@HH@Z 00410700 f i detailObjects.obj
 0001:0000f740       ??0?$CUtlMemory@UDetailObjectLump_t@@@@QAE@HH@Z 00410740 f i detailObjects.obj
 0001:0000f780       ??0?$CUtlMemory@UDetailSpriteDictLump_t@@@@QAE@HH@Z 00410780 f i detailObjects.obj
 0001:0000f7c0       ?Base@?$CUtlVector@UDetailObject_t@@V?$CUtlMemory@UDetailObject_t@@@@@@QBEPBUDetailObject_t@@XZ 004107c0 f i detailObjects.obj
 0001:0000f7d0       ?Element@?$CUtlVector@UDetailModel_t@@V?$CUtlMemory@UDetailModel_t@@@@@@QAEAAUDetailModel_t@@H@Z 004107d0 f i detailObjects.obj
 0001:0000f7f0       ?ShiftElementsRight@?$CUtlVector@UDetailModel_t@@V?$CUtlMemory@UDetailModel_t@@@@@@IAEXHH@Z 004107f0 f i detailObjects.obj
 0001:0000f840       ??$Construct@UDetailModel_t@@@@YAXPAUDetailModel_t@@@Z 00410840 f i detailObjects.obj
 0001:0000f850       ?Element@?$CUtlVector@UDetailObjectGroup_t@@V?$CUtlMemory@UDetailObjectGroup_t@@@@@@QAEAAUDetailObjectGroup_t@@H@Z 00410850 f i detailObjects.obj
 0001:0000f860       ?ShiftElementsRight@?$CUtlVector@UDetailObjectGroup_t@@V?$CUtlMemory@UDetailObjectGroup_t@@@@@@IAEXHH@Z 00410860 f i detailObjects.obj
 0001:0000f8b0       ?Purge@?$CUtlMemory@UDetailObjectGroup_t@@@@QAEXXZ 004108b0 f i detailObjects.obj
 0001:0000f8e0       ?Element@?$CUtlVector@UDetailObject_t@@V?$CUtlMemory@UDetailObject_t@@@@@@QAEAAUDetailObject_t@@H@Z 004108e0 f i detailObjects.obj
 0001:0000f900       ?ShiftElementsRight@?$CUtlVector@UDetailObject_t@@V?$CUtlMemory@UDetailObject_t@@@@@@IAEXHH@Z 00410900 f i detailObjects.obj
 0001:0000f960       ?Purge@?$CUtlMemory@UDetailObject_t@@@@QAEXXZ 00410960 f i detailObjects.obj
 0001:0000f990       ?Links@?$CUtlRBTree@UStaticPropLookup_t@@GP6A_NABU1@0@Z@@IBEABULinks_t@1@G@Z 00410990 f i detailObjects.obj
 0001:0000f9f0       ?Purge@?$CUtlMemory@UNode_t@?$CUtlRBTree@UStaticPropLookup_t@@GP6A_NABU1@0@Z@@@@QAEXXZ 004109f0 f i detailObjects.obj
 0001:0000fa20       ?Purge@?$CUtlMemory@UDetailObjectDictLump_t@@@@QAEXXZ 00410a20 f i detailObjects.obj
 0001:0000fa50       ?Element@?$CUtlVector@UDetailObjectDictLump_t@@V?$CUtlMemory@UDetailObjectDictLump_t@@@@@@QAEAAUDetailObjectDictLump_t@@H@Z 00410a50 f i detailObjects.obj
 0001:0000fa60       ?RemoveAll@?$CUtlVector@UDetailObjectDictLump_t@@V?$CUtlMemory@UDetailObjectDictLump_t@@@@@@QAEXXZ 00410a60 f i detailObjects.obj
 0001:0000fa70       ?ShiftElementsRight@?$CUtlVector@UDetailObjectDictLump_t@@V?$CUtlMemory@UDetailObjectDictLump_t@@@@@@IAEXHH@Z 00410a70 f i detailObjects.obj
 0001:0000fab0       ?Purge@?$CUtlMemory@UDetailObjectLump_t@@@@QAEXXZ 00410ab0 f i detailObjects.obj
 0001:0000fae0       ?Element@?$CUtlVector@UDetailObjectLump_t@@V?$CUtlMemory@UDetailObjectLump_t@@@@@@QAEAAUDetailObjectLump_t@@H@Z 00410ae0 f i detailObjects.obj
 0001:0000faf0       ?RemoveAll@?$CUtlVector@UDetailObjectLump_t@@V?$CUtlMemory@UDetailObjectLump_t@@@@@@QAEXXZ 00410af0 f i detailObjects.obj
 0001:0000fb00       ?ShiftElementsRight@?$CUtlVector@UDetailObjectLump_t@@V?$CUtlMemory@UDetailObjectLump_t@@@@@@IAEXHH@Z 00410b00 f i detailObjects.obj
 0001:0000fb40       ??$Construct@UDetailObjectLump_t@@@@YAXPAUDetailObjectLump_t@@@Z 00410b40 f i detailObjects.obj
 0001:0000fb50       ?Purge@?$CUtlMemory@UDetailSpriteDictLump_t@@@@QAEXXZ 00410b50 f i detailObjects.obj
 0001:0000fb80       ?Element@?$CUtlVector@UDetailSpriteDictLump_t@@V?$CUtlMemory@UDetailSpriteDictLump_t@@@@@@QAEAAUDetailSpriteDictLump_t@@H@Z 00410b80 f i detailObjects.obj
 0001:0000fb90       ?RemoveAll@?$CUtlVector@UDetailSpriteDictLump_t@@V?$CUtlMemory@UDetailSpriteDictLump_t@@@@@@QAEXXZ 00410b90 f i detailObjects.obj
 0001:0000fba0       ?ShiftElementsRight@?$CUtlVector@UDetailSpriteDictLump_t@@V?$CUtlMemory@UDetailSpriteDictLump_t@@@@@@IAEXHH@Z 00410ba0 f i detailObjects.obj
 0001:0000fbe0       ??$CopyConstruct@UDetailSpriteDictLump_t@@@@YAXPAUDetailSpriteDictLump_t@@ABU0@@Z 00410be0 f i detailObjects.obj
 0001:0000fc20       ?ResetDbgInfo@?$CUtlVector@UDetailModel_t@@V?$CUtlMemory@UDetailModel_t@@@@@@IAEXXZ 00410c20 f i detailObjects.obj
 0001:0000fc30       ?Grow@?$CUtlMemory@UDetailModel_t@@@@QAEXH@Z 00410c30 f i detailObjects.obj
 0001:0000fcc0       ?Grow@?$CUtlMemory@UDetailObjectGroup_t@@@@QAEXH@Z 00410cc0 f i detailObjects.obj
 0001:0000fd40       ?Grow@?$CUtlMemory@UDetailObject_t@@@@QAEXH@Z 00410d40 f i detailObjects.obj
 0001:0000fdd0       ?Grow@?$CUtlMemory@UNode_t@?$CUtlRBTree@UStaticPropLookup_t@@GP6A_NABU1@0@Z@@@@QAEXH@Z 00410dd0 f i detailObjects.obj
 0001:0000fe40       ?Grow@?$CUtlMemory@UDetailObjectDictLump_t@@@@QAEXH@Z 00410e40 f i detailObjects.obj
 0001:0000feb0       ?Grow@?$CUtlMemory@UDetailObjectLump_t@@@@QAEXH@Z 00410eb0 f i detailObjects.obj
 0001:0000ff20       ?Grow@?$CUtlMemory@UDetailSpriteDictLump_t@@@@QAEXH@Z 00410f20 f i detailObjects.obj
 0001:0000ff90       ??0?$CUtlMemory@UDetailModel_t@@@@QAE@HH@Z 00410f90 f i detailObjects.obj
 0001:0000ffd0       ??1?$CUtlMemory@UDetailModel_t@@@@QAE@XZ 00410fd0 f i detailObjects.obj
 0001:00010000       ?Parent@?$CUtlRBTree@UStaticPropLookup_t@@GP6A_NABU1@0@Z@@QBEGG@Z 00411000 f i detailObjects.obj
 0001:00010020       ?IsRed@?$CUtlRBTree@UStaticPropLookup_t@@GP6A_NABU1@0@Z@@IBE_NG@Z 00411020 f i detailObjects.obj
 0001:00010040       ?Color@?$CUtlRBTree@UStaticPropLookup_t@@GP6A_NABU1@0@Z@@IBE?AW4NodeColor_t@1@G@Z 00411040 f i detailObjects.obj
 0001:00010060       ?RemoveAll@?$CUtlVector@UDetailModel_t@@V?$CUtlMemory@UDetailModel_t@@@@@@QAEXXZ 00411060 f i detailObjects.obj
 0001:00010070       ??$PutType@H@CUtlBuffer@@IAEXHPBD@Z 00411070 f i detailObjects.obj
 0001:000100a0       ??A?$CUtlVector@UDetailModel_t@@V?$CUtlMemory@UDetailModel_t@@@@@@QBEABUDetailModel_t@@H@Z 004110a0 f i detailObjects.obj
 0001:000100c0       ??A?$CUtlVector@UDetailModel_t@@V?$CUtlMemory@UDetailModel_t@@@@@@QAEAAUDetailModel_t@@H@Z 004110c0 f i detailObjects.obj
 0001:000100e0       ??A?$CUtlVector@UDetailObjectGroup_t@@V?$CUtlMemory@UDetailObjectGroup_t@@@@@@QBEABUDetailObjectGroup_t@@H@Z 004110e0 f i detailObjects.obj
 0001:000100f0       ??A?$CUtlVector@UDetailObjectGroup_t@@V?$CUtlMemory@UDetailObjectGroup_t@@@@@@QAEAAUDetailObjectGroup_t@@H@Z 004110f0 f i detailObjects.obj
 0001:00010100       ??A?$CUtlVector@UDetailObject_t@@V?$CUtlMemory@UDetailObject_t@@@@@@QAEAAUDetailObject_t@@H@Z 00411100 f i detailObjects.obj
 0001:00010120       ??A?$CUtlRBTree@UStaticPropLookup_t@@GP6A_NABU1@0@Z@@QAEAAUStaticPropLookup_t@@G@Z 00411120 f i detailObjects.obj
 0001:00010140       ??1?$CUtlMemory@UDetailObjectGroup_t@@@@QAE@XZ 00411140 f i detailObjects.obj
 0001:00010170       ?Element@?$CUtlVector@UDetailObject_t@@V?$CUtlMemory@UDetailObject_t@@@@@@QBEABUDetailObject_t@@H@Z 00411170 f i detailObjects.obj
 0001:00010190       ??1?$CUtlMemory@UDetailObject_t@@@@QAE@XZ 00411190 f i detailObjects.obj
 0001:000101c0       ?LeftChild@?$CUtlRBTree@UStaticPropLookup_t@@GP6A_NABU1@0@Z@@QBEGG@Z 004111c0 f i detailObjects.obj
 0001:000101d0       ?RightChild@?$CUtlRBTree@UStaticPropLookup_t@@GP6A_NABU1@0@Z@@QBEGG@Z 004111d0 f i detailObjects.obj
 0001:000101f0       ?FindInsertionPosition@?$CUtlRBTree@UStaticPropLookup_t@@GP6A_NABU1@0@Z@@IAEXABUStaticPropLookup_t@@AAGAA_N@Z 004111f0 f i detailObjects.obj
 0001:00010300       ??1?$CUtlMemory@UNode_t@?$CUtlRBTree@UStaticPropLookup_t@@GP6A_NABU1@0@Z@@@@QAE@XZ 00411300 f i detailObjects.obj
 0001:00010330       ??1?$CUtlMemory@UDetailObjectDictLump_t@@@@QAE@XZ 00411330 f i detailObjects.obj
 0001:00010360       ?Purge@?$CUtlVector@UDetailObjectDictLump_t@@V?$CUtlMemory@UDetailObjectDictLump_t@@@@@@QAEXXZ 00411360 f i detailObjects.obj
 0001:000103b0       ??1?$CUtlMemory@UDetailObjectLump_t@@@@QAE@XZ 004113b0 f i detailObjects.obj
 0001:000103e0       ?Purge@?$CUtlVector@UDetailObjectLump_t@@V?$CUtlMemory@UDetailObjectLump_t@@@@@@QAEXXZ 004113e0 f i detailObjects.obj
 0001:00010430       ??1?$CUtlMemory@UDetailSpriteDictLump_t@@@@QAE@XZ 00411430 f i detailObjects.obj
 0001:00010460       ?Purge@?$CUtlVector@UDetailSpriteDictLump_t@@V?$CUtlMemory@UDetailSpriteDictLump_t@@@@@@QAEXXZ 00411460 f i detailObjects.obj
 0001:000104b0       ?GrowVector@?$CUtlVector@UDetailModel_t@@V?$CUtlMemory@UDetailModel_t@@@@@@IAEXH@Z 004114b0 f i detailObjects.obj
 0001:000104e0       ?GrowVector@?$CUtlVector@UDetailObjectGroup_t@@V?$CUtlMemory@UDetailObjectGroup_t@@@@@@IAEXH@Z 004114e0 f i detailObjects.obj
 0001:00010510       ?GrowVector@?$CUtlVector@UDetailObject_t@@V?$CUtlMemory@UDetailObject_t@@@@@@IAEXH@Z 00411510 f i detailObjects.obj
 0001:00010540       ?IsValidIndex@?$CUtlRBTree@UStaticPropLookup_t@@GP6A_NABU1@0@Z@@QBE_NG@Z 00411540 f i detailObjects.obj
 0001:00010570       ?NewNode@?$CUtlRBTree@UStaticPropLookup_t@@GP6A_NABU1@0@Z@@QAEGXZ 00411570 f i detailObjects.obj
 0001:000105e0       ?GrowVector@?$CUtlVector@UDetailObjectDictLump_t@@V?$CUtlMemory@UDetailObjectDictLump_t@@@@@@IAEXH@Z 004115e0 f i detailObjects.obj
 0001:00010610       ?GrowVector@?$CUtlVector@UDetailObjectLump_t@@V?$CUtlMemory@UDetailObjectLump_t@@@@@@IAEXH@Z 00411610 f i detailObjects.obj
 0001:00010640       ?GrowVector@?$CUtlVector@UDetailSpriteDictLump_t@@V?$CUtlMemory@UDetailSpriteDictLump_t@@@@@@IAEXH@Z 00411640 f i detailObjects.obj
 0001:00010670       ??0?$CUtlVector@UDetailModel_t@@V?$CUtlMemory@UDetailModel_t@@@@@@QAE@HH@Z 00411670 f i detailObjects.obj
 0001:000106c0       ?Purge@?$CUtlVector@UDetailModel_t@@V?$CUtlMemory@UDetailModel_t@@@@@@QAEXXZ 004116c0 f i detailObjects.obj
 0001:00010710       ?IsLeftChild@?$CUtlRBTree@UStaticPropLookup_t@@GP6A_NABU1@0@Z@@QBE_NG@Z 00411710 f i detailObjects.obj
 0001:00010740       ?IsRightChild@?$CUtlRBTree@UStaticPropLookup_t@@GP6A_NABU1@0@Z@@QBE_NG@Z 00411740 f i detailObjects.obj
 0001:00010770       ?RotateLeft@?$CUtlRBTree@UStaticPropLookup_t@@GP6A_NABU1@0@Z@@IAEXG@Z 00411770 f i detailObjects.obj
 0001:00010870       ?RotateRight@?$CUtlRBTree@UStaticPropLookup_t@@GP6A_NABU1@0@Z@@IAEXG@Z 00411870 f i detailObjects.obj
 0001:00010970       ?PutInt@CUtlBuffer@@QAEXH@Z 00411970 f i detailObjects.obj
 0001:00010ca0       ??0?$CUtlVector@UDetailObjectGroup_t@@V?$CUtlMemory@UDetailObjectGroup_t@@@@@@QAE@HH@Z 00411ca0 f i detailObjects.obj
 0001:00010cf0       ??0?$CUtlVector@UDetailObject_t@@V?$CUtlMemory@UDetailObject_t@@@@@@QAE@HH@Z 00411cf0 f i detailObjects.obj
 0001:00010d40       ?Find@?$CUtlVector@UDetailObject_t@@V?$CUtlMemory@UDetailObject_t@@@@@@QBEHABUDetailObject_t@@@Z 00411d40 f i detailObjects.obj
 0001:00010d70       ??0?$CUtlRBTree@UStaticPropLookup_t@@GP6A_NABU1@0@Z@@QAE@HHABQ6A_NABUStaticPropLookup_t@@0@Z@Z 00411d70 f i detailObjects.obj
 0001:00010de0       ?Find@?$CUtlRBTree@UStaticPropLookup_t@@GP6A_NABU1@0@Z@@QBEGABUStaticPropLookup_t@@@Z 00411de0 f i detailObjects.obj
 0001:00010ef0       ??0?$CUtlVector@UDetailObjectDictLump_t@@V?$CUtlMemory@UDetailObjectDictLump_t@@@@@@QAE@HH@Z 00411ef0 f i detailObjects.obj
 0001:00010f40       ??1?$CUtlVector@UDetailObjectDictLump_t@@V?$CUtlMemory@UDetailObjectDictLump_t@@@@@@QAE@XZ 00411f40 f i detailObjects.obj
 0001:00010fb0       ??0?$CUtlVector@UDetailObjectLump_t@@V?$CUtlMemory@UDetailObjectLump_t@@@@@@QAE@HH@Z 00411fb0 f i detailObjects.obj
 0001:00011000       ??1?$CUtlVector@UDetailObjectLump_t@@V?$CUtlMemory@UDetailObjectLump_t@@@@@@QAE@XZ 00412000 f i detailObjects.obj
 0001:00011070       ??0?$CUtlVector@UDetailSpriteDictLump_t@@V?$CUtlMemory@UDetailSpriteDictLump_t@@@@@@QAE@HH@Z 00412070 f i detailObjects.obj
 0001:000110c0       ??1?$CUtlVector@UDetailSpriteDictLump_t@@V?$CUtlMemory@UDetailSpriteDictLump_t@@@@@@QAE@XZ 004120c0 f i detailObjects.obj
 0001:00011130       ?InsertBefore@?$CUtlVector@UDetailModel_t@@V?$CUtlMemory@UDetailModel_t@@@@@@QAEHH@Z 00412130 f i detailObjects.obj
 0001:000111b0       ?Purge@?$CUtlRBTree@UStaticPropLookup_t@@GP6A_NABU1@0@Z@@QAEXXZ 004121b0 f i detailObjects.obj
 0001:00011250       ?InsertBefore@?$CUtlVector@UDetailObjectDictLump_t@@V?$CUtlMemory@UDetailObjectDictLump_t@@@@@@QAEHHABUDetailObjectDictLump_t@@@Z 00412250 f i detailObjects.obj
 0001:000112c0       ?InsertBefore@?$CUtlVector@UDetailObjectLump_t@@V?$CUtlMemory@UDetailObjectLump_t@@@@@@QAEHH@Z 004122c0 f i detailObjects.obj
 0001:00011320       ?InsertBefore@?$CUtlVector@UDetailSpriteDictLump_t@@V?$CUtlMemory@UDetailSpriteDictLump_t@@@@@@QAEHHABUDetailSpriteDictLump_t@@@Z 00412320 f i detailObjects.obj
 0001:000113c0       ??1?$CUtlVector@UDetailModel_t@@V?$CUtlMemory@UDetailModel_t@@@@@@QAE@XZ 004123c0 f i detailObjects.obj
 0001:00011430       ?InsertRebalance@?$CUtlRBTree@UStaticPropLookup_t@@GP6A_NABU1@0@Z@@IAEXG@Z 00412430 f i detailObjects.obj
 0001:000119a0       ??1DetailObjectGroup_t@@QAE@XZ 004129a0 f i detailObjects.obj
 0001:000119b0       ?AddToTail@?$CUtlVector@UDetailModel_t@@V?$CUtlMemory@UDetailModel_t@@@@@@QAEHXZ 004129b0 f i detailObjects.obj
 0001:000119c0       ??1?$CUtlRBTree@UStaticPropLookup_t@@GP6A_NABU1@0@Z@@QAE@XZ 004129c0 f i detailObjects.obj
 0001:00011a00       ?AddToTail@?$CUtlVector@UDetailObjectDictLump_t@@V?$CUtlMemory@UDetailObjectDictLump_t@@@@@@QAEHABUDetailObjectDictLump_t@@@Z 00412a00 f i detailObjects.obj
 0001:00011a20       ?AddToTail@?$CUtlVector@UDetailObjectLump_t@@V?$CUtlMemory@UDetailObjectLump_t@@@@@@QAEHXZ 00412a20 f i detailObjects.obj
 0001:00011a30       ?AddToTail@?$CUtlVector@UDetailSpriteDictLump_t@@V?$CUtlMemory@UDetailSpriteDictLump_t@@@@@@QAEHABUDetailSpriteDictLump_t@@@Z 00412a30 f i detailObjects.obj
 0001:00011a50       ?LinkToParent@?$CUtlRBTree@UStaticPropLookup_t@@GP6A_NABU1@0@Z@@IAEXGG_N@Z 00412a50 f i detailObjects.obj
 0001:00011ac0       ??0DetailObjectGroup_t@@QAE@XZ 00412ac0 f i detailObjects.obj
 0001:00011ae0       ??_GDetailObjectGroup_t@@QAEPAXI@Z 00412ae0 f i detailObjects.obj
 0001:00011ea0       ?InsertAt@?$CUtlRBTree@UStaticPropLookup_t@@GP6A_NABU1@0@Z@@IAEGG_N@Z 00412ea0 f i detailObjects.obj
 0001:00011ed0       ??$Construct@UDetailObjectGroup_t@@@@YAXPAUDetailObjectGroup_t@@@Z 00412ed0 f i detailObjects.obj
 0001:00011ef0       ??$Destruct@UDetailObjectGroup_t@@@@YAXPAUDetailObjectGroup_t@@@Z 00412ef0 f i detailObjects.obj
 0001:00011f00       ?Insert@?$CUtlRBTree@UStaticPropLookup_t@@GP6A_NABU1@0@Z@@QAEGABUStaticPropLookup_t@@@Z 00412f00 f i detailObjects.obj
 0001:00011f70       ?InsertBefore@?$CUtlVector@UDetailObjectGroup_t@@V?$CUtlMemory@UDetailObjectGroup_t@@@@@@QAEHH@Z 00412f70 f i detailObjects.obj
 0001:00011ff0       ?RemoveAll@?$CUtlVector@UDetailObjectGroup_t@@V?$CUtlMemory@UDetailObjectGroup_t@@@@@@QAEXXZ 00412ff0 f i detailObjects.obj
 0001:00012980       ?InsertAfter@?$CUtlVector@UDetailObjectGroup_t@@V?$CUtlMemory@UDetailObjectGroup_t@@@@@@QAEHH@Z 00413980 f i detailObjects.obj
 0001:00012990       ?Purge@?$CUtlVector@UDetailObjectGroup_t@@V?$CUtlMemory@UDetailObjectGroup_t@@@@@@QAEXXZ 00413990 f i detailObjects.obj
 0001:00012f40       ??1?$CUtlVector@UDetailObjectGroup_t@@V?$CUtlMemory@UDetailObjectGroup_t@@@@@@QAE@XZ 00413f40 f i detailObjects.obj
 0001:00012fa0       ??0DetailObject_t@@QAE@XZ  00413fa0 f i detailObjects.obj
 0001:00012fc0       ??1DetailObject_t@@QAE@XZ  00413fc0 f i detailObjects.obj
 0001:00012fd0       ??$Construct@UDetailObject_t@@@@YAXPAUDetailObject_t@@@Z 00413fd0 f i detailObjects.obj
 0001:00012ff0       ??_GDetailObject_t@@QAEPAXI@Z 00413ff0 f i detailObjects.obj
 0001:00013020       ?EmitDetailModels@@YAXXZ   00414020 f   detailObjects.obj
 0001:000133e0       ?EmitDetailObjects@@YAXXZ  004143e0 f   detailObjects.obj
 0001:00013420       ?InsertBefore@?$CUtlVector@UDetailObject_t@@V?$CUtlMemory@UDetailObject_t@@@@@@QAEHH@Z 00414420 f i detailObjects.obj
 0001:000134b0       ??$Destruct@UDetailObject_t@@@@YAXPAUDetailObject_t@@@Z 004144b0 f i detailObjects.obj
 0001:000134c0       ?AddToTail@?$CUtlVector@UDetailObject_t@@V?$CUtlMemory@UDetailObject_t@@@@@@QAEHXZ 004144c0 f i detailObjects.obj
 0001:000134d0       ?RemoveAll@?$CUtlVector@UDetailObject_t@@V?$CUtlMemory@UDetailObject_t@@@@@@QAEXXZ 004144d0 f i detailObjects.obj
 0001:00013640       ?LoadEmitDetailObjectDictionary@@YAXPBD@Z 00414640 f   detailObjects.obj
 0001:00013690       ?Purge@?$CUtlVector@UDetailObject_t@@V?$CUtlMemory@UDetailObject_t@@@@@@QAEXXZ 00414690 f i detailObjects.obj
 0001:000136d0       ??1?$CUtlVector@UDetailObject_t@@V?$CUtlMemory@UDetailObject_t@@@@@@QAE@XZ 004146d0 f i detailObjects.obj
 0001:00013730       ??0CVertIndex@@QAE@XZ      00414730 f i disp_common.obj
 0001:00013740       ??0CVertIndex@@QAE@FF@Z    00414740 f i disp_common.obj
 0001:00013760       ?Init@CVertIndex@@QAEXFF@Z 00414760 f i disp_common.obj
 0001:00013780       ??ACVertIndex@@QAEAAFF@Z   00414780 f i disp_common.obj
 0001:00013790       ??ACVertIndex@@QBEABFF@Z   00414790 f i disp_common.obj
 0001:000137a0       ??YCVertIndex@@QAEXABV0@@Z 004147a0 f i disp_common.obj
 0001:000137c0       ??ZCVertIndex@@QAEXABV0@@Z 004147c0 f i disp_common.obj
 0001:000137e0       ??9CVertIndex@@QBE_NABV0@@Z 004147e0 f i disp_common.obj
 0001:00013810       ?VectorsAreEqual@@YA_NABVVector@@0M@Z 00414810 f i disp_common.obj
 0001:000138a0       ?VectorMin@@YAXABVVector@@0AAV1@@Z 004148a0 f i disp_common.obj
 0001:00013920       ?VectorMax@@YAXABVVector@@0AAV1@@Z 00414920 f i disp_common.obj
 0001:000139a0       ?GetNeighborIndex@CDispSubNeighbor@@QBEGXZ 004149a0 f i disp_common.obj
 0001:000139b0       ?GetSpan@CDispSubNeighbor@@QBE?AW4NeighborSpan@@XZ 004149b0 f i disp_common.obj
 0001:000139c0       ?GetNeighborSpan@CDispSubNeighbor@@QBE?AW4NeighborSpan@@XZ 004149c0 f i disp_common.obj
 0001:000139d0       ?GetNeighborOrientation@CDispSubNeighbor@@QBE?AW4NeighborOrientation@@XZ 004149d0 f i disp_common.obj
 0001:000139e0       ?IsValid@CDispSubNeighbor@@QBE_NXZ 004149e0 f i disp_common.obj
 0001:000139f0       ?SetInvalid@CDispSubNeighbor@@QAEXXZ 004149f0 f i disp_common.obj
 0001:00013a00       ?SetInvalid@CDispNeighbor@@QAEXXZ 00414a00 f i disp_common.obj
 0001:00013a10       ?SetInvalid@CDispCornerNeighbors@@QAEXXZ 00414a10 f i disp_common.obj
 0001:00013a20       ?GetVertIndex@CDispSubEdgeIterator@@QBEABVCVertIndex@@XZ 00414a20 f i disp_common.obj
 0001:00013a30       ?GetNBVertIndex@CDispSubEdgeIterator@@QBEABVCVertIndex@@XZ 00414a30 f i disp_common.obj
 0001:00013a40       ?GetNeighbor@CDispSubEdgeIterator@@QBEPAVCDispUtilsHelper@@XZ 00414a40 f i disp_common.obj
 0001:00013a50       ?GetVertIndex@CDispEdgeIterator@@QBEABVCVertIndex@@XZ 00414a50 f i disp_common.obj
 0001:00013a60       ?GetNBVertIndex@CDispEdgeIterator@@QBEABVCVertIndex@@XZ 00414a60 f i disp_common.obj
 0001:00013a70       ?GetCurrentNeighbor@CDispEdgeIterator@@QBEPAVCDispUtilsHelper@@XZ 00414a70 f i disp_common.obj
 0001:00013a80       ?GetPower@CPowerInfo@@QBEHXZ 00414a80 f i disp_common.obj
 0001:00013a90       ?GetSideLength@CPowerInfo@@QBEHXZ 00414a90 f i disp_common.obj
 0001:00013aa0       ?GetMidPoint@CPowerInfo@@QBEHXZ 00414aa0 f i disp_common.obj
 0001:00013ab0       ?GetCornerNeighbors@CCoreDispSurface@@QBEPBVCDispCornerNeighbors@@H@Z 00414ab0 f i disp_common.obj
 0001:00013ad0       ?GetEdgeNeighbor@CCoreDispSurface@@QBEPBVCDispNeighbor@@H@Z 00414ad0 f i disp_common.obj
 0001:00013af0       ?GetPoint@CCoreDispSurface@@QBEXHAAVVector@@@Z 00414af0 f i disp_common.obj
 0001:00013b20       ?GetPoint@CCoreDispSurface@@QBEABVVector@@H@Z 00414b20 f i disp_common.obj
 0001:00013b30       ?FromDispUtils@CCoreDispInfo@@SAPAV1@PAVCDispUtilsHelper@@@Z 00414b30 f i disp_common.obj
 0001:00013b40       ?GetSurface@CCoreDispInfo@@QAEPAVCCoreDispSurface@@XZ 00414b40 f i disp_common.obj
 0001:00013b50       ?GetSurface@CCoreDispInfo@@QBEPBVCCoreDispSurface@@XZ 00414b50 f i disp_common.obj
 0001:00013b60       ?GetCornerPointIndex@CCoreDispInfo@@QBEABVCVertIndex@@H@Z 00414b60 f i disp_common.obj
 0001:00013b80       ?GetCornerNeighbors@CCoreDispInfo@@QBEPBVCDispCornerNeighbors@@H@Z 00414b80 f i disp_common.obj
 0001:00013ba0       ?GetEdgeNeighbor@CCoreDispInfo@@QBEPBVCDispNeighbor@@H@Z 00414ba0 f i disp_common.obj
 0001:00013bc0       ?GetListIndex@CCoreDispInfo@@QAEHXZ 00414bc0 f i disp_common.obj
 0001:00013bd0       ?GetAllowedVerts@CCoreDispInfo@@QAEAAV?$CBitVec@$0BCB@@@XZ 00414bd0 f i disp_common.obj
 0001:00013be0       ?GetVert@CCoreDispInfo@@QBEABVVector@@H@Z 00414be0 f i disp_common.obj
 0001:00013c00       ??0CNodeVert@@QAE@XZ       00414c00 f i disp_common.obj
 0001:00013c10       ??0CNodeVert@@QAE@HH@Z     00414c10 f i disp_common.obj
 0001:00013c30       ??ACNodeVert@@QAEAAHH@Z    00414c30 f i disp_common.obj
 0001:00013c40       ??ACNodeVert@@QBEABHH@Z    00414c40 f i disp_common.obj
 0001:00013ca0       ?GetEdgeIndexFromPoint@@YAHABVCVertIndex@@H@Z 00414ca0 f   disp_common.obj
 0001:00013cf0       ?GetCornerIndexFromPoint@@YAHABVCVertIndex@@H@Z 00414cf0 f   disp_common.obj
 0001:00013d50       ?GetSubNeighborIndex@@YAHPAVCDispUtilsHelper@@HABVCVertIndex@@@Z 00414d50 f   disp_common.obj
 0001:00013dd0       ?SetupSpan@@YAXHHW4NeighborSpan@@AAVCVertIndex@@1@Z 00414dd0 f   disp_common.obj
 0001:00013e90       ??0CDispSubEdgeIterator@@QAE@XZ 00414e90 f   disp_common.obj
 0001:00013eb0       ?Next@CDispSubEdgeIterator@@QAE_NXZ 00414eb0 f   disp_common.obj
 0001:00013ef0       ?IsLastVert@CDispSubEdgeIterator@@QBE_NXZ 00414ef0 f   disp_common.obj
 0001:00013f10       ??0CDispEdgeIterator@@QAE@PAVCDispUtilsHelper@@H@Z 00414f10 f   disp_common.obj
 0001:00013f40       ??0CDispCircumferenceIterator@@QAE@H@Z 00414f40 f   disp_common.obj
 0001:00013f60       ?Next@CDispCircumferenceIterator@@QAE_NXZ 00414f60 f   disp_common.obj
 0001:00014210       ?GetPower@CDispUtilsHelper@@QBEHXZ 00415210 f   disp_common.obj
 0001:00014220       ?GetSideLength@CDispUtilsHelper@@QBEHXZ 00415220 f   disp_common.obj
 0001:00014230       ?GetCornerPointIndex@CDispUtilsHelper@@QBEABVCVertIndex@@H@Z 00415230 f   disp_common.obj
 0001:00014250       ?VertIndexToInt@CDispUtilsHelper@@QBEHABVCVertIndex@@@Z 00415250 f   disp_common.obj
 0001:00014270       ?GetEdgeMidPoint@CDispUtilsHelper@@QBE?AVCVertIndex@@H@Z 00415270 f   disp_common.obj
 0001:000142f0       ?DispCommon_GetNumTriIndices@@YAHH@Z 004152f0 f   disp_common.obj
 0001:00014310       ?DispCommon_GenerateTriIndices@@YAXHPAG@Z 00415310 f   disp_common.obj
 0001:00014350       ?ClearNeighborData@@YAXPAVCCoreDispInfo@@@Z 00415350 f   disp_common.obj
 0001:00014390       ?GetDispBox@@YAXPAVCCoreDispInfo@@AAVCDispBox@@@Z 00415390 f   disp_common.obj
 0001:00014470       ?DoBBoxesTouch@@YA_NABVCDispBox@@0@Z 00415470 f i disp_common.obj
 0001:000144c0       ?FindEdge@@YA_NPAVCCoreDispInfo@@ABVVector@@1AAH@Z 004154c0 f   disp_common.obj
 0001:00014550       ?NeighborSpanFlip@@YA?AW4NeighborSpan@@HW41@@Z 00415550 f   disp_common.obj
 0001:00014570       ?AddNeighbor@@YAXPAVCCoreDispInfo@@HHW4NeighborSpan@@0H1@Z 00415570 f   disp_common.obj
 0001:00014660       ?SetupEdgeNeighbors@@YAXPAVCCoreDispInfo@@0@Z 00415660 f   disp_common.obj
 0001:00014910       ?HasEdgeNeighbor@@YA_NPBVCCoreDispInfo@@H@Z 00415910 f   disp_common.obj
 0001:00014980       ?IsCorner@@YAHABVCVertIndex@@H@Z 00415980 f   disp_common.obj
 0001:000149d0       ?SetAll@?$CBitVec@$0BCB@@@QAEXH@Z 004159d0 f i disp_common.obj
 0001:00014a00       ?Get@?$CBitVec@$0BCB@@@QBEKK@Z 00415a00 f i disp_common.obj
 0001:00014a20       ?Clear@?$CBitVec@$0BCB@@@QAEXK@Z 00415a20 f i disp_common.obj
 0001:00014a40       ?Base@?$CUtlMemory@VCDispBox@@@@QAEPAVCDispBox@@XZ 00415a40 f i disp_common.obj
 0001:00014a50       ?ValidateGrowSize@?$CUtlMemory@VCDispBox@@@@IAEXXZ 00415a50 f i disp_common.obj
 0001:00014a60       ??$Destruct@VCDispBox@@@@YAXPAVCDispBox@@@Z 00415a60 f i disp_common.obj
 0001:00014a70       ?IsExternallyAllocated@?$CUtlMemory@VCDispBox@@@@QBE_NXZ 00415a70 f i disp_common.obj
 0001:00014a80       ??4CDispBox@@QAEAAV0@ABV0@@Z 00415a80 f i disp_common.obj
 0001:00014ab0       ??0CDispBox@@QAE@XZ        00415ab0 f i disp_common.obj
 0001:00014ac0       ?NumAllocated@?$CUtlMemory@VCDispBox@@@@QBEHXZ 00415ac0 f i disp_common.obj
 0001:00014ad0       ?Grow@?$CUtlMemory@VCDispBox@@@@QAEXH@Z 00415ad0 f i disp_common.obj
 0001:00014b50       ?GetCornerPoint@CCoreDispInfo@@QBEABVVector@@H@Z 00415b50 f i disp_common.obj
 0001:00014ba0       ?GetNeighborEdgePower@@YAHPAVCDispUtilsHelper@@HH@Z 00415ba0 f   disp_common.obj
 0001:00014c10       ?TransformIntoSubNeighbor@@YAPAVCDispUtilsHelper@@PAV1@HHABVCVertIndex@@AAV2@@Z 00415c10 f   disp_common.obj
 0001:00014d20       ?TransformIntoNeighbor@@YAPAVCDispUtilsHelper@@PAV1@HABVCVertIndex@@AAV2@@Z 00415d20 f   disp_common.obj
 0001:00014d80       ?DoesPointHaveAnyNeighbors@@YA_NPAVCDispUtilsHelper@@ABVCVertIndex@@@Z 00415d80 f   disp_common.obj
 0001:00014e40       ?SetupCornerNeighbors@@YAXPAVCCoreDispInfo@@0PAH@Z 00415e40 f   disp_common.obj
 0001:00014fc0       ?VerifyNeighborVertConnection@@YA_NPAVCDispUtilsHelper@@ABVCVertIndex@@PBV1@1H@Z 00415fc0 f   disp_common.obj
 0001:00015080       ?IsVertAllowed@@YA_NPAVCDispUtilsHelper@@ABVCVertIndex@@H@Z 00416080 f   disp_common.obj
 0001:000151a0       ?UnallowVerts_R@@YAXPAVCDispUtilsHelper@@ABVCVertIndex@@AAH@Z 004161a0 f   disp_common.obj
 0001:00015230       ?DisableUnallowedVerts_R@@YAXPAVCDispUtilsHelper@@ABVCVertIndex@@HAAH@Z 00416230 f   disp_common.obj
 0001:000152e0       ?SetupAllowedVerts@@YAXPAPAVCCoreDispInfo@@H@Z 004162e0 f   disp_common.obj
 0001:00015380       ?Base@?$CUtlVector@VCDispBox@@V?$CUtlMemory@VCDispBox@@@@@@QAEPAVCDispBox@@XZ 00416380 f i disp_common.obj
 0001:00015390       ?ResetDbgInfo@?$CUtlVector@VCDispBox@@V?$CUtlMemory@VCDispBox@@@@@@IAEXXZ 00416390 f i disp_common.obj
 0001:000153a0       ??0?$CUtlMemory@VCDispBox@@@@QAE@HH@Z 004163a0 f i disp_common.obj
 0001:000153e0       ?Purge@?$CUtlMemory@VCDispBox@@@@QAEXXZ 004163e0 f i disp_common.obj
 0001:00015410       ?Element@?$CUtlVector@VCDispBox@@V?$CUtlMemory@VCDispBox@@@@@@QAEAAVCDispBox@@H@Z 00416410 f i disp_common.obj
 0001:00015420       ?GrowVector@?$CUtlVector@VCDispBox@@V?$CUtlMemory@VCDispBox@@@@@@IAEXH@Z 00416420 f i disp_common.obj
 0001:00015450       ?ShiftElementsRight@?$CUtlVector@VCDispBox@@V?$CUtlMemory@VCDispBox@@@@@@IAEXHH@Z 00416450 f i disp_common.obj
 0001:000154a0       ??$Construct@VCDispBox@@@@YAXPAVCDispBox@@@Z 004164a0 f i disp_common.obj
 0001:000154b0       ?SetupEdgeIncrements@@YAPAVCDispUtilsHelper@@PAV1@HHAAVCVertIndex@@111AAH2@Z 004164b0 f   disp_common.obj
 0001:00015640       ?Start@CDispSubEdgeIterator@@QAEXPAVCDispUtilsHelper@@HH_N@Z 00416640 f   disp_common.obj
 0001:000156f0       ?Next@CDispEdgeIterator@@QAE_NXZ 004166f0 f   disp_common.obj
 0001:000157b0       ?VerifyNeighborConnections@@YAXPAPAVCCoreDispInfo@@H@Z 004167b0 f   disp_common.obj
 0001:00015990       ??A?$CUtlVector@VCDispBox@@V?$CUtlMemory@VCDispBox@@@@@@QAEAAVCDispBox@@H@Z 00416990 f i disp_common.obj
 0001:000159a0       ??1?$CUtlMemory@VCDispBox@@@@QAE@XZ 004169a0 f i disp_common.obj
 0001:000159d0       ?RemoveAll@?$CUtlVector@VCDispBox@@V?$CUtlMemory@VCDispBox@@@@@@QAEXXZ 004169d0 f i disp_common.obj
 0001:000159e0       ?InsertMultipleBefore@?$CUtlVector@VCDispBox@@V?$CUtlMemory@VCDispBox@@@@@@QAEHHHPBVCDispBox@@@Z 004169e0 f i disp_common.obj
 0001:00015ba0       ??0?$CUtlVector@VCDispBox@@V?$CUtlMemory@VCDispBox@@@@@@QAE@HH@Z 00416ba0 f i disp_common.obj
 0001:00015bf0       ?Purge@?$CUtlVector@VCDispBox@@V?$CUtlMemory@VCDispBox@@@@@@QAEXXZ 00416bf0 f i disp_common.obj
 0001:00015c40       ?AddMultipleToTail@?$CUtlVector@VCDispBox@@V?$CUtlMemory@VCDispBox@@@@@@QAEHHPBVCDispBox@@@Z 00416c40 f i disp_common.obj
 0001:00015c60       ??1?$CUtlVector@VCDispBox@@V?$CUtlMemory@VCDispBox@@@@@@QAE@XZ 00416c60 f i disp_common.obj
 0001:00015cd0       ?SetCount@?$CUtlVector@VCDispBox@@V?$CUtlMemory@VCDispBox@@@@@@QAEXH@Z 00416cd0 f i disp_common.obj
 0001:00015cf0       ?SetSize@?$CUtlVector@VCDispBox@@V?$CUtlMemory@VCDispBox@@@@@@QAEXH@Z 00416cf0 f i disp_common.obj
 0001:00015d10       ?SetupDispBoxes@@YAXPAPAVCCoreDispInfo@@HAAV?$CUtlVector@VCDispBox@@V?$CUtlMemory@VCDispBox@@@@@@@Z 00416d10 f   disp_common.obj
 0001:00015d60       ?FindNeighboringDispSurfs@@YAXPAPAVCCoreDispInfo@@H@Z 00416d60 f   disp_common.obj
 0001:00015ef0       ?GetBoundingBox@CCoreDispNode@@QAEXAAVVector@@0@Z 00416ef0 f i disp_ivp.obj
 0001:00015f20       ?GetVert@CCoreDispInfo@@QBEXHAAVVector@@@Z 00416f20 f i disp_ivp.obj
 0001:00015f50       ?GetAlpha@CCoreDispInfo@@QAEMH@Z 00416f50 f i disp_ivp.obj
 0001:00015f70       ?GetNode@CCoreDispInfo@@QAEPAVCCoreDispNode@@H@Z 00416f70 f i disp_ivp.obj
 0001:00015f80       ?InternalVertIndex@@YAHPBVCPowerInfo@@ABVCVertIndex@@@Z 00416f80 f i disp_ivp.obj
 0001:00015fa0       ?GetNodeInfo@CVBSPTesselateHelper@@QAEAAUDispNodeInfo_t@@H@Z 00416fa0 f i disp_ivp.obj
 0001:00015fb0       ?Disp_GridIndex@@YAHPAVCCoreDispInfo@@@Z 00416fb0 f   disp_ivp.obj
 0001:00016090       ?Count@?$CUtlVector@PAVCCoreDispInfo@@V?$CUtlMemory@PAVCCoreDispInfo@@@@@@QBEHXZ 00417090 f i disp_ivp.obj
 0001:000160a0       ?Base@?$CBitVec@$0BCB@@@QAEPAKXZ 004170a0 f i disp_ivp.obj
 0001:000160b0       ?Count@?$CUtlVector@GV?$CUtlMemory@G@@@@QBEHXZ 004170b0 f i disp_ivp.obj
 0001:000160c0       ?Count@?$CUtlVector@Udisp_grid_t@@V?$CUtlMemory@Udisp_grid_t@@@@@@QBEHXZ 004170c0 f i disp_ivp.obj
 0001:000160d0       ?Base@?$CUtlMemory@G@@QAEPAGXZ 004170d0 f i disp_ivp.obj
 0001:000160e0       ?Base@?$CUtlMemory@Udisp_grid_t@@@@QAEPAUdisp_grid_t@@XZ 004170e0 f i disp_ivp.obj
 0001:000160f0       ?Base@?$CUtlMemory@PAVCCoreDispInfo@@@@QAEPAPAVCCoreDispInfo@@XZ 004170f0 f i disp_ivp.obj
 0001:00016100       ?ValidateGrowSize@?$CUtlMemory@G@@IAEXXZ 00417100 f i disp_ivp.obj
 0001:00016110       ?ValidateGrowSize@?$CUtlMemory@Udisp_grid_t@@@@IAEXXZ 00417110 f i disp_ivp.obj
 0001:00016120       ??$CopyConstruct@G@@YAXPAGABG@Z 00417120 f i disp_ivp.obj
 0001:00016140       ??$CopyConstruct@PAVCPhysCollisionEntry@@@@YAXPAPAVCPhysCollisionEntry@@ABQAV0@@Z 00417140 f i disp_ivp.obj
 0001:00016160       ??$Destruct@G@@YAXPAG@Z    00417160 f i disp_ivp.obj
 0001:00016170       ?NumAllocated@?$CUtlMemory@G@@QBEHXZ 00417170 f i disp_ivp.obj
 0001:00016180       ?IsExternallyAllocated@?$CUtlMemory@G@@QBE_NXZ 00417180 f i disp_ivp.obj
 0001:00016190       ?NumAllocated@?$CUtlMemory@Udisp_grid_t@@@@QBEHXZ 00417190 f i disp_ivp.obj
 0001:000161a0       ?IsExternallyAllocated@?$CUtlMemory@Udisp_grid_t@@@@QBE_NXZ 004171a0 f i disp_ivp.obj
 0001:000161b0       ?Base@?$CUtlMemory@PAVCPhysCollisionEntry@@@@QAEPAPAVCPhysCollisionEntry@@XZ 004171b0 f i disp_ivp.obj
 0001:000161c0       ?NumAllocated@?$CUtlMemory@PAVCPhysCollisionEntry@@@@QBEHXZ 004171c0 f i disp_ivp.obj
 0001:000161d0       ?IsExternallyAllocated@?$CUtlMemory@PAVCPhysCollisionEntry@@@@QBE_NXZ 004171d0 f i disp_ivp.obj
 0001:000161e0       ?BuildOffsetVertIndex@@YA?AVCVertIndex@@ABV1@0H@Z 004171e0 f i disp_ivp.obj
 0001:00016220       ?Base@?$CUtlVector@PAVCCoreDispInfo@@V?$CUtlMemory@PAVCCoreDispInfo@@@@@@QAEPAPAVCCoreDispInfo@@XZ 00417220 f i disp_ivp.obj
 0001:00016230       ?Base@?$CUtlVector@GV?$CUtlMemory@G@@@@QAEPAGXZ 00417230 f i disp_ivp.obj
 0001:00016240       ?ResetDbgInfo@?$CUtlVector@GV?$CUtlMemory@G@@@@IAEXXZ 00417240 f i disp_ivp.obj
 0001:00016250       ?Base@?$CUtlVector@Udisp_grid_t@@V?$CUtlMemory@Udisp_grid_t@@@@@@QAEPAUdisp_grid_t@@XZ 00417250 f i disp_ivp.obj
 0001:00016260       ?ResetDbgInfo@?$CUtlVector@Udisp_grid_t@@V?$CUtlMemory@Udisp_grid_t@@@@@@IAEXXZ 00417260 f i disp_ivp.obj
 0001:00016270       ??0?$CUtlMemory@G@@QAE@HH@Z 00417270 f i disp_ivp.obj
 0001:000162b0       ??0?$CUtlMemory@Udisp_grid_t@@@@QAE@HH@Z 004172b0 f i disp_ivp.obj
 0001:000162f0       ?Element@?$CUtlVector@GV?$CUtlMemory@G@@@@QAEAAGH@Z 004172f0 f i disp_ivp.obj
 0001:00016300       ?RemoveAll@?$CUtlVector@GV?$CUtlMemory@G@@@@QAEXXZ 00417300 f i disp_ivp.obj
 0001:00016310       ?ShiftElementsRight@?$CUtlVector@GV?$CUtlMemory@G@@@@IAEXHH@Z 00417310 f i disp_ivp.obj
 0001:00016350       ?Purge@?$CUtlMemory@G@@QAEXXZ 00417350 f i disp_ivp.obj
 0001:00016380       ?Element@?$CUtlVector@Udisp_grid_t@@V?$CUtlMemory@Udisp_grid_t@@@@@@QAEAAUdisp_grid_t@@H@Z 00417380 f i disp_ivp.obj
 0001:00016390       ?ShiftElementsRight@?$CUtlVector@Udisp_grid_t@@V?$CUtlMemory@Udisp_grid_t@@@@@@IAEXHH@Z 00417390 f i disp_ivp.obj
 0001:000163e0       ?Purge@?$CUtlMemory@Udisp_grid_t@@@@QAEXXZ 004173e0 f i disp_ivp.obj
 0001:00016410       ?Base@?$CUtlVector@PAVCPhysCollisionEntry@@V?$CUtlMemory@PAVCPhysCollisionEntry@@@@@@QAEPAPAVCPhysCollisionEntry@@XZ 00417410 f i disp_ivp.obj
 0001:00016420       ?ResetDbgInfo@?$CUtlVector@PAVCPhysCollisionEntry@@V?$CUtlMemory@PAVCPhysCollisionEntry@@@@@@IAEXXZ 00417420 f i disp_ivp.obj
 0001:00016430       ?Grow@?$CUtlMemory@G@@QAEXH@Z 00417430 f i disp_ivp.obj
 0001:000164a0       ?Grow@?$CUtlMemory@Udisp_grid_t@@@@QAEXH@Z 004174a0 f i disp_ivp.obj
 0001:00016520       ?Grow@?$CUtlMemory@PAVCPhysCollisionEntry@@@@QAEXH@Z 00417520 f i disp_ivp.obj
 0001:00016590       ??A?$CUtlVector@PAVCCoreDispInfo@@V?$CUtlMemory@PAVCCoreDispInfo@@@@@@QAEAAPAVCCoreDispInfo@@H@Z 00417590 f i disp_ivp.obj
 0001:000165a0       ??A?$CUtlVector@GV?$CUtlMemory@G@@@@QAEAAGH@Z 004175a0 f i disp_ivp.obj
 0001:000165b0       ??A?$CUtlVector@Udisp_grid_t@@V?$CUtlMemory@Udisp_grid_t@@@@@@QAEAAUdisp_grid_t@@H@Z 004175b0 f i disp_ivp.obj
 0001:000165c0       ?Purge@?$CUtlVector@GV?$CUtlMemory@G@@@@QAEXXZ 004175c0 f i disp_ivp.obj
 0001:00016610       ??1?$CUtlMemory@G@@QAE@XZ  00417610 f i disp_ivp.obj
 0001:00016640       ??1?$CUtlMemory@Udisp_grid_t@@@@QAE@XZ 00417640 f i disp_ivp.obj
 0001:00016670       ?GrowVector@?$CUtlVector@GV?$CUtlMemory@G@@@@IAEXH@Z 00417670 f i disp_ivp.obj
 0001:000166a0       ?GrowVector@?$CUtlVector@Udisp_grid_t@@V?$CUtlMemory@Udisp_grid_t@@@@@@IAEXH@Z 004176a0 f i disp_ivp.obj
 0001:000166d0       ?Element@?$CUtlVector@PAVCPhysCollisionEntry@@V?$CUtlMemory@PAVCPhysCollisionEntry@@@@@@QAEAAPAVCPhysCollisionEntry@@H@Z 004176d0 f i disp_ivp.obj
 0001:000166e0       ?GrowVector@?$CUtlVector@PAVCPhysCollisionEntry@@V?$CUtlMemory@PAVCPhysCollisionEntry@@@@@@IAEXH@Z 004176e0 f i disp_ivp.obj
 0001:00016710       ?ShiftElementsRight@?$CUtlVector@PAVCPhysCollisionEntry@@V?$CUtlMemory@PAVCPhysCollisionEntry@@@@@@IAEXHH@Z 00417710 f i disp_ivp.obj
 0001:00016750       ?GetMatIDFromDisp@@YAPAXPAUmapdispinfo_t@@@Z 00417750 f   disp_ivp.obj
 0001:00016790       ??0?$CUtlVector@GV?$CUtlMemory@G@@@@QAE@HH@Z 00417790 f i disp_ivp.obj
 0001:000167e0       ??1?$CUtlVector@GV?$CUtlMemory@G@@@@QAE@XZ 004177e0 f i disp_ivp.obj
 0001:00016850       ??0?$CUtlVector@Udisp_grid_t@@V?$CUtlMemory@Udisp_grid_t@@@@@@QAE@HH@Z 00417850 f i disp_ivp.obj
 0001:000168a0       ?InsertBefore@?$CUtlVector@GV?$CUtlMemory@G@@@@QAEHHABG@Z 004178a0 f i disp_ivp.obj
 0001:00016910       ?InsertBefore@?$CUtlVector@PAVCPhysCollisionEntry@@V?$CUtlMemory@PAVCPhysCollisionEntry@@@@@@QAEHHABQAVCPhysCollisionEntry@@@Z 00417910 f i disp_ivp.obj
 0001:00016980       ??1disp_grid_t@@QAE@XZ     00417980 f i disp_ivp.obj
 0001:00016990       ?AddToTail@?$CUtlVector@GV?$CUtlMemory@G@@@@QAEHABG@Z 00417990 f i disp_ivp.obj
 0001:000169b0       ?AddToTail@?$CUtlVector@PAVCPhysCollisionEntry@@V?$CUtlMemory@PAVCPhysCollisionEntry@@@@@@QAEHABQAVCPhysCollisionEntry@@@Z 004179b0 f i disp_ivp.obj
 0001:000169d0       ??0disp_grid_t@@QAE@XZ     004179d0 f i disp_ivp.obj
 0001:000169f0       ??_Gdisp_grid_t@@QAEPAXI@Z 004179f0 f i disp_ivp.obj
 0001:00016a20       ?EndTriangle@CVBSPTesselateHelper@@QAEXXZ 00417a20 f i disp_ivp.obj
 0001:00016a60       ??$Construct@Udisp_grid_t@@@@YAXPAUdisp_grid_t@@@Z 00417a60 f i disp_ivp.obj
 0001:00016a80       ??$Destruct@Udisp_grid_t@@@@YAXPAUdisp_grid_t@@@Z 00417a80 f i disp_ivp.obj
 0001:00016a90       ??$InternalEndTriangle@VCVBSPTesselateHelper@@@@YAXPAVCVBSPTesselateHelper@@ABVCVertIndex@@AAH@Z 00417a90 f i disp_ivp.obj
 0001:00016b00       ?InsertBefore@?$CUtlVector@Udisp_grid_t@@V?$CUtlMemory@Udisp_grid_t@@@@@@QAEHH@Z 00417b00 f i disp_ivp.obj
 0001:00016b80       ?RemoveAll@?$CUtlVector@Udisp_grid_t@@V?$CUtlMemory@Udisp_grid_t@@@@@@QAEXXZ 00417b80 f i disp_ivp.obj
 0001:00016c20       ??$TesselateDisplacementNode@VCVBSPTesselateHelper@@@@YAXPAVCVBSPTesselateHelper@@ABVCVertIndex@@HPAH@Z 00417c20 f i disp_ivp.obj
 0001:00016d60       ?AddToTail@?$CUtlVector@Udisp_grid_t@@V?$CUtlMemory@Udisp_grid_t@@@@@@QAEHXZ 00417d60 f i disp_ivp.obj
 0001:00016d70       ?Purge@?$CUtlVector@Udisp_grid_t@@V?$CUtlMemory@Udisp_grid_t@@@@@@QAEXXZ 00417d70 f i disp_ivp.obj
 0001:00016db0       ??$TesselateDisplacement_R@VCVBSPTesselateHelper@@@@YAXPAVCVBSPTesselateHelper@@ABVCVertIndex@@HH@Z 00417db0 f i disp_ivp.obj
 0001:00016ee0       ?FindOrInsertGrid@@YAAAUdisp_grid_t@@H@Z 00417ee0 f   disp_ivp.obj
 0001:00016f40       ?AddToGrid@@YAXHH@Z        00417f40 f   disp_ivp.obj
 0001:00016f70       ??1?$CUtlVector@Udisp_grid_t@@V?$CUtlMemory@Udisp_grid_t@@@@@@QAE@XZ 00417f70 f i disp_ivp.obj
 0001:00016fd0       ??$TesselateDisplacement@VCVBSPTesselateHelper@@@@YAXPAVCVBSPTesselateHelper@@@Z 00417fd0 f i disp_ivp.obj
 0001:00016ff0       ?Disp_AddCollisionModels@@YAXAAV?$CUtlVector@PAVCPhysCollisionEntry@@V?$CUtlMemory@PAVCPhysCollisionEntry@@@@@@PAUdmodel_t@@H@Z 00417ff0 f   disp_ivp.obj
 0001:00017530       ??HCVertIndex@@QBE?AV0@ABV0@@Z 00418530 f i disp_powerinfo.obj
 0001:00017560       ??GCVertIndex@@QBE?AV0@ABV0@@Z 00418560 f i disp_powerinfo.obj
 0001:00017590       ?IsValid@CVertDependency@@QAE_NXZ 00418590 f i disp_powerinfo.obj
 0001:00017820       ??0CTesselateVert@@QAE@ABVCVertIndex@@H@Z 00418820 f   disp_powerinfo.obj
 0001:00017840       ??0CVertDependency@@QAE@XZ 00418840 f i disp_powerinfo.obj
 0001:00017850       ??0CFourVerts@@QAE@XZ      00418850 f i disp_powerinfo.obj
 0001:00017860       ??0CPowerInfo@@QAE@PAVCVertInfo@@PAVCFourVerts@@11PAVCTwoUShorts@@PAVCTriInfo@@@Z 00418860 f   disp_powerinfo.obj
 0001:00017ba0       ?GetPowerInfo@@YAPBVCPowerInfo@@H@Z 00418ba0 f   disp_powerinfo.obj
 0001:00017bb0       ?GetCornerPointIndex@CPowerInfo@@QBEABVCVertIndex@@H@Z 00418bb0 f   disp_powerinfo.obj
 0001:00017bc0       ??$Square@H@@YAHABH@Z      00418bc0 f i disp_powerinfo.obj
 0001:00017bd0       ??0CVertInfo@@QAE@XZ       00418bd0 f   disp_powerinfo.obj
 0001:00017d90       ?InitPowerInfo@@YAXPAVCPowerInfo@@H@Z 00418d90 f   disp_powerinfo.obj
 0001:00018340       ??0CPowerInfoInitializer@@QAE@XZ 00419340 f i disp_powerinfo.obj
 0001:00018380       ?Vector2DCopy@@YAXABVVector2D@@AAV1@@Z 00419380 f i disp_vbsp.obj
 0001:000183a0       ?GetBarycentricCoords2D@@YAXABVVector2D@@000QAM@Z 004193a0 f i disp_vbsp.obj
 0001:00018440       ?SetPointCount@CCoreDispSurface@@QAEXH@Z 00419440 f i disp_vbsp.obj
 0001:00018460       ?SetPoint@CCoreDispSurface@@QAEXHABVVector@@@Z 00419460 f i disp_vbsp.obj
 0001:00018490       ?SetTexCoord@CCoreDispSurface@@QAEXHABVVector2D@@@Z 00419490 f i disp_vbsp.obj
 0001:000184b0       ?SetLuxelCoord@CCoreDispSurface@@QAEXHHABVVector2D@@@Z 004194b0 f i disp_vbsp.obj
 0001:000184e0       ?SetContents@CCoreDispSurface@@QAEXH@Z 004194e0 f i disp_vbsp.obj
 0001:000184f0       ?SetPointStart@CCoreDispSurface@@QAEXABVVector@@@Z 004194f0 f i disp_vbsp.obj
 0001:00018520       ?SetListIndex@CCoreDispInfo@@QAEXH@Z 00419520 f i disp_vbsp.obj
 0001:00018530       ?GetAllowedVerts@CCoreDispInfo@@QBEABV?$CBitVec@$0BCB@@@XZ 00419530 f i disp_vbsp.obj
 0001:00018540       ?GetPower@CCoreDispInfo@@QBEHXZ 00419540 f i disp_vbsp.obj
 0001:00018550       ?GetWidth@CCoreDispInfo@@QAEHXZ 00419550 f i disp_vbsp.obj
 0001:00018560       ?GetHeight@CCoreDispInfo@@QAEHXZ 00419560 f i disp_vbsp.obj
 0001:00018570       ?GetSize@CCoreDispInfo@@QBEHXZ 00419570 f i disp_vbsp.obj
 0001:00018590       ?SetVert@CCoreDispInfo@@QAEXHABVVector@@@Z 00419590 f i disp_vbsp.obj
 0001:000185c0       ?GetLuxelCoord@CCoreDispInfo@@QBEXHHAAVVector2D@@@Z 004195c0 f i disp_vbsp.obj
 0001:000185f0       ??0mapdispinfo_t@@QAE@XZ   004195f0 f i disp_vbsp.obj
 0001:00018600       ?GetBarycentricCoordsFromLightmapCoords@@YA_NQAVVector2D@@ABV1@QAM@Z 00419600 f   disp_vbsp.obj
 0001:00018680       ?FindTriIndexMapByUV@@YA_NPAVCCoreDispInfo@@ABVVector2D@@AAHQAM@Z 00419680 f   disp_vbsp.obj
 0001:00018770       ?GetDispInfoEntityNum@@YAHPAUmapdispinfo_t@@@Z 00419770 f   disp_vbsp.obj
 0001:00018780       ?ExportCoreDispNeighborData@@YAXPBVCCoreDispInfo@@PAVddispinfo_t@@@Z 00419780 f   disp_vbsp.obj
 0001:00018870       ?DispGetFaceInfo@@YAXPAUmapbrush_t@@@Z 00419870 f   disp_vbsp.obj
 0001:00018960       ?HasDispInfo@@YA_NPAUmapbrush_t@@@Z 00419960 f   disp_vbsp.obj
 0001:00018990       ?Count@?$CUtlVector@EV?$CUtlMemory@E@@@@QBEHXZ 00419990 f i disp_vbsp.obj
 0001:000189a0       ?Base@?$CUtlMemory@Vddispinfo_t@@@@QAEPAVddispinfo_t@@XZ 004199a0 f i disp_vbsp.obj
 0001:000189b0       ?GetNumDWords@?$CBitVec@$0BCB@@@QBEHXZ 004199b0 f i disp_vbsp.obj
 0001:000189c0       ?GetDWord@?$CBitVec@$0BCB@@@QBEKH@Z 004199c0 f i disp_vbsp.obj
 0001:000189d0       ?Base@?$CUtlMemory@_N@@QAEPA_NXZ 004199d0 f i disp_vbsp.obj
 0001:000189e0       ?Count@?$CUtlVector@_NV?$CUtlMemory@_N@@@@QBEHXZ 004199e0 f i disp_vbsp.obj
 0001:000189f0       ?Base@?$CUtlMemory@VVector2D@@@@QAEPAVVector2D@@XZ 004199f0 f i disp_vbsp.obj
 0001:00018a00       ?Base@?$CUtlMemory@PAUdface_t@@@@QAEPAPAUdface_t@@XZ 00419a00 f i disp_vbsp.obj
 0001:00018a10       ?Base@?$CUtlMemory@VCDispVert@@@@QAEPAVCDispVert@@XZ 00419a10 f i disp_vbsp.obj
 0001:00018a20       ?Base@?$CUtlMemory@VCDispTri@@@@QAEPAVCDispTri@@XZ 00419a20 f i disp_vbsp.obj
 0001:00018a30       ?ValidateGrowSize@?$CUtlMemory@PAVCCoreDispInfo@@@@IAEXXZ 00419a30 f i disp_vbsp.obj
 0001:00018a40       ?ValidateGrowSize@?$CUtlMemory@VVector2D@@@@IAEXXZ 00419a40 f i disp_vbsp.obj
 0001:00018a50       ?ValidateGrowSize@?$CUtlMemory@_N@@IAEXXZ 00419a50 f i disp_vbsp.obj
 0001:00018a60       ?ValidateGrowSize@?$CUtlMemory@PAUdface_t@@@@IAEXXZ 00419a60 f i disp_vbsp.obj
 0001:00018a70       ??$CopyConstruct@E@@YAXPAEABE@Z 00419a70 f i disp_vbsp.obj
 0001:00018a90       ?IsExternallyAllocated@?$CUtlMemory@Vddispinfo_t@@@@QBE_NXZ 00419a90 f i disp_vbsp.obj
 0001:00018aa0       ??$Destruct@Vddispinfo_t@@@@YAXPAVddispinfo_t@@@Z 00419aa0 f i disp_vbsp.obj
 0001:00018ab0       ?IsExternallyAllocated@?$CUtlMemory@PAVCCoreDispInfo@@@@QBE_NXZ 00419ab0 f i disp_vbsp.obj
 0001:00018ac0       ??$Construct@PAVCCoreDispInfo@@@@YAXPAPAVCCoreDispInfo@@@Z 00419ac0 f i disp_vbsp.obj
 0001:00018ad0       ??$Destruct@PAVCCoreDispInfo@@@@YAXPAPAVCCoreDispInfo@@@Z 00419ad0 f i disp_vbsp.obj
 0001:00018ae0       ?NumAllocated@?$CUtlMemory@E@@QBEHXZ 00419ae0 f i disp_vbsp.obj
 0001:00018af0       ??$Destruct@VCDispVert@@@@YAXPAVCDispVert@@@Z 00419af0 f i disp_vbsp.obj
 0001:00018b00       ??$Destruct@VCDispTri@@@@YAXPAVCDispTri@@@Z 00419b00 f i disp_vbsp.obj
 0001:00018b10       ?NumAllocated@?$CUtlMemory@PAVCCoreDispInfo@@@@QBEHXZ 00419b10 f i disp_vbsp.obj
 0001:00018b20       ?Grow@?$CUtlMemory@PAVCCoreDispInfo@@@@QAEXH@Z 00419b20 f i disp_vbsp.obj
 0001:00018b90       ??$Destruct@VVector2D@@@@YAXPAVVector2D@@@Z 00419b90 f i disp_vbsp.obj
 0001:00018ba0       ?IsExternallyAllocated@?$CUtlMemory@VVector2D@@@@QBE_NXZ 00419ba0 f i disp_vbsp.obj
 0001:00018bb0       ?IsExternallyAllocated@?$CUtlMemory@_N@@QBE_NXZ 00419bb0 f i disp_vbsp.obj
 0001:00018bc0       ??$Destruct@_N@@YAXPA_N@Z  00419bc0 f i disp_vbsp.obj
 0001:00018bd0       ??$Destruct@PAUdface_t@@@@YAXPAPAUdface_t@@@Z 00419bd0 f i disp_vbsp.obj
 0001:00018be0       ?IsExternallyAllocated@?$CUtlMemory@PAUdface_t@@@@QBE_NXZ 00419be0 f i disp_vbsp.obj
 0001:00018bf0       ??4ddispinfo_t@@QAEAAV0@ABV0@@Z 00419bf0 f i disp_vbsp.obj
 0001:00018d60       ??4CDispVert@@QAEAAV0@ABV0@@Z 00419d60 f i disp_vbsp.obj
 0001:00018d90       ??$Construct@VCDispTri@@@@YAXPAVCDispTri@@@Z 00419d90 f i disp_vbsp.obj
 0001:00018da0       ??$Construct@VVector2D@@@@YAXPAVVector2D@@@Z 00419da0 f i disp_vbsp.obj
 0001:00018db0       ??$Construct@_N@@YAXPA_N@Z 00419db0 f i disp_vbsp.obj
 0001:00018dc0       ??$Construct@PAUdface_t@@@@YAXPAPAUdface_t@@@Z 00419dc0 f i disp_vbsp.obj
 0001:00018dd0       ??0ddispinfo_t@@QAE@XZ     00419dd0 f i disp_vbsp.obj
 0001:00018de0       ??0CDispVert@@QAE@XZ       00419de0 f i disp_vbsp.obj
 0001:00018df0       ?NumAllocated@?$CUtlMemory@Vddispinfo_t@@@@QBEHXZ 00419df0 f i disp_vbsp.obj
 0001:00018e00       ?Grow@?$CUtlMemory@Vddispinfo_t@@@@QAEXH@Z 00419e00 f i disp_vbsp.obj
 0001:00018e70       ?NumAllocated@?$CUtlMemory@VCDispVert@@@@QBEHXZ 00419e70 f i disp_vbsp.obj
 0001:00018e80       ?NumAllocated@?$CUtlMemory@VCDispTri@@@@QBEHXZ 00419e80 f i disp_vbsp.obj
 0001:00018e90       ?NumAllocated@?$CUtlMemory@VVector2D@@@@QBEHXZ 00419e90 f i disp_vbsp.obj
 0001:00018ea0       ?Grow@?$CUtlMemory@VVector2D@@@@QAEXH@Z 00419ea0 f i disp_vbsp.obj
 0001:00018f10       ?NumAllocated@?$CUtlMemory@_N@@QBEHXZ 00419f10 f i disp_vbsp.obj
 0001:00018f20       ?Grow@?$CUtlMemory@_N@@QAEXH@Z 00419f20 f i disp_vbsp.obj
 0001:00018f90       ?NumAllocated@?$CUtlMemory@PAUdface_t@@@@QBEHXZ 00419f90 f i disp_vbsp.obj
 0001:00018fa0       ?Grow@?$CUtlMemory@PAUdface_t@@@@QAEXH@Z 00419fa0 f i disp_vbsp.obj
 0001:00019010       ?IsExternallyAllocated@?$CUtlMemory@VCDispVert@@@@QBE_NXZ 0041a010 f i disp_vbsp.obj
 0001:00019020       ?IsExternallyAllocated@?$CUtlMemory@VCDispTri@@@@QBE_NXZ 0041a020 f i disp_vbsp.obj
 0001:00019030       ?ExportCoreDispAllowedVertList@@YAXPBVCCoreDispInfo@@PAVddispinfo_t@@@Z 0041a030 f   disp_vbsp.obj
 0001:000190c0       ?ExportAllowedVertLists@@YAXPAPAVCCoreDispInfo@@PAVddispinfo_t@@H@Z 0041a0c0 f   disp_vbsp.obj
 0001:00019100       ?Base@?$CUtlVector@Vddispinfo_t@@V?$CUtlMemory@Vddispinfo_t@@@@@@QAEPAVddispinfo_t@@XZ 0041a100 f i disp_vbsp.obj
 0001:00019110       ?Base@?$CUtlVector@_NV?$CUtlMemory@_N@@@@QAEPA_NXZ 0041a110 f i disp_vbsp.obj
 0001:00019120       ??A?$CUtlVector@Vddispinfo_t@@V?$CUtlMemory@Vddispinfo_t@@@@@@QAEAAVddispinfo_t@@H@Z 0041a120 f i disp_vbsp.obj
 0001:00019130       ??A?$CUtlVector@_NV?$CUtlMemory@_N@@@@QAEAA_NH@Z 0041a130 f i disp_vbsp.obj
 0001:00019140       ?Base@?$CUtlVector@EV?$CUtlMemory@E@@@@QAEPAEXZ 0041a140 f i disp_vbsp.obj
 0001:00019150       ?ResetDbgInfo@?$CUtlVector@Vddispinfo_t@@V?$CUtlMemory@Vddispinfo_t@@@@@@IAEXXZ 0041a150 f i disp_vbsp.obj
 0001:00019160       ?Base@?$CUtlVector@VCDispVert@@V?$CUtlMemory@VCDispVert@@@@@@QAEPAVCDispVert@@XZ 0041a160 f i disp_vbsp.obj
 0001:00019170       ?Base@?$CUtlVector@VCDispTri@@V?$CUtlMemory@VCDispTri@@@@@@QAEPAVCDispTri@@XZ 0041a170 f i disp_vbsp.obj
 0001:00019180       ?ResetDbgInfo@?$CUtlVector@PAVCCoreDispInfo@@V?$CUtlMemory@PAVCCoreDispInfo@@@@@@IAEXXZ 0041a180 f i disp_vbsp.obj
 0001:00019190       ?Base@?$CUtlVector@VVector2D@@V?$CUtlMemory@VVector2D@@@@@@QAEPAVVector2D@@XZ 0041a190 f i disp_vbsp.obj
 0001:000191a0       ?ResetDbgInfo@?$CUtlVector@VVector2D@@V?$CUtlMemory@VVector2D@@@@@@IAEXXZ 0041a1a0 f i disp_vbsp.obj
 0001:000191b0       ?ResetDbgInfo@?$CUtlVector@_NV?$CUtlMemory@_N@@@@IAEXXZ 0041a1b0 f i disp_vbsp.obj
 0001:000191c0       ?Base@?$CUtlVector@PAUdface_t@@V?$CUtlMemory@PAUdface_t@@@@@@QAEPAPAUdface_t@@XZ 0041a1c0 f i disp_vbsp.obj
 0001:000191d0       ?ResetDbgInfo@?$CUtlVector@PAUdface_t@@V?$CUtlMemory@PAUdface_t@@@@@@IAEXXZ 0041a1d0 f i disp_vbsp.obj
 0001:000191e0       ?Purge@?$CUtlMemory@Vddispinfo_t@@@@QAEXXZ 0041a1e0 f i disp_vbsp.obj
 0001:00019210       ??0?$CUtlMemory@PAVCCoreDispInfo@@@@QAE@HH@Z 0041a210 f i disp_vbsp.obj
 0001:00019250       ?Purge@?$CUtlMemory@PAVCCoreDispInfo@@@@QAEXXZ 0041a250 f i disp_vbsp.obj
 0001:00019280       ??0?$CUtlMemory@VVector2D@@@@QAE@HH@Z 0041a280 f i disp_vbsp.obj
 0001:000192c0       ??0?$CUtlMemory@_N@@QAE@HH@Z 0041a2c0 f i disp_vbsp.obj
 0001:00019300       ??0?$CUtlMemory@PAUdface_t@@@@QAE@HH@Z 0041a300 f i disp_vbsp.obj
 0001:00019340       ?Element@?$CUtlVector@EV?$CUtlMemory@E@@@@QAEAAEH@Z 0041a340 f i disp_vbsp.obj
 0001:00019350       ?ShiftElementsRight@?$CUtlVector@EV?$CUtlMemory@E@@@@IAEXHH@Z 0041a350 f i disp_vbsp.obj
 0001:00019380       ?Element@?$CUtlVector@Vddispinfo_t@@V?$CUtlMemory@Vddispinfo_t@@@@@@QAEAAVddispinfo_t@@H@Z 0041a380 f i disp_vbsp.obj
 0001:00019390       ?Element@?$CUtlVector@PAVCCoreDispInfo@@V?$CUtlMemory@PAVCCoreDispInfo@@@@@@QAEAAPAVCCoreDispInfo@@H@Z 0041a390 f i disp_vbsp.obj
 0001:000193a0       ?GrowVector@?$CUtlVector@PAVCCoreDispInfo@@V?$CUtlMemory@PAVCCoreDispInfo@@@@@@IAEXH@Z 0041a3a0 f i disp_vbsp.obj
 0001:000193d0       ?ShiftElementsRight@?$CUtlVector@PAVCCoreDispInfo@@V?$CUtlMemory@PAVCCoreDispInfo@@@@@@IAEXHH@Z 0041a3d0 f i disp_vbsp.obj
 0001:00019410       ?Purge@?$CUtlMemory@VVector2D@@@@QAEXXZ 0041a410 f i disp_vbsp.obj
 0001:00019440       ?Purge@?$CUtlMemory@_N@@QAEXXZ 0041a440 f i disp_vbsp.obj
 0001:00019470       ?Purge@?$CUtlMemory@PAUdface_t@@@@QAEXXZ 0041a470 f i disp_vbsp.obj
 0001:000194a0       ?ResetDbgInfo@?$CUtlVector@EV?$CUtlMemory@E@@@@IAEXXZ 0041a4a0 f i disp_vbsp.obj
 0001:000194b0       ?Grow@?$CUtlMemory@E@@QAEXH@Z 0041a4b0 f i disp_vbsp.obj
 0001:00019520       ?Element@?$CUtlVector@VCDispVert@@V?$CUtlMemory@VCDispVert@@@@@@QAEAAVCDispVert@@H@Z 0041a520 f i disp_vbsp.obj
 0001:00019530       ?Element@?$CUtlVector@VCDispTri@@V?$CUtlMemory@VCDispTri@@@@@@QAEAAVCDispTri@@H@Z 0041a530 f i disp_vbsp.obj
 0001:00019540       ?Element@?$CUtlVector@VVector2D@@V?$CUtlMemory@VVector2D@@@@@@QAEAAVVector2D@@H@Z 0041a540 f i disp_vbsp.obj
 0001:00019550       ?Element@?$CUtlVector@_NV?$CUtlMemory@_N@@@@QAEAA_NH@Z 0041a550 f i disp_vbsp.obj
 0001:00019560       ?Element@?$CUtlVector@PAUdface_t@@V?$CUtlMemory@PAUdface_t@@@@@@QAEAAPAUdface_t@@H@Z 0041a560 f i disp_vbsp.obj
 0001:00019570       ?GrowVector@?$CUtlVector@Vddispinfo_t@@V?$CUtlMemory@Vddispinfo_t@@@@@@IAEXH@Z 0041a570 f i disp_vbsp.obj
 0001:000195a0       ?ShiftElementsRight@?$CUtlVector@Vddispinfo_t@@V?$CUtlMemory@Vddispinfo_t@@@@@@IAEXHH@Z 0041a5a0 f i disp_vbsp.obj
 0001:000195f0       ??$Construct@Vddispinfo_t@@@@YAXPAVddispinfo_t@@@Z 0041a5f0 f i disp_vbsp.obj
 0001:00019600       ?ShiftElementsRight@?$CUtlVector@VCDispVert@@V?$CUtlMemory@VCDispVert@@@@@@IAEXHH@Z 0041a600 f i disp_vbsp.obj
 0001:00019640       ??$Construct@VCDispVert@@@@YAXPAVCDispVert@@@Z 0041a640 f i disp_vbsp.obj
 0001:00019650       ?ShiftElementsRight@?$CUtlVector@VCDispTri@@V?$CUtlMemory@VCDispTri@@@@@@IAEXHH@Z 0041a650 f i disp_vbsp.obj
 0001:00019690       ?GrowVector@?$CUtlVector@VVector2D@@V?$CUtlMemory@VVector2D@@@@@@IAEXH@Z 0041a690 f i disp_vbsp.obj
 0001:000196c0       ?ShiftElementsRight@?$CUtlVector@VVector2D@@V?$CUtlMemory@VVector2D@@@@@@IAEXHH@Z 0041a6c0 f i disp_vbsp.obj
 0001:00019700       ?GrowVector@?$CUtlVector@_NV?$CUtlMemory@_N@@@@IAEXH@Z 0041a700 f i disp_vbsp.obj
 0001:00019730       ?ShiftElementsRight@?$CUtlVector@_NV?$CUtlMemory@_N@@@@IAEXHH@Z 0041a730 f i disp_vbsp.obj
 0001:00019760       ?GrowVector@?$CUtlVector@PAUdface_t@@V?$CUtlMemory@PAUdface_t@@@@@@IAEXH@Z 0041a760 f i disp_vbsp.obj
 0001:00019790       ?ShiftElementsRight@?$CUtlVector@PAUdface_t@@V?$CUtlMemory@PAUdface_t@@@@@@IAEXHH@Z 0041a790 f i disp_vbsp.obj
 0001:000197d0       ?ResetDbgInfo@?$CUtlVector@VCDispVert@@V?$CUtlMemory@VCDispVert@@@@@@IAEXXZ 0041a7d0 f i disp_vbsp.obj
 0001:000197e0       ?ResetDbgInfo@?$CUtlVector@VCDispTri@@V?$CUtlMemory@VCDispTri@@@@@@IAEXXZ 0041a7e0 f i disp_vbsp.obj
 0001:000197f0       ?Grow@?$CUtlMemory@VCDispVert@@@@QAEXH@Z 0041a7f0 f i disp_vbsp.obj
 0001:00019860       ?Grow@?$CUtlMemory@VCDispTri@@@@QAEXH@Z 0041a860 f i disp_vbsp.obj
 0001:000198d0       ?ExportNeighborData@@YAXPAPAVCCoreDispInfo@@PAVddispinfo_t@@H@Z 0041a8d0 f   disp_vbsp.obj
 0001:00019920       ??A?$CUtlVector@VCDispVert@@V?$CUtlMemory@VCDispVert@@@@@@QAEAAVCDispVert@@H@Z 0041a920 f i disp_vbsp.obj
 0001:00019930       ??A?$CUtlVector@VCDispTri@@V?$CUtlMemory@VCDispTri@@@@@@QAEAAVCDispTri@@H@Z 0041a930 f i disp_vbsp.obj
 0001:00019940       ??A?$CUtlVector@VVector2D@@V?$CUtlMemory@VVector2D@@@@@@QAEAAVVector2D@@H@Z 0041a940 f i disp_vbsp.obj
 0001:00019950       ??A?$CUtlVector@PAUdface_t@@V?$CUtlMemory@PAUdface_t@@@@@@QAEAAPAUdface_t@@H@Z 0041a950 f i disp_vbsp.obj
 0001:00019960       ?RemoveAll@?$CUtlVector@Vddispinfo_t@@V?$CUtlMemory@Vddispinfo_t@@@@@@QAEXXZ 0041a960 f i disp_vbsp.obj
 0001:00019970       ??1?$CUtlMemory@PAVCCoreDispInfo@@@@QAE@XZ 0041a970 f i disp_vbsp.obj
 0001:000199a0       ?InsertBefore@?$CUtlVector@PAVCCoreDispInfo@@V?$CUtlMemory@PAVCCoreDispInfo@@@@@@QAEHH@Z 0041a9a0 f i disp_vbsp.obj
 0001:00019a00       ?RemoveAll@?$CUtlVector@PAVCCoreDispInfo@@V?$CUtlMemory@PAVCCoreDispInfo@@@@@@QAEXXZ 0041aa00 f i disp_vbsp.obj
 0001:00019a10       ??1?$CUtlMemory@VVector2D@@@@QAE@XZ 0041aa10 f i disp_vbsp.obj
 0001:00019a40       ??1?$CUtlMemory@_N@@QAE@XZ 0041aa40 f i disp_vbsp.obj
 0001:00019a70       ??1?$CUtlMemory@PAUdface_t@@@@QAE@XZ 0041aa70 f i disp_vbsp.obj
 0001:00019aa0       ?GrowVector@?$CUtlVector@EV?$CUtlMemory@E@@@@IAEXH@Z 0041aaa0 f i disp_vbsp.obj
 0001:00019ad0       ?RemoveAll@?$CUtlVector@VCDispVert@@V?$CUtlMemory@VCDispVert@@@@@@QAEXXZ 0041aad0 f i disp_vbsp.obj
 0001:00019ae0       ?RemoveAll@?$CUtlVector@VCDispTri@@V?$CUtlMemory@VCDispTri@@@@@@QAEXXZ 0041aae0 f i disp_vbsp.obj
 0001:00019af0       ?RemoveAll@?$CUtlVector@VVector2D@@V?$CUtlMemory@VVector2D@@@@@@QAEXXZ 0041aaf0 f i disp_vbsp.obj
 0001:00019b00       ?RemoveAll@?$CUtlVector@_NV?$CUtlMemory@_N@@@@QAEXXZ 0041ab00 f i disp_vbsp.obj
 0001:00019b10       ?RemoveAll@?$CUtlVector@PAUdface_t@@V?$CUtlMemory@PAUdface_t@@@@@@QAEXXZ 0041ab10 f i disp_vbsp.obj
 0001:00019b20       ?InsertMultipleBefore@?$CUtlVector@Vddispinfo_t@@V?$CUtlMemory@Vddispinfo_t@@@@@@QAEHHHPBVddispinfo_t@@@Z 0041ab20 f i disp_vbsp.obj
 0001:00019bd0       ?InsertMultipleBefore@?$CUtlVector@VVector2D@@V?$CUtlMemory@VVector2D@@@@@@QAEHHHPBVVector2D@@@Z 0041abd0 f i disp_vbsp.obj
 0001:00019cf0       ?InsertMultipleBefore@?$CUtlVector@_NV?$CUtlMemory@_N@@@@QAEHHHPB_N@Z 0041acf0 f i disp_vbsp.obj
 0001:00019d80       ?InsertMultipleBefore@?$CUtlVector@PAUdface_t@@V?$CUtlMemory@PAUdface_t@@@@@@QAEHHHPBQAUdface_t@@@Z 0041ad80 f i disp_vbsp.obj
 0001:00019e20       ?GrowVector@?$CUtlVector@VCDispVert@@V?$CUtlMemory@VCDispVert@@@@@@IAEXH@Z 0041ae20 f i disp_vbsp.obj
 0001:00019e50       ?GrowVector@?$CUtlVector@VCDispTri@@V?$CUtlMemory@VCDispTri@@@@@@IAEXH@Z 0041ae50 f i disp_vbsp.obj
 0001:00019e80       ?DispMapToCoreDispInfo@@YAXPAUmapdispinfo_t@@PAVCCoreDispInfo@@PAUdface_t@@@Z 0041ae80 f   disp_vbsp.obj
 0001:0001a3c0       ?FindEnclosingTri@@YA_NABVVector2D@@AAV?$CUtlVector@VVector2D@@V?$CUtlMemory@VVector2D@@@@@@AAV?$CUtlVector@GV?$CUtlMemory@G@@@@PAHQAM@Z 0041b3c0 f   disp_vbsp.obj
 0001:0001a480       ?Purge@?$CUtlVector@Vddispinfo_t@@V?$CUtlMemory@Vddispinfo_t@@@@@@QAEXXZ 0041b480 f i disp_vbsp.obj
 0001:0001a4d0       ??0?$CUtlVector@PAVCCoreDispInfo@@V?$CUtlMemory@PAVCCoreDispInfo@@@@@@QAE@HH@Z 0041b4d0 f i disp_vbsp.obj
 0001:0001a520       ?AddToTail@?$CUtlVector@PAVCCoreDispInfo@@V?$CUtlMemory@PAVCCoreDispInfo@@@@@@QAEHXZ 0041b520 f i disp_vbsp.obj
 0001:0001a530       ?Purge@?$CUtlVector@PAVCCoreDispInfo@@V?$CUtlMemory@PAVCCoreDispInfo@@@@@@QAEXXZ 0041b530 f i disp_vbsp.obj
 0001:0001a580       ??0?$CUtlVector@VVector2D@@V?$CUtlMemory@VVector2D@@@@@@QAE@HH@Z 0041b580 f i disp_vbsp.obj
 0001:0001a5d0       ??0?$CUtlVector@_NV?$CUtlMemory@_N@@@@QAE@HH@Z 0041b5d0 f i disp_vbsp.obj
 0001:0001a610       ??0?$CUtlVector@PAUdface_t@@V?$CUtlMemory@PAUdface_t@@@@@@QAE@HH@Z 0041b610 f i disp_vbsp.obj
 0001:0001a660       ?InsertBefore@?$CUtlVector@EV?$CUtlMemory@E@@@@QAEHHABE@Z 0041b660 f i disp_vbsp.obj
 0001:0001a6c0       ?Purge@?$CUtlVector@VVector2D@@V?$CUtlMemory@VVector2D@@@@@@QAEXXZ 0041b6c0 f i disp_vbsp.obj
 0001:0001a710       ?Purge@?$CUtlVector@_NV?$CUtlMemory@_N@@@@QAEXXZ 0041b710 f i disp_vbsp.obj
 0001:0001a760       ?Purge@?$CUtlVector@PAUdface_t@@V?$CUtlMemory@PAUdface_t@@@@@@QAEXXZ 0041b760 f i disp_vbsp.obj
 0001:0001a7b0       ?AddMultipleToTail@?$CUtlVector@Vddispinfo_t@@V?$CUtlMemory@Vddispinfo_t@@@@@@QAEHHPBVddispinfo_t@@@Z 0041b7b0 f i disp_vbsp.obj
 0001:0001a7d0       ?AddMultipleToTail@?$CUtlVector@VVector2D@@V?$CUtlMemory@VVector2D@@@@@@QAEHHPBVVector2D@@@Z 0041b7d0 f i disp_vbsp.obj
 0001:0001a7f0       ?AddMultipleToTail@?$CUtlVector@_NV?$CUtlMemory@_N@@@@QAEHHPB_N@Z 0041b7f0 f i disp_vbsp.obj
 0001:0001a810       ?AddMultipleToTail@?$CUtlVector@PAUdface_t@@V?$CUtlMemory@PAUdface_t@@@@@@QAEHHPBQAUdface_t@@@Z 0041b810 f i disp_vbsp.obj
 0001:0001a830       ?InsertMultipleBefore@?$CUtlVector@VCDispVert@@V?$CUtlMemory@VCDispVert@@@@@@QAEHHHPBVCDispVert@@@Z 0041b830 f i disp_vbsp.obj
 0001:0001a9d0       ?InsertMultipleBefore@?$CUtlVector@VCDispTri@@V?$CUtlMemory@VCDispTri@@@@@@QAEHHHPBVCDispTri@@@Z 0041b9d0 f i disp_vbsp.obj
 0001:0001aa70       ?ComputeDispInfoBounds@@YAXHAAVVector@@0@Z 0041ba70 f   disp_vbsp.obj
 0001:0001ab00       ?AddToTail@?$CUtlVector@EV?$CUtlMemory@E@@@@QAEHABE@Z 0041bb00 f i disp_vbsp.obj
 0001:0001ab20       ??1?$CUtlVector@PAVCCoreDispInfo@@V?$CUtlMemory@PAVCCoreDispInfo@@@@@@QAE@XZ 0041bb20 f i disp_vbsp.obj
 0001:0001ab90       ??1?$CUtlVector@VVector2D@@V?$CUtlMemory@VVector2D@@@@@@QAE@XZ 0041bb90 f i disp_vbsp.obj
 0001:0001ac00       ??1?$CUtlVector@_NV?$CUtlMemory@_N@@@@QAE@XZ 0041bc00 f i disp_vbsp.obj
 0001:0001ac70       ??1?$CUtlVector@PAUdface_t@@V?$CUtlMemory@PAUdface_t@@@@@@QAE@XZ 0041bc70 f i disp_vbsp.obj
 0001:0001ace0       ?SetCount@?$CUtlVector@Vddispinfo_t@@V?$CUtlMemory@Vddispinfo_t@@@@@@QAEXH@Z 0041bce0 f i disp_vbsp.obj
 0001:0001ad00       ?SetCount@?$CUtlVector@VVector2D@@V?$CUtlMemory@VVector2D@@@@@@QAEXH@Z 0041bd00 f i disp_vbsp.obj
 0001:0001ad20       ?SetCount@?$CUtlVector@_NV?$CUtlMemory@_N@@@@QAEXH@Z 0041bd20 f i disp_vbsp.obj
 0001:0001ad70       ?SetCount@?$CUtlVector@PAUdface_t@@V?$CUtlMemory@PAUdface_t@@@@@@QAEXH@Z 0041bd70 f i disp_vbsp.obj
 0001:0001ad90       ?AddMultipleToTail@?$CUtlVector@VCDispVert@@V?$CUtlMemory@VCDispVert@@@@@@QAEHHPBVCDispVert@@@Z 0041bd90 f i disp_vbsp.obj
 0001:0001adb0       ?AddMultipleToTail@?$CUtlVector@VCDispTri@@V?$CUtlMemory@VCDispTri@@@@@@QAEHHPBVCDispTri@@@Z 0041bdb0 f i disp_vbsp.obj
 0001:0001add0       ?CalculateLightmapSamplePositions@@YAXPAVCCoreDispInfo@@PBUdface_t@@AAV?$CUtlVector@EV?$CUtlMemory@E@@@@@Z 0041bdd0 f   disp_vbsp.obj
 0001:0001b1a0       ?SetSize@?$CUtlVector@Vddispinfo_t@@V?$CUtlMemory@Vddispinfo_t@@@@@@QAEXH@Z 0041c1a0 f i disp_vbsp.obj
 0001:0001b1c0       ?SetSize@?$CUtlVector@VVector2D@@V?$CUtlMemory@VVector2D@@@@@@QAEXH@Z 0041c1c0 f i disp_vbsp.obj
 0001:0001b1e0       ?SetSize@?$CUtlVector@_NV?$CUtlMemory@_N@@@@QAEXH@Z 0041c1e0 f i disp_vbsp.obj
 0001:0001b230       ?SetSize@?$CUtlVector@PAUdface_t@@V?$CUtlMemory@PAUdface_t@@@@@@QAEXH@Z 0041c230 f i disp_vbsp.obj
 0001:0001b250       ?SetCount@?$CUtlVector@VCDispVert@@V?$CUtlMemory@VCDispVert@@@@@@QAEXH@Z 0041c250 f i disp_vbsp.obj
 0001:0001b270       ?SetCount@?$CUtlVector@VCDispTri@@V?$CUtlMemory@VCDispTri@@@@@@QAEXH@Z 0041c270 f i disp_vbsp.obj
 0001:0001b290       ?SetSize@?$CUtlVector@VCDispVert@@V?$CUtlMemory@VCDispVert@@@@@@QAEXH@Z 0041c290 f i disp_vbsp.obj
 0001:0001b2b0       ?SetSize@?$CUtlVector@VCDispTri@@V?$CUtlMemory@VCDispTri@@@@@@QAEXH@Z 0041c2b0 f i disp_vbsp.obj
 0001:0001b2d0       ?EmitInitialDispInfos@@YAXXZ 0041c2d0 f   disp_vbsp.obj
 0001:0001b610       ?SnapRemainingVertsToSurface@@YAXPAVCCoreDispInfo@@PAVddispinfo_t@@@Z 0041c610 f   disp_vbsp.obj
 0001:0001bb00       ?SnapRemainingVertsToSurface@@YAXPAPAVCCoreDispInfo@@PAVddispinfo_t@@H@Z 0041cb00 f   disp_vbsp.obj
 0001:0001bb40       ?EmitDispLMAlphaAndNeighbors@@YAXXZ 0041cb40 f   disp_vbsp.obj
 0001:0001bed0       ??_I@YGXPAXIHP6EX0@Z@Z     0041ced0 f i faces.obj
 0001:0001bf10       ?HashVec@@YAIAAVVector@@@Z 0041cf10 f   faces.obj
 0001:0001bf80       ?GetVertexnum@@YAHAAVVector@@@Z 0041cf80 f   faces.obj
 0001:0001c190       ?FindEdgeVerts@@YAXAAVVector@@0@Z 0041d190 f   faces.obj
 0001:0001c280       ?TestEdge@@YAXMMHHH@Z      0041d280 f   faces.obj
 0001:0001c470       ??0face_vert_table_t@@QAE@XZ 0041d470 f i faces.obj
 0001:0001c480       ?AddEdge@face_vert_table_t@@QAEXH@Z 0041d480 f i faces.obj
 0001:0001c4a0       ?HasEdge@face_vert_table_t@@QBE_NH@Z 0041d4a0 f i faces.obj
 0001:0001c4c0       ?IsDiagonal@@YA_NABUface_vert_table_t@@0@Z 0041d4c0 f   faces.obj
 0001:0001c4f0       ?AllocFace@@YAPAUface_t@@XZ 0041d4f0 f   faces.obj
 0001:0001c530       ?NewFaceFromFace@@YAPAUface_t@@PAU1@@Z 0041d530 f   faces.obj
 0001:0001c590       ?FreeFace@@YAXPAUface_t@@@Z 0041d590 f   faces.obj
 0001:0001c5c0       ?FreeFaceList@@YAXPAUface_t@@@Z 0041d5c0 f   faces.obj
 0001:0001c600       ?TryMergeWinding@@YAPAUwinding_t@@PAU1@0AAVVector@@@Z 0041d600 f   faces.obj
 0001:0001ca30       ?FaceOnWaterBrush@@YA_NPAUface_t@@@Z 0041da30 f   faces.obj
 0001:0001ca50       ?AddWindingToPrimverts@@YAHPBUwinding_t@@PAGHH@Z 0041da50 f   faces.obj
 0001:0001cb80       ?Size@?$CUtlVector@GV?$CUtlMemory@G@@@@QBEHXZ 0041db80 f i faces.obj
 0001:0001cb90       ?Base@?$CUtlMemory@Uface_vert_table_t@@@@QBEPBUface_vert_table_t@@XZ 0041db90 f i faces.obj
 0001:0001cba0       ?Base@?$CUtlMemory@Uface_vert_table_t@@@@QAEPAUface_vert_table_t@@XZ 0041dba0 f i faces.obj
 0001:0001cbb0       ?ValidateGrowSize@?$CUtlMemory@Uface_vert_table_t@@@@IAEXXZ 0041dbb0 f i faces.obj
 0001:0001cbc0       ??$Construct@Uface_vert_table_t@@@@YAXPAUface_vert_table_t@@@Z 0041dbc0 f i faces.obj
 0001:0001cbe0       ??$Destruct@Uface_vert_table_t@@@@YAXPAUface_vert_table_t@@@Z 0041dbe0 f i faces.obj
 0001:0001cbf0       ?NumAllocated@?$CUtlMemory@Uface_vert_table_t@@@@QBEHXZ 0041dbf0 f i faces.obj
 0001:0001cc00       ?IsExternallyAllocated@?$CUtlMemory@Uface_vert_table_t@@@@QBE_NXZ 0041dc00 f i faces.obj
 0001:0001cc10       ?FaceFromSuperverts@@YAXPAPAUface_t@@PAU1@H@Z 0041dc10 f   faces.obj
 0001:0001cdb0       ?EmitFaceVertexes@@YAXPAPAUface_t@@PAU1@@Z 0041ddb0 f   faces.obj
 0001:0001cea0       ?EmitNodeFaceVertexes_r@@YAXPAUnode_t@@@Z 0041dea0 f   faces.obj
 0001:0001cef0       ?EmitLeafFaceVertexes@@YAXPAPAUface_t@@@Z 0041def0 f   faces.obj
 0001:0001cf20       ?Base@?$CUtlVector@Uface_vert_table_t@@V?$CUtlMemory@Uface_vert_table_t@@@@@@QAEPAUface_vert_table_t@@XZ 0041df20 f i faces.obj
 0001:0001cf30       ?Base@?$CUtlVector@Uface_vert_table_t@@V?$CUtlMemory@Uface_vert_table_t@@@@@@QBEPBUface_vert_table_t@@XZ 0041df30 f i faces.obj
 0001:0001cf40       ?ResetDbgInfo@?$CUtlVector@Uface_vert_table_t@@V?$CUtlMemory@Uface_vert_table_t@@@@@@IAEXXZ 0041df40 f i faces.obj
 0001:0001cf50       ?Element@?$CUtlVector@HV?$CUtlMemory@H@@@@QBEABHH@Z 0041df50 f i faces.obj
 0001:0001cf60       ??0?$CUtlMemory@Uface_vert_table_t@@@@QAE@HH@Z 0041df60 f i faces.obj
 0001:0001cfa0       ?Element@?$CUtlVector@Uface_vert_table_t@@V?$CUtlMemory@Uface_vert_table_t@@@@@@QAEAAUface_vert_table_t@@H@Z 0041dfa0 f i faces.obj
 0001:0001cfb0       ?RemoveAll@?$CUtlVector@Uface_vert_table_t@@V?$CUtlMemory@Uface_vert_table_t@@@@@@QAEXXZ 0041dfb0 f i faces.obj
 0001:0001cfc0       ?ShiftElementsRight@?$CUtlVector@Uface_vert_table_t@@V?$CUtlMemory@Uface_vert_table_t@@@@@@IAEXHH@Z 0041dfc0 f i faces.obj
 0001:0001d000       ?Purge@?$CUtlMemory@Uface_vert_table_t@@@@QAEXXZ 0041e000 f i faces.obj
 0001:0001d030       ?Grow@?$CUtlMemory@Uface_vert_table_t@@@@QAEXH@Z 0041e030 f i faces.obj
 0001:0001d0a0       ??A?$CUtlVector@HV?$CUtlMemory@H@@@@QBEABHH@Z 0041e0a0 f i faces.obj
 0001:0001d0b0       ?Find@?$CUtlVector@HV?$CUtlMemory@H@@@@QBEHABH@Z 0041e0b0 f i faces.obj
 0001:0001d0e0       ??A?$CUtlVector@Uface_vert_table_t@@V?$CUtlMemory@Uface_vert_table_t@@@@@@QBEABUface_vert_table_t@@H@Z 0041e0e0 f i faces.obj
 0001:0001d0f0       ??A?$CUtlVector@Uface_vert_table_t@@V?$CUtlMemory@Uface_vert_table_t@@@@@@QAEAAUface_vert_table_t@@H@Z 0041e0f0 f i faces.obj
 0001:0001d100       ?Purge@?$CUtlVector@Uface_vert_table_t@@V?$CUtlMemory@Uface_vert_table_t@@@@@@QAEXXZ 0041e100 f i faces.obj
 0001:0001d150       ??1?$CUtlMemory@Uface_vert_table_t@@@@QAE@XZ 0041e150 f i faces.obj
 0001:0001d180       ?GrowVector@?$CUtlVector@Uface_vert_table_t@@V?$CUtlMemory@Uface_vert_table_t@@@@@@IAEXH@Z 0041e180 f i faces.obj
 0001:0001d1b0       ?GetEdge2_InitOptimizedList@@YAXXZ 0041e1b0 f   faces.obj
 0001:0001d1e0       ?IntSort@@YAXAAV?$CUtlVector@HV?$CUtlMemory@H@@@@@Z 0041e1e0 f   faces.obj
 0001:0001d230       ?OverlaysAreEqual@@YA_NPAUface_t@@0@Z 0041e230 f   faces.obj
 0001:0001d2b0       ?TryMerge@@YAPAUface_t@@PAU1@0AAVVector@@@Z 0041e2b0 f   faces.obj
 0001:0001d380       ?MergeFaceList@@YAXPAPAUface_t@@@Z 0041e380 f   faces.obj
 0001:0001d410       ?SubdivideFace@@YAXPAPAUface_t@@PAU1@@Z 0041e410 f   faces.obj
 0001:0001d760       ?SubdivideFaceList@@YAXPAPAUface_t@@@Z 0041e760 f   faces.obj
 0001:0001d8f0       ?FaceFromPortal@@YAPAUface_t@@PAUportal_t@@H@Z 0041e8f0 f   faces.obj
 0001:0001da80       ?MakeFaces_r@@YAXPAUnode_t@@@Z 0041ea80 f   faces.obj
 0001:0001db30       ?MakeFaces@@YAXPAUnode_t@@@Z 0041eb30 f   faces.obj
 0001:0001db90       ??0?$CUtlVector@Uface_vert_table_t@@V?$CUtlMemory@Uface_vert_table_t@@@@@@QAE@HH@Z 0041eb90 f i faces.obj
 0001:0001dbe0       ??1?$CUtlVector@Uface_vert_table_t@@V?$CUtlMemory@Uface_vert_table_t@@@@@@QAE@XZ 0041ebe0 f i faces.obj
 0001:0001dc50       ?InsertMultipleBefore@?$CUtlVector@Uface_vert_table_t@@V?$CUtlMemory@Uface_vert_table_t@@@@@@QAEHHHPBUface_vert_table_t@@@Z 0041ec50 f i faces.obj
 0001:0001dd20       ??_F?$CUtlVector@HV?$CUtlMemory@H@@@@QAEXXZ 0041ed20 f i faces.obj
 0001:0001dd40       ?AddMultipleToTail@?$CUtlVector@Uface_vert_table_t@@V?$CUtlMemory@Uface_vert_table_t@@@@@@QAEHHPBUface_vert_table_t@@@Z 0041ed40 f i faces.obj
 0001:0001dd60       ?Triangulate_r@@YAXAAV?$CUtlVector@HV?$CUtlMemory@H@@@@ABV1@ABV?$CUtlVector@Uface_vert_table_t@@V?$CUtlMemory@Uface_vert_table_t@@@@@@@Z 0041ed60 f   faces.obj
 0001:0001e100       ?FixFaceEdges@@YAXPAPAUface_t@@PAU1@@Z 0041f100 f   faces.obj
 0001:0001e570       ?FixEdges_r@@YAXPAUnode_t@@@Z 0041f570 f   faces.obj
 0001:0001e5c0       ?FixLeafFaceEdges@@YAXPAPAUface_t@@@Z 0041f5c0 f   faces.obj
 0001:0001e5f0       ?FixTjuncs@@YAPAUface_t@@PAUnode_t@@PAU1@@Z 0041f5f0 f   faces.obj
 0001:0001e770       ?AddEdge@@YAHHHPAUface_t@@@Z 0041f770 f   faces.obj
 0001:0001e810       ?GetEdge2@@YAHHHPAUface_t@@@Z 0041f810 f   faces.obj
 0001:0001f0a0       ?SubdivideFaceBySubdivSize@@YAXPAUface_t@@@Z 004200a0 f   faces.obj
 0001:0001f190       ?SplitSubdividedFaces_Node_r@@YAXPAUnode_t@@@Z 00420190 f   faces.obj
 0001:0001f1f0       ?SplitSubdividedFaces@@YAXPAUface_t@@PAUnode_t@@@Z 004201f0 f   faces.obj
 0001:0001f230       ?PortalVisibleSides@@YAHPAUportal_t@@@Z 00420230 f   glfile.obj
 0001:0001f270       ?OutputWinding@@YAXPAUwinding_t@@PAX@Z 00420270 f   glfile.obj
 0001:0001f310       ?OutputPortal@@YAXPAUportal_t@@PAX@Z 00420310 f   glfile.obj
 0001:0001f380       ?WriteGLView_r@@YAXPAUnode_t@@PAX@Z 00420380 f   glfile.obj
 0001:0001f3d0       ?WriteGLViewFaces_r@@YAXPAUnode_t@@PAX@Z 004203d0 f   glfile.obj
 0001:0001f430       ?WriteGLView@@YAXPAUtree_t@@PAD@Z 00420430 f   glfile.obj
 0001:0001f4e0       ?WriteGLViewFaces@@YAXPAUtree_t@@PBD@Z 004204e0 f   glfile.obj
 0001:0001f590       ?CopyToArray@Vector@@QBEXPAM@Z 00420590 f i ivp.obj
 0001:0001f5b0       ?CrossProduct@@YA?AVVector@@ABV1@0@Z 004205b0 f i ivp.obj
 0001:0001f5f0       ?Defaults@convertconvexparams_t@@QAEXXZ 004205f0 f i ivp.obj
 0001:0001f610       ?DumpCollideToGlView@@YAXPAVCPhysCollide@@PBD@Z 00420610 f   ivp.obj
 0001:0001f740       ??0CPhysCollisionEntry@@QAE@PAVCPhysCollide@@@Z 00420740 f   ivp.obj
 0001:0001f760       ?GetCollisionBinarySize@CPhysCollisionEntry@@QAEIXZ 00420760 f   ivp.obj
 0001:0001f780       ?WriteCollisionBinary@CPhysCollisionEntry@@QAEIPAD@Z 00420780 f   ivp.obj
 0001:0001f7a0       ??0CPhysCollisionEntrySolid@@QAE@PAVCPhysCollide@@PBDM@Z 004207a0 f   ivp.obj
 0001:0001f7e0       ??0CPhysCollisionEntryStaticSolid@@QAE@PAVCPhysCollide@@H@Z 004207e0 f   ivp.obj
 0001:0001f800       ??0CPhysCollisionEntryStaticMesh@@QAE@PAVCPhysCollide@@PBD@Z 00420800 f   ivp.obj
 0001:0001f820       ??0CPhysCollisionEntryFluid@@QAE@PAVCPhysCollide@@PBDMABVVector@@MH@Z 00420820 f   ivp.obj
 0001:0001f8a0       ??1CPhysCollisionEntryFluid@@QAE@XZ 004208a0 f   ivp.obj
 0001:0001f8c0       ?ReferenceBrush@CPlaneList@@QAEXH@Z 004208c0 f   ivp.obj
 0001:0001f8e0       ?IsBrushReferenced@CPlaneList@@QAE_NH@Z 004208e0 f   ivp.obj
 0001:0001f8f0       ?GetFirstBrushSide@CPlaneList@@QAEHXZ 004208f0 f   ivp.obj
 0001:0001f9c0       ?WaterLessFunc@@YA_NABUWaterTexInfo@@0@Z 004209c0 f   ivp.obj
 0001:0001f9e0       ?GetWaterTextureName@@YAXPBD0HPAD@Z 004209e0 f   ivp.obj
 0001:0001fa40       ?EmitWaterMaterialFile@@YAXPAUWaterTexInfo@@@Z 00420a40 f   ivp.obj
 0001:0001fac0       ??0WaterTexInfo@@QAE@XZ    00420ac0 f i ivp.obj
 0001:0001fc70       ?FirstWaterTexinfo@@YAHPAUbspbrush_t@@H@Z 00420c70 f   ivp.obj
 0001:0001fcd0       ??0waterleaf_t@@QAE@XZ     00420cd0 f i ivp.obj
 0001:0001fce0       ??0watermodel_t@@QAE@XZ    00420ce0 f i ivp.obj
 0001:0001fcf0       ??4waterleaf_t@@QAEAAU0@ABU0@@Z 00420cf0 f i ivp.obj
 0001:00020000       ?Base@?$CUtlMemory@D@@QAEPADXZ 00421000 f i ivp.obj
 0001:00020010       ?Count@?$CUtlVector@DV?$CUtlMemory@D@@@@QBEHXZ 00421010 f i ivp.obj
 0001:00020020       ?Base@?$CUtlMemory@Ulistplane_t@@@@QAEPAUlistplane_t@@XZ 00421020 f i ivp.obj
 0001:00020030       ?Count@?$CUtlVector@Ulistplane_t@@V?$CUtlMemory@Ulistplane_t@@@@@@QBEHXZ 00421030 f i ivp.obj
 0001:00020040       ?Base@?$CUtlMemory@PAVCPhysConvex@@@@QAEPAPAVCPhysConvex@@XZ 00421040 f i ivp.obj
 0001:00020050       ?Count@?$CUtlVector@PAVCPhysConvex@@V?$CUtlMemory@PAVCPhysConvex@@@@@@QBEHXZ 00421050 f i ivp.obj
 0001:00020060       ?InvalidIndex@?$CUtlRBTree@UWaterTexInfo@@HP6A_NABU1@0@Z@@SAHXZ 00421060 f i ivp.obj
 0001:00020070       ?Count@?$CUtlVector@Uwaterleaf_t@@V?$CUtlMemory@Uwaterleaf_t@@@@@@QBEHXZ 00421070 f i ivp.obj
 0001:00020080       ?Count@?$CUtlVector@PAUnode_t@@V?$CUtlMemory@PAUnode_t@@@@@@QBEHXZ 00421080 f i ivp.obj
 0001:00020090       ??0?$CBitVec@$0BAAAA@@@QAE@XZ 00421090 f i ivp.obj
 0001:000200b0       ?Get@?$CBitVec@$0BAAAA@@@QBEKK@Z 004210b0 f i ivp.obj
 0001:000200d0       ?Set@?$CBitVec@$0BAAAA@@@QAEXK@Z 004210d0 f i ivp.obj
 0001:000200f0       ?Count@?$CUtlVector@Uwatermodel_t@@V?$CUtlMemory@Uwatermodel_t@@@@@@QBEHXZ 004210f0 f i ivp.obj
 0001:00020100       ?Count@?$CUtlVector@PAVCPhysCollisionEntry@@V?$CUtlMemory@PAVCPhysCollisionEntry@@@@@@QBEHXZ 00421100 f i ivp.obj
 0001:00020110       ?Base@?$CUtlMemory@UNode_t@?$CUtlRBTree@UWaterTexInfo@@HP6A_NABU1@0@Z@@@@QAEPAUNode_t@?$CUtlRBTree@UWaterTexInfo@@HP6A_NABU1@0@Z@@XZ 00421110 f i ivp.obj
 0001:00020120       ?Base@?$CUtlMemory@Uwaterleaf_t@@@@QAEPAUwaterleaf_t@@XZ 00421120 f i ivp.obj
 0001:00020130       ??$CopyConstruct@Uwaterleaf_t@@@@YAXPAUwaterleaf_t@@ABU0@@Z 00421130 f i ivp.obj
 0001:00020150       ?Base@?$CUtlMemory@PAUnode_t@@@@QAEPAPAUnode_t@@XZ 00421150 f i ivp.obj
 0001:00020160       ??$Destruct@PAUnode_t@@@@YAXPAPAUnode_t@@@Z 00421160 f i ivp.obj
 0001:00020170       ?Base@?$CUtlMemory@Uwatermodel_t@@@@QAEPAUwatermodel_t@@XZ 00421170 f i ivp.obj
 0001:00020180       ??0WaterTexInfo@@QAE@ABU0@@Z 00421180 f i ivp.obj
 0001:000201b0       ?ValidateGrowSize@?$CUtlMemory@D@@IAEXXZ 004211b0 f i ivp.obj
 0001:000201c0       ?ValidateGrowSize@?$CUtlMemory@Ulistplane_t@@@@IAEXXZ 004211c0 f i ivp.obj
 0001:000201d0       ?ValidateGrowSize@?$CUtlMemory@PAVCPhysConvex@@@@IAEXXZ 004211d0 f i ivp.obj
 0001:000201e0       ?ValidateGrowSize@?$CUtlMemory@UNode_t@?$CUtlRBTree@UWaterTexInfo@@HP6A_NABU1@0@Z@@@@IAEXXZ 004211e0 f i ivp.obj
 0001:000201f0       ?ValidateGrowSize@?$CUtlMemory@Uwaterleaf_t@@@@IAEXXZ 004211f0 f i ivp.obj
 0001:00020200       ?ValidateGrowSize@?$CUtlMemory@PAUnode_t@@@@IAEXXZ 00421200 f i ivp.obj
 0001:00020210       ?ValidateGrowSize@?$CUtlMemory@Uwatermodel_t@@@@IAEXXZ 00421210 f i ivp.obj
 0001:00020220       ?ValidateGrowSize@?$CUtlMemory@PAVCPhysCollisionEntry@@@@IAEXXZ 00421220 f i ivp.obj
 0001:00020230       ??$Construct@D@@YAXPAD@Z   00421230 f i ivp.obj
 0001:00020240       ??$CopyConstruct@Ulistplane_t@@@@YAXPAUlistplane_t@@ABU0@@Z 00421240 f i ivp.obj
 0001:00020270       ??$CopyConstruct@PAVCPhysConvex@@@@YAXPAPAVCPhysConvex@@ABQAV0@@Z 00421270 f i ivp.obj
 0001:00020290       ??A?$CUtlMemory@UNode_t@?$CUtlRBTree@UWaterTexInfo@@HP6A_NABU1@0@Z@@@@QBEABUNode_t@?$CUtlRBTree@UWaterTexInfo@@HP6A_NABU1@0@Z@@H@Z 00421290 f i ivp.obj
 0001:000202b0       ??A?$CUtlMemory@UNode_t@?$CUtlRBTree@UWaterTexInfo@@HP6A_NABU1@0@Z@@@@QAEAAUNode_t@?$CUtlRBTree@UWaterTexInfo@@HP6A_NABU1@0@Z@@H@Z 004212b0 f i ivp.obj
 0001:000202d0       ??$Destruct@UWaterTexInfo@@@@YAXPAUWaterTexInfo@@@Z 004212d0 f i ivp.obj
 0001:000202e0       ?NumAllocated@?$CUtlMemory@Uwaterleaf_t@@@@QBEHXZ 004212e0 f i ivp.obj
 0001:000202f0       ??$CopyConstruct@PAUnode_t@@@@YAXPAPAUnode_t@@ABQAU0@@Z 004212f0 f i ivp.obj
 0001:00020310       ??$CopyConstruct@Uwatermodel_t@@@@YAXPAUwatermodel_t@@ABU0@@Z 00421310 f i ivp.obj
 0001:00020330       ?NumAllocated@?$CUtlMemory@D@@QBEHXZ 00421330 f i ivp.obj
 0001:00020340       ?IsExternallyAllocated@?$CUtlMemory@D@@QBE_NXZ 00421340 f i ivp.obj
 0001:00020350       ??$Destruct@D@@YAXPAD@Z    00421350 f i ivp.obj
 0001:00020360       ?NumAllocated@?$CUtlMemory@Ulistplane_t@@@@QBEHXZ 00421360 f i ivp.obj
 0001:00020370       ?IsExternallyAllocated@?$CUtlMemory@Ulistplane_t@@@@QBE_NXZ 00421370 f i ivp.obj
 0001:00020380       ??$Destruct@Ulistplane_t@@@@YAXPAUlistplane_t@@@Z 00421380 f i ivp.obj
 0001:00020390       ?NumAllocated@?$CUtlMemory@PAVCPhysConvex@@@@QBEHXZ 00421390 f i ivp.obj
 0001:000203a0       ?IsExternallyAllocated@?$CUtlMemory@PAVCPhysConvex@@@@QBE_NXZ 004213a0 f i ivp.obj
 0001:000203b0       ??$Destruct@PAVCPhysConvex@@@@YAXPAPAVCPhysConvex@@@Z 004213b0 f i ivp.obj
 0001:000203c0       ?Links@?$CUtlRBTree@UWaterTexInfo@@HP6A_NABU1@0@Z@@IAEAAULinks_t@1@H@Z 004213c0 f i ivp.obj
 0001:000203e0       ?IsIdxValid@?$CUtlMemory@UNode_t@?$CUtlRBTree@UWaterTexInfo@@HP6A_NABU1@0@Z@@@@QBE_NH@Z 004213e0 f i ivp.obj
 0001:00020400       ?NumAllocated@?$CUtlMemory@UNode_t@?$CUtlRBTree@UWaterTexInfo@@HP6A_NABU1@0@Z@@@@QBEHXZ 00421400 f i ivp.obj
 0001:00020410       ?IsExternallyAllocated@?$CUtlMemory@UNode_t@?$CUtlRBTree@UWaterTexInfo@@HP6A_NABU1@0@Z@@@@QBE_NXZ 00421410 f i ivp.obj
 0001:00020420       ??$Construct@UWaterTexInfo@@@@YAXPAUWaterTexInfo@@@Z 00421420 f i ivp.obj
 0001:00020440       ??$Destruct@Uwaterleaf_t@@@@YAXPAUwaterleaf_t@@@Z 00421440 f i ivp.obj
 0001:00020450       ?IsExternallyAllocated@?$CUtlMemory@Uwaterleaf_t@@@@QBE_NXZ 00421450 f i ivp.obj
 0001:00020460       ?NumAllocated@?$CUtlMemory@PAUnode_t@@@@QBEHXZ 00421460 f i ivp.obj
 0001:00020470       ?IsExternallyAllocated@?$CUtlMemory@PAUnode_t@@@@QBE_NXZ 00421470 f i ivp.obj
 0001:00020480       ??$Destruct@Uwatermodel_t@@@@YAXPAUwatermodel_t@@@Z 00421480 f i ivp.obj
 0001:00020490       ?NumAllocated@?$CUtlMemory@Uwatermodel_t@@@@QBEHXZ 00421490 f i ivp.obj
 0001:000204a0       ?IsExternallyAllocated@?$CUtlMemory@Uwatermodel_t@@@@QBE_NXZ 004214a0 f i ivp.obj
 0001:000204b0       ??$Destruct@PAVCPhysCollisionEntry@@@@YAXPAPAVCPhysCollisionEntry@@@Z 004214b0 f i ivp.obj
 0001:000204c0       ?IsRoot@?$CUtlRBTree@UWaterTexInfo@@HP6A_NABU1@0@Z@@QBE_NH@Z 004214c0 f i ivp.obj
 0001:000204d0       ?SetColor@?$CUtlRBTree@UWaterTexInfo@@HP6A_NABU1@0@Z@@IAEXHW4NodeColor_t@1@@Z 004214d0 f i ivp.obj
 0001:000204f0       ?SetParent@?$CUtlRBTree@UWaterTexInfo@@HP6A_NABU1@0@Z@@IAEXHH@Z 004214f0 f i ivp.obj
 0001:00020510       ?SetLeftChild@?$CUtlRBTree@UWaterTexInfo@@HP6A_NABU1@0@Z@@IAEXHH@Z 00421510 f i ivp.obj
 0001:00020530       ?SetRightChild@?$CUtlRBTree@UWaterTexInfo@@HP6A_NABU1@0@Z@@IAEXHH@Z 00421530 f i ivp.obj
 0001:00020550       ?GetSize@CTextBuffer@@QAEHXZ 00421550 f i ivp.obj
 0001:00020560       ?Base@?$CUtlVector@DV?$CUtlMemory@D@@@@QAEPADXZ 00421560 f i ivp.obj
 0001:00020570       ?Base@?$CUtlVector@Ulistplane_t@@V?$CUtlMemory@Ulistplane_t@@@@@@QAEPAUlistplane_t@@XZ 00421570 f i ivp.obj
 0001:00020580       ?Base@?$CUtlVector@PAVCPhysConvex@@V?$CUtlMemory@PAVCPhysConvex@@@@@@QAEPAPAVCPhysConvex@@XZ 00421580 f i ivp.obj
 0001:00020590       ?ResetDbgInfo@?$CUtlVector@DV?$CUtlMemory@D@@@@IAEXXZ 00421590 f i ivp.obj
 0001:000205a0       ?ResetDbgInfo@?$CUtlVector@Ulistplane_t@@V?$CUtlMemory@Ulistplane_t@@@@@@IAEXXZ 004215a0 f i ivp.obj
 0001:000205b0       ?ResetDbgInfo@?$CUtlVector@PAVCPhysConvex@@V?$CUtlMemory@PAVCPhysConvex@@@@@@IAEXXZ 004215b0 f i ivp.obj
 0001:000205c0       ?ResetDbgInfo@?$CUtlRBTree@UWaterTexInfo@@HP6A_NABU1@0@Z@@IAEXXZ 004215c0 f i ivp.obj
 0001:000205d0       ?Base@?$CUtlVector@Uwaterleaf_t@@V?$CUtlMemory@Uwaterleaf_t@@@@@@QAEPAUwaterleaf_t@@XZ 004215d0 f i ivp.obj
 0001:000205e0       ?ResetDbgInfo@?$CUtlVector@Uwaterleaf_t@@V?$CUtlMemory@Uwaterleaf_t@@@@@@IAEXXZ 004215e0 f i ivp.obj
 0001:000205f0       ?Base@?$CUtlVector@PAUnode_t@@V?$CUtlMemory@PAUnode_t@@@@@@QAEPAPAUnode_t@@XZ 004215f0 f i ivp.obj
 0001:00020600       ?ResetDbgInfo@?$CUtlVector@PAUnode_t@@V?$CUtlMemory@PAUnode_t@@@@@@IAEXXZ 00421600 f i ivp.obj
 0001:00020610       ?Base@?$CUtlVector@Uwatermodel_t@@V?$CUtlMemory@Uwatermodel_t@@@@@@QAEPAUwatermodel_t@@XZ 00421610 f i ivp.obj
 0001:00020620       ?ResetDbgInfo@?$CUtlVector@Uwatermodel_t@@V?$CUtlMemory@Uwatermodel_t@@@@@@IAEXXZ 00421620 f i ivp.obj
 0001:00020630       ??0?$CUtlMemory@D@@QAE@HH@Z 00421630 f i ivp.obj
 0001:00020670       ??0?$CUtlMemory@Ulistplane_t@@@@QAE@HH@Z 00421670 f i ivp.obj
 0001:000206b0       ??0?$CUtlMemory@PAVCPhysConvex@@@@QAE@HH@Z 004216b0 f i ivp.obj
 0001:000206f0       ?Element@?$CUtlRBTree@UWaterTexInfo@@HP6A_NABU1@0@Z@@QBEABUWaterTexInfo@@H@Z 004216f0 f i ivp.obj
 0001:00020710       ?Element@?$CUtlRBTree@UWaterTexInfo@@HP6A_NABU1@0@Z@@QAEAAUWaterTexInfo@@H@Z 00421710 f i ivp.obj
 0001:00020730       ??0?$CUtlMemory@UNode_t@?$CUtlRBTree@UWaterTexInfo@@HP6A_NABU1@0@Z@@@@QAE@HH@Z 00421730 f i ivp.obj
 0001:00020780       ??$CopyConstruct@UWaterTexInfo@@@@YAXPAUWaterTexInfo@@ABU0@@Z 00421780 f i ivp.obj
 0001:000207b0       ?Element@?$CUtlVector@Uwaterleaf_t@@V?$CUtlMemory@Uwaterleaf_t@@@@@@QAEAAUwaterleaf_t@@H@Z 004217b0 f i ivp.obj
 0001:000207c0       ?ShiftElementsRight@?$CUtlVector@Uwaterleaf_t@@V?$CUtlMemory@Uwaterleaf_t@@@@@@IAEXHH@Z 004217c0 f i ivp.obj
 0001:00020800       ??0?$CUtlMemory@Uwaterleaf_t@@@@QAE@HH@Z 00421800 f i ivp.obj
 0001:00020840       ?Element@?$CUtlVector@PAUnode_t@@V?$CUtlMemory@PAUnode_t@@@@@@QAEAAPAUnode_t@@H@Z 00421840 f i ivp.obj
 0001:00020850       ??0?$CUtlMemory@PAUnode_t@@@@QAE@HH@Z 00421850 f i ivp.obj
 0001:00020890       ??0?$CUtlMemory@Uwatermodel_t@@@@QAE@HH@Z 00421890 f i ivp.obj
 0001:000208d0       ??0?$CUtlMemory@PAVCPhysCollisionEntry@@@@QAE@HH@Z 004218d0 f i ivp.obj
 0001:00020910       ?Purge@?$CUtlMemory@D@@QAEXXZ 00421910 f i ivp.obj
 0001:00020940       ?Element@?$CUtlVector@DV?$CUtlMemory@D@@@@QAEAADH@Z 00421940 f i ivp.obj
 0001:00020950       ?RemoveAll@?$CUtlVector@DV?$CUtlMemory@D@@@@QAEXXZ 00421950 f i ivp.obj
 0001:00020960       ?ShiftElementsRight@?$CUtlVector@DV?$CUtlMemory@D@@@@IAEXHH@Z 00421960 f i ivp.obj
 0001:00020990       ?Purge@?$CUtlMemory@Ulistplane_t@@@@QAEXXZ 00421990 f i ivp.obj
 0001:000209c0       ?Element@?$CUtlVector@Ulistplane_t@@V?$CUtlMemory@Ulistplane_t@@@@@@QAEAAUlistplane_t@@H@Z 004219c0 f i ivp.obj
 0001:000209d0       ?RemoveAll@?$CUtlVector@Ulistplane_t@@V?$CUtlMemory@Ulistplane_t@@@@@@QAEXXZ 004219d0 f i ivp.obj
 0001:000209e0       ?ShiftElementsRight@?$CUtlVector@Ulistplane_t@@V?$CUtlMemory@Ulistplane_t@@@@@@IAEXHH@Z 004219e0 f i ivp.obj
 0001:00020a20       ?Purge@?$CUtlMemory@PAVCPhysConvex@@@@QAEXXZ 00421a20 f i ivp.obj
 0001:00020a50       ?Element@?$CUtlVector@PAVCPhysConvex@@V?$CUtlMemory@PAVCPhysConvex@@@@@@QAEAAPAVCPhysConvex@@H@Z 00421a50 f i ivp.obj
 0001:00020a60       ?RemoveAll@?$CUtlVector@PAVCPhysConvex@@V?$CUtlMemory@PAVCPhysConvex@@@@@@QAEXXZ 00421a60 f i ivp.obj
 0001:00020a70       ?ShiftElementsRight@?$CUtlVector@PAVCPhysConvex@@V?$CUtlMemory@PAVCPhysConvex@@@@@@IAEXHH@Z 00421a70 f i ivp.obj
 0001:00020ab0       ?Links@?$CUtlRBTree@UWaterTexInfo@@HP6A_NABU1@0@Z@@IBEABULinks_t@1@H@Z 00421ab0 f i ivp.obj
 0001:00020b00       ?Purge@?$CUtlMemory@UNode_t@?$CUtlRBTree@UWaterTexInfo@@HP6A_NABU1@0@Z@@@@QAEXXZ 00421b00 f i ivp.obj
 0001:00020b30       ?RemoveAll@?$CUtlVector@Uwaterleaf_t@@V?$CUtlMemory@Uwaterleaf_t@@@@@@QAEXXZ 00421b30 f i ivp.obj
 0001:00020b40       ?Grow@?$CUtlMemory@Uwaterleaf_t@@@@QAEXH@Z 00421b40 f i ivp.obj
 0001:00020bb0       ?Purge@?$CUtlMemory@Uwaterleaf_t@@@@QAEXXZ 00421bb0 f i ivp.obj
 0001:00020be0       ?ShiftElementsRight@?$CUtlVector@PAUnode_t@@V?$CUtlMemory@PAUnode_t@@@@@@IAEXHH@Z 00421be0 f i ivp.obj
 0001:00020c20       ?Purge@?$CUtlMemory@PAUnode_t@@@@QAEXXZ 00421c20 f i ivp.obj
 0001:00020c50       ?Element@?$CUtlVector@Uwatermodel_t@@V?$CUtlMemory@Uwatermodel_t@@@@@@QAEAAUwatermodel_t@@H@Z 00421c50 f i ivp.obj
 0001:00020c70       ?RemoveAll@?$CUtlVector@Uwatermodel_t@@V?$CUtlMemory@Uwatermodel_t@@@@@@QAEXXZ 00421c70 f i ivp.obj
 0001:00020c80       ?ShiftElementsRight@?$CUtlVector@Uwatermodel_t@@V?$CUtlMemory@Uwatermodel_t@@@@@@IAEXHH@Z 00421c80 f i ivp.obj
 0001:00020cd0       ?Purge@?$CUtlMemory@Uwatermodel_t@@@@QAEXXZ 00421cd0 f i ivp.obj
 0001:00020d00       ?RemoveAll@?$CUtlVector@PAVCPhysCollisionEntry@@V?$CUtlMemory@PAVCPhysCollisionEntry@@@@@@QAEXXZ 00421d00 f i ivp.obj
 0001:00020d10       ?Purge@?$CUtlMemory@PAVCPhysCollisionEntry@@@@QAEXXZ 00421d10 f i ivp.obj
 0001:00020d40       ?Grow@?$CUtlMemory@D@@QAEXH@Z 00421d40 f i ivp.obj
 0001:00020db0       ?Grow@?$CUtlMemory@Ulistplane_t@@@@QAEXH@Z 00421db0 f i ivp.obj
 0001:00020e20       ?Grow@?$CUtlMemory@PAVCPhysConvex@@@@QAEXH@Z 00421e20 f i ivp.obj
 0001:00020e90       ?Grow@?$CUtlMemory@UNode_t@?$CUtlRBTree@UWaterTexInfo@@HP6A_NABU1@0@Z@@@@QAEXH@Z 00421e90 f i ivp.obj
 0001:00020f20       ?Grow@?$CUtlMemory@PAUnode_t@@@@QAEXH@Z 00421f20 f i ivp.obj
 0001:00020f90       ?Grow@?$CUtlMemory@Uwatermodel_t@@@@QAEXH@Z 00421f90 f i ivp.obj
 0001:00021020       ?Parent@?$CUtlRBTree@UWaterTexInfo@@HP6A_NABU1@0@Z@@QBEHH@Z 00422020 f i ivp.obj
 0001:00021030       ?IsRed@?$CUtlRBTree@UWaterTexInfo@@HP6A_NABU1@0@Z@@IBE_NH@Z 00422030 f i ivp.obj
 0001:00021050       ?Color@?$CUtlRBTree@UWaterTexInfo@@HP6A_NABU1@0@Z@@IBE?AW4NodeColor_t@1@H@Z 00422050 f i ivp.obj
 0001:00021060       ?GetData@CTextBuffer@@QAEPADXZ 00422060 f i ivp.obj
 0001:00021070       ?DumpCollideToPHY@@YAXPAVCPhysCollide@@PAVCTextBuffer@@PBD@Z 00422070 f   ivp.obj
 0001:00021140       ?DumpCollideFileName@CPhysCollisionEntry@@IAEXPBDHPAVCTextBuffer@@@Z 00422140 f   ivp.obj
 0001:000211b0       ?DumpCollide@CPhysCollisionEntrySolid@@UAEXPAVCTextBuffer@@HH@Z 004221b0 f   ivp.obj
 0001:000211d0       ?DumpCollide@CPhysCollisionEntryStaticSolid@@UAEXPAVCTextBuffer@@HH@Z 004221d0 f   ivp.obj
 0001:00021220       ?DumpCollide@CPhysCollisionEntryStaticMesh@@UAEXPAVCTextBuffer@@HH@Z 00422220 f   ivp.obj
 0001:00021270       ?DumpCollide@CPhysCollisionEntryFluid@@UAEXPAVCTextBuffer@@HH@Z 00422270 f   ivp.obj
 0001:000212c0       ??A?$CUtlRBTree@UWaterTexInfo@@HP6A_NABU1@0@Z@@QAEAAUWaterTexInfo@@H@Z 004222c0 f i ivp.obj
 0001:000212e0       ??A?$CUtlVector@Uwaterleaf_t@@V?$CUtlMemory@Uwaterleaf_t@@@@@@QAEAAUwaterleaf_t@@H@Z 004222e0 f i ivp.obj
 0001:000212f0       ??A?$CUtlVector@PAUnode_t@@V?$CUtlMemory@PAUnode_t@@@@@@QAEAAPAUnode_t@@H@Z 004222f0 f i ivp.obj
 0001:00021300       ?RemoveAll@?$CUtlVector@PAUnode_t@@V?$CUtlMemory@PAUnode_t@@@@@@QAEXXZ 00422300 f i ivp.obj
 0001:00021310       ??A?$CUtlVector@Uwatermodel_t@@V?$CUtlMemory@Uwatermodel_t@@@@@@QAEAAUwatermodel_t@@H@Z 00422310 f i ivp.obj
 0001:00021330       ??A?$CUtlVector@PAVCPhysCollisionEntry@@V?$CUtlMemory@PAVCPhysCollisionEntry@@@@@@QAEAAPAVCPhysCollisionEntry@@H@Z 00422330 f i ivp.obj
 0001:00021340       ??1?$CUtlMemory@D@@QAE@XZ  00422340 f i ivp.obj
 0001:00021370       ?Purge@?$CUtlVector@DV?$CUtlMemory@D@@@@QAEXXZ 00422370 f i ivp.obj
 0001:000213c0       ??1?$CUtlMemory@Ulistplane_t@@@@QAE@XZ 004223c0 f i ivp.obj
 0001:000213f0       ?Purge@?$CUtlVector@Ulistplane_t@@V?$CUtlMemory@Ulistplane_t@@@@@@QAEXXZ 004223f0 f i ivp.obj
 0001:00021440       ??1?$CUtlMemory@PAVCPhysConvex@@@@QAE@XZ 00422440 f i ivp.obj
 0001:00021470       ?Purge@?$CUtlVector@PAVCPhysConvex@@V?$CUtlMemory@PAVCPhysConvex@@@@@@QAEXXZ 00422470 f i ivp.obj
 0001:000214c0       ?LeftChild@?$CUtlRBTree@UWaterTexInfo@@HP6A_NABU1@0@Z@@QBEHH@Z 004224c0 f i ivp.obj
 0001:000214d0       ?RightChild@?$CUtlRBTree@UWaterTexInfo@@HP6A_NABU1@0@Z@@QBEHH@Z 004224d0 f i ivp.obj
 0001:000214e0       ?FindInsertionPosition@?$CUtlRBTree@UWaterTexInfo@@HP6A_NABU1@0@Z@@IAEXABUWaterTexInfo@@AAHAA_N@Z 004224e0 f i ivp.obj
 0001:000215d0       ??1?$CUtlMemory@UNode_t@?$CUtlRBTree@UWaterTexInfo@@HP6A_NABU1@0@Z@@@@QAE@XZ 004225d0 f i ivp.obj
 0001:00021600       ?Purge@?$CUtlVector@Uwaterleaf_t@@V?$CUtlMemory@Uwaterleaf_t@@@@@@QAEXXZ 00422600 f i ivp.obj
 0001:00021650       ?GrowVector@?$CUtlVector@Uwaterleaf_t@@V?$CUtlMemory@Uwaterleaf_t@@@@@@IAEXH@Z 00422650 f i ivp.obj
 0001:00021680       ??1?$CUtlMemory@Uwaterleaf_t@@@@QAE@XZ 00422680 f i ivp.obj
 0001:000216b0       ?Purge@?$CUtlVector@PAUnode_t@@V?$CUtlMemory@PAUnode_t@@@@@@QAEXXZ 004226b0 f i ivp.obj
 0001:00021700       ??1?$CUtlMemory@PAUnode_t@@@@QAE@XZ 00422700 f i ivp.obj
 0001:00021730       ?Purge@?$CUtlVector@Uwatermodel_t@@V?$CUtlMemory@Uwatermodel_t@@@@@@QAEXXZ 00422730 f i ivp.obj
 0001:00021780       ??1?$CUtlMemory@Uwatermodel_t@@@@QAE@XZ 00422780 f i ivp.obj
 0001:000217b0       ?Purge@?$CUtlVector@PAVCPhysCollisionEntry@@V?$CUtlMemory@PAVCPhysCollisionEntry@@@@@@QAEXXZ 004227b0 f i ivp.obj
 0001:00021800       ??1?$CUtlMemory@PAVCPhysCollisionEntry@@@@QAE@XZ 00422800 f i ivp.obj
 0001:00021830       ?GrowVector@?$CUtlVector@DV?$CUtlMemory@D@@@@IAEXH@Z 00422830 f i ivp.obj
 0001:00021860       ?GrowVector@?$CUtlVector@Ulistplane_t@@V?$CUtlMemory@Ulistplane_t@@@@@@IAEXH@Z 00422860 f i ivp.obj
 0001:00021890       ?GrowVector@?$CUtlVector@PAVCPhysConvex@@V?$CUtlMemory@PAVCPhysConvex@@@@@@IAEXH@Z 00422890 f i ivp.obj
 0001:000218c0       ?IsValidIndex@?$CUtlRBTree@UWaterTexInfo@@HP6A_NABU1@0@Z@@QBE_NH@Z 004228c0 f i ivp.obj
 0001:000218f0       ?NewNode@?$CUtlRBTree@UWaterTexInfo@@HP6A_NABU1@0@Z@@QAEHXZ 004228f0 f i ivp.obj
 0001:00021950       ?GrowVector@?$CUtlVector@PAUnode_t@@V?$CUtlMemory@PAUnode_t@@@@@@IAEXH@Z 00422950 f i ivp.obj
 0001:00021980       ?GrowVector@?$CUtlVector@Uwatermodel_t@@V?$CUtlMemory@Uwatermodel_t@@@@@@IAEXH@Z 00422980 f i ivp.obj
 0001:000219b0       ?IsLeftChild@?$CUtlRBTree@UWaterTexInfo@@HP6A_NABU1@0@Z@@QBE_NH@Z 004229b0 f i ivp.obj
 0001:000219e0       ?IsRightChild@?$CUtlRBTree@UWaterTexInfo@@HP6A_NABU1@0@Z@@QBE_NH@Z 004229e0 f i ivp.obj
 0001:00021a10       ?RotateLeft@?$CUtlRBTree@UWaterTexInfo@@HP6A_NABU1@0@Z@@IAEXH@Z 00422a10 f i ivp.obj
 0001:00021b00       ?RotateRight@?$CUtlRBTree@UWaterTexInfo@@HP6A_NABU1@0@Z@@IAEXH@Z 00422b00 f i ivp.obj
 0001:00021c00       ?IsLeafReferenced@CPlaneList@@QAE_NH@Z 00422c00 f   ivp.obj
 0001:00021d70       ??0?$CUtlVector@DV?$CUtlMemory@D@@@@QAE@HH@Z 00422d70 f i ivp.obj
 0001:00021db0       ??1?$CUtlVector@DV?$CUtlMemory@D@@@@QAE@XZ 00422db0 f i ivp.obj
 0001:00021e20       ??0?$CUtlVector@Ulistplane_t@@V?$CUtlMemory@Ulistplane_t@@@@@@QAE@HH@Z 00422e20 f i ivp.obj
 0001:00021e70       ??1?$CUtlVector@Ulistplane_t@@V?$CUtlMemory@Ulistplane_t@@@@@@QAE@XZ 00422e70 f i ivp.obj
 0001:00021ee0       ??0?$CUtlVector@PAVCPhysConvex@@V?$CUtlMemory@PAVCPhysConvex@@@@@@QAE@HH@Z 00422ee0 f i ivp.obj
 0001:00021f30       ??1?$CUtlVector@PAVCPhysConvex@@V?$CUtlMemory@PAVCPhysConvex@@@@@@QAE@XZ 00422f30 f i ivp.obj
 0001:00021fa0       ??0?$CUtlRBTree@UWaterTexInfo@@HP6A_NABU1@0@Z@@QAE@HHABQ6A_NABUWaterTexInfo@@0@Z@Z 00422fa0 f i ivp.obj
 0001:00022010       ?Find@?$CUtlRBTree@UWaterTexInfo@@HP6A_NABU1@0@Z@@QBEHABUWaterTexInfo@@@Z 00423010 f i ivp.obj
 0001:00022100       ??0?$CUtlVector@Uwaterleaf_t@@V?$CUtlMemory@Uwaterleaf_t@@@@@@QAE@HH@Z 00423100 f i ivp.obj
 0001:00022150       ??1?$CUtlVector@Uwaterleaf_t@@V?$CUtlMemory@Uwaterleaf_t@@@@@@QAE@XZ 00423150 f i ivp.obj
 0001:000221c0       ?InsertBefore@?$CUtlVector@Uwaterleaf_t@@V?$CUtlMemory@Uwaterleaf_t@@@@@@QAEHHABUwaterleaf_t@@@Z 004231c0 f i ivp.obj
 0001:00022230       ??0?$CUtlVector@PAUnode_t@@V?$CUtlMemory@PAUnode_t@@@@@@QAE@HH@Z 00423230 f i ivp.obj
 0001:00022280       ??1?$CUtlVector@PAUnode_t@@V?$CUtlMemory@PAUnode_t@@@@@@QAE@XZ 00423280 f i ivp.obj
 0001:000222f0       ??0?$CUtlVector@Uwatermodel_t@@V?$CUtlMemory@Uwatermodel_t@@@@@@QAE@HH@Z 004232f0 f i ivp.obj
 0001:00022340       ??1?$CUtlVector@Uwatermodel_t@@V?$CUtlMemory@Uwatermodel_t@@@@@@QAE@XZ 00423340 f i ivp.obj
 0001:000223b0       ??0?$CUtlVector@PAVCPhysCollisionEntry@@V?$CUtlMemory@PAVCPhysCollisionEntry@@@@@@QAE@HH@Z 004233b0 f i ivp.obj
 0001:00022400       ??1?$CUtlVector@PAVCPhysCollisionEntry@@V?$CUtlMemory@PAVCPhysCollisionEntry@@@@@@QAE@XZ 00423400 f i ivp.obj
 0001:00022470       ?InsertMultipleBefore@?$CUtlVector@DV?$CUtlMemory@D@@@@QAEHHHPBD@Z 00423470 f i ivp.obj
 0001:00022500       ?InsertBefore@?$CUtlVector@Ulistplane_t@@V?$CUtlMemory@Ulistplane_t@@@@@@QAEHHABUlistplane_t@@@Z 00423500 f i ivp.obj
 0001:00022580       ?InsertBefore@?$CUtlVector@PAVCPhysConvex@@V?$CUtlMemory@PAVCPhysConvex@@@@@@QAEHHABQAVCPhysConvex@@@Z 00423580 f i ivp.obj
 0001:000225f0       ?Purge@?$CUtlRBTree@UWaterTexInfo@@HP6A_NABU1@0@Z@@QAEXXZ 004235f0 f i ivp.obj
 0001:00022680       ?InsertBefore@?$CUtlVector@PAUnode_t@@V?$CUtlMemory@PAUnode_t@@@@@@QAEHHABQAUnode_t@@@Z 00423680 f i ivp.obj
 0001:000226f0       ?InsertBefore@?$CUtlVector@Uwatermodel_t@@V?$CUtlMemory@Uwatermodel_t@@@@@@QAEHHABUwatermodel_t@@@Z 004236f0 f i ivp.obj
 0001:00022770       ?InsertRebalance@?$CUtlRBTree@UWaterTexInfo@@HP6A_NABU1@0@Z@@IAEXH@Z 00423770 f i ivp.obj
 0001:00022d90       ??0CTextBuffer@@QAE@XZ     00423d90 f   ivp.obj
 0001:00022db0       ??1CTextBuffer@@QAE@XZ     00423db0 f   ivp.obj
 0001:00022e50       ?RemapWorldMaterial@@YAHH@Z 00423e50 f   ivp.obj
 0001:00022e70       ?ReferenceLeaf@CPlaneList@@QAEXH@Z 00423e70 f   ivp.obj
 0001:00022e90       ??_F?$CUtlVector@PAVCPhysCollisionEntry@@V?$CUtlMemory@PAVCPhysCollisionEntry@@@@@@QAEXXZ 00423e90 f i ivp.obj
 0001:00022eb0       ??_GCTextBuffer@@QAEPAXI@Z 00423eb0 f i ivp.obj
 0001:00022ed0       ?AddMultipleToTail@?$CUtlVector@DV?$CUtlMemory@D@@@@QAEHHPBD@Z 00423ed0 f i ivp.obj
 0001:00022ef0       ?AddToTail@?$CUtlVector@Ulistplane_t@@V?$CUtlMemory@Ulistplane_t@@@@@@QAEHABUlistplane_t@@@Z 00423ef0 f i ivp.obj
 0001:00022f10       ?AddToTail@?$CUtlVector@PAVCPhysConvex@@V?$CUtlMemory@PAVCPhysConvex@@@@@@QAEHABQAVCPhysConvex@@@Z 00423f10 f i ivp.obj
 0001:00022f30       ??1?$CUtlRBTree@UWaterTexInfo@@HP6A_NABU1@0@Z@@QAE@XZ 00423f30 f i ivp.obj
 0001:00022f70       ?AddToTail@?$CUtlVector@Uwaterleaf_t@@V?$CUtlMemory@Uwaterleaf_t@@@@@@QAEHABUwaterleaf_t@@@Z 00423f70 f i ivp.obj
 0001:00022f90       ?AddToTail@?$CUtlVector@PAUnode_t@@V?$CUtlMemory@PAUnode_t@@@@@@QAEHABQAUnode_t@@@Z 00423f90 f i ivp.obj
 0001:00022fb0       ?AddToTail@?$CUtlVector@Uwatermodel_t@@V?$CUtlMemory@Uwatermodel_t@@@@@@QAEHABUwatermodel_t@@@Z 00423fb0 f i ivp.obj
 0001:00022fd0       ?LinkToParent@?$CUtlRBTree@UWaterTexInfo@@HP6A_NABU1@0@Z@@IAEXHH_N@Z 00423fd0 f i ivp.obj
 0001:00023040       ?CopyData@CTextBuffer@@AAEXPBDH@Z 00424040 f   ivp.obj
 0001:000230f0       ??0CPlaneList@@QAE@MM@Z    004240f0 f   ivp.obj
 0001:00023180       ??1CPlaneList@@QAE@XZ      00424180 f   ivp.obj
 0001:000231a0       ?AddConvex@CPlaneList@@QAEXPAVCPhysConvex@@@Z 004241a0 f   ivp.obj
 0001:000231e0       ?BuildConvexForBrush@CPlaneList@@AAEPAVCPhysConvex@@HMPAVCPhysCollide@@M@Z 004241e0 f   ivp.obj
 0001:00023410       ?AddBrushes@CPlaneList@@QAEHXZ 00424410 f   ivp.obj
 0001:00023530       ?EnumLeaves_r@@YAXAAV?$CUtlVector@PAUnode_t@@V?$CUtlMemory@PAUnode_t@@@@@@PAUnode_t@@H@Z 00424530 f   ivp.obj
 0001:000241e0       ?InsertAt@?$CUtlRBTree@UWaterTexInfo@@HP6A_NABU1@0@Z@@IAEHH_N@Z 004251e0 f i ivp.obj
 0001:00024210       ?WriteText@CTextBuffer@@QAEXPBD@Z 00425210 f   ivp.obj
 0001:00024240       ?WriteIntKey@CTextBuffer@@QAEXPBDH@Z 00425240 f   ivp.obj
 0001:000242d0       ?WriteFloatKey@CTextBuffer@@QAEXPBDM@Z 004252d0 f   ivp.obj
 0001:00024370       ?WriteFloatArrayKey@CTextBuffer@@QAEXPBDPBMH@Z 00425370 f   ivp.obj
 0001:00024490       ?CopyStringQuotes@CTextBuffer@@QAEXPBD@Z 00425490 f   ivp.obj
 0001:00024560       ?Terminate@CTextBuffer@@QAEXXZ 00425560 f   ivp.obj
 0001:000245c0       ?WriteToTextBuffer@CPhysCollisionEntryStaticSolid@@UAEXPAVCTextBuffer@@HH@Z 004255c0 f   ivp.obj
 0001:00024610       ?WriteToTextBuffer@CPhysCollisionEntryStaticMesh@@UAEXPAVCTextBuffer@@HH@Z 00425610 f   ivp.obj
 0001:00024650       ?EmitPhysCollision@@YAXXZ  00425650 f   ivp.obj
 0001:00024bc0       ?Insert@?$CUtlRBTree@UWaterTexInfo@@HP6A_NABU1@0@Z@@QAEHABUWaterTexInfo@@@Z 00425bc0 f i ivp.obj
 0001:00024c40       ?WriteStringKey@CTextBuffer@@QAEXPBD0@Z 00425c40 f   ivp.obj
 0001:00024d00       ?WriteToTextBuffer@CPhysCollisionEntrySolid@@UAEXPAVCTextBuffer@@HH@Z 00425d00 f   ivp.obj
 0001:00024d80       ?WriteToTextBuffer@CPhysCollisionEntryFluid@@UAEXPAVCTextBuffer@@HH@Z 00425d80 f   ivp.obj
 0001:00024e40       ?FindOrCreateWaterTexInfo@@YAHPAUtexinfo_s@@M@Z 00425e40 f   ivp.obj
 0001:00024fa0       ?EmitWaterVolumesForBSP@@YAXPAUdmodel_t@@PAUnode_t@@@Z 00425fa0 f   ivp.obj
 0001:00025310       ?LeakFile@@YAXPAUtree_t@@@Z 00426310 f   leakfile.obj
 0001:000254d0       ?AreaportalLeakFile@@YAXPAUtree_t@@PAUportal_t@@1PAUnode_t@@@Z 004264d0 f   leakfile.obj
 0001:00025790       ?V_strlen@@YAHPBD@Z        00426790 f i loadcmdline.obj
 0001:000257b0       ?V_strcpy@@YAXPADPBD@Z     004267b0 f i loadcmdline.obj
 0001:000259c0       ?LoadCmdLineFromFile@@YAXAAHAAPAPADPBD2@Z 004269c0 f   loadcmdline.obj
 0001:00025aa0       ?DeleteCmdLine@@YAXHPAPAD@Z 00426aa0 f   loadcmdline.obj
 0001:00025ae0       ?GenerateLumpFileName@@YAXPBDPADHH@Z 00426ae0 f   lumpfiles.obj
 0001:00025b30       ??0id@locale@std@@QAE@I@Z  00426b30 f i map.obj
 0001:00025b40       _floorf                    00426b40 f i map.obj
 0001:00025b60       ?floor@@YAMM@Z             00426b60 f i map.obj
 0001:00025b80       ??KVector@@QBE?AV0@M@Z     00426b80 f i map.obj
 0001:00025bb0       ?RoundInt@@YAMM@Z          00426bb0 f i map.obj
 0001:00025be0       ??0dplane_t@@QAE@XZ        00426be0 f i map.obj
 0001:00025bf0       ??0brush_texture_t@@QAE@XZ 00426bf0 f i map.obj
 0001:00025c10       ?BrushState@CMapError@@QAEXH@Z 00426c10 f i map.obj
 0001:00025c20       ?BrushSide@CMapError@@QAEXH@Z 00426c20 f i map.obj
 0001:00025c30       ?TextureState@CMapError@@QAEXPBD@Z 00426c30 f i map.obj
 0001:00025c50       ?ClearState@CMapError@@QAEXXZ 00426c50 f i map.obj
 0001:00025c80       ?ReportError@CMapError@@QAEXPBD@Z 00426c80 f i map.obj
 0001:00025cb0       ?ReportWarning@CMapError@@QAEXPBD@Z 00426cb0 f i map.obj
 0001:00025cd0       ??0mapbrush_t@@QAE@XZ      00426cd0 f i map.obj
 0001:00025ce0       ?PlaneTypeForNormal@@YAHAAVVector@@@Z 00426ce0 f   map.obj
 0001:00025df0       ?PlaneEqual@@YAHPAUplane_t@@AAVVector@@MMM@Z 00426df0 f   map.obj
 0001:00025e90       ?AddPlaneToHash@@YAXPAUplane_t@@@Z 00426e90 f   map.obj
 0001:00025ed0       ??4dplane_t@@QAEAAU0@ABU0@@Z 00426ed0 f i map.obj
 0001:00025f00       ?SnapVector@@YA_NAAVVector@@@Z 00426f00 f   map.obj
 0001:00025fa0       ?SnapPlane@@YAXAAVVector@@AAM@Z 00426fa0 f   map.obj
 0001:00026010       ?SnapPlane@@YAXAAVVector@@AAMABV1@22@Z 00427010 f   map.obj
 0001:00026150       ?BrushContents@@YAHPAUmapbrush_t@@@Z 00427150 f   map.obj
 0001:00026190       ?IsAreaPortal@@YA_NPBD@Z   00427190 f   map.obj
 0001:000261c0       ??4brush_texture_t@@QAEAAU0@ABU0@@Z 004271c0 f i map.obj
 0001:00026240       ?MakeBrushWindings@@YAHPAUmapbrush_t@@@Z 00427240 f   map.obj
 0001:000263e0       ?MoveBrushesToWorld@@YAXPAUentity_t@@@Z 004273e0 f   map.obj
 0001:000264a0       ?RemoveContentsDetailFromBrush@@YAXPAUmapbrush_t@@@Z 004274a0 f   map.obj
 0001:000264d0       ?RemoveContentsDetailFromEntity@@YAXPAUentity_t@@@Z 004274d0 f   map.obj
 0001:00026530       ?LoadDispDistancesKeyCallback@@YA?AW4ChunkFileResult_t@@PBD0PAUmapdispinfo_t@@@Z 00427530 f   map.obj
 0001:000265f0       ?LoadDispInfoKeyCallback@@YA?AW4ChunkFileResult_t@@PBD0PAUmapdispinfo_t@@@Z 004275f0 f   map.obj
 0001:00026740       ?LoadDispNormalsKeyCallback@@YA?AW4ChunkFileResult_t@@PBD0PAUmapdispinfo_t@@@Z 00427740 f   map.obj
 0001:00026870       ?LoadDispOffsetsKeyCallback@@YA?AW4ChunkFileResult_t@@PBD0PAUmapdispinfo_t@@@Z 00427870 f   map.obj
 0001:000269a0       ?LoadDispAlphasKeyCallback@@YA?AW4ChunkFileResult_t@@PBD0PAUmapdispinfo_t@@@Z 004279a0 f   map.obj
 0001:00026a60       ?LoadDispTriangleTagsKeyCallback@@YA?AW4ChunkFileResult_t@@PBD0PAUmapdispinfo_t@@@Z 00427a60 f   map.obj
 0001:00026b60       ?SideIDToIndex@@YAHH@Z     00427b60 f   map.obj
 0001:00026b90       ?ConvertSideList@@YAXPAUentity_t@@PAD@Z 00427b90 f   map.obj
 0001:00026d00       ?AddLadderKeys@@YAXPAUentity_t@@@Z 00427d00 f   map.obj
 0001:00026e80       ?EntityByName@@YAPAUentity_t@@PBD@Z 00427e80 f   map.obj
 0001:00026ee0       ?ForceFuncAreaPortalWindowContents@@YAXXZ 00427ee0 f   map.obj
 0001:00026ff0       ?LoadSideKeyCallback@@YA?AW4ChunkFileResult_t@@PBD0PAULoadSide_t@@@Z 00427ff0 f   map.obj
 0001:00027320       ?LoadConnectionsKeyCallback@@YA?AW4ChunkFileResult_t@@PBD0PAULoadEntity_t@@@Z 00428320 f   map.obj
 0001:000273e0       ??0LoadSide_t@@QAE@XZ      004283e0 f i map.obj
 0001:00027400       ?LoadSolidKeyCallback@@YA?AW4ChunkFileResult_t@@PBD0PAUmapbrush_t@@@Z 00428400 f   map.obj
 0001:00027440       ?ParseDispInfoChunk@@YAPAUmapdispinfo_t@@XZ 00428440 f   map.obj
 0001:00027750       ?Count@?$CUtlVector@Umapoverlay_t@@V?$CUtlMemory@Umapoverlay_t@@@@@@QBEHXZ 00428750 f i map.obj
 0001:00027760       ?Base@?$CUtlMemory@Umapoverlay_t@@@@QAEPAUmapoverlay_t@@XZ 00428760 f i map.obj
 0001:00027770       ?NumAllocated@?$CUtlMemory@Umapoverlay_t@@@@QBEHXZ 00428770 f i map.obj
 0001:00027780       ?IsExternallyAllocated@?$CUtlMemory@Umapoverlay_t@@@@QBE_NXZ 00428780 f i map.obj
 0001:00027790       ??0plane_t@@QAE@XZ         00428790 f i map.obj
 0001:000277a0       ??4plane_t@@QAEAAU0@ABU0@@Z 004287a0 f i map.obj
 0001:000277d0       ?LoadDispDistancesCallback@@YA?AW4ChunkFileResult_t@@PAVCChunkFile@@PAUmapdispinfo_t@@@Z 004287d0 f   map.obj
 0001:000277f0       ?LoadDispNormalsCallback@@YA?AW4ChunkFileResult_t@@PAVCChunkFile@@PAUmapdispinfo_t@@@Z 004287f0 f   map.obj
 0001:00027810       ?LoadDispOffsetsCallback@@YA?AW4ChunkFileResult_t@@PAVCChunkFile@@PAUmapdispinfo_t@@@Z 00428810 f   map.obj
 0001:00027830       ?LoadDispAlphasCallback@@YA?AW4ChunkFileResult_t@@PAVCChunkFile@@PAUmapdispinfo_t@@@Z 00428830 f   map.obj
 0001:00027850       ?LoadDispTriangleTagsCallback@@YA?AW4ChunkFileResult_t@@PAVCChunkFile@@PAUmapdispinfo_t@@@Z 00428850 f   map.obj
 0001:00027870       ?LoadConnectionsCallback@@YA?AW4ChunkFileResult_t@@PAVCChunkFile@@PAULoadEntity_t@@@Z 00428870 f   map.obj
 0001:00027890       ?Base@?$CUtlVector@Umapoverlay_t@@V?$CUtlMemory@Umapoverlay_t@@@@@@QAEPAUmapoverlay_t@@XZ 00428890 f i map.obj
 0001:000278a0       ?Element@?$CUtlVector@Umapoverlay_t@@V?$CUtlMemory@Umapoverlay_t@@@@@@QAEAAUmapoverlay_t@@H@Z 004288a0 f i map.obj
 0001:000278b0       ?ShiftElementsRight@?$CUtlVector@Umapoverlay_t@@V?$CUtlMemory@Umapoverlay_t@@@@@@IAEXHH@Z 004288b0 f i map.obj
 0001:00027900       ?ResetDbgInfo@?$CUtlVector@Umapoverlay_t@@V?$CUtlMemory@Umapoverlay_t@@@@@@IAEXXZ 00428900 f i map.obj
 0001:00027910       ?Grow@?$CUtlMemory@Umapoverlay_t@@@@QAEXH@Z 00428910 f i map.obj
 0001:00027980       ?CreateNewFloatPlane@@YAHAAVVector@@M@Z 00428980 f   map.obj
 0001:00027c00       ?FindFloatPlane@@YAHAAVVector@@M@Z 00428c00 f   map.obj
 0001:00027cd0       ?PlaneFromPoints@@YAHABVVector@@00@Z 00428cd0 f   map.obj
 0001:00027dc0       ?LoadDispInfoCallback@@YA?AW4ChunkFileResult_t@@PAVCChunkFile@@PAPAUmapdispinfo_t@@@Z 00428dc0 f   map.obj
 0001:00027ed0       ?LoadSideCallback@@YA?AW4ChunkFileResult_t@@PAVCChunkFile@@PAULoadSide_t@@@Z 00428ed0 f   map.obj
 0001:00028140       ??A?$CUtlVector@Umapoverlay_t@@V?$CUtlMemory@Umapoverlay_t@@@@@@QAEAAUmapoverlay_t@@H@Z 00429140 f i map.obj
 0001:00028150       ?GrowVector@?$CUtlVector@Umapoverlay_t@@V?$CUtlMemory@Umapoverlay_t@@@@@@IAEXH@Z 00429150 f i map.obj
 0001:00028180       ?TestExpandBrushes@@YAXXZ  00429180 f   map.obj
 0001:00028400       ??0mapoverlay_t@@QAE@XZ    00429400 f i map.obj
 0001:00028450       ??0side_t@@QAE@XZ          00429450 f i map.obj
 0001:00028480       ??1side_t@@QAE@XZ          00429480 f i map.obj
 0001:000284a0       ?HandleNoDynamicShadowsEnt@@YA?AW4ChunkFileResult_t@@PAUentity_t@@@Z 004294a0 f   map.obj
 0001:000288f0       ??$Construct@Umapoverlay_t@@@@YAXPAUmapoverlay_t@@@Z 004298f0 f i map.obj
 0001:00028940       ?InsertBefore@?$CUtlVector@Umapoverlay_t@@V?$CUtlMemory@Umapoverlay_t@@@@@@QAEHH@Z 00429940 f i map.obj
 0001:000289f0       ?AddToTail@?$CUtlVector@Umapoverlay_t@@V?$CUtlMemory@Umapoverlay_t@@@@@@QAEHXZ 004299f0 f i map.obj
 0001:00028ab0       ?AddBrushBevels@@YAXPAUmapbrush_t@@@Z 00429ab0 f   map.obj
 0001:00029230       ?LoadSolidCallback@@YA?AW4ChunkFileResult_t@@PAVCChunkFile@@PAULoadEntity_t@@@Z 0042a230 f   map.obj
 0001:00029540       ?LoadEntityCallback@@YA?AW4ChunkFileResult_t@@PAVCChunkFile@@H@Z 0042a540 f   map.obj
 0001:00029a30       ?LoadMapFile@@YAXPBD@Z     0042aa30 f   map.obj
 0001:00029d00       ??0NameTranslationLookup_t@@QAE@XZ 0042ad00 f i materialpatch.obj
 0001:00029d10       ?CreateMaterialPatchRecursive@@YAXPAVKeyValues@@0HPBUMaterialPatchInfo_t@@@Z 0042ad10 f   materialpatch.obj
 0001:00029f60       ?InvalidIndex@?$CUtlRBTree@UNameTranslationLookup_t@@HP6A_NABU1@0@Z@@SAHXZ 0042af60 f i materialpatch.obj
 0001:00029f70       ?Base@?$CUtlMemory@UNode_t@?$CUtlRBTree@UNameTranslationLookup_t@@HP6A_NABU1@0@Z@@@@QAEPAUNode_t@?$CUtlRBTree@UNameTranslationLookup_t@@HP6A_NABU1@0@Z@@XZ 0042af70 f i materialpatch.obj
 0001:00029f80       ??0NameTranslationLookup_t@@QAE@ABU0@@Z 0042af80 f i materialpatch.obj
 0001:00029fa0       ?ValidateGrowSize@?$CUtlMemory@UNode_t@?$CUtlRBTree@UNameTranslationLookup_t@@HP6A_NABU1@0@Z@@@@IAEXXZ 0042afa0 f i materialpatch.obj
 0001:00029fb0       ??A?$CUtlMemory@UNode_t@?$CUtlRBTree@UNameTranslationLookup_t@@HP6A_NABU1@0@Z@@@@QBEABUNode_t@?$CUtlRBTree@UNameTranslationLookup_t@@HP6A_NABU1@0@Z@@H@Z 0042afb0 f i materialpatch.obj
 0001:00029fc0       ??A?$CUtlMemory@UNode_t@?$CUtlRBTree@UNameTranslationLookup_t@@HP6A_NABU1@0@Z@@@@QAEAAUNode_t@?$CUtlRBTree@UNameTranslationLookup_t@@HP6A_NABU1@0@Z@@H@Z 0042afc0 f i materialpatch.obj
 0001:00029fd0       ??$Destruct@UNameTranslationLookup_t@@@@YAXPAUNameTranslationLookup_t@@@Z 0042afd0 f i materialpatch.obj
 0001:00029fe0       ?Links@?$CUtlRBTree@UNameTranslationLookup_t@@HP6A_NABU1@0@Z@@IAEAAULinks_t@1@H@Z 0042afe0 f i materialpatch.obj
 0001:00029ff0       ?IsIdxValid@?$CUtlMemory@UNode_t@?$CUtlRBTree@UNameTranslationLookup_t@@HP6A_NABU1@0@Z@@@@QBE_NH@Z 0042aff0 f i materialpatch.obj
 0001:0002a010       ?NumAllocated@?$CUtlMemory@UNode_t@?$CUtlRBTree@UNameTranslationLookup_t@@HP6A_NABU1@0@Z@@@@QBEHXZ 0042b010 f i materialpatch.obj
 0001:0002a020       ?IsExternallyAllocated@?$CUtlMemory@UNode_t@?$CUtlRBTree@UNameTranslationLookup_t@@HP6A_NABU1@0@Z@@@@QBE_NXZ 0042b020 f i materialpatch.obj
 0001:0002a030       ??$Construct@UNameTranslationLookup_t@@@@YAXPAUNameTranslationLookup_t@@@Z 0042b030 f i materialpatch.obj
 0001:0002a050       ?IsRoot@?$CUtlRBTree@UNameTranslationLookup_t@@HP6A_NABU1@0@Z@@QBE_NH@Z 0042b050 f i materialpatch.obj
 0001:0002a060       ?SetColor@?$CUtlRBTree@UNameTranslationLookup_t@@HP6A_NABU1@0@Z@@IAEXHW4NodeColor_t@1@@Z 0042b060 f i materialpatch.obj
 0001:0002a080       ?SetParent@?$CUtlRBTree@UNameTranslationLookup_t@@HP6A_NABU1@0@Z@@IAEXHH@Z 0042b080 f i materialpatch.obj
 0001:0002a0a0       ?SetLeftChild@?$CUtlRBTree@UNameTranslationLookup_t@@HP6A_NABU1@0@Z@@IAEXHH@Z 0042b0a0 f i materialpatch.obj
 0001:0002a0c0       ?SetRightChild@?$CUtlRBTree@UNameTranslationLookup_t@@HP6A_NABU1@0@Z@@IAEXHH@Z 0042b0c0 f i materialpatch.obj
 0001:0002a0e0       ?ResetDbgInfo@?$CUtlRBTree@UNameTranslationLookup_t@@HP6A_NABU1@0@Z@@IAEXXZ 0042b0e0 f i materialpatch.obj
 0001:0002a0f0       ?Element@?$CUtlRBTree@UNameTranslationLookup_t@@HP6A_NABU1@0@Z@@QBEABUNameTranslationLookup_t@@H@Z 0042b0f0 f i materialpatch.obj
 0001:0002a110       ?Element@?$CUtlRBTree@UNameTranslationLookup_t@@HP6A_NABU1@0@Z@@QAEAAUNameTranslationLookup_t@@H@Z 0042b110 f i materialpatch.obj
 0001:0002a130       ??0?$CUtlMemory@UNode_t@?$CUtlRBTree@UNameTranslationLookup_t@@HP6A_NABU1@0@Z@@@@QAE@HH@Z 0042b130 f i materialpatch.obj
 0001:0002a170       ??$CopyConstruct@UNameTranslationLookup_t@@@@YAXPAUNameTranslationLookup_t@@ABU0@@Z 0042b170 f i materialpatch.obj
 0001:0002a190       ?Links@?$CUtlRBTree@UNameTranslationLookup_t@@HP6A_NABU1@0@Z@@IBEABULinks_t@1@H@Z 0042b190 f i materialpatch.obj
 0001:0002a1e0       ?Purge@?$CUtlMemory@UNode_t@?$CUtlRBTree@UNameTranslationLookup_t@@HP6A_NABU1@0@Z@@@@QAEXXZ 0042b1e0 f i materialpatch.obj
 0001:0002a210       ?Grow@?$CUtlMemory@UNode_t@?$CUtlRBTree@UNameTranslationLookup_t@@HP6A_NABU1@0@Z@@@@QAEXH@Z 0042b210 f i materialpatch.obj
 0001:0002a280       ?Parent@?$CUtlRBTree@UNameTranslationLookup_t@@HP6A_NABU1@0@Z@@QBEHH@Z 0042b280 f i materialpatch.obj
 0001:0002a2d0       ?IsRed@?$CUtlRBTree@UNameTranslationLookup_t@@HP6A_NABU1@0@Z@@IBE_NH@Z 0042b2d0 f i materialpatch.obj
 0001:0002a330       ?Color@?$CUtlRBTree@UNameTranslationLookup_t@@HP6A_NABU1@0@Z@@IBE?AW4NodeColor_t@1@H@Z 0042b330 f i materialpatch.obj
 0001:0002a380       ??A?$CUtlRBTree@UNameTranslationLookup_t@@HP6A_NABU1@0@Z@@QAEAAUNameTranslationLookup_t@@H@Z 0042b380 f i materialpatch.obj
 0001:0002a3a0       ?LeftChild@?$CUtlRBTree@UNameTranslationLookup_t@@HP6A_NABU1@0@Z@@QBEHH@Z 0042b3a0 f i materialpatch.obj
 0001:0002a3f0       ?RightChild@?$CUtlRBTree@UNameTranslationLookup_t@@HP6A_NABU1@0@Z@@QBEHH@Z 0042b3f0 f i materialpatch.obj
 0001:0002a440       ?FindInsertionPosition@?$CUtlRBTree@UNameTranslationLookup_t@@HP6A_NABU1@0@Z@@IAEXABUNameTranslationLookup_t@@AAHAA_N@Z 0042b440 f i materialpatch.obj
 0001:0002a530       ??1?$CUtlMemory@UNode_t@?$CUtlRBTree@UNameTranslationLookup_t@@HP6A_NABU1@0@Z@@@@QAE@XZ 0042b530 f i materialpatch.obj
 0001:0002a560       ?IsValidIndex@?$CUtlRBTree@UNameTranslationLookup_t@@HP6A_NABU1@0@Z@@QBE_NH@Z 0042b560 f i materialpatch.obj
 0001:0002a590       ?NewNode@?$CUtlRBTree@UNameTranslationLookup_t@@HP6A_NABU1@0@Z@@QAEHXZ 0042b590 f i materialpatch.obj
 0001:0002a5f0       ?IsLeftChild@?$CUtlRBTree@UNameTranslationLookup_t@@HP6A_NABU1@0@Z@@QBE_NH@Z 0042b5f0 f i materialpatch.obj
 0001:0002a660       ?IsRightChild@?$CUtlRBTree@UNameTranslationLookup_t@@HP6A_NABU1@0@Z@@QBE_NH@Z 0042b660 f i materialpatch.obj
 0001:0002a690       ?RotateLeft@?$CUtlRBTree@UNameTranslationLookup_t@@HP6A_NABU1@0@Z@@IAEXH@Z 0042b690 f i materialpatch.obj
 0001:0002a7c0       ?RotateRight@?$CUtlRBTree@UNameTranslationLookup_t@@HP6A_NABU1@0@Z@@IAEXH@Z 0042b7c0 f i materialpatch.obj
 0001:0002a8c0       ?LoadKeyValuesFromPackOrFile@@YA_NPBDPAVKeyValues@@@Z 0042b8c0 f   materialpatch.obj
 0001:0002aa80       ?GetValueFromPatchedMaterial@@YA_NPBD0PADH@Z 0042ba80 f   materialpatch.obj
 0001:0002ab40       ??0?$CUtlRBTree@UNameTranslationLookup_t@@HP6A_NABU1@0@Z@@QAE@HHABQ6A_NABUNameTranslationLookup_t@@0@Z@Z 0042bb40 f i materialpatch.obj
 0001:0002abb0       ?Find@?$CUtlRBTree@UNameTranslationLookup_t@@HP6A_NABU1@0@Z@@QBEHABUNameTranslationLookup_t@@@Z 0042bbb0 f i materialpatch.obj
 0001:0002aca0       ?Purge@?$CUtlRBTree@UNameTranslationLookup_t@@HP6A_NABU1@0@Z@@QAEXXZ 0042bca0 f i materialpatch.obj
 0001:0002ad30       ?InsertRebalance@?$CUtlRBTree@UNameTranslationLookup_t@@HP6A_NABU1@0@Z@@IAEXH@Z 0042bd30 f i materialpatch.obj
 0001:0002b270       ?GetOriginalMaterialNameForPatchedMaterial@@YAPBDPBD@Z 0042c270 f   materialpatch.obj
 0001:0002b300       ?DoesMaterialHaveKey@@YA_NPBD0@Z 0042c300 f   materialpatch.obj
 0001:0002b3a0       ?DoesMaterialHaveKeyValuePair@@YA_NPBD00@Z 0042c3a0 f   materialpatch.obj
 0001:0002b440       ?GetValueFromMaterial@@YA_NPBD0PADH@Z 0042c440 f   materialpatch.obj
 0001:0002b500       ?FindOriginalMaterial@@YAPAXPBDPA_N_N@Z 0042c500 f   materialpatch.obj
 0001:0002b530       ??1?$CUtlRBTree@UNameTranslationLookup_t@@HP6A_NABU1@0@Z@@QAE@XZ 0042c530 f i materialpatch.obj
 0001:0002b570       ?LinkToParent@?$CUtlRBTree@UNameTranslationLookup_t@@HP6A_NABU1@0@Z@@IAEXHH_N@Z 0042c570 f i materialpatch.obj
 0001:0002b5e0       ?InsertAt@?$CUtlRBTree@UNameTranslationLookup_t@@HP6A_NABU1@0@Z@@IAEHH_N@Z 0042c5e0 f i materialpatch.obj
 0001:0002b610       ?Insert@?$CUtlRBTree@UNameTranslationLookup_t@@HP6A_NABU1@0@Z@@QAEHABUNameTranslationLookup_t@@@Z 0042c610 f i materialpatch.obj
 0001:0002b670       ?AddNewTranslation@@YAXPBD0@Z 0042c670 f   materialpatch.obj
 0001:0002b6d0       ?CreateMaterialPatch@@YAXPBD0HPBUMaterialPatchInfo_t@@W4MaterialPatchType_t@@@Z 0042c6d0 f   materialpatch.obj
 0001:0002b8c0       ?CreateMaterialPatch@@YAXPBD000W4MaterialPatchType_t@@@Z 0042c8c0 f   materialpatch.obj
 0001:0002b900       ?LoadMaterialReplacementKeys@@YAXPBD0@Z 0042c900 f   materialsub.obj
 0001:0002ba30       ?DeleteMaterialReplacementKeys@@YAXXZ 0042ca30 f   materialsub.obj
 0001:0002ba50       ?ReplaceMaterialName@@YAPBDPBD@Z 0042ca50 f   materialsub.obj
 0001:0002baa0       ?strrchr@@YAPADPADH@Z      0042caa0 f i memoverride.obj
 0001:0002bab0       ?MakeModuleFileName@@YAPBDXZ 0042cab0 f   memoverride.obj
 0001:0002bbe0       _malloc                    0042cbe0 f   memoverride.obj
 0001:0002bc40       _free                      0042cc40 f   memoverride.obj
 0001:0002bc60       _realloc                   0042cc60 f   memoverride.obj
 0001:0002bcc0       _calloc                    0042ccc0 f   memoverride.obj
 0001:0002bd40       __malloc_base              0042cd40 f   memoverride.obj
 0001:0002bda0       __free_base                0042cda0 f   memoverride.obj
 0001:0002bdc0       __realloc_base             0042cdc0 f   memoverride.obj
 0001:0002be20       __realloc_crt              0042ce20 f   memoverride.obj
 0001:0002be80       __recalloc_crt             0042ce80 f   memoverride.obj
 0001:0002bf10       __recalloc                 0042cf10 f   memoverride.obj
 0001:0002bfa0       __malloc_crt               0042cfa0 f   memoverride.obj
 0001:0002c000       __calloc_crt               0042d000 f   memoverride.obj
 0001:0002c080       __heapchk                  0042d080 f   memoverride.obj
 0001:0002c090       __heapmin                  0042d090 f   memoverride.obj
 0001:0002c0a0       __msize                    0042d0a0 f   memoverride.obj
 0001:0002c0c0       _msize                     0042d0c0 f   memoverride.obj
 0001:0002c0e0       __heap_alloc               0042d0e0 f   memoverride.obj
 0001:0002c140       __nh_malloc                0042d140 f   memoverride.obj
 0001:0002c1a0       __expand                   0042d1a0 f   memoverride.obj
 0001:0002c1b0       __get_sbh_threshold        0042d1b0 f   memoverride.obj
 0001:0002c1c0       __set_sbh_threshold        0042d1c0 f   memoverride.obj
 0001:0002c1d0       __heapadd                  0042d1d0 f   memoverride.obj
 0001:0002c1e0       __heapset                  0042d1e0 f   memoverride.obj
 0001:0002c1f0       __heapused                 0042d1f0 f   memoverride.obj
 0001:0002c200       __heapwalk                 0042d200 f   memoverride.obj
 0001:0002c210       _malloc_db                 0042d210 f   memoverride.obj
 0001:0002c230       _free_db                   0042d230 f   memoverride.obj
 0001:0002c250       _realloc_db                0042d250 f   memoverride.obj
 0001:0002c280       __heap_init                0042d280 f   memoverride.obj
 0001:0002c290       __heap_term                0042d290 f   memoverride.obj
 0001:0002c2a0       ??2@YAPAXI@Z               0042d2a0 f   memoverride.obj
 0001:0002c300       ??2@YAPAXIHPBDH@Z          0042d300 f   memoverride.obj
 0001:0002c320       ??3@YAXPAX@Z               0042d320 f   memoverride.obj
 0001:0002c340       ??_U@YAPAXI@Z              0042d340 f   memoverride.obj
 0001:0002c3a0       ??_U@YAPAXIHPBDH@Z         0042d3a0 f   memoverride.obj
 0001:0002c3c0       ??_V@YAXPAX@Z              0042d3c0 f   memoverride.obj
 0001:0002c3e0       ??0CAttibCRT@@QAE@H@Z      0042d3e0 f i memoverride.obj
 0001:0002c410       ??1CAttibCRT@@QAE@XZ       0042d410 f i memoverride.obj
 0001:0002c430       __nh_malloc_dbg            0042d430 f   memoverride.obj
 0001:0002c490       __malloc_dbg               0042d490 f   memoverride.obj
 0001:0002c4f0       __calloc_dbg               0042d4f0 f   memoverride.obj
 0001:0002c560       __realloc_dbg              0042d560 f   memoverride.obj
 0001:0002c5c0       __expand_dbg               0042d5c0 f   memoverride.obj
 0001:0002c5d0       __free_dbg                 0042d5d0 f   memoverride.obj
 0001:0002c620       __msize_dbg                0042d620 f   memoverride.obj
 0001:0002c640       __aligned_malloc_base      0042d640 f   memoverride.obj
 0001:0002c650       __aligned_realloc_base     0042d650 f   memoverride.obj
 0001:0002c670       __aligned_free_base        0042d670 f   memoverride.obj
 0001:0002c690       __aligned_malloc           0042d690 f   memoverride.obj
 0001:0002c6a0       __aligned_free             0042d6a0 f   memoverride.obj
 0001:0002c6c0       __aligned_realloc          0042d6c0 f   memoverride.obj
 0001:0002c6e0       __aligned_offset_malloc    0042d6e0 f   memoverride.obj
 0001:0002c6f0       __aligned_offset_realloc   0042d6f0 f   memoverride.obj
 0001:0002c710       __CrtDumpMemoryLeaks       0042d710 f   memoverride.obj
 0001:0002c720       __CrtSetDumpClient         0042d720 f   memoverride.obj
 0001:0002c730       __CrtSetDbgFlag            0042d730 f   memoverride.obj
 0001:0002c750       ___p__crtDbgFlag           0042d750 f   memoverride.obj
 0001:0002c760       ___p__crtBreakAlloc        0042d760 f   memoverride.obj
 0001:0002c770       __CrtSetDbgBlockType       0042d770 f   memoverride.obj
 0001:0002c780       __CrtSetAllocHook          0042d780 f   memoverride.obj
 0001:0002c790       __CrtSetBreakAlloc         0042d790 f   memoverride.obj
 0001:0002c7b0       __CrtIsValidHeapPointer    0042d7b0 f   memoverride.obj
 0001:0002c7d0       __CrtIsValidPointer        0042d7d0 f   memoverride.obj
 0001:0002c7f0       __CrtCheckMemory           0042d7f0 f   memoverride.obj
 0001:0002c800       __CrtIsMemoryBlock         0042d800 f   memoverride.obj
 0001:0002c810       __CrtMemDifference         0042d810 f   memoverride.obj
 0001:0002c820       __CrtMemDumpStatistics     0042d820 f   memoverride.obj
 0001:0002c830       __CrtMemCheckpoint         0042d830 f   memoverride.obj
 0001:0002c850       __CrtMemDumpAllObjectsSince 0042d850 f   memoverride.obj
 0001:0002c860       __CrtDoForAllClientObjects 0042d860 f   memoverride.obj
 0001:0002c870       __CrtSetReportMode         0042d870 f   memoverride.obj
 0001:0002c890       __CrtSetReportFile         0042d890 f   memoverride.obj
 0001:0002c8b0       __CrtSetReportHook         0042d8b0 f   memoverride.obj
 0001:0002c8d0       __CrtDbgReport             0042d8d0 f   memoverride.obj
 0001:0002c920       __CrtSetCheckCount         0042d920 f   memoverride.obj
 0001:0002c930       __CrtGetCheckCount         0042d930 f   memoverride.obj
 0001:0002c940       __aligned_offset_recalloc_dbg 0042d940 f   memoverride.obj
 0001:0002c9d0       __aligned_recalloc         0042d9d0 f   memoverride.obj
 0001:0002ca00       __aligned_recalloc_dbg     0042da00 f   memoverride.obj
 0001:0002ca30       __aligned_offset_recalloc  0042da30 f   memoverride.obj
 0001:0002ca60       __recalloc_dbg             0042da60 f   memoverride.obj
 0001:0002ca70       __CrtGetReportHook         0042da70 f   memoverride.obj
 0001:0002ca80       __CrtDbgReportW            0042da80 f   memoverride.obj
 0001:0002ca90       __CrtReportBlockType       0042da90 f   memoverride.obj
 0001:0002caa0       __heap_alloc_base          0042daa0 f   memoverride.obj
 0001:0002cab0       __heap_alloc_dbg           0042dab0 f   memoverride.obj
 0001:0002cac0       __free_nolock              0042dac0 f   memoverride.obj
 0001:0002cae0       __free_dbg_nolock          0042dae0 f   memoverride.obj
 0001:0002cb00       __CrtGetAllocHook          0042db00 f   memoverride.obj
 0001:0002cb10       __CrtGetDumpClient         0042db10 f   memoverride.obj
 0001:0002cb20       __aligned_malloc_dbg       0042db20 f   memoverride.obj
 0001:0002cb30       __aligned_realloc_dbg      0042db30 f   memoverride.obj
 0001:0002cb50       __aligned_offset_malloc_dbg 0042db50 f   memoverride.obj
 0001:0002cb60       __aligned_offset_malloc_base 0042db60 f   memoverride.obj
 0001:0002cb70       __aligned_offset_realloc_dbg 0042db70 f   memoverride.obj
 0001:0002cb90       __aligned_free_dbg         0042db90 f   memoverride.obj
 0001:0002cbb0       __CrtSetDebugFillThreshold 0042dbb0 f   memoverride.obj
 0001:0002cbc0       __strdup                   0042dbc0 f   memoverride.obj
 0001:0002cbd0       __wcsdup_dbg               0042dbd0 f   memoverride.obj
 0001:0002cbe0       __wcsdup                   0042dbe0 f   memoverride.obj
 0001:0002cbf0       ?assign@?$char_traits@D@std@@SAXAADABD@Z 0042dbf0 f i mstristrip.obj
 0001:0002cc00       ?length@?$char_traits@D@std@@SAIPBD@Z 0042dc00 f i mstristrip.obj
 0001:0002cc20       ?_Copy_s@?$char_traits@D@std@@SAPADPADIPBDI@Z 0042dc20 f i mstristrip.obj
 0001:0002cc50       ?_Move_s@?$char_traits@D@std@@SAPADPADIPBDI@Z 0042dc50 f i mstristrip.obj
 0001:0002cc80       ??0_Iterator_base@std@@QAE@XZ 0042dc80 f i mstristrip.obj
 0001:0002cc90       ??0bad_alloc@std@@QAE@PBD@Z 0042dc90 f i mstristrip.obj
 0001:0002ccb0       ??1bad_alloc@std@@UAE@XZ   0042dcb0 f i mstristrip.obj
 0001:0002ccc0       ??_Ebad_alloc@std@@UAEPAXI@Z 0042dcc0 f i mstristrip.obj
 0001:0002ccc0       ??_Gbad_alloc@std@@UAEPAXI@Z 0042dcc0 f i mstristrip.obj
 0001:0002ccf0       ?GetNeighborCount@CStripper@@QAEHH@Z 0042dcf0 f i mstristrip.obj
 0001:0002cd60       ??1CVertCache@@QAE@XZ      0042dd60 f i mstristrip.obj
 0001:0002cd70       ?Reset@CVertCache@@QAEXXZ  0042dd70 f i mstristrip.obj
 0001:0002cda0       ?NumCacheHits@CVertCache@@QBEHXZ 0042dda0 f i mstristrip.obj
 0001:0002cdb0       ?CreateStrip@CStripper@@QAEHHHHPAH_N100@Z 0042ddb0 f   mstristrip.obj
 0001:0002d1a0       ?InitTriangleInfo@CStripper@@QAEXHH@Z 0042e1a0 f   mstristrip.obj
 0001:0002d2c0       ??0CStripper@@QAE@HPAY02G@Z 0042e2c0 f   mstristrip.obj
 0001:0002d3a0       ??1CStripper@@QAE@XZ       0042e3a0 f   mstristrip.obj
 0001:0002d3d0       ?Add@CVertCache@@QAE_NHH@Z 0042e3d0 f   mstristrip.obj
 0001:0002d440       ??MSortEntry@@QAE_NABU0@@Z 0042e440 f i mstristrip.obj
 0001:0002d460       ?size@?$vector@GV?$allocator@G@std@@@std@@QBEIXZ 0042e460 f i mstristrip.obj
 0001:0002d480       ??A?$vector@GV?$allocator@G@std@@@std@@QBEABGI@Z 0042e480 f i mstristrip.obj
 0001:0002d4b0       ??A?$vector@GV?$allocator@G@std@@@std@@QAEAAGI@Z 0042e4b0 f i mstristrip.obj
 0001:0002d4e0       ?size@?$list@PAV?$vector@GV?$allocator@G@std@@@std@@V?$allocator@PAV?$vector@GV?$allocator@G@std@@@std@@@2@@std@@QBEIXZ 0042e4e0 f i mstristrip.obj
 0001:0002d4f0       ?empty@?$list@PAV?$vector@GV?$allocator@G@std@@@std@@V?$allocator@PAV?$vector@GV?$allocator@G@std@@@std@@@2@@std@@QBE_NXZ 0042e4f0 f i mstristrip.obj
 0001:0002d500       ?_Myptr@?$basic_string@DU?$char_traits@D@std@@V?$allocator@D@2@@std@@IBEPBDXZ 0042e500 f i mstristrip.obj
 0001:0002d510       ??0?$allocator@G@std@@QAE@XZ 0042e510 f i mstristrip.obj
 0001:0002d520       ?_Nextnode@?$list@PAV?$vector@GV?$allocator@G@std@@@std@@V?$allocator@PAV?$vector@GV?$allocator@G@std@@@std@@@2@@std@@KAAAPAU_Node@?$_List_nod@PAV?$vector@GV?$allocator@G@std@@@std@@V?$allocator@PAV?$vector@GV?$allocator@G@std@@@std@@@2@@2@PAU342@@Z 0042e520 f i mstristrip.obj
 0001:0002d530       ?_Prevnode@?$list@PAV?$vector@GV?$allocator@G@std@@@std@@V?$allocator@PAV?$vector@GV?$allocator@G@std@@@std@@@2@@std@@KAAAPAU_Node@?$_List_nod@PAV?$vector@GV?$allocator@G@std@@@std@@V?$allocator@PAV?$vector@GV?$allocator@G@std@@@std@@@2@@2@PAU342@@Z 0042e530 f i mstristrip.obj
 0001:0002d540       ??0?$allocator@PAV?$vector@GV?$allocator@G@std@@@std@@@std@@QAE@XZ 0042e540 f i mstristrip.obj
 0001:0002d550       ?deallocate@?$allocator@U_Node@?$_List_nod@PAV?$vector@GV?$allocator@G@std@@@std@@V?$allocator@PAV?$vector@GV?$allocator@G@std@@@std@@@2@@std@@@std@@QAEXPAU_Node@?$_List_nod@PAV?$vector@GV?$allocator@G@std@@@std@@V?$allocator@PAV?$vector@GV?$allocator@G@std@@@std@@@2@@2@I@Z 0042e550 f i mstristrip.obj
 0001:0002d560       ??E?$_Const_iterator@$00@?$list@PAV?$vector@GV?$allocator@G@std@@@std@@V?$allocator@PAV?$vector@GV?$allocator@G@std@@@std@@@2@@std@@QAEAAV012@XZ 0042e560 f i mstristrip.obj
 0001:0002d590       ??8?$_Const_iterator@$00@?$list@PAV?$vector@GV?$allocator@G@std@@@std@@V?$allocator@PAV?$vector@GV?$allocator@G@std@@@std@@@2@@std@@QBE_NABV012@@Z 0042e590 f i mstristrip.obj
 0001:0002d5c0       ?_Mynode@?$_Const_iterator@$00@?$list@PAV?$vector@GV?$allocator@G@std@@@std@@V?$allocator@PAV?$vector@GV?$allocator@G@std@@@std@@@2@@std@@QBEPAU_Node@?$_List_nod@PAV?$vector@GV?$allocator@G@std@@@std@@V?$allocator@PAV?$vector@GV?$allocator@G@std@@@std@@@2@@3@XZ 0042e5c0 f i mstristrip.obj
 0001:0002d5d0       ??F?$_Vector_const_iterator@GV?$allocator@G@std@@@std@@QAEAAV01@XZ 0042e5d0 f i mstristrip.obj
 0001:0002d600       ??0?$_Bidit@PAV?$vector@GV?$allocator@G@std@@@std@@HPBQAV12@ABQAV12@@std@@QAE@XZ 0042e600 f i mstristrip.obj
 0001:0002d610       ?size@?$basic_string@DU?$char_traits@D@std@@V?$allocator@D@2@@std@@QBEIXZ 0042e610 f i mstristrip.obj
 0001:0002d620       ?_Myptr@?$basic_string@DU?$char_traits@D@std@@V?$allocator@D@2@@std@@IAEPADXZ 0042e620 f i mstristrip.obj
 0001:0002d630       ??0?$allocator@D@std@@QAE@ABV01@@Z 0042e630 f i mstristrip.obj
 0001:0002d640       ?deallocate@?$allocator@D@std@@QAEXPADI@Z 0042e640 f i mstristrip.obj
 0001:0002d650       ??0?$allocator@G@std@@QAE@ABV01@@Z 0042e650 f i mstristrip.obj
 0001:0002d660       ?deallocate@?$allocator@G@std@@QAEXPAGI@Z 0042e660 f i mstristrip.obj
 0001:0002d670       ?_Myval@?$list@PAV?$vector@GV?$allocator@G@std@@@std@@V?$allocator@PAV?$vector@GV?$allocator@G@std@@@std@@@2@@std@@KAAAPAV?$vector@GV?$allocator@G@std@@@2@PAU_Node@?$_List_nod@PAV?$vector@GV?$allocator@G@std@@@std@@V?$allocator@PAV?$vector@GV?$allocator@G@std@@@std@@@2@@2@@Z 0042e670 f i mstristrip.obj
 0001:0002d680       ??0?$allocator@PAV?$vector@GV?$allocator@G@std@@@std@@@std@@QAE@ABV01@@Z 0042e680 f i mstristrip.obj
 0001:0002d690       ??0?$_Const_iterator@$00@?$list@PAV?$vector@GV?$allocator@G@std@@@std@@V?$allocator@PAV?$vector@GV?$allocator@G@std@@@std@@@2@@std@@QAE@PAU_Node@?$_List_nod@PAV?$vector@GV?$allocator@G@std@@@std@@V?$allocator@PAV?$vector@GV?$allocator@G@std@@@std@@@2@@2@PBV12@@Z 0042e690 f i mstristrip.obj
 0001:0002d6c0       ??0?$_Ranit@GHPBGABG@std@@QAE@XZ 0042e6c0 f i mstristrip.obj
 0001:0002d6d0       ??0?$_String_val@DV?$allocator@D@std@@@std@@IAE@V?$allocator@D@1@@Z 0042e6d0 f i mstristrip.obj
 0001:0002d6e0       ??0?$allocator@D@std@@QAE@XZ 0042e6e0 f i mstristrip.obj
 0001:0002d6f0       ?max_size@?$allocator@D@std@@QBEIXZ 0042e6f0 f i mstristrip.obj
 0001:0002d700       ?max_size@?$allocator@G@std@@QBEIXZ 0042e700 f i mstristrip.obj
 0001:0002d710       ?max_size@?$allocator@PAV?$vector@GV?$allocator@G@std@@@std@@@std@@QBEIXZ 0042e710 f i mstristrip.obj
 0001:0002d720       ?_Inside@?$basic_string@DU?$char_traits@D@std@@V?$allocator@D@2@@std@@IAE_NPBD@Z 0042e720 f i mstristrip.obj
 0001:0002d760       ??$swap@PAV?$vector@GV?$allocator@G@std@@@std@@@std@@YAXAAPAV?$vector@GV?$allocator@G@std@@@0@0@Z 0042e760 f i mstristrip.obj
 0001:0002d780       ??$_Destroy@U_Node@?$_List_nod@PAV?$vector@GV?$allocator@G@std@@@std@@V?$allocator@PAV?$vector@GV?$allocator@G@std@@@std@@@2@@std@@@std@@YAXPAU_Node@?$_List_nod@PAV?$vector@GV?$allocator@G@std@@@std@@V?$allocator@PAV?$vector@GV?$allocator@G@std@@@std@@@2@@0@@Z 0042e780 f i mstristrip.obj
 0001:0002d790       ??$?0PAV?$vector@GV?$allocator@G@std@@@std@@@?$allocator@PAU_Node@?$_List_nod@PAV?$vector@GV?$allocator@G@std@@@std@@V?$allocator@PAV?$vector@GV?$allocator@G@std@@@std@@@2@@std@@@std@@QAE@ABV?$allocator@PAV?$vector@GV?$allocator@G@std@@@std@@@1@@Z 0042e790 f i mstristrip.obj
 0001:0002d7a0       ??$_Allocate@U_Node@?$_List_nod@PAV?$vector@GV?$allocator@G@std@@@std@@V?$allocator@PAV?$vector@GV?$allocator@G@std@@@std@@@2@@std@@@std@@YAPAU_Node@?$_List_nod@PAV?$vector@GV?$allocator@G@std@@@std@@V?$allocator@PAV?$vector@GV?$allocator@G@std@@@std@@@2@@0@IPAU120@@Z 0042e7a0 f i mstristrip.obj
 0001:0002d800       ??$_Construct@PAU_Node@?$_List_nod@PAV?$vector@GV?$allocator@G@std@@@std@@V?$allocator@PAV?$vector@GV?$allocator@G@std@@@std@@@2@@std@@PAU123@@std@@YAXPAPAU_Node@?$_List_nod@PAV?$vector@GV?$allocator@G@std@@@std@@V?$allocator@PAV?$vector@GV?$allocator@G@std@@@std@@@2@@0@ABQAU120@@Z 0042e800 f i mstristrip.obj
 0001:0002d820       ??$_Destroy@PAU_Node@?$_List_nod@PAV?$vector@GV?$allocator@G@std@@@std@@V?$allocator@PAV?$vector@GV?$allocator@G@std@@@std@@@2@@std@@@std@@YAXPAPAU_Node@?$_List_nod@PAV?$vector@GV?$allocator@G@std@@@std@@V?$allocator@PAV?$vector@GV?$allocator@G@std@@@std@@@2@@0@@Z 0042e820 f i mstristrip.obj
 0001:0002d830       ??$_Allocate@G@std@@YAPAGIPAG@Z 0042e830 f i mstristrip.obj
 0001:0002d890       ??$?0PAV?$vector@GV?$allocator@G@std@@@std@@@?$allocator@U_Node@?$_List_nod@PAV?$vector@GV?$allocator@G@std@@@std@@V?$allocator@PAV?$vector@GV?$allocator@G@std@@@std@@@2@@std@@@std@@QAE@ABV?$allocator@PAV?$vector@GV?$allocator@G@std@@@std@@@1@@Z 0042e890 f i mstristrip.obj
 0001:0002d8a0       ??$_Construct@PAV?$vector@GV?$allocator@G@std@@@std@@PAV12@@std@@YAXPAPAV?$vector@GV?$allocator@G@std@@@0@ABQAV10@@Z 0042e8a0 f i mstristrip.obj
 0001:0002d8c0       ??$_Allocate@D@std@@YAPADIPAD@Z 0042e8c0 f i mstristrip.obj
 0001:0002d920       ??0bad_alloc@std@@QAE@ABV01@@Z 0042e920 f i mstristrip.obj
 0001:0002d940       ??$_Iter_cat@V?$_Vector_iterator@GV?$allocator@G@std@@@std@@@std@@YA?AUrandom_access_iterator_tag@0@ABV?$_Vector_iterator@GV?$allocator@G@std@@@0@@Z 0042e940 f i mstristrip.obj
 0001:0002d950       ??$_Iter_cat@V?$_Const_iterator@$00@?$list@PAV?$vector@GV?$allocator@G@std@@@std@@V?$allocator@PAV?$vector@GV?$allocator@G@std@@@std@@@2@@std@@@std@@YA?AUbidirectional_iterator_tag@0@ABV?$_Const_iterator@$00@?$list@PAV?$vector@GV?$allocator@G@std@@@std@@V?$allocator@PAV?$vector@GV?$allocator@G@std@@@std@@@2@@0@@Z 0042e950 f i mstristrip.obj
 0001:0002d960       ??$_Char_traits_cat@U?$char_traits@D@std@@@std@@YA?AU_Secure_char_traits_tag@0@XZ 0042e960 f i mstristrip.obj
 0001:0002d970       ??$copy_s@U?$char_traits@D@std@@@_Traits_helper@std@@YAPADPADIPBDIU_Secure_char_traits_tag@1@@Z 0042e970 f i mstristrip.obj
 0001:0002d9a0       ??$move_s@U?$char_traits@D@std@@@_Traits_helper@std@@YAPADPADIPBDIU_Secure_char_traits_tag@1@@Z 0042e9a0 f i mstristrip.obj
 0001:0002d9d0       ??$_Ptr_cat@PAGPAG@std@@YA?AU_Scalar_ptr_iterator_tag@0@AAPAG0@Z 0042e9d0 f i mstristrip.obj
 0001:0002d9e0       ??$_Destroy_range@GV?$allocator@G@std@@@std@@YAXPAG0AAV?$allocator@G@0@U_Scalar_ptr_iterator_tag@0@@Z 0042e9e0 f i mstristrip.obj
 0001:0002d9f0       ??$_Checked_base@PAUSortEntry@@@std@@YAPAUSortEntry@@AAPAU1@U_Unchanged_checked_iterator_base_type_tag@0@@Z 0042e9f0 f i mstristrip.obj
 0001:0002da00       ?_Checked_iterator_base@?$_Vector_iterator@GV?$allocator@G@std@@@std@@QBEPAGXZ 0042ea00 f i mstristrip.obj
 0001:0002da10       ??0?$pair@PAUSortEntry@@PAU1@@std@@QAE@ABQAUSortEntry@@0@Z 0042ea10 f i mstristrip.obj
 0001:0002da30       ??$swap@G@std@@YAXAAG0@Z   0042ea30 f i mstristrip.obj
 0001:0002da50       ??$_Dist_type@PAUSortEntry@@@std@@YAPAHPAUSortEntry@@@Z 0042ea50 f i mstristrip.obj
 0001:0002da60       ??$_Val_type@PAUSortEntry@@@std@@YAPAUSortEntry@@PAU1@@Z 0042ea60 f i mstristrip.obj
 0001:0002da70       ??$_Iter_cat@PAG@std@@YA?AUrandom_access_iterator_tag@0@ABQAG@Z 0042ea70 f i mstristrip.obj
 0001:0002da80       ??F?$_Const_iterator@$00@?$list@PAV?$vector@GV?$allocator@G@std@@@std@@V?$allocator@PAV?$vector@GV?$allocator@G@std@@@std@@@2@@std@@QAEAAV012@XZ 0042ea80 f i mstristrip.obj
 0001:0002dab0       ??$swap@USortEntry@@@std@@YAXAAUSortEntry@@0@Z 0042eab0 f i mstristrip.obj
 0001:0002dae0       ??$_Fill_n@PAGIG@std@@YAXPAGIABGU_Range_checked_iterator_tag@0@@Z 0042eae0 f i mstristrip.obj
 0001:0002db10       ??$_Push_heap@PAUSortEntry@@HU1@@std@@YAXPAUSortEntry@@HHU1@@Z 0042eb10 f i mstristrip.obj
 0001:0002db60       ??$_Iter_random@PAUSortEntry@@PAU1@@std@@YA?AUrandom_access_iterator_tag@0@ABQAUSortEntry@@0@Z 0042eb60 f i mstristrip.obj
 0001:0002db70       ??$_Ptr_cat@PAUSortEntry@@PAU1@@std@@YA?AU_Nonscalar_ptr_iterator_tag@0@AAPAUSortEntry@@0@Z 0042eb70 f i mstristrip.obj
 0001:0002db80       ??$_Checked_base@PAG@std@@YAPAGAAPAGU_Unchanged_checked_iterator_base_type_tag@0@@Z 0042eb80 f i mstristrip.obj
 0001:0002db90       ??$_Copy_backward_opt@PAUSortEntry@@PAU1@Uforward_iterator_tag@std@@@std@@YAPAUSortEntry@@PAU1@00Uforward_iterator_tag@0@U_Nonscalar_ptr_iterator_tag@0@U_Range_checked_iterator_tag@0@@Z 0042eb90 f i mstristrip.obj
 0001:0002dbc0       ?FIsStripCW@@YA_NABV?$vector@GV?$allocator@G@std@@@std@@@Z 0042ebc0 f i mstristrip.obj
 0001:0002dc00       ?StripLen@@YAHABV?$vector@GV?$allocator@G@std@@@std@@@Z 0042ec00 f i mstristrip.obj
 0001:0002dc20       ??0CVertCache@@QAE@XZ      0042ec20 f i mstristrip.obj
 0001:0002dc50       ??E?$_Iterator@$00@?$list@PAV?$vector@GV?$allocator@G@std@@@std@@V?$allocator@PAV?$vector@GV?$allocator@G@std@@@std@@@2@@std@@QAEAAV012@XZ 0042ec50 f i mstristrip.obj
 0001:0002dc80       ??E?$_Iterator@$00@?$list@PAV?$vector@GV?$allocator@G@std@@@std@@V?$allocator@PAV?$vector@GV?$allocator@G@std@@@std@@@2@@std@@QAE?AV012@H@Z 0042ec80 f i mstristrip.obj
 0001:0002dcc0       ??9?$_Const_iterator@$00@?$list@PAV?$vector@GV?$allocator@G@std@@@std@@V?$allocator@PAV?$vector@GV?$allocator@G@std@@@std@@@2@@std@@QBE_NABV012@@Z 0042ecc0 f i mstristrip.obj
 0001:0002dcf0       ??F?$_Vector_iterator@GV?$allocator@G@std@@@std@@QAEAAV01@XZ 0042ecf0 f i mstristrip.obj
 0001:0002dd20       ??0?$_String_val@DV?$allocator@D@std@@@std@@QAE@ABV01@@Z 0042ed20 f i mstristrip.obj
 0001:0002dd30       ??0?$_Vector_val@GV?$allocator@G@std@@@std@@IAE@V?$allocator@G@1@@Z 0042ed30 f i mstristrip.obj
 0001:0002dd40       ?begin@?$list@PAV?$vector@GV?$allocator@G@std@@@std@@V?$allocator@PAV?$vector@GV?$allocator@G@std@@@std@@@2@@std@@QBE?AV?$_Const_iterator@$00@12@XZ 0042ed40 f i mstristrip.obj
 0001:0002dd60       ?end@?$list@PAV?$vector@GV?$allocator@G@std@@@std@@V?$allocator@PAV?$vector@GV?$allocator@G@std@@@std@@@2@@std@@QBE?AV?$_Const_iterator@$00@12@XZ 0042ed60 f i mstristrip.obj
 0001:0002dd70       ?destroy@?$allocator@U_Node@?$_List_nod@PAV?$vector@GV?$allocator@G@std@@@std@@V?$allocator@PAV?$vector@GV?$allocator@G@std@@@std@@@2@@std@@@std@@QAEXPAU_Node@?$_List_nod@PAV?$vector@GV?$allocator@G@std@@@std@@V?$allocator@PAV?$vector@GV?$allocator@G@std@@@std@@@2@@2@@Z 0042ed70 f i mstristrip.obj
 0001:0002dd80       ??0?$_Iterator@$00@?$list@PAV?$vector@GV?$allocator@G@std@@@std@@V?$allocator@PAV?$vector@GV?$allocator@G@std@@@std@@@2@@std@@QAE@PAU_Node@?$_List_nod@PAV?$vector@GV?$allocator@G@std@@@std@@V?$allocator@PAV?$vector@GV?$allocator@G@std@@@std@@@2@@2@PBV12@@Z 0042ed80 f i mstristrip.obj
 0001:0002ddb0       ??0?$_Const_iterator@$00@?$list@PAV?$vector@GV?$allocator@G@std@@@std@@V?$allocator@PAV?$vector@GV?$allocator@G@std@@@std@@@2@@std@@QAE@XZ 0042edb0 f i mstristrip.obj
 0001:0002ddc0       ??D?$_Const_iterator@$00@?$list@PAV?$vector@GV?$allocator@G@std@@@std@@V?$allocator@PAV?$vector@GV?$allocator@G@std@@@std@@@2@@std@@QBEABQAV?$vector@GV?$allocator@G@std@@@2@XZ 0042edc0 f i mstristrip.obj
 0001:0002ddf0       ?_Eos@?$basic_string@DU?$char_traits@D@std@@V?$allocator@D@2@@std@@IAEXI@Z 0042edf0 f i mstristrip.obj
 0001:0002de10       ?clear@?$list@PAV?$vector@GV?$allocator@G@std@@@std@@V?$allocator@PAV?$vector@GV?$allocator@G@std@@@std@@@2@@std@@QAEXXZ 0042ee10 f i mstristrip.obj
 0001:0002de50       ?allocate@?$allocator@U_Node@?$_List_nod@PAV?$vector@GV?$allocator@G@std@@@std@@V?$allocator@PAV?$vector@GV?$allocator@G@std@@@std@@@2@@std@@@std@@QAEPAU_Node@?$_List_nod@PAV?$vector@GV?$allocator@G@std@@@std@@V?$allocator@PAV?$vector@GV?$allocator@G@std@@@std@@@2@@2@I@Z 0042ee50 f i mstristrip.obj
 0001:0002de70       ?construct@?$allocator@PAU_Node@?$_List_nod@PAV?$vector@GV?$allocator@G@std@@@std@@V?$allocator@PAV?$vector@GV?$allocator@G@std@@@std@@@2@@std@@@std@@QAEXPAPAU_Node@?$_List_nod@PAV?$vector@GV?$allocator@G@std@@@std@@V?$allocator@PAV?$vector@GV?$allocator@G@std@@@std@@@2@@2@ABQAU342@@Z 0042ee70 f i mstristrip.obj
 0001:0002de90       ?destroy@?$allocator@PAU_Node@?$_List_nod@PAV?$vector@GV?$allocator@G@std@@@std@@V?$allocator@PAV?$vector@GV?$allocator@G@std@@@std@@@2@@std@@@std@@QAEXPAPAU_Node@?$_List_nod@PAV?$vector@GV?$allocator@G@std@@@std@@V?$allocator@PAV?$vector@GV?$allocator@G@std@@@std@@@2@@2@@Z 0042ee90 f i mstristrip.obj
 0001:0002dea0       ??0?$_Vector_const_iterator@GV?$allocator@G@std@@@std@@QAE@PAGPBU_Container_base@1@@Z 0042eea0 f i mstristrip.obj
 0001:0002dee0       ?max_size@?$basic_string@DU?$char_traits@D@std@@V?$allocator@D@2@@std@@QBEIXZ 0042eee0 f i mstristrip.obj
 0001:0002def0       ?max_size@?$vector@GV?$allocator@G@std@@@std@@QBEIXZ 0042eef0 f i mstristrip.obj
 0001:0002df00       ?allocate@?$allocator@G@std@@QAEPAGI@Z 0042ef00 f i mstristrip.obj
 0001:0002df20       ?max_size@?$list@PAV?$vector@GV?$allocator@G@std@@@std@@V?$allocator@PAV?$vector@GV?$allocator@G@std@@@std@@@2@@std@@QBEIXZ 0042ef20 f i mstristrip.obj
 0001:0002df30       ??0?$_List_nod@PAV?$vector@GV?$allocator@G@std@@@std@@V?$allocator@PAV?$vector@GV?$allocator@G@std@@@std@@@2@@std@@IAE@V?$allocator@PAV?$vector@GV?$allocator@G@std@@@std@@@1@@Z 0042ef30 f i mstristrip.obj
 0001:0002df40       ?construct@?$allocator@PAV?$vector@GV?$allocator@G@std@@@std@@@std@@QAEXPAPAV?$vector@GV?$allocator@G@std@@@2@ABQAV32@@Z 0042ef40 f i mstristrip.obj
 0001:0002df60       ?allocate@?$allocator@D@std@@QAEPADI@Z 0042ef60 f i mstristrip.obj
 0001:0002df80       ??$copy_s@U?$char_traits@D@std@@@_Traits_helper@std@@YAPADPADIPBDI@Z 0042ef80 f i mstristrip.obj
 0001:0002dfb0       ??$move_s@U?$char_traits@D@std@@@_Traits_helper@std@@YAPADPADIPBDI@Z 0042efb0 f i mstristrip.obj
 0001:0002dfe0       ??$_Destroy_range@GV?$allocator@G@std@@@std@@YAXPAG0AAV?$allocator@G@0@@Z 0042efe0 f i mstristrip.obj
 0001:0002dff0       ??$_Checked_base@PAUSortEntry@@@std@@YAPAUSortEntry@@AAPAU1@@Z 0042eff0 f i mstristrip.obj
 0001:0002e000       ??$_Checked_base@V?$_Vector_iterator@GV?$allocator@G@std@@@std@@U_Different_checked_iterator_base_type_tag@2@@std@@YAPAGAAV?$_Vector_iterator@GV?$allocator@G@std@@@0@U_Different_checked_iterator_base_type_tag@0@@Z 0042f000 f i mstristrip.obj
 0001:0002e010       ??$iter_swap@PAGPAG@std@@YAXPAG0@Z 0042f010 f i mstristrip.obj
 0001:0002e030       ??$iter_swap@PAUSortEntry@@PAU1@@std@@YAXPAUSortEntry@@0@Z 0042f030 f i mstristrip.obj
 0001:0002e060       ??F?$_Iterator@$00@?$list@PAV?$vector@GV?$allocator@G@std@@@std@@V?$allocator@PAV?$vector@GV?$allocator@G@std@@@std@@@2@@std@@QAEAAV012@XZ 0042f060 f i mstristrip.obj
 0001:0002e090       ??$_Med3@PAUSortEntry@@@std@@YAXPAUSortEntry@@00@Z 0042f090 f i mstristrip.obj
 0001:0002e0f0       ??$_Adjust_heap@PAUSortEntry@@HU1@@std@@YAXPAUSortEntry@@HHU1@@Z 0042f0f0 f i mstristrip.obj
 0001:0002e170       ??$_Checked_base@PAG@std@@YAPAGAAPAG@Z 0042f170 f i mstristrip.obj
 0001:0002e180       ??$_Copy_backward_opt@PAUSortEntry@@PAU1@@std@@YAPAUSortEntry@@PAU1@00Urandom_access_iterator_tag@0@U_Nonscalar_ptr_iterator_tag@0@U_Range_checked_iterator_tag@0@@Z 0042f180 f i mstristrip.obj
 0001:0002e1c0       ??$_Pop_heap@PAUSortEntry@@HU1@@std@@YAXPAUSortEntry@@00U1@PAH@Z 0042f1c0 f i mstristrip.obj
 0001:0002e200       ?begin@?$list@PAV?$vector@GV?$allocator@G@std@@@std@@V?$allocator@PAV?$vector@GV?$allocator@G@std@@@std@@@2@@std@@QAE?AV?$_Iterator@$00@12@XZ 0042f200 f i mstristrip.obj
 0001:0002e220       ?end@?$list@PAV?$vector@GV?$allocator@G@std@@@std@@V?$allocator@PAV?$vector@GV?$allocator@G@std@@@std@@@2@@std@@QAE?AV?$_Iterator@$00@12@XZ 0042f220 f i mstristrip.obj
 0001:0002e230       ?erase@?$list@PAV?$vector@GV?$allocator@G@std@@@std@@V?$allocator@PAV?$vector@GV?$allocator@G@std@@@std@@@2@@std@@QAE?AV?$_Iterator@$00@12@V312@@Z 0042f230 f i mstristrip.obj
 0001:0002e290       ??0?$_Iterator@$00@?$list@PAV?$vector@GV?$allocator@G@std@@@std@@V?$allocator@PAV?$vector@GV?$allocator@G@std@@@std@@@2@@std@@QAE@XZ 0042f290 f i mstristrip.obj
 0001:0002e2a0       ??D?$_Iterator@$00@?$list@PAV?$vector@GV?$allocator@G@std@@@std@@V?$allocator@PAV?$vector@GV?$allocator@G@std@@@std@@@2@@std@@QBEAAPAV?$vector@GV?$allocator@G@std@@@2@XZ 0042f2a0 f i mstristrip.obj
 0001:0002e2d0       ?_Tidy@?$basic_string@DU?$char_traits@D@std@@V?$allocator@D@2@@std@@IAEX_NI@Z 0042f2d0 f i mstristrip.obj
 0001:0002e320       ?_Buynode@?$list@PAV?$vector@GV?$allocator@G@std@@@std@@V?$allocator@PAV?$vector@GV?$allocator@G@std@@@std@@@2@@std@@IAEPAU_Node@?$_List_nod@PAV?$vector@GV?$allocator@G@std@@@std@@V?$allocator@PAV?$vector@GV?$allocator@G@std@@@std@@@2@@2@XZ 0042f320 f i mstristrip.obj
 0001:0002e3a0       ?_Tidy@?$list@PAV?$vector@GV?$allocator@G@std@@@std@@V?$allocator@PAV?$vector@GV?$allocator@G@std@@@std@@@2@@std@@IAEXXZ 0042f3a0 f i mstristrip.obj
 0001:0002e3f0       ??0?$_Vector_iterator@GV?$allocator@G@std@@@std@@QAE@PAGPBU_Container_base@1@@Z 0042f3f0 f i mstristrip.obj
 0001:0002e430       ?erase@?$basic_string@DU?$char_traits@D@std@@V?$allocator@D@2@@std@@QAEAAV12@II@Z 0042f430 f i mstristrip.obj
 0001:0002e4c0       ?_Destroy@?$vector@GV?$allocator@G@std@@@std@@IAEXPAG0@Z 0042f4c0 f i mstristrip.obj
 0001:0002e4d0       ?_Buynode@?$list@PAV?$vector@GV?$allocator@G@std@@@std@@V?$allocator@PAV?$vector@GV?$allocator@G@std@@@std@@@2@@std@@IAEPAU_Node@?$_List_nod@PAV?$vector@GV?$allocator@G@std@@@std@@V?$allocator@PAV?$vector@GV?$allocator@G@std@@@std@@@2@@2@PAU342@0ABQAV?$vector@GV?$allocator@G@std@@@2@@Z 0042f4d0 f i mstristrip.obj
 0001:0002e570       ??0?$_List_ptr@PAV?$vector@GV?$allocator@G@std@@@std@@V?$allocator@PAV?$vector@GV?$allocator@G@std@@@std@@@2@@std@@IAE@V?$allocator@PAV?$vector@GV?$allocator@G@std@@@std@@@1@@Z 0042f570 f i mstristrip.obj
 0001:0002e580       ?_Copy@?$basic_string@DU?$char_traits@D@std@@V?$allocator@D@2@@std@@IAEXII@Z 0042f580 f i mstristrip.obj
 0001:0002e6d0       ??$_Checked_base@V?$_Vector_iterator@GV?$allocator@G@std@@@std@@@std@@YAPAGAAV?$_Vector_iterator@GV?$allocator@G@std@@@0@@Z 0042f6d0 f i mstristrip.obj
 0001:0002e6e0       ??$_Reverse@PAG@std@@YAXPAG0Urandom_access_iterator_tag@0@@Z 0042f6e0 f i mstristrip.obj
 0001:0002e710       ??$_Median@PAUSortEntry@@@std@@YAXPAUSortEntry@@00@Z 0042f710 f i mstristrip.obj
 0001:0002e7a0       ??$_Make_heap@PAUSortEntry@@HU1@@std@@YAXPAUSortEntry@@0PAH0@Z 0042f7a0 f i mstristrip.obj
 0001:0002e7f0       ??$_Fill_n@PAGIG@std@@YAXPAGIABGUrandom_access_iterator_tag@0@U_Range_checked_iterator_tag@0@@Z 0042f7f0 f i mstristrip.obj
 0001:0002e820       ??$unchecked_copy_backward@PAUSortEntry@@PAU1@@stdext@@YAPAUSortEntry@@PAU1@00@Z 0042f820 f i mstristrip.obj
 0001:0002e860       ??$_Pop_heap_0@PAUSortEntry@@U1@@std@@YAXPAUSortEntry@@00@Z 0042f860 f i mstristrip.obj
 0001:0002e8a0       ?EstimateStripCost@@YAHPAV?$list@PAV?$vector@GV?$allocator@G@std@@@std@@V?$allocator@PAV?$vector@GV?$allocator@G@std@@@std@@@2@@std@@@Z 0042f8a0 f   mstristrip.obj
 0001:0002e8f0       ??1?$basic_string@DU?$char_traits@D@std@@V?$allocator@D@2@@std@@QAE@XZ 0042f8f0 f i mstristrip.obj
 0001:0002e920       ?begin@?$vector@GV?$allocator@G@std@@@std@@QAE?AV?$_Vector_iterator@GV?$allocator@G@std@@@2@XZ 0042f920 f i mstristrip.obj
 0001:0002e950       ?end@?$vector@GV?$allocator@G@std@@@std@@QAE?AV?$_Vector_iterator@GV?$allocator@G@std@@@2@XZ 0042f950 f i mstristrip.obj
 0001:0002e980       ??1?$list@PAV?$vector@GV?$allocator@G@std@@@std@@V?$allocator@PAV?$vector@GV?$allocator@G@std@@@std@@@2@@std@@QAE@XZ 0042f980 f i mstristrip.obj
 0001:0002e990       ?pop_front@?$list@PAV?$vector@GV?$allocator@G@std@@@std@@V?$allocator@PAV?$vector@GV?$allocator@G@std@@@std@@@2@@std@@QAEXXZ 0042f990 f i mstristrip.obj
 0001:0002e9b0       ?_Tidy@?$vector@GV?$allocator@G@std@@@std@@IAEXXZ 0042f9b0 f i mstristrip.obj
 0001:0002e9e0       ??0?$_List_val@PAV?$vector@GV?$allocator@G@std@@@std@@V?$allocator@PAV?$vector@GV?$allocator@G@std@@@std@@@2@@std@@QAE@V?$allocator@PAV?$vector@GV?$allocator@G@std@@@std@@@1@@Z 0042f9e0 f i mstristrip.obj
 0001:0002e9f0       ?_Grow@?$basic_string@DU?$char_traits@D@std@@V?$allocator@D@2@@std@@IAE_NI_N@Z 0042f9f0 f i mstristrip.obj
 0001:0002eab0       ??$reverse@V?$_Vector_iterator@GV?$allocator@G@std@@@std@@@std@@YAXV?$_Vector_iterator@GV?$allocator@G@std@@@0@0@Z 0042fab0 f i mstristrip.obj
 0001:0002eae0       ??$_Unguarded_partition@PAUSortEntry@@@std@@YA?AU?$pair@PAUSortEntry@@PAU1@@0@PAUSortEntry@@0@Z 0042fae0 f i mstristrip.obj
 0001:0002eca0       ??$make_heap@PAUSortEntry@@@std@@YAXPAUSortEntry@@0@Z 0042fca0 f i mstristrip.obj
 0001:0002ecd0       ??$unchecked_fill_n@PAGIG@stdext@@YAXPAGIABG@Z 0042fcd0 f i mstristrip.obj
 0001:0002ed00       ??$_Insertion_sort1@PAUSortEntry@@U1@@std@@YAXPAUSortEntry@@00@Z 0042fd00 f i mstristrip.obj
 0001:0002ed80       ??$pop_heap@PAUSortEntry@@@std@@YAXPAUSortEntry@@0@Z 0042fd80 f i mstristrip.obj
 0001:0002edd0       ??1logic_error@std@@UAE@XZ 0042fdd0 f i mstristrip.obj
 0001:0002ee10       ?c_str@?$basic_string@DU?$char_traits@D@std@@V?$allocator@D@2@@std@@QBEPBDXZ 0042fe10 f i mstristrip.obj
 0001:0002ee20       ?what@logic_error@std@@UBEPBDXZ 0042fe20 f i mstristrip.obj
 0001:0002ee30       ??_Glogic_error@std@@UAEPAXI@Z 0042fe30 f i mstristrip.obj
 0001:0002ee30       ??_Elogic_error@std@@UAEPAXI@Z 0042fe30 f i mstristrip.obj
 0001:0002ee80       ?FindBestCachedStrip@@YA?AV?$_Iterator@$00@?$list@PAV?$vector@GV?$allocator@G@std@@@std@@V?$allocator@PAV?$vector@GV?$allocator@G@std@@@std@@@2@@std@@PAV23@ABVCVertCache@@@Z 0042fe80 f   mstristrip.obj
 0001:0002f180       ??1?$vector@GV?$allocator@G@std@@@std@@QAE@XZ 00430180 f i mstristrip.obj
 0001:0002f1b0       ??0?$list@PAV?$vector@GV?$allocator@G@std@@@std@@V?$allocator@PAV?$vector@GV?$allocator@G@std@@@std@@@2@@std@@QAE@XZ 004301b0 f i mstristrip.obj
 0001:0002f1d0       ?assign@?$basic_string@DU?$char_traits@D@std@@V?$allocator@D@2@@std@@QAEAAV12@ABV12@II@Z 004301d0 f i mstristrip.obj
 0001:0002f2b0       ?assign@?$basic_string@DU?$char_traits@D@std@@V?$allocator@D@2@@std@@QAEAAV12@PBDI@Z 004302b0 f i mstristrip.obj
 0001:0002f380       ??$_Uninit_fill_n@PAGIGV?$allocator@G@std@@@std@@YAXPAGIABGAAV?$allocator@G@0@U_Scalar_ptr_iterator_tag@0@U_Range_checked_iterator_tag@0@@Z 00430380 f i mstristrip.obj
 0001:0002f3b0       ??$_Insertion_sort@PAUSortEntry@@@std@@YAXPAUSortEntry@@0@Z 004303b0 f i mstristrip.obj
 0001:0002f3d0       ??$_Sort_heap@PAUSortEntry@@@std@@YAXPAUSortEntry@@0@Z 004303d0 f i mstristrip.obj
 0001:0002f420       ??_G?$vector@GV?$allocator@G@std@@@std@@QAEPAXI@Z 00430420 f i mstristrip.obj
 0001:0002f460       ?CreateManyStrips@CStripper@@QAEHPAV?$list@PAV?$vector@GV?$allocator@G@std@@@std@@V?$allocator@PAV?$vector@GV?$allocator@G@std@@@std@@@2@@std@@PAPAG@Z 00430460 f   mstristrip.obj
 0001:0002f6e0       ?CreateLongStrip@CStripper@@QAEHPAV?$list@PAV?$vector@GV?$allocator@G@std@@@std@@V?$allocator@PAV?$vector@GV?$allocator@G@std@@@std@@@2@@std@@PAPAG@Z 004306e0 f   mstristrip.obj
 0001:0002fa60       ??0?$basic_string@DU?$char_traits@D@std@@V?$allocator@D@2@@std@@QAE@ABV01@@Z 00430a60 f i mstristrip.obj
 0001:0002fa90       ?assign@?$basic_string@DU?$char_traits@D@std@@V?$allocator@D@2@@std@@QAEAAV12@PBD@Z 00430a90 f i mstristrip.obj
 0001:0002fac0       ??$unchecked_uninitialized_fill_n@PAGIGV?$allocator@G@std@@@stdext@@YAXPAGIABGAAV?$allocator@G@std@@@Z 00430ac0 f i mstristrip.obj
 0001:0002faf0       ??$sort_heap@PAUSortEntry@@@std@@YAXPAUSortEntry@@0@Z 00430af0 f i mstristrip.obj
 0001:0002fb00       ??0logic_error@std@@QAE@ABV?$basic_string@DU?$char_traits@D@std@@V?$allocator@D@2@@1@@Z 00430b00 f i mstristrip.obj
 0001:0002fb40       ??0length_error@std@@QAE@ABV?$basic_string@DU?$char_traits@D@std@@V?$allocator@D@2@@1@@Z 00430b40 f i mstristrip.obj
 0001:0002fb80       ??1length_error@std@@UAE@XZ 00430b80 f i mstristrip.obj
 0001:0002fbc0       ??_Elength_error@std@@UAEPAXI@Z 00430bc0 f i mstristrip.obj
 0001:0002fbc0       ??_Glength_error@std@@UAEPAXI@Z 00430bc0 f i mstristrip.obj
 0001:0002fc10       ?FreeStripListVerts@@YAXPAV?$list@PAV?$vector@GV?$allocator@G@std@@@std@@V?$allocator@PAV?$vector@GV?$allocator@G@std@@@std@@@2@@std@@@Z 00430c10 f i mstristrip.obj
 0001:0002fcb0       ?_Ufill@?$vector@GV?$allocator@G@std@@@std@@IAEPAGPAGIABG@Z 00430cb0 f i mstristrip.obj
 0001:0002fce0       ??0?$basic_string@DU?$char_traits@D@std@@V?$allocator@D@2@@std@@QAE@PBD@Z 00430ce0 f i mstristrip.obj
 0001:0002fd20       ?_Xlen@?$vector@GV?$allocator@G@std@@@std@@KAXXZ 00430d20 f i mstristrip.obj
 0001:0002fd90       ??0logic_error@std@@QAE@ABV01@@Z 00430d90 f i mstristrip.obj
 0001:0002fdd0       ??0length_error@std@@QAE@ABV01@@Z 00430dd0 f i mstristrip.obj
 0001:0002fe10       ??$_Sort@PAUSortEntry@@H@std@@YAXPAUSortEntry@@0H@Z 00430e10 f i mstristrip.obj
 0001:0002fee0       ?_Buy@?$vector@GV?$allocator@G@std@@@std@@IAE_NI@Z 00430ee0 f i mstristrip.obj
 0001:0002ff30       ?_Incsize@?$list@PAV?$vector@GV?$allocator@G@std@@@std@@V?$allocator@PAV?$vector@GV?$allocator@G@std@@@std@@@2@@std@@IAEXI@Z 00430f30 f i mstristrip.obj
 0001:0002ffc0       ??$sort@PAUSortEntry@@@std@@YAXPAUSortEntry@@0@Z 00430fc0 f i mstristrip.obj
 0001:0002ffe0       ?ComputeVertexPermutation@@YAXHPAGPAHPAPAG@Z 00430fe0 f   mstristrip.obj
 0001:00030110       ?_Construct_n@?$vector@GV?$allocator@G@std@@@std@@QAEXIABG@Z 00431110 f i mstristrip.obj
 0001:000301b0       ?_Insert@?$list@PAV?$vector@GV?$allocator@G@std@@@std@@V?$allocator@PAV?$vector@GV?$allocator@G@std@@@std@@@2@@std@@QAEXV?$_Iterator@$00@12@ABQAV?$vector@GV?$allocator@G@std@@@2@@Z 004311b0 f i mstristrip.obj
 0001:000301f0       ??$_Insert@V?$_Const_iterator@$00@?$list@PAV?$vector@GV?$allocator@G@std@@@std@@V?$allocator@PAV?$vector@GV?$allocator@G@std@@@std@@@2@@std@@@?$list@PAV?$vector@GV?$allocator@G@std@@@std@@V?$allocator@PAV?$vector@GV?$allocator@G@std@@@std@@@2@@std@@QAEXV?$_Iterator@$00@01@V?$_Const_iterator@$00@01@1Uforward_iterator_tag@1@@Z 004311f0 f i mstristrip.obj
 0001:000302e0       ??0?$vector@GV?$allocator@G@std@@@std@@QAE@I@Z 004312e0 f i mstristrip.obj
 0001:00030310       ?push_back@?$list@PAV?$vector@GV?$allocator@G@std@@@std@@V?$allocator@PAV?$vector@GV?$allocator@G@std@@@std@@@2@@std@@QAEXABQAV?$vector@GV?$allocator@G@std@@@2@@Z 00431310 f i mstristrip.obj
 0001:00030350       ??$insert@V?$_Const_iterator@$00@?$list@PAV?$vector@GV?$allocator@G@std@@@std@@V?$allocator@PAV?$vector@GV?$allocator@G@std@@@std@@@2@@std@@@?$list@PAV?$vector@GV?$allocator@G@std@@@std@@V?$allocator@PAV?$vector@GV?$allocator@G@std@@@std@@@2@@std@@QAEXV?$_Iterator@$00@01@V?$_Const_iterator@$00@01@1@Z 00431350 f i mstristrip.obj
 0001:00030380       ?BuildStrips@CStripper@@QAEXPAV?$list@PAV?$vector@GV?$allocator@G@std@@@std@@V?$allocator@PAV?$vector@GV?$allocator@G@std@@@std@@@2@@std@@H_N@Z 00431380 f   mstristrip.obj
 0001:00030630       ??$_Assign@V?$_Const_iterator@$00@?$list@PAV?$vector@GV?$allocator@G@std@@@std@@V?$allocator@PAV?$vector@GV?$allocator@G@std@@@std@@@2@@std@@@?$list@PAV?$vector@GV?$allocator@G@std@@@std@@V?$allocator@PAV?$vector@GV?$allocator@G@std@@@std@@@2@@std@@QAEXV?$_Const_iterator@$00@01@0Uinput_iterator_tag@1@@Z 00431630 f i mstristrip.obj
 0001:00030690       ??$assign@V?$_Const_iterator@$00@?$list@PAV?$vector@GV?$allocator@G@std@@@std@@V?$allocator@PAV?$vector@GV?$allocator@G@std@@@std@@@2@@std@@@?$list@PAV?$vector@GV?$allocator@G@std@@@std@@V?$allocator@PAV?$vector@GV?$allocator@G@std@@@std@@@2@@std@@QAEXV?$_Const_iterator@$00@01@0@Z 00431690 f i mstristrip.obj
 0001:000306c0       ??4?$list@PAV?$vector@GV?$allocator@G@std@@@std@@V?$allocator@PAV?$vector@GV?$allocator@G@std@@@std@@@2@@std@@QAEAAV01@ABV01@@Z 004316c0 f i mstristrip.obj
 0001:000306f0       ?Stripify@@YAHHPAGPAHPAPAG@Z 004316f0 f   mstristrip.obj
 0001:00030830       ?Draw_ClearWindow@@YAXXZ   00431830 f   nodraw.obj
 0001:00030840       ?GLS_BeginScene@@YAXXZ     00431840 f   nodraw.obj
 0001:00030850       ?GLS_Winding@@YAXPAUwinding_t@@H@Z 00431850 f   nodraw.obj
 0001:00030860       ?GLS_EndScene@@YAXXZ       00431860 f   nodraw.obj
 0001:00030870       ?SaveVertexNormals@@YAXXZ  00431870 f   normals.obj
 0001:00030950       ?SetFaceCount@doverlay_t@@QAEXG@Z 00431950 f i overlay.obj
 0001:00030970       ?SetRenderOrder@doverlay_t@@QAEXG@Z 00431970 f i overlay.obj
 0001:00030990       ?SetFaceCount@dwateroverlay_t@@QAEXG@Z 00431990 f i overlay.obj
 0001:000309b0       ?SetRenderOrder@dwateroverlay_t@@QAEXG@Z 004319b0 f i overlay.obj
 0001:000309d0       ?GetSide@@YAPAUside_t@@H@Z 004319d0 f   overlay.obj
 0001:00030a10       ?ValidateGrowSize@?$CUtlMemory@Umapoverlay_t@@@@IAEXXZ 00431a10 f i overlay.obj
 0001:00030a20       ??0?$CUtlMemory@Umapoverlay_t@@@@QAE@HH@Z 00431a20 f i overlay.obj
 0001:00030a60       ?Purge@?$CUtlMemory@Umapoverlay_t@@@@QAEXXZ 00431a60 f i overlay.obj
 0001:00030a90       ??1?$CUtlMemory@Umapoverlay_t@@@@QAE@XZ 00431a90 f i overlay.obj
 0001:00030ac0       ?Overlay_EmitOverlayFace@@YAXPAUmapoverlay_t@@@Z 00431ac0 f   overlay.obj
 0001:00030db0       ?OverlayTransition_EmitOverlayFace@@YAXPAUmapoverlay_t@@@Z 00431db0 f   overlay.obj
 0001:000310a0       ?Overlay_EmitOverlayFaces@@YAXXZ 004320a0 f   overlay.obj
 0001:000310d0       ?OverlayTransition_EmitOverlayFaces@@YAXXZ 004320d0 f   overlay.obj
 0001:00031100       ??0?$CUtlVector@Umapoverlay_t@@V?$CUtlMemory@Umapoverlay_t@@@@@@QAE@HH@Z 00432100 f i overlay.obj
 0001:00031150       ??1mapoverlay_t@@QAE@XZ    00432150 f i overlay.obj
 0001:00031170       ??_Gmapoverlay_t@@QAEPAXI@Z 00432170 f i overlay.obj
 0001:000311a0       ?Overlay_UpdateSideLists@@YAXXZ 004321a0 f   overlay.obj
 0001:000312e0       ?OverlayTransition_UpdateSideLists@@YAXXZ 004322e0 f   overlay.obj
 0001:00031420       ?Overlay_AddFaceToLists@@YAXHPAUside_t@@@Z 00432420 f   overlay.obj
 0001:00031490       ?OverlayTransition_AddFaceToLists@@YAXHPAUside_t@@@Z 00432490 f   overlay.obj
 0001:00031520       ??$Destruct@Umapoverlay_t@@@@YAXPAUmapoverlay_t@@@Z 00432520 f i overlay.obj
 0001:00031540       ?RemoveAll@?$CUtlVector@Umapoverlay_t@@V?$CUtlMemory@Umapoverlay_t@@@@@@QAEXXZ 00432540 f i overlay.obj
 0001:00031660       ?Purge@?$CUtlVector@Umapoverlay_t@@V?$CUtlMemory@Umapoverlay_t@@@@@@QAEXXZ 00432660 f i overlay.obj
 0001:000316a0       ?Overlay_GetFromEntity@@YAXPAUentity_t@@@Z 004326a0 f   overlay.obj
 0001:00031900       ??1?$CUtlVector@Umapoverlay_t@@V?$CUtlMemory@Umapoverlay_t@@@@@@QAE@XZ 00432900 f i overlay.obj
 0001:00031960       ?GetPhysicsFactory@@YAP6APAXPBDPAH@ZXZ 00432960 f   physdll.obj
 0001:000319a0       _PhysicsDLLPath            004329a0 f   physdll.obj
 0001:000319d0       _atan2f                    004329d0 f i portals.obj
 0001:000319f0       _fmodf                     004329f0 f i portals.obj
 0001:00031a10       ?atan2@@YAMMM@Z            00432a10 f i portals.obj
 0001:00031a30       ?fmod@@YAMMM@Z             00432a30 f i portals.obj
 0001:00031a50       ?LengthSqr@Vector2D@@QBEMXZ 00432a50 f i portals.obj
 0001:00031a70       ?DistToSqr@Vector2D@@QBEMABV1@@Z 00432a70 f i portals.obj
 0001:00031ab0       ??GVector2D@@QBE?AV0@ABV0@@Z 00432ab0 f i portals.obj
 0001:00031ad0       ??8Vector@@QBE_NABV0@@Z    00432ad0 f i portals.obj
 0001:00031b10       ?VectorCompare@@YAHABVVector@@0@Z 00432b10 f i portals.obj
 0001:00031b60       ??DVMatrix@@QBE?AVVector@@ABV1@@Z 00432b60 f i portals.obj
 0001:00031bc0       ?Identity@VMatrix@@QAEXXZ  00432bc0 f i portals.obj
 0001:00031bd0       ?AllocPortal@@YAPAUportal_t@@XZ 00432bd0 f   portals.obj
 0001:00031c20       ?FreePortal@@YAXPAUportal_t@@@Z 00432c20 f   portals.obj
 0001:00031c60       ?VisibleContents@@YAHH@Z   00432c60 f   portals.obj
 0001:00031c80       ?ClusterContents@@YAHPAUnode_t@@@Z 00432c80 f   portals.obj
 0001:00031cc0       ?Portal_VisFlood@@YAHPAUportal_t@@@Z 00432cc0 f   portals.obj
 0001:00031da0       ?Portal_EntityFlood@@YAHPAUportal_t@@H@Z 00432da0 f   portals.obj
 0001:00031de0       ?Portal_AreaLeakFlood@@YAHPAUportal_t@@H@Z 00432de0 f   portals.obj
 0001:00031e40       ?AddPortalToNodes@@YAXPAUportal_t@@PAUnode_t@@1@Z 00432e40 f   portals.obj
 0001:00031e90       ?RemovePortalFromNode@@YAXPAUportal_t@@PAUnode_t@@@Z 00432e90 f   portals.obj
 0001:00031f10       ?PrintPortal@@YAXPAUportal_t@@@Z 00432f10 f   portals.obj
 0001:00031f60       ?AreaportalBrushForNode@@YAPAUbspbrush_t@@PAUnode_t@@@Z 00432f60 f   portals.obj
 0001:00031f80       ?BaseWindingForNode@@YAPAUwinding_t@@PAUnode_t@@@Z 00432f80 f   portals.obj
 0001:00032060       ?CalcNodeBounds@@YAXPAUnode_t@@@Z 00433060 f   portals.obj
 0001:000320e0       ?FloodPortals_r@@YAXPAUnode_t@@H@Z 004330e0 f   portals.obj
 0001:00032170       ?FloodAreaLeak_r@@YAXPAUnode_t@@H@Z 00433170 f   portals.obj
 0001:00032220       ?ClearOccupied_r@@YAXPAUnode_t@@@Z 00433220 f   portals.obj
 0001:00032250       ?FloodAreaLeak@@YAXPAUnode_t@@0@Z 00433250 f   portals.obj
 0001:00032270       ?PlaceOccupant@@YAHPAUnode_t@@AAVVector@@PAUentity_t@@@Z 00433270 f   portals.obj
 0001:00032300       ?FloodEntities@@YAHPAUtree_t@@@Z 00433300 f   portals.obj
 0001:000324d0       ?IsAreaportalNode@@YA_NPAUnode_t@@@Z 004334d0 f   portals.obj
 0001:000324e0       ?FloodAreas_r@@YAXPAUnode_t@@PAUportal_t@@@Z 004334e0 f   portals.obj
 0001:000325f0       ?FindAreas_r@@YAXPAUnode_t@@@Z 004335f0 f   portals.obj
 0001:00032650       ?ReportAreaportalLeak@@YAXPAUtree_t@@PAUnode_t@@@Z 00433650 f   portals.obj
 0001:00032770       ?SetAreaPortalAreas_r@@YAXPAUtree_t@@PAUnode_t@@@Z 00433770 f   portals.obj
 0001:00032800       ?AngleOffset@@YAMMM@Z      00433800 f   portals.obj
 0001:00032860       ?FindUniquePoints@@YAHPBVVector2D@@HPAHHM@Z 00433860 f   portals.obj
 0001:00032a50       ?Convex2D@@YAHPBVVector2D@@HPAHH@Z 00433a50 f   portals.obj
 0001:00032ed0       ?SetNodeAreaIndices_R@@YAXPAUnode_t@@@Z 00433ed0 f   portals.obj
 0001:00032f10       ?FloodAreas@@YAXPAUtree_t@@@Z 00433f10 f   portals.obj
 0001:00032f80       ?FillOutside_r@@YAXPAUnode_t@@@Z 00433f80 f   portals.obj
 0001:00032fe0       ?FillOutside@@YAXPAUnode_t@@@Z 00433fe0 f   portals.obj
 0001:000330c0       ?Size@?$CUtlVector@PAUportal_t@@V?$CUtlMemory@PAUportal_t@@@@@@QBEHXZ 004340c0 f i portals.obj
 0001:000330d0       ?Size@?$CUtlVector@VVector@@V?$CUtlMemory@VVector@@@@@@QBEHXZ 004340d0 f i portals.obj
 0001:000330e0       ?Size@?$CUtlVector@VVector2D@@V?$CUtlMemory@VVector2D@@@@@@QBEHXZ 004340e0 f i portals.obj
 0001:000330f0       ?Base@?$CUtlMemory@PAUportal_t@@@@QAEPAPAUportal_t@@XZ 004340f0 f i portals.obj
 0001:00033100       ?Base@?$CUtlMemory@VVector@@@@QAEPAVVector@@XZ 00434100 f i portals.obj
 0001:00033110       ?ValidateGrowSize@?$CUtlMemory@PAUportal_t@@@@IAEXXZ 00434110 f i portals.obj
 0001:00033120       ?ValidateGrowSize@?$CUtlMemory@VVector@@@@IAEXXZ 00434120 f i portals.obj
 0001:00033130       ??$CopyConstruct@PAUportal_t@@@@YAXPAPAUportal_t@@ABQAU0@@Z 00434130 f i portals.obj
 0001:00033150       ??$CopyConstruct@VVector@@@@YAXPAVVector@@ABV0@@Z 00434150 f i portals.obj
 0001:00033170       ??$CopyConstruct@VVector2D@@@@YAXPAVVector2D@@ABV0@@Z 00434170 f i portals.obj
 0001:00033190       ??$Destruct@PAUportal_t@@@@YAXPAPAUportal_t@@@Z 00434190 f i portals.obj
 0001:000331a0       ?NumAllocated@?$CUtlMemory@PAUportal_t@@@@QBEHXZ 004341a0 f i portals.obj
 0001:000331b0       ?IsExternallyAllocated@?$CUtlMemory@PAUportal_t@@@@QBE_NXZ 004341b0 f i portals.obj
 0001:000331c0       ??$Destruct@VVector@@@@YAXPAVVector@@@Z 004341c0 f i portals.obj
 0001:000331d0       ?NumAllocated@?$CUtlMemory@VVector@@@@QBEHXZ 004341d0 f i portals.obj
 0001:000331e0       ?IsExternallyAllocated@?$CUtlMemory@VVector@@@@QBE_NXZ 004341e0 f i portals.obj
 0001:000331f0       ?MakeNodePortal@@YAXPAUnode_t@@@Z 004341f0 f   portals.obj
 0001:000333c0       ??4portal_t@@QAEAAU0@ABU0@@Z 004343c0 f i portals.obj
 0001:00033430       ?Base@?$CUtlVector@PAUportal_t@@V?$CUtlMemory@PAUportal_t@@@@@@QAEPAPAUportal_t@@XZ 00434430 f i portals.obj
 0001:00033440       ?ResetDbgInfo@?$CUtlVector@PAUportal_t@@V?$CUtlMemory@PAUportal_t@@@@@@IAEXXZ 00434440 f i portals.obj
 0001:00033450       ?Base@?$CUtlVector@VVector@@V?$CUtlMemory@VVector@@@@@@QAEPAVVector@@XZ 00434450 f i portals.obj
 0001:00033460       ?ResetDbgInfo@?$CUtlVector@VVector@@V?$CUtlMemory@VVector@@@@@@IAEXXZ 00434460 f i portals.obj
 0001:00033470       ??0?$CUtlMemory@PAUportal_t@@@@QAE@HH@Z 00434470 f i portals.obj
 0001:000334b0       ??0?$CUtlMemory@VVector@@@@QAE@HH@Z 004344b0 f i portals.obj
 0001:000334f0       ?Element@?$CUtlVector@PAUportal_t@@V?$CUtlMemory@PAUportal_t@@@@@@QAEAAPAUportal_t@@H@Z 004344f0 f i portals.obj
 0001:00033500       ?RemoveAll@?$CUtlVector@PAUportal_t@@V?$CUtlMemory@PAUportal_t@@@@@@QAEXXZ 00434500 f i portals.obj
 0001:00033510       ?ShiftElementsRight@?$CUtlVector@PAUportal_t@@V?$CUtlMemory@PAUportal_t@@@@@@IAEXHH@Z 00434510 f i portals.obj
 0001:00033550       ?Purge@?$CUtlMemory@PAUportal_t@@@@QAEXXZ 00434550 f i portals.obj
 0001:00033580       ?Element@?$CUtlVector@VVector@@V?$CUtlMemory@VVector@@@@@@QAEAAVVector@@H@Z 00434580 f i portals.obj
 0001:00033590       ?RemoveAll@?$CUtlVector@VVector@@V?$CUtlMemory@VVector@@@@@@QAEXXZ 00434590 f i portals.obj
 0001:000335a0       ?ShiftElementsRight@?$CUtlVector@VVector@@V?$CUtlMemory@VVector@@@@@@IAEXHH@Z 004345a0 f i portals.obj
 0001:000335e0       ?Purge@?$CUtlMemory@VVector@@@@QAEXXZ 004345e0 f i portals.obj
 0001:00033610       ?Grow@?$CUtlMemory@PAUportal_t@@@@QAEXH@Z 00434610 f i portals.obj
 0001:00033680       ?Grow@?$CUtlMemory@VVector@@@@QAEXH@Z 00434680 f i portals.obj
 0001:000336f0       ?MakeHeadnodePortals@@YAXPAUtree_t@@@Z 004346f0 f   portals.obj
 0001:00033950       ?SplitNodePortals@@YAXPAUnode_t@@@Z 00434950 f   portals.obj
 0001:00033cb0       ?MakeTreePortals_r@@YAXPAUnode_t@@@Z 00434cb0 f   portals.obj
 0001:00033d60       ?MakeTreePortals@@YAXPAUtree_t@@@Z 00434d60 f   portals.obj
 0001:00033d80       ??A?$CUtlVector@PAUportal_t@@V?$CUtlMemory@PAUportal_t@@@@@@QAEAAPAUportal_t@@H@Z 00434d80 f i portals.obj
 0001:00033d90       ??A?$CUtlVector@VVector@@V?$CUtlMemory@VVector@@@@@@QAEAAVVector@@H@Z 00434d90 f i portals.obj
 0001:00033da0       ?Purge@?$CUtlVector@PAUportal_t@@V?$CUtlMemory@PAUportal_t@@@@@@QAEXXZ 00434da0 f i portals.obj
 0001:00033df0       ??1?$CUtlMemory@PAUportal_t@@@@QAE@XZ 00434df0 f i portals.obj
 0001:00033e20       ?Purge@?$CUtlVector@VVector@@V?$CUtlMemory@VVector@@@@@@QAEXXZ 00434e20 f i portals.obj
 0001:00033e70       ??1?$CUtlMemory@VVector@@@@QAE@XZ 00434e70 f i portals.obj
 0001:00033ea0       ?GrowVector@?$CUtlVector@PAUportal_t@@V?$CUtlMemory@PAUportal_t@@@@@@IAEXH@Z 00434ea0 f i portals.obj
 0001:00033ed0       ?GrowVector@?$CUtlVector@VVector@@V?$CUtlMemory@VVector@@@@@@IAEXH@Z 00434ed0 f i portals.obj
 0001:00033f00       ??0?$CUtlVector@PAUportal_t@@V?$CUtlMemory@PAUportal_t@@@@@@QAE@HH@Z 00434f00 f i portals.obj
 0001:00033f50       ??1?$CUtlVector@PAUportal_t@@V?$CUtlMemory@PAUportal_t@@@@@@QAE@XZ 00434f50 f i portals.obj
 0001:00033fc0       ??0?$CUtlVector@VVector@@V?$CUtlMemory@VVector@@@@@@QAE@HH@Z 00434fc0 f i portals.obj
 0001:00034010       ??1?$CUtlVector@VVector@@V?$CUtlMemory@VVector@@@@@@QAE@XZ 00435010 f i portals.obj
 0001:00034080       ?InsertBefore@?$CUtlVector@PAUportal_t@@V?$CUtlMemory@PAUportal_t@@@@@@QAEHHABQAUportal_t@@@Z 00435080 f i portals.obj
 0001:000340f0       ?InsertBefore@?$CUtlVector@VVector@@V?$CUtlMemory@VVector@@@@@@QAEHHABVVector@@@Z 004350f0 f i portals.obj
 0001:00034170       ?InsertBefore@?$CUtlVector@VVector2D@@V?$CUtlMemory@VVector2D@@@@@@QAEHHABVVector2D@@@Z 00435170 f i portals.obj
 0001:000341e0       ?AddToTail@?$CUtlVector@PAUportal_t@@V?$CUtlMemory@PAUportal_t@@@@@@QAEHABQAUportal_t@@@Z 004351e0 f i portals.obj
 0001:00034200       ?AddToTail@?$CUtlVector@VVector@@V?$CUtlMemory@VVector@@@@@@QAEHABVVector@@@Z 00435200 f i portals.obj
 0001:00034220       ?AddToTail@?$CUtlVector@VVector2D@@V?$CUtlMemory@VVector2D@@@@@@QAEHABVVector2D@@@Z 00435220 f i portals.obj
 0001:00034240       ?FindPortalsLeadingToArea_R@@YAXPAUnode_t@@HHPAUplane_t@@AAV?$CUtlVector@PAUportal_t@@V?$CUtlMemory@PAUportal_t@@@@@@@Z 00435240 f   portals.obj
 0001:00034420       ?EmitClipPortalGeometry@@YAXPAUnode_t@@PAUportal_t@@HPAUdareaportal_t@@@Z 00435420 f   portals.obj
 0001:000348c0       ?EmitAreaPortals@@YAXPAUnode_t@@@Z 004358c0 f   portals.obj
 0001:00034ca0       ?FindPortalSide@@YAXPAUportal_t@@@Z 00435ca0 f   portals.obj
 0001:00034e70       ?MarkVisibleSides_r@@YAXPAUnode_t@@@Z 00435e70 f   portals.obj
 0001:00034ee0       ?MarkVisibleSides@@YAXPAUtree_t@@HHH@Z 00435ee0 f   portals.obj
 0001:00034f60       ?MarkVisibleSides@@YAXPAUtree_t@@PAPAUmapbrush_t@@H@Z 00435f60 f   portals.obj
 0001:00034fc0       ?WriteFloat@@YAXPAU_iobuf@@M@Z 00435fc0 f   prtfile.obj
 0001:00035050       ?AddBSPPortal@@YAPAUdportal_t@@PAUportal_t@@AAVVector@@MH@Z 00436050 f   prtfile.obj
 0001:00035140       ?WritePortalFile_r@@YAXPAUnode_t@@@Z 00436140 f   prtfile.obj
 0001:00035310       ?FillLeafNumbers_r@@YAXPAUnode_t@@H@Z 00436310 f   prtfile.obj
 0001:00035350       ?NumberLeafs_r@@YAXPAUnode_t@@@Z 00436350 f   prtfile.obj
 0001:000353e0       ?CreateVisPortals_r@@YAXPAUnode_t@@@Z 004363e0 f   prtfile.obj
 0001:00035420       ?SaveClusters_r@@YAXPAUnode_t@@@Z 00436420 f   prtfile.obj
 0001:00035470       ?SaveClusterPortalList@@YAXXZ 00436470 f   prtfile.obj
 0001:00035520       ?WritePortalFile@@YAXPAUtree_t@@@Z 00436520 f   prtfile.obj
 0001:00035680       ?VectorMultiply@@YAXABVVector@@0AAV1@@Z 00436680 f i ScratchPad3D.obj
 0001:000356b0       ?VectorDivide@@YAXABVVector@@0AAV1@@Z 004366b0 f i ScratchPad3D.obj
 0001:000356e0       ??DVector@@QBE?AV0@ABV0@@Z 004366e0 f i ScratchPad3D.obj
 0001:00035710       ??KVector@@QBE?AV0@ABV0@@Z 00436710 f i ScratchPad3D.obj
 0001:00035740       ??4QAngle@@QAEAAV0@ABV0@@Z 00436740 f i ScratchPad3D.obj
 0001:00035760       ??0CSPColor@@QAE@XZ        00436760 f i ScratchPad3D.obj
 0001:00035770       ??0CSPColor@@QAE@ABVVector@@M@Z 00436770 f i ScratchPad3D.obj
 0001:00035790       ??0CSPColor@@QAE@MMMM@Z    00436790 f i ScratchPad3D.obj
 0001:000357b0       ??1IScratchPad3D@@MAE@XZ   004367b0 f i ScratchPad3D.obj
 0001:000357c0       ??_EIScratchPad3D@@MAEPAXI@Z 004367c0 f i ScratchPad3D.obj
 0001:000357c0       ??_GIScratchPad3D@@MAEPAXI@Z 004367c0 f i ScratchPad3D.obj
 0001:000357e0       ??0CTextParams@@QAE@XZ     004367e0 f i ScratchPad3D.obj
 0001:00035820       ??0CSPVert@@QAE@XZ         00436820 f i ScratchPad3D.obj
 0001:00035830       ??4CSPColor@@QAEAAV0@ABV0@@Z 00436830 f i ScratchPad3D.obj
 0001:00035850       ?Init@VMatrix@@QAEXMMMMMMMMMMMMMMMM@Z 00436850 f i ScratchPad3D.obj
 0001:000358d0       ??0CBaseCommand@CScratchPad3D@@QAE@E@Z 004368d0 f i ScratchPad3D.obj
 0001:000358f0       ?ReleaseCachedRenderData@CBaseCommand@CScratchPad3D@@QAEXXZ 004368f0 f i ScratchPad3D.obj
 0001:00035910       ??0CFileRead@@QAE@PAVIFileSystem@@PAX@Z 00436910 f i ScratchPad3D.obj
 0001:00035930       ?Read@CFileRead@@QAE_NPAXH@Z 00436930 f i ScratchPad3D.obj
 0001:00035960       ?Read@CCommand_Point@CScratchPad3D@@UAEXPAVCFileRead@@@Z 00436960 f   ScratchPad3D.obj
 0001:000359a0       ?Write@CCommand_Point@CScratchPad3D@@UAEXPAVIFileSystem@@PAX@Z 004369a0 f   ScratchPad3D.obj
 0001:000359e0       ?Read@CCommand_Line@CScratchPad3D@@UAEXPAVCFileRead@@@Z 004369e0 f   ScratchPad3D.obj
 0001:00035a10       ?Write@CCommand_Line@CScratchPad3D@@UAEXPAVIFileSystem@@PAX@Z 00436a10 f   ScratchPad3D.obj
 0001:00035a40       ?Read@CCommand_Matrix@CScratchPad3D@@UAEXPAVCFileRead@@@Z 00436a40 f   ScratchPad3D.obj
 0001:00035a70       ?Write@CCommand_Matrix@CScratchPad3D@@UAEXPAVIFileSystem@@PAX@Z 00436a70 f   ScratchPad3D.obj
 0001:00035aa0       ?Read@CCommand_RenderState@CScratchPad3D@@UAEXPAVCFileRead@@@Z 00436aa0 f   ScratchPad3D.obj
 0001:00035ae0       ?Write@CCommand_RenderState@CScratchPad3D@@UAEXPAVIFileSystem@@PAX@Z 00436ae0 f   ScratchPad3D.obj
 0001:00035b20       ??0IScratchPad3D@@QAE@XZ   00436b20 f i ScratchPad3D.obj
 0001:00035b30       ?AutoFlush@CScratchPad3D@@QAEXXZ 00436b30 f   ScratchPad3D.obj
 0001:00035b40       ?Release@CScratchPad3D@@UAEXXZ 00436b40 f   ScratchPad3D.obj
 0001:00035b60       ?GetAutoFlush@CScratchPad3D@@UAE_NXZ 00436b60 f   ScratchPad3D.obj
 0001:00035b70       ?SetAutoFlush@CScratchPad3D@@UAEX_N@Z 00436b70 f   ScratchPad3D.obj
 0001:00035b90       ??4CSPVert@@QAEAAV0@ABV0@@Z 00436b90 f i ScratchPad3D.obj
 0001:00035bd0       ??4CTextParams@@QAEAAV0@ABV0@@Z 00436bd0 f i ScratchPad3D.obj
 0001:00035c40       ?DrawImageBW@CScratchPad3D@@UAEXPBEHHH_N1PAVVector@@@Z 00436c40 f   ScratchPad3D.obj
 0001:00035d00       ?ScratchPad3D_SetupFileSystem@@YAPAVIFileSystem@@XZ 00436d00 f   ScratchPad3D.obj
 0001:00035d40       ?Size@?$CUtlVector@VCSPVert@@V?$CUtlMemory@VCSPVert@@@@@@QBEHXZ 00436d40 f i ScratchPad3D.obj
 0001:00035d50       ?Size@?$CUtlVector@PAVCBaseCommand@CScratchPad3D@@V?$CUtlMemory@PAVCBaseCommand@CScratchPad3D@@@@@@QBEHXZ 00436d50 f i ScratchPad3D.obj
 0001:00035d60       ?Count@?$CUtlVector@VCSPVert@@V?$CUtlMemory@VCSPVert@@@@@@QBEHXZ 00436d60 f i ScratchPad3D.obj
 0001:00035d70       ?Base@?$CUtlMemory@VCSPVert@@@@QAEPAVCSPVert@@XZ 00436d70 f i ScratchPad3D.obj
 0001:00035d80       ??$Destruct@VCSPVert@@@@YAXPAVCSPVert@@@Z 00436d80 f i ScratchPad3D.obj
 0001:00035d90       ?Base@?$CUtlMemory@PAVCBaseCommand@CScratchPad3D@@@@QAEPAPAVCBaseCommand@CScratchPad3D@@XZ 00436d90 f i ScratchPad3D.obj
 0001:00035da0       ??$Destruct@PAVCBaseCommand@CScratchPad3D@@@@YAXPAPAVCBaseCommand@CScratchPad3D@@@Z 00436da0 f i ScratchPad3D.obj
 0001:00035db0       ?ValidateGrowSize@?$CUtlMemory@VCSPVert@@@@IAEXXZ 00436db0 f i ScratchPad3D.obj
 0001:00035dc0       ?ValidateGrowSize@?$CUtlMemory@PAVCBaseCommand@CScratchPad3D@@@@IAEXXZ 00436dc0 f i ScratchPad3D.obj
 0001:00035dd0       ??$Construct@VCSPVert@@@@YAXPAVCSPVert@@@Z 00436dd0 f i ScratchPad3D.obj
 0001:00035de0       ?Base@?$CUtlMemory@VCSPVert@@@@QBEPBVCSPVert@@XZ 00436de0 f i ScratchPad3D.obj
 0001:00035df0       ??$CopyConstruct@PAVCBaseCommand@CScratchPad3D@@@@YAXPAPAVCBaseCommand@CScratchPad3D@@ABQAV01@@Z 00436df0 f i ScratchPad3D.obj
 0001:00035e10       ?NumAllocated@?$CUtlMemory@VCSPVert@@@@QBEHXZ 00436e10 f i ScratchPad3D.obj
 0001:00035e20       ?IsExternallyAllocated@?$CUtlMemory@VCSPVert@@@@QBE_NXZ 00436e20 f i ScratchPad3D.obj
 0001:00035e30       ?NumAllocated@?$CUtlMemory@PAVCBaseCommand@CScratchPad3D@@@@QBEHXZ 00436e30 f i ScratchPad3D.obj
 0001:00035e40       ?IsExternallyAllocated@?$CUtlMemory@PAVCBaseCommand@CScratchPad3D@@@@QBE_NXZ 00436e40 f i ScratchPad3D.obj
 0001:00035e50       ?Init@CSPVert@@QAEXABVVector@@ABVCSPColor@@@Z 00436e50 f i ScratchPad3D.obj
 0001:00035e90       ??1CBaseCommand@CScratchPad3D@@QAE@XZ 00436e90 f i ScratchPad3D.obj
 0001:00035eb0       ??0CCommand_Point@CScratchPad3D@@QAE@XZ 00436eb0 f i ScratchPad3D.obj
 0001:00035ed0       ??0CCommand_Line@CScratchPad3D@@QAE@XZ 00436ed0 f i ScratchPad3D.obj
 0001:00035ef0       ??0CCommand_Matrix@CScratchPad3D@@QAE@XZ 00436ef0 f i ScratchPad3D.obj
 0001:00035f10       ??0CCommand_RenderState@CScratchPad3D@@QAE@XZ 00436f10 f i ScratchPad3D.obj
 0001:00035f30       ??_GCBaseCommand@CScratchPad3D@@QAEPAXI@Z 00436f30 f i ScratchPad3D.obj
 0001:00035f70       ?Base@?$CUtlVector@VCSPVert@@V?$CUtlMemory@VCSPVert@@@@@@QAEPAVCSPVert@@XZ 00436f70 f i ScratchPad3D.obj
 0001:00035f80       ?ResetDbgInfo@?$CUtlVector@VCSPVert@@V?$CUtlMemory@VCSPVert@@@@@@IAEXXZ 00436f80 f i ScratchPad3D.obj
 0001:00035f90       ?Base@?$CUtlVector@PAVCBaseCommand@CScratchPad3D@@V?$CUtlMemory@PAVCBaseCommand@CScratchPad3D@@@@@@QAEPAPAVCBaseCommand@CScratchPad3D@@XZ 00436f90 f i ScratchPad3D.obj
 0001:00035fa0       ?ResetDbgInfo@?$CUtlVector@PAVCBaseCommand@CScratchPad3D@@V?$CUtlMemory@PAVCBaseCommand@CScratchPad3D@@@@@@IAEXXZ 00436fa0 f i ScratchPad3D.obj
 0001:00035fb0       ?Element@?$CUtlVector@VCSPVert@@V?$CUtlMemory@VCSPVert@@@@@@QAEAAVCSPVert@@H@Z 00436fb0 f i ScratchPad3D.obj
 0001:00035fd0       ??0?$CUtlMemory@VCSPVert@@@@QAE@HH@Z 00436fd0 f i ScratchPad3D.obj
 0001:00036020       ??A?$CUtlVector@DV?$CUtlMemory@D@@@@QAEAADH@Z 00437020 f i ScratchPad3D.obj
 0001:00036030       ?Element@?$CUtlVector@PAVCBaseCommand@CScratchPad3D@@V?$CUtlMemory@PAVCBaseCommand@CScratchPad3D@@@@@@QAEAAPAVCBaseCommand@CScratchPad3D@@H@Z 00437030 f i ScratchPad3D.obj
 0001:00036040       ??0?$CUtlMemory@PAVCBaseCommand@CScratchPad3D@@@@QAE@HH@Z 00437040 f i ScratchPad3D.obj
 0001:00036080       ?Base@?$CUtlVector@VCSPVert@@V?$CUtlMemory@VCSPVert@@@@@@QBEPBVCSPVert@@XZ 00437080 f i ScratchPad3D.obj
 0001:00036090       ?ShiftElementsRight@?$CUtlVector@VCSPVert@@V?$CUtlMemory@VCSPVert@@@@@@IAEXHH@Z 00437090 f i ScratchPad3D.obj
 0001:000360f0       ?Purge@?$CUtlMemory@VCSPVert@@@@QAEXXZ 004370f0 f i ScratchPad3D.obj
 0001:00036120       ?ShiftElementsRight@?$CUtlVector@PAVCBaseCommand@CScratchPad3D@@V?$CUtlMemory@PAVCBaseCommand@CScratchPad3D@@@@@@IAEXHH@Z 00437120 f i ScratchPad3D.obj
 0001:00036160       ?Purge@?$CUtlMemory@PAVCBaseCommand@CScratchPad3D@@@@QAEXXZ 00437160 f i ScratchPad3D.obj
 0001:00036190       ?Grow@?$CUtlMemory@VCSPVert@@@@QAEXH@Z 00437190 f i ScratchPad3D.obj
 0001:00036220       ?Grow@?$CUtlMemory@PAVCBaseCommand@CScratchPad3D@@@@QAEXH@Z 00437220 f i ScratchPad3D.obj
 0001:00036290       ??0CSPVert@@QAE@ABVVector@@ABVCSPColor@@@Z 00437290 f i ScratchPad3D.obj
 0001:000362d0       ?Write@CCommand_Text@CScratchPad3D@@UAEXPAVIFileSystem@@PAX@Z 004372d0 f   ScratchPad3D.obj
 0001:00036330       ?DrawWireframeBox@CScratchPad3D@@UAEXABVVector@@00@Z 00437330 f   ScratchPad3D.obj
 0001:00036d00       ??A?$CUtlVector@VCSPVert@@V?$CUtlMemory@VCSPVert@@@@@@QAEAAVCSPVert@@H@Z 00437d00 f i ScratchPad3D.obj
 0001:00036d20       ?RemoveAll@?$CUtlVector@VCSPVert@@V?$CUtlMemory@VCSPVert@@@@@@QAEXXZ 00437d20 f i ScratchPad3D.obj
 0001:00036d30       ??A?$CUtlVector@PAVCBaseCommand@CScratchPad3D@@V?$CUtlMemory@PAVCBaseCommand@CScratchPad3D@@@@@@QAEAAPAVCBaseCommand@CScratchPad3D@@H@Z 00437d30 f i ScratchPad3D.obj
 0001:00036d40       ?RemoveAll@?$CUtlVector@PAVCBaseCommand@CScratchPad3D@@V?$CUtlMemory@PAVCBaseCommand@CScratchPad3D@@@@@@QAEXXZ 00437d40 f i ScratchPad3D.obj
 0001:00036d50       ??A?$CUtlVector@VCSPVert@@V?$CUtlMemory@VCSPVert@@@@@@QBEABVCSPVert@@H@Z 00437d50 f i ScratchPad3D.obj
 0001:00036d70       ?Purge@?$CUtlVector@VCSPVert@@V?$CUtlMemory@VCSPVert@@@@@@QAEXXZ 00437d70 f i ScratchPad3D.obj
 0001:00036dc0       ??1?$CUtlMemory@VCSPVert@@@@QAE@XZ 00437dc0 f i ScratchPad3D.obj
 0001:00036df0       ?Purge@?$CUtlVector@PAVCBaseCommand@CScratchPad3D@@V?$CUtlMemory@PAVCBaseCommand@CScratchPad3D@@@@@@QAEXXZ 00437df0 f i ScratchPad3D.obj
 0001:00036e40       ??1?$CUtlMemory@PAVCBaseCommand@CScratchPad3D@@@@QAE@XZ 00437e40 f i ScratchPad3D.obj
 0001:00036e70       ?GrowVector@?$CUtlVector@VCSPVert@@V?$CUtlMemory@VCSPVert@@@@@@IAEXH@Z 00437e70 f i ScratchPad3D.obj
 0001:00036ea0       ?GrowVector@?$CUtlVector@PAVCBaseCommand@CScratchPad3D@@V?$CUtlMemory@PAVCBaseCommand@CScratchPad3D@@@@@@IAEXH@Z 00437ea0 f i ScratchPad3D.obj
 0001:00036ed0       ?Write@CCommand_Polygon@CScratchPad3D@@UAEXPAVIFileSystem@@PAX@Z 00437ed0 f   ScratchPad3D.obj
 0001:00036f30       ?DeleteCommands@CScratchPad3D@@QAEXXZ 00437f30 f   ScratchPad3D.obj
 0001:00036f80       ?Clear@CScratchPad3D@@UAEXXZ 00437f80 f   ScratchPad3D.obj
 0001:00036fe0       ?Flush@CScratchPad3D@@UAEXXZ 00437fe0 f   ScratchPad3D.obj
 0001:00037080       ??0?$CUtlVector@VCSPVert@@V?$CUtlMemory@VCSPVert@@@@@@QAE@HH@Z 00438080 f i ScratchPad3D.obj
 0001:000370d0       ??1?$CUtlVector@VCSPVert@@V?$CUtlMemory@VCSPVert@@@@@@QAE@XZ 004380d0 f i ScratchPad3D.obj
 0001:00037140       ??0?$CUtlVector@PAVCBaseCommand@CScratchPad3D@@V?$CUtlMemory@PAVCBaseCommand@CScratchPad3D@@@@@@QAE@HH@Z 00438140 f i ScratchPad3D.obj
 0001:00037190       ??1?$CUtlVector@PAVCBaseCommand@CScratchPad3D@@V?$CUtlMemory@PAVCBaseCommand@CScratchPad3D@@@@@@QAE@XZ 00438190 f i ScratchPad3D.obj
 0001:00037200       ?InsertMultipleBefore@?$CUtlVector@VCSPVert@@V?$CUtlMemory@VCSPVert@@@@@@QAEHHHPBVCSPVert@@@Z 00438200 f i ScratchPad3D.obj
 0001:00037460       ?InsertBefore@?$CUtlVector@PAVCBaseCommand@CScratchPad3D@@V?$CUtlMemory@PAVCBaseCommand@CScratchPad3D@@@@@@QAEHHABQAVCBaseCommand@CScratchPad3D@@@Z 00438460 f i ScratchPad3D.obj
 0001:000374d0       ??0CCommand_Polygon@CScratchPad3D@@QAE@XZ 004384d0 f i ScratchPad3D.obj
 0001:00037500       ??0CScratchPad3D@@QAE@PBDPAVIFileSystem@@_N@Z 00438500 f   ScratchPad3D.obj
 0001:00037540       ??1CScratchPad3D@@UAE@XZ   00438540 f i ScratchPad3D.obj
 0001:00037560       ??1CSPVertList@@QAE@XZ     00438560 f i ScratchPad3D.obj
 0001:00037570       ?ScratchPad3D_Create@@YAPAVIScratchPad3D@@PBD@Z 00438570 f   ScratchPad3D.obj
 0001:00037600       ?AddMultipleToTail@?$CUtlVector@VCSPVert@@V?$CUtlMemory@VCSPVert@@@@@@QAEHHPBVCSPVert@@@Z 00438600 f i ScratchPad3D.obj
 0001:00037620       ?AddVectorToTail@?$CUtlVector@VCSPVert@@V?$CUtlMemory@VCSPVert@@@@@@QAEHABV1@@Z 00438620 f i ScratchPad3D.obj
 0001:000376b0       ?AddToTail@?$CUtlVector@PAVCBaseCommand@CScratchPad3D@@V?$CUtlMemory@PAVCBaseCommand@CScratchPad3D@@@@@@QAEHABQAVCBaseCommand@CScratchPad3D@@@Z 004386b0 f i ScratchPad3D.obj
 0001:000376d0       ?SetCount@?$CUtlVector@DV?$CUtlMemory@D@@@@QAEXH@Z 004386d0 f i ScratchPad3D.obj
 0001:00037720       ??0CSPVertList@@QAE@PBVVector@@HVCSPColor@@@Z 00438720 f i ScratchPad3D.obj
 0001:000378d0       ??0CCommand_Text@CScratchPad3D@@QAE@XZ 004388d0 f i ScratchPad3D.obj
 0001:00037930       ?Read@CCommand_Polygon@CScratchPad3D@@UAEXPAVCFileRead@@@Z 00438930 f   ScratchPad3D.obj
 0001:000379a0       ??_GCScratchPad3D@@UAEPAXI@Z 004389a0 f i ScratchPad3D.obj
 0001:000379a0       ??_ECScratchPad3D@@UAEPAXI@Z 004389a0 f i ScratchPad3D.obj
 0001:000379d0       ?DrawRectGeneric@CScratchPad3D@@QAEXHHHMABVVector2D@@0ABVCSPColor@@@Z 004389d0 f   ScratchPad3D.obj
 0001:00037a80       ?LoadCommandsFromFile@CScratchPad3D@@QAE_NXZ 00438a80 f   ScratchPad3D.obj
 0001:00037cc0       ?SetMapping@CScratchPad3D@@UAEXABVVector@@000@Z 00438cc0 f   ScratchPad3D.obj
 0001:00037eb0       ?DrawPoint@CScratchPad3D@@UAEXABVCSPVert@@M@Z 00438eb0 f   ScratchPad3D.obj
 0001:00037f40       ?DrawLine@CScratchPad3D@@UAEXABVCSPVert@@0@Z 00438f40 f   ScratchPad3D.obj
 0001:00038000       ?DrawPolygon@CScratchPad3D@@UAEXABVCSPVertList@@@Z 00439000 f   ScratchPad3D.obj
 0001:00038070       ?DrawRectYZ@CScratchPad3D@@UAEXMABVVector2D@@0ABVCSPColor@@@Z 00439070 f   ScratchPad3D.obj
 0001:000380a0       ?DrawRectXZ@CScratchPad3D@@UAEXMABVVector2D@@0ABVCSPColor@@@Z 004390a0 f   ScratchPad3D.obj
 0001:000380d0       ?DrawRectXY@CScratchPad3D@@UAEXMABVVector2D@@0ABVCSPColor@@@Z 004390d0 f   ScratchPad3D.obj
 0001:00038100       ?SetRenderState@CScratchPad3D@@UAEXW4RenderState@IScratchPad3D@@K@Z 00439100 f   ScratchPad3D.obj
 0001:00038150       ?DrawPolygonsForPixels@CScratchPad3D@@QAEXPAVSPRGBA@@HHHPAVVector@@@Z 00439150 f   ScratchPad3D.obj
 0001:000387b0       ?DrawImageRGBA@CScratchPad3D@@UAEXPAVSPRGBA@@HHH_N1PAVVector@@@Z 004397b0 f   ScratchPad3D.obj
 0001:000388f0       ?SetSize@?$CUtlVector@DV?$CUtlMemory@D@@@@QAEXH@Z 004398f0 f i ScratchPad3D.obj
 0001:00038940       ?CopyArray@?$CUtlVector@DV?$CUtlMemory@D@@@@QAEXPBDH@Z 00439940 f i ScratchPad3D.obj
 0001:000389b0       ?Read@CCommand_Text@CScratchPad3D@@UAEXPAVCFileRead@@@Z 004399b0 f   ScratchPad3D.obj
 0001:00038a60       ?DrawText@CScratchPad3D@@UAEXPBDABVCTextParams@@@Z 00439a60 f   ScratchPad3D.obj
 0001:00038ae0       ??_0Vector@@QAEAAV0@M@Z    00439ae0 f i scratchpad_helpers.obj
 0001:00038b10       ?Count@?$CUtlVector@VVector@@V?$CUtlMemory@VVector@@@@@@QBEHXZ 00439b10 f i scratchpad_helpers.obj
 0001:00038b20       ?ScratchPad_DrawWinding@@YAXPAVIScratchPad3D@@HPAVVector@@V2@2@Z 00439b20 f   scratchpad_helpers.obj
 0001:00038c60       ?ScratchPad_DrawFace@@YAXPAVIScratchPad3D@@PAUdface_t@@HABVCSPColor@@ABVVector@@@Z 00439c60 f   scratchpad_helpers.obj
 0001:00038f80       ?ScratchPad_DrawWorld@@YAXPAVIScratchPad3D@@_NABVCSPColor@@@Z 00439f80 f   scratchpad_helpers.obj
 0001:00039070       ?ScratchPad_DrawWorld@@YAX_NABVCSPColor@@@Z 0043a070 f   scratchpad_helpers.obj
 0001:000390a0       ?strchr@@YAPADPADH@Z       0043a0a0 f i StaticProp.obj
 0001:000390b0       ?V_strcmp@@YAHPBD0@Z       0043a0b0 f i StaticProp.obj
 0001:000390e0       ?pMesh@mstudiomodel_t@@QBEPAUmstudiomesh_t@@H@Z 0043a0e0 f i StaticProp.obj
 0001:000390f0       ?Vertex@mstudio_modelvertexdata_t@@QBEPAUmstudiovertex_t@@H@Z 0043a0f0 f i StaticProp.obj
 0001:00039110       ?Position@mstudio_modelvertexdata_t@@QBEPAVVector@@H@Z 0043a110 f i StaticProp.obj
 0001:00039130       ?pModel@mstudiomesh_t@@QBEPAUmstudiomodel_t@@XZ 0043a130 f i StaticProp.obj
 0001:00039140       ?Position@mstudio_meshvertexdata_t@@QBEPAVVector@@H@Z 0043a140 f i StaticProp.obj
 0001:00039160       ?pModel@mstudiobodyparts_t@@QBEPAUmstudiomodel_t@@H@Z 0043a160 f i StaticProp.obj
 0001:00039180       ?pszName@studiohdr_t@@QBEPBDXZ 0043a180 f i StaticProp.obj
 0001:00039190       ?pBodypart@studiohdr_t@@QBEPAUmstudiobodyparts_t@@H@Z 0043a190 f i StaticProp.obj
 0001:000391b0       ?KeyValueText@studiohdr_t@@QBEPBDXZ 0043a1b0 f i StaticProp.obj
 0001:000391d0       ?Studio_ConvertStudioHdrToNewVersion@@YAXPAUstudiohdr_t@@@Z 0043a1d0 f i StaticProp.obj
 0001:00039200       ?StudioKeyValues@@YA_NPAUstudiohdr_t@@PAVKeyValues@@@Z 0043a200 f   StaticProp.obj
 0001:00039250       ?IsStaticProp@@YA?AW4isstaticprop_ret@@PAUstudiohdr_t@@@Z 0043a250 f   StaticProp.obj
 0001:000392f0       ??0ModelCollisionLookup_t@@QAE@XZ 0043a2f0 f i StaticProp.obj
 0001:00039300       ??0StaticPropBuild_t@@QAE@XZ 0043a300 f i StaticProp.obj
 0001:00039350       ?GetVertexData@mstudiomodel_t@@QAEPBUmstudio_modelvertexdata_t@@XZ 0043a350 f   StaticProp.obj
 0001:00039530       ??A?$CUtlMemory@E@@QBEABEH@Z 0043a530 f i StaticProp.obj
 0001:00039540       ?Base@?$CUtlMemory@UStaticPropDictLump_t@@@@QAEPAUStaticPropDictLump_t@@XZ 0043a540 f i StaticProp.obj
 0001:00039550       ?Size@?$CUtlVector@UStaticPropDictLump_t@@V?$CUtlMemory@UStaticPropDictLump_t@@@@@@QBEHXZ 0043a550 f i StaticProp.obj
 0001:00039560       ?Base@?$CUtlMemory@UStaticPropLump_t@@@@QAEPAUStaticPropLump_t@@XZ 0043a560 f i StaticProp.obj
 0001:00039570       ?Size@?$CUtlVector@UStaticPropLump_t@@V?$CUtlMemory@UStaticPropLump_t@@@@@@QBEHXZ 0043a570 f i StaticProp.obj
 0001:00039580       ?Base@?$CUtlMemory@UStaticPropLeafLump_t@@@@QAEPAUStaticPropLeafLump_t@@XZ 0043a580 f i StaticProp.obj
 0001:00039590       ?Count@?$CUtlVector@UStaticPropLeafLump_t@@V?$CUtlMemory@UStaticPropLeafLump_t@@@@@@QBEHXZ 0043a590 f i StaticProp.obj
 0001:000395a0       ?Size@?$CUtlVector@UStaticPropLeafLump_t@@V?$CUtlMemory@UStaticPropLeafLump_t@@@@@@QBEHXZ 0043a5a0 f i StaticProp.obj
 0001:000395b0       ?InvalidIndex@?$CUtlRBTree@UModelCollisionLookup_t@@GP6A_NABU1@0@Z@@SAGXZ 0043a5b0 f i StaticProp.obj
 0001:000395c0       ?Size@?$CUtlVector@PAVCPhysConvex@@V?$CUtlMemory@PAVCPhysConvex@@@@@@QBEHXZ 0043a5c0 f i StaticProp.obj
 0001:000395d0       ?Base@?$CUtlMemory@UNode_t@?$CUtlRBTree@UModelCollisionLookup_t@@GP6A_NABU1@0@Z@@@@QAEPAUNode_t@?$CUtlRBTree@UModelCollisionLookup_t@@GP6A_NABU1@0@Z@@XZ 0043a5d0 f i StaticProp.obj
 0001:000395e0       ??0ModelCollisionLookup_t@@QAE@ABU0@@Z 0043a5e0 f i StaticProp.obj
 0001:00039600       ?ValidateGrowSize@?$CUtlMemory@UStaticPropDictLump_t@@@@IAEXXZ 0043a600 f i StaticProp.obj
 0001:00039610       ?ValidateGrowSize@?$CUtlMemory@UStaticPropLump_t@@@@IAEXXZ 0043a610 f i StaticProp.obj
 0001:00039620       ?ValidateGrowSize@?$CUtlMemory@UStaticPropLeafLump_t@@@@IAEXXZ 0043a620 f i StaticProp.obj
 0001:00039630       ?ValidateGrowSize@?$CUtlMemory@UNode_t@?$CUtlRBTree@UModelCollisionLookup_t@@GP6A_NABU1@0@Z@@@@IAEXXZ 0043a630 f i StaticProp.obj
 0001:00039640       ??$CopyConstruct@UStaticPropDictLump_t@@@@YAXPAUStaticPropDictLump_t@@ABU0@@Z 0043a640 f i StaticProp.obj
 0001:00039660       ??$CopyConstruct@UStaticPropLeafLump_t@@@@YAXPAUStaticPropLeafLump_t@@ABU0@@Z 0043a660 f i StaticProp.obj
 0001:00039680       ??A?$CUtlMemory@UNode_t@?$CUtlRBTree@UModelCollisionLookup_t@@GP6A_NABU1@0@Z@@@@QBEABUNode_t@?$CUtlRBTree@UModelCollisionLookup_t@@GP6A_NABU1@0@Z@@H@Z 0043a680 f i StaticProp.obj
 0001:00039690       ??A?$CUtlMemory@UNode_t@?$CUtlRBTree@UModelCollisionLookup_t@@GP6A_NABU1@0@Z@@@@QAEAAUNode_t@?$CUtlRBTree@UModelCollisionLookup_t@@GP6A_NABU1@0@Z@@H@Z 0043a690 f i StaticProp.obj
 0001:000396a0       ??$Destruct@UModelCollisionLookup_t@@@@YAXPAUModelCollisionLookup_t@@@Z 0043a6a0 f i StaticProp.obj
 0001:000396b0       ??0StaticPropLump_t@@QAE@XZ 0043a6b0 f i StaticProp.obj
 0001:000396c0       ?NumAllocated@?$CUtlMemory@UStaticPropDictLump_t@@@@QBEHXZ 0043a6c0 f i StaticProp.obj
 0001:000396d0       ?IsExternallyAllocated@?$CUtlMemory@UStaticPropDictLump_t@@@@QBE_NXZ 0043a6d0 f i StaticProp.obj
 0001:000396e0       ??$Destruct@UStaticPropDictLump_t@@@@YAXPAUStaticPropDictLump_t@@@Z 0043a6e0 f i StaticProp.obj
 0001:000396f0       ?NumAllocated@?$CUtlMemory@UStaticPropLump_t@@@@QBEHXZ 0043a6f0 f i StaticProp.obj
 0001:00039700       ?IsExternallyAllocated@?$CUtlMemory@UStaticPropLump_t@@@@QBE_NXZ 0043a700 f i StaticProp.obj
 0001:00039710       ??$Destruct@UStaticPropLump_t@@@@YAXPAUStaticPropLump_t@@@Z 0043a710 f i StaticProp.obj
 0001:00039720       ?NumAllocated@?$CUtlMemory@UStaticPropLeafLump_t@@@@QBEHXZ 0043a720 f i StaticProp.obj
 0001:00039730       ?IsExternallyAllocated@?$CUtlMemory@UStaticPropLeafLump_t@@@@QBE_NXZ 0043a730 f i StaticProp.obj
 0001:00039740       ??$Destruct@UStaticPropLeafLump_t@@@@YAXPAUStaticPropLeafLump_t@@@Z 0043a740 f i StaticProp.obj
 0001:00039750       ?Links@?$CUtlRBTree@UModelCollisionLookup_t@@GP6A_NABU1@0@Z@@IAEAAULinks_t@1@G@Z 0043a750 f i StaticProp.obj
 0001:00039760       ?IsIdxValid@?$CUtlMemory@UNode_t@?$CUtlRBTree@UModelCollisionLookup_t@@GP6A_NABU1@0@Z@@@@QBE_NH@Z 0043a760 f i StaticProp.obj
 0001:00039780       ?NumAllocated@?$CUtlMemory@UNode_t@?$CUtlRBTree@UModelCollisionLookup_t@@GP6A_NABU1@0@Z@@@@QBEHXZ 0043a780 f i StaticProp.obj
 0001:00039790       ?IsExternallyAllocated@?$CUtlMemory@UNode_t@?$CUtlRBTree@UModelCollisionLookup_t@@GP6A_NABU1@0@Z@@@@QBE_NXZ 0043a790 f i StaticProp.obj
 0001:000397a0       ??$Construct@UModelCollisionLookup_t@@@@YAXPAUModelCollisionLookup_t@@@Z 0043a7a0 f i StaticProp.obj
 0001:000397b0       ?IsRoot@?$CUtlRBTree@UModelCollisionLookup_t@@GP6A_NABU1@0@Z@@QBE_NG@Z 0043a7b0 f i StaticProp.obj
 0001:000397d0       ?SetColor@?$CUtlRBTree@UModelCollisionLookup_t@@GP6A_NABU1@0@Z@@IAEXGW4NodeColor_t@1@@Z 0043a7d0 f i StaticProp.obj
 0001:000397f0       ?SetParent@?$CUtlRBTree@UModelCollisionLookup_t@@GP6A_NABU1@0@Z@@IAEXGG@Z 0043a7f0 f i StaticProp.obj
 0001:00039810       ?SetLeftChild@?$CUtlRBTree@UModelCollisionLookup_t@@GP6A_NABU1@0@Z@@IAEXGG@Z 0043a810 f i StaticProp.obj
 0001:00039830       ?SetRightChild@?$CUtlRBTree@UModelCollisionLookup_t@@GP6A_NABU1@0@Z@@IAEXGG@Z 0043a830 f i StaticProp.obj
 0001:00039850       ?GetVertexData@mstudiomesh_t@@QAEPBUmstudio_meshvertexdata_t@@XZ 0043a850 f i StaticProp.obj
 0001:00039870       ?PeekGet@CUtlBuffer@@QBEPBXH@Z 0043a870 f i StaticProp.obj
 0001:00039880       ?LoadStudioModel@@YA_NPBD0AAVCUtlBuffer@@@Z 0043a880 f   StaticProp.obj
 0001:00039c70       ?Base@?$CUtlVector@UStaticPropDictLump_t@@V?$CUtlMemory@UStaticPropDictLump_t@@@@@@QAEPAUStaticPropDictLump_t@@XZ 0043ac70 f i StaticProp.obj
 0001:00039c80       ?Base@?$CUtlVector@UStaticPropLump_t@@V?$CUtlMemory@UStaticPropLump_t@@@@@@QAEPAUStaticPropLump_t@@XZ 0043ac80 f i StaticProp.obj
 0001:00039c90       ?Base@?$CUtlVector@UStaticPropLeafLump_t@@V?$CUtlMemory@UStaticPropLeafLump_t@@@@@@QAEPAUStaticPropLeafLump_t@@XZ 0043ac90 f i StaticProp.obj
 0001:00039ca0       ??A?$CUtlVector@UStaticPropDictLump_t@@V?$CUtlMemory@UStaticPropDictLump_t@@@@@@QAEAAUStaticPropDictLump_t@@H@Z 0043aca0 f i StaticProp.obj
 0001:00039cb0       ??A?$CUtlVector@UStaticPropLump_t@@V?$CUtlMemory@UStaticPropLump_t@@@@@@QAEAAUStaticPropLump_t@@H@Z 0043acb0 f i StaticProp.obj
 0001:00039cd0       ?ResetDbgInfo@?$CUtlVector@UStaticPropDictLump_t@@V?$CUtlMemory@UStaticPropDictLump_t@@@@@@IAEXXZ 0043acd0 f i StaticProp.obj
 0001:00039ce0       ?ResetDbgInfo@?$CUtlVector@UStaticPropLump_t@@V?$CUtlMemory@UStaticPropLump_t@@@@@@IAEXXZ 0043ace0 f i StaticProp.obj
 0001:00039cf0       ?ResetDbgInfo@?$CUtlVector@UStaticPropLeafLump_t@@V?$CUtlMemory@UStaticPropLeafLump_t@@@@@@IAEXXZ 0043acf0 f i StaticProp.obj
 0001:00039d00       ?ResetDbgInfo@?$CUtlRBTree@UModelCollisionLookup_t@@GP6A_NABU1@0@Z@@IAEXXZ 0043ad00 f i StaticProp.obj
 0001:00039d10       ??0?$CUtlMemory@UStaticPropDictLump_t@@@@QAE@HH@Z 0043ad10 f i StaticProp.obj
 0001:00039d50       ??0?$CUtlMemory@UStaticPropLump_t@@@@QAE@HH@Z 0043ad50 f i StaticProp.obj
 0001:00039d90       ??0?$CUtlMemory@UStaticPropLeafLump_t@@@@QAE@HH@Z 0043ad90 f i StaticProp.obj
 0001:00039dd0       ?Element@?$CUtlRBTree@UModelCollisionLookup_t@@GP6A_NABU1@0@Z@@QBEABUModelCollisionLookup_t@@G@Z 0043add0 f i StaticProp.obj
 0001:00039df0       ?Element@?$CUtlRBTree@UModelCollisionLookup_t@@GP6A_NABU1@0@Z@@QAEAAUModelCollisionLookup_t@@G@Z 0043adf0 f i StaticProp.obj
 0001:00039e10       ??0?$CUtlMemory@UNode_t@?$CUtlRBTree@UModelCollisionLookup_t@@GP6A_NABU1@0@Z@@@@QAE@HH@Z 0043ae10 f i StaticProp.obj
 0001:00039e50       ??$CopyConstruct@UModelCollisionLookup_t@@@@YAXPAUModelCollisionLookup_t@@ABU0@@Z 0043ae50 f i StaticProp.obj
 0001:00039e70       ?Purge@?$CUtlMemory@UStaticPropDictLump_t@@@@QAEXXZ 0043ae70 f i StaticProp.obj
 0001:00039ea0       ?Element@?$CUtlVector@UStaticPropDictLump_t@@V?$CUtlMemory@UStaticPropDictLump_t@@@@@@QAEAAUStaticPropDictLump_t@@H@Z 0043aea0 f i StaticProp.obj
 0001:00039eb0       ?RemoveAll@?$CUtlVector@UStaticPropDictLump_t@@V?$CUtlMemory@UStaticPropDictLump_t@@@@@@QAEXXZ 0043aeb0 f i StaticProp.obj
 0001:00039ec0       ?ShiftElementsRight@?$CUtlVector@UStaticPropDictLump_t@@V?$CUtlMemory@UStaticPropDictLump_t@@@@@@IAEXHH@Z 0043aec0 f i StaticProp.obj
 0001:00039f00       ?Purge@?$CUtlMemory@UStaticPropLump_t@@@@QAEXXZ 0043af00 f i StaticProp.obj
 0001:00039f30       ?Element@?$CUtlVector@UStaticPropLump_t@@V?$CUtlMemory@UStaticPropLump_t@@@@@@QAEAAUStaticPropLump_t@@H@Z 0043af30 f i StaticProp.obj
 0001:00039f50       ?RemoveAll@?$CUtlVector@UStaticPropLump_t@@V?$CUtlMemory@UStaticPropLump_t@@@@@@QAEXXZ 0043af50 f i StaticProp.obj
 0001:00039f60       ?ShiftElementsRight@?$CUtlVector@UStaticPropLump_t@@V?$CUtlMemory@UStaticPropLump_t@@@@@@IAEXHH@Z 0043af60 f i StaticProp.obj
 0001:00039fb0       ??$Construct@UStaticPropLump_t@@@@YAXPAUStaticPropLump_t@@@Z 0043afb0 f i StaticProp.obj
 0001:00039fc0       ?Purge@?$CUtlMemory@UStaticPropLeafLump_t@@@@QAEXXZ 0043afc0 f i StaticProp.obj
 0001:00039ff0       ?Element@?$CUtlVector@UStaticPropLeafLump_t@@V?$CUtlMemory@UStaticPropLeafLump_t@@@@@@QAEAAUStaticPropLeafLump_t@@H@Z 0043aff0 f i StaticProp.obj
 0001:0003a000       ?RemoveAll@?$CUtlVector@UStaticPropLeafLump_t@@V?$CUtlMemory@UStaticPropLeafLump_t@@@@@@QAEXXZ 0043b000 f i StaticProp.obj
 0001:0003a010       ?ShiftElementsRight@?$CUtlVector@UStaticPropLeafLump_t@@V?$CUtlMemory@UStaticPropLeafLump_t@@@@@@IAEXHH@Z 0043b010 f i StaticProp.obj
 0001:0003a050       ?Links@?$CUtlRBTree@UModelCollisionLookup_t@@GP6A_NABU1@0@Z@@IBEABULinks_t@1@G@Z 0043b050 f i StaticProp.obj
 0001:0003a0b0       ?Purge@?$CUtlMemory@UNode_t@?$CUtlRBTree@UModelCollisionLookup_t@@GP6A_NABU1@0@Z@@@@QAEXXZ 0043b0b0 f i StaticProp.obj
 0001:0003a0e0       ?Grow@?$CUtlMemory@UStaticPropDictLump_t@@@@QAEXH@Z 0043b0e0 f i StaticProp.obj
 0001:0003a150       ?Grow@?$CUtlMemory@UStaticPropLump_t@@@@QAEXH@Z 0043b150 f i StaticProp.obj
 0001:0003a1e0       ?Grow@?$CUtlMemory@UStaticPropLeafLump_t@@@@QAEXH@Z 0043b1e0 f i StaticProp.obj
 0001:0003a250       ?Grow@?$CUtlMemory@UNode_t@?$CUtlRBTree@UModelCollisionLookup_t@@GP6A_NABU1@0@Z@@@@QAEXH@Z 0043b250 f i StaticProp.obj
 0001:0003a2c0       ?Parent@?$CUtlRBTree@UModelCollisionLookup_t@@GP6A_NABU1@0@Z@@QBEGG@Z 0043b2c0 f i StaticProp.obj
 0001:0003a2e0       ?IsRed@?$CUtlRBTree@UModelCollisionLookup_t@@GP6A_NABU1@0@Z@@IBE_NG@Z 0043b2e0 f i StaticProp.obj
 0001:0003a300       ?Color@?$CUtlRBTree@UModelCollisionLookup_t@@GP6A_NABU1@0@Z@@IBE?AW4NodeColor_t@1@G@Z 0043b300 f i StaticProp.obj
 0001:0003a320       ??A?$CUtlRBTree@UModelCollisionLookup_t@@GP6A_NABU1@0@Z@@QAEAAUModelCollisionLookup_t@@G@Z 0043b320 f i StaticProp.obj
 0001:0003a340       ??1?$CUtlMemory@UStaticPropDictLump_t@@@@QAE@XZ 0043b340 f i StaticProp.obj
 0001:0003a370       ?Purge@?$CUtlVector@UStaticPropDictLump_t@@V?$CUtlMemory@UStaticPropDictLump_t@@@@@@QAEXXZ 0043b370 f i StaticProp.obj
 0001:0003a3c0       ??1?$CUtlMemory@UStaticPropLump_t@@@@QAE@XZ 0043b3c0 f i StaticProp.obj
 0001:0003a3f0       ?Purge@?$CUtlVector@UStaticPropLump_t@@V?$CUtlMemory@UStaticPropLump_t@@@@@@QAEXXZ 0043b3f0 f i StaticProp.obj
 0001:0003a440       ??1?$CUtlMemory@UStaticPropLeafLump_t@@@@QAE@XZ 0043b440 f i StaticProp.obj
 0001:0003a470       ?Purge@?$CUtlVector@UStaticPropLeafLump_t@@V?$CUtlMemory@UStaticPropLeafLump_t@@@@@@QAEXXZ 0043b470 f i StaticProp.obj
 0001:0003a4c0       ?LeftChild@?$CUtlRBTree@UModelCollisionLookup_t@@GP6A_NABU1@0@Z@@QBEGG@Z 0043b4c0 f i StaticProp.obj
 0001:0003a4d0       ?RightChild@?$CUtlRBTree@UModelCollisionLookup_t@@GP6A_NABU1@0@Z@@QBEGG@Z 0043b4d0 f i StaticProp.obj
 0001:0003a4f0       ?FindInsertionPosition@?$CUtlRBTree@UModelCollisionLookup_t@@GP6A_NABU1@0@Z@@IAEXABUModelCollisionLookup_t@@AAGAA_N@Z 0043b4f0 f i StaticProp.obj
 0001:0003a600       ??1?$CUtlMemory@UNode_t@?$CUtlRBTree@UModelCollisionLookup_t@@GP6A_NABU1@0@Z@@@@QAE@XZ 0043b600 f i StaticProp.obj
 0001:0003a630       ?GrowVector@?$CUtlVector@UStaticPropDictLump_t@@V?$CUtlMemory@UStaticPropDictLump_t@@@@@@IAEXH@Z 0043b630 f i StaticProp.obj
 0001:0003a660       ?GrowVector@?$CUtlVector@UStaticPropLump_t@@V?$CUtlMemory@UStaticPropLump_t@@@@@@IAEXH@Z 0043b660 f i StaticProp.obj
 0001:0003a690       ?GrowVector@?$CUtlVector@UStaticPropLeafLump_t@@V?$CUtlMemory@UStaticPropLeafLump_t@@@@@@IAEXH@Z 0043b690 f i StaticProp.obj
 0001:0003a6c0       ?IsValidIndex@?$CUtlRBTree@UModelCollisionLookup_t@@GP6A_NABU1@0@Z@@QBE_NG@Z 0043b6c0 f i StaticProp.obj
 0001:0003a6f0       ?NewNode@?$CUtlRBTree@UModelCollisionLookup_t@@GP6A_NABU1@0@Z@@QAEGXZ 0043b6f0 f i StaticProp.obj
 0001:0003a760       ?IsLeftChild@?$CUtlRBTree@UModelCollisionLookup_t@@GP6A_NABU1@0@Z@@QBE_NG@Z 0043b760 f i StaticProp.obj
 0001:0003a790       ?IsRightChild@?$CUtlRBTree@UModelCollisionLookup_t@@GP6A_NABU1@0@Z@@QBE_NG@Z 0043b790 f i StaticProp.obj
 0001:0003a7c0       ?RotateLeft@?$CUtlRBTree@UModelCollisionLookup_t@@GP6A_NABU1@0@Z@@IAEXG@Z 0043b7c0 f i StaticProp.obj
 0001:0003a8b0       ?RotateRight@?$CUtlRBTree@UModelCollisionLookup_t@@GP6A_NABU1@0@Z@@IAEXG@Z 0043b8b0 f i StaticProp.obj
 0001:0003abb0       ??0?$CUtlVector@UStaticPropDictLump_t@@V?$CUtlMemory@UStaticPropDictLump_t@@@@@@QAE@HH@Z 0043bbb0 f i StaticProp.obj
 0001:0003ac00       ??1?$CUtlVector@UStaticPropDictLump_t@@V?$CUtlMemory@UStaticPropDictLump_t@@@@@@QAE@XZ 0043bc00 f i StaticProp.obj
 0001:0003ac70       ??0?$CUtlVector@UStaticPropLump_t@@V?$CUtlMemory@UStaticPropLump_t@@@@@@QAE@HH@Z 0043bc70 f i StaticProp.obj
 0001:0003acc0       ??1?$CUtlVector@UStaticPropLump_t@@V?$CUtlMemory@UStaticPropLump_t@@@@@@QAE@XZ 0043bcc0 f i StaticProp.obj
 0001:0003ad30       ??0?$CUtlVector@UStaticPropLeafLump_t@@V?$CUtlMemory@UStaticPropLeafLump_t@@@@@@QAE@HH@Z 0043bd30 f i StaticProp.obj
 0001:0003ad80       ??1?$CUtlVector@UStaticPropLeafLump_t@@V?$CUtlMemory@UStaticPropLeafLump_t@@@@@@QAE@XZ 0043bd80 f i StaticProp.obj
 0001:0003adf0       ??0?$CUtlRBTree@UModelCollisionLookup_t@@GP6A_NABU1@0@Z@@QAE@HHABQ6A_NABUModelCollisionLookup_t@@0@Z@Z 0043bdf0 f i StaticProp.obj
 0001:0003ae50       ?Find@?$CUtlRBTree@UModelCollisionLookup_t@@GP6A_NABU1@0@Z@@QBEGABUModelCollisionLookup_t@@@Z 0043be50 f i StaticProp.obj
 0001:0003af50       ?InsertBefore@?$CUtlVector@UStaticPropDictLump_t@@V?$CUtlMemory@UStaticPropDictLump_t@@@@@@QAEHHABUStaticPropDictLump_t@@@Z 0043bf50 f i StaticProp.obj
 0001:0003afc0       ?InsertBefore@?$CUtlVector@UStaticPropLump_t@@V?$CUtlMemory@UStaticPropLump_t@@@@@@QAEHH@Z 0043bfc0 f i StaticProp.obj
 0001:0003b020       ?InsertBefore@?$CUtlVector@UStaticPropLeafLump_t@@V?$CUtlMemory@UStaticPropLeafLump_t@@@@@@QAEHHABUStaticPropLeafLump_t@@@Z 0043c020 f i StaticProp.obj
 0001:0003b090       ?Purge@?$CUtlRBTree@UModelCollisionLookup_t@@GP6A_NABU1@0@Z@@QAEXXZ 0043c090 f i StaticProp.obj
 0001:0003b130       ?InsertRebalance@?$CUtlRBTree@UModelCollisionLookup_t@@GP6A_NABU1@0@Z@@IAEXG@Z 0043c130 f i StaticProp.obj
 0001:0003b710       ?AddToTail@?$CUtlVector@UStaticPropDictLump_t@@V?$CUtlMemory@UStaticPropDictLump_t@@@@@@QAEHABUStaticPropDictLump_t@@@Z 0043c710 f i StaticProp.obj
 0001:0003b730       ?AddToTail@?$CUtlVector@UStaticPropLump_t@@V?$CUtlMemory@UStaticPropLump_t@@@@@@QAEHXZ 0043c730 f i StaticProp.obj
 0001:0003b740       ?AddToTail@?$CUtlVector@UStaticPropLeafLump_t@@V?$CUtlMemory@UStaticPropLeafLump_t@@@@@@QAEHABUStaticPropLeafLump_t@@@Z 0043c740 f i StaticProp.obj
 0001:0003b760       ??1?$CUtlRBTree@UModelCollisionLookup_t@@GP6A_NABU1@0@Z@@QAE@XZ 0043c760 f i StaticProp.obj
 0001:0003b7a0       ?LinkToParent@?$CUtlRBTree@UModelCollisionLookup_t@@GP6A_NABU1@0@Z@@IAEXGG_N@Z 0043c7a0 f i StaticProp.obj
 0001:0003b980       ?ComputeConvexHull@@YAPAVCPhysCollide@@PAUstudiohdr_t@@@Z 0043c980 f   StaticProp.obj
 0001:0003bd40       ?InsertAt@?$CUtlRBTree@UModelCollisionLookup_t@@GP6A_NABU1@0@Z@@IAEGG_N@Z 0043cd40 f i StaticProp.obj
 0001:0003bd70       ?Insert@?$CUtlRBTree@UModelCollisionLookup_t@@GP6A_NABU1@0@Z@@QAEGABUModelCollisionLookup_t@@@Z 0043cd70 f i StaticProp.obj
 0001:0003c150       ?EmitStaticProps@@YAXXZ    0043d150 f   StaticProp.obj
 0001:0003c430       _cosf                      0043d430 f i textures.obj
 0001:0003c450       _sinf                      0043d450 f i textures.obj
 0001:0003c470       ?cos@@YAMM@Z               0043d470 f i textures.obj
 0001:0003c490       ?sin@@YAMM@Z               0043d490 f i textures.obj
 0001:0003c4b0       ?GetTexData@@YAPAUdtexdata_t@@H@Z 0043d4b0 f   textures.obj
 0001:0003c500       ?FindMiptex@@YAHPBD@Z      0043d500 f   textures.obj
 0001:0003cc70       ?TextureAxisFromPlane@@YAXPAUplane_t@@AAVVector@@1@Z 0043dc70 f   textures.obj
 0001:0003ce30       ?GetSurfaceProperties@@YAHPAXPBD@Z 0043de30 f   textures.obj
 0001:0003ceb0       ?GetSurfaceProperties2@@YAHPAXPBD@Z 0043deb0 f   textures.obj
 0001:0003cf20       ?FindAliasedTexData@@YAHPBDPAUdtexdata_t@@@Z 0043df20 f   textures.obj
 0001:0003d0a0       ?FindTexData@@YAHPBD@Z     0043e0a0 f   textures.obj
 0001:0003d100       ?FindOrCreateTexData@@YAHPBD@Z 0043e100 f   textures.obj
 0001:0003d210       ??4dtexdata_t@@QAEAAU0@ABU0@@Z 0043e210 f i textures.obj
 0001:0003d250       ?LoadSurfacePropFile@@YAXPBD@Z 0043e250 f   textures.obj
 0001:0003d2d0       ?LoadSurfaceProperties@@YAXXZ 0043e2d0 f   textures.obj
 0001:0003d380       ?Count@?$CUtlVector@Utexinfo_s@@V?$CUtlMemory@Utexinfo_s@@@@@@QBEHXZ 0043e380 f i textures.obj
 0001:0003d390       ?AddCloneTexData@@YAHPAUdtexdata_t@@PBD@Z 0043e390 f   textures.obj
 0001:0003d420       ?FindTexInfo@@YAHABUtexinfo_s@@@Z 0043e420 f   textures.obj
 0001:0003d500       ?FindOrCreateTexInfo@@YAHABUtexinfo_s@@@Z 0043e500 f   textures.obj
 0001:0003d540       ?TexinfoForBrushTexture@@YAHPAUplane_t@@PAUbrush_texture_t@@ABVVector@@@Z 0043e540 f   textures.obj
 0001:0003d960       ?NodeForPoint@@YAPAUnode_t@@PAU1@AAVVector@@@Z 0043e960 f   tree.obj
 0001:0003d9d0       ?FreeTreePortals_r@@YAXPAUnode_t@@@Z 0043e9d0 f   tree.obj
 0001:0003da40       ?FreeTree_r@@YAXPAUnode_t@@@Z 0043ea40 f   tree.obj
 0001:0003dac0       ?FreeTree@@YAXPAUtree_t@@@Z 0043eac0 f   tree.obj
 0001:0003daf0       ?PrintTree_r@@YAXPAUnode_t@@H@Z 0043eaf0 f   tree.obj
 0001:0003dbc0       ?PruneNodes_r@@YAXPAUnode_t@@@Z 0043ebc0 f   tree.obj
 0001:0003dc80       ?PruneNodes@@YAXPAUnode_t@@@Z 0043ec80 f   tree.obj
 0001:0003dcc0       ?IsErrorMaterial@@YA_NPAVIMaterial@@@Z 0043ecc0 f i utilmatlib.obj
 0001:0003dce0       ?SetFlag@MaterialSystem_Config_t@@QAEXI_N@Z 0043ece0 f i utilmatlib.obj
 0001:0003dd00       ??0MaterialSystem_Config_t@@QAE@XZ 0043ed00 f i utilmatlib.obj
 0001:0003ddb0       ?LoadMaterialSystemInterface@@YAXP6APAXPBDPAH@Z@Z 0043edb0 f   utilmatlib.obj
 0001:0003de60       ?InitMaterialSystem@@YAXPBDP6APAX0PAH@Z@Z 0043ee60 f   utilmatlib.obj
 0001:0003de90       ?ShutdownMaterialSystem@@YAXXZ 0043ee90 f   utilmatlib.obj
 0001:0003deb0       ?FindMaterial@@YAPAXPBDPA_N_N@Z 0043eeb0 f   utilmatlib.obj
 0001:0003df00       ?GetMaterialDimensions@@YAXPAXPAH1@Z 0043ef00 f   utilmatlib.obj
 0001:0003df40       ?GetMaterialReflectivity@@YAXPAXPAM@Z 0043ef40 f   utilmatlib.obj
 0001:0003dfb0       ?GetMaterialShaderPropertyBool@@YAHPAXH@Z 0043efb0 f   utilmatlib.obj
 0001:0003dff0       ?GetMaterialShaderPropertyInt@@YAHPAXH@Z 0043eff0 f   utilmatlib.obj
 0001:0003e030       ?GetMaterialVar@@YAPBDPAXPBD@Z 0043f030 f   utilmatlib.obj
 0001:0003e060       ?GetMaterialShaderName@@YAPBDPAX@Z 0043f060 f   utilmatlib.obj
 0001:0003e070       ?BlockTree@@YAPAUnode_t@@HHHH@Z 0043f070 f   vbsp.obj
 0001:0003e1a0       ?ProcessBlock_Thread@@YAXHH@Z 0043f1a0 f   vbsp.obj
 0001:0003e2d0       ?ProcessSubModel@@YAXXZ    0043f2d0 f   vbsp.obj
 0001:0003e3d0       ?IsFuncOccluder@@YA_NH@Z   0043f3d0 f   vbsp.obj
 0001:0003e410       ?FixupOnlyEntsOccluderEntities@@YAXXZ 0043f410 f   vbsp.obj
 0001:0003e4b0       ?LoadPhysicsDLL@@YAXXZ     0043f4b0 f   vbsp.obj
 0001:0003e4c0       ?PrintCommandLine@@YAXHPAPAD@Z 0043f4c0 f   vbsp.obj
 0001:0003e510       ?Count@?$CUtlVector@Udoccluderdata_t@@V?$CUtlMemory@Udoccluderdata_t@@@@@@QBEHXZ 0043f510 f i vbsp.obj
 0001:0003e520       ?Count@?$CUtlVector@Udoccluderpolydata_t@@V?$CUtlMemory@Udoccluderpolydata_t@@@@@@QBEHXZ 0043f520 f i vbsp.obj
 0001:0003e530       ?Base@?$CUtlMemory@PAUmapbrush_t@@@@QAEPAPAUmapbrush_t@@XZ 0043f530 f i vbsp.obj
 0001:0003e540       ?Count@?$CUtlVector@PAUmapbrush_t@@V?$CUtlMemory@PAUmapbrush_t@@@@@@QBEHXZ 0043f540 f i vbsp.obj
 0001:0003e550       ?Count@?$CUtlVector@PAUside_t@@V?$CUtlMemory@PAUside_t@@@@@@QBEHXZ 0043f550 f i vbsp.obj
 0001:0003e560       ?Count@?$CUtlVector@PAUface_t@@V?$CUtlMemory@PAUface_t@@@@@@QBEHXZ 0043f560 f i vbsp.obj
 0001:0003e570       ??$Destruct@Udoccluderdata_t@@@@YAXPAUdoccluderdata_t@@@Z 0043f570 f i vbsp.obj
 0001:0003e580       ??$Destruct@Udoccluderpolydata_t@@@@YAXPAUdoccluderpolydata_t@@@Z 0043f580 f i vbsp.obj
 0001:0003e590       ?Base@?$CUtlMemory@PAUside_t@@@@QAEPAPAUside_t@@XZ 0043f590 f i vbsp.obj
 0001:0003e5a0       ??$Destruct@PAUside_t@@@@YAXPAPAUside_t@@@Z 0043f5a0 f i vbsp.obj
 0001:0003e5b0       ?Base@?$CUtlMemory@PAUface_t@@@@QAEPAPAUface_t@@XZ 0043f5b0 f i vbsp.obj
 0001:0003e5c0       ?Base@?$CUtlMemory@UOccluderInfo_t@@@@QAEPAUOccluderInfo_t@@XZ 0043f5c0 f i vbsp.obj
 0001:0003e5d0       ?Base@?$CUtlMemory@Udoccluderdata_t@@@@QAEPAUdoccluderdata_t@@XZ 0043f5d0 f i vbsp.obj
 0001:0003e5e0       ?Base@?$CUtlMemory@Udoccluderpolydata_t@@@@QAEPAUdoccluderpolydata_t@@XZ 0043f5e0 f i vbsp.obj
 0001:0003e5f0       ?ValidateGrowSize@?$CUtlMemory@PAUmapbrush_t@@@@IAEXXZ 0043f5f0 f i vbsp.obj
 0001:0003e600       ?ValidateGrowSize@?$CUtlMemory@PAUside_t@@@@IAEXXZ 0043f600 f i vbsp.obj
 0001:0003e610       ?ValidateGrowSize@?$CUtlMemory@PAUface_t@@@@IAEXXZ 0043f610 f i vbsp.obj
 0001:0003e620       ?ValidateGrowSize@?$CUtlMemory@UOccluderInfo_t@@@@IAEXXZ 0043f620 f i vbsp.obj
 0001:0003e630       ??$Construct@Udoccluderpolydata_t@@@@YAXPAUdoccluderpolydata_t@@@Z 0043f630 f i vbsp.obj
 0001:0003e640       ??$CopyConstruct@PAUmapbrush_t@@@@YAXPAPAUmapbrush_t@@ABQAU0@@Z 0043f640 f i vbsp.obj
 0001:0003e660       ??$CopyConstruct@PAUside_t@@@@YAXPAPAUside_t@@ABQAU0@@Z 0043f660 f i vbsp.obj
 0001:0003e680       ??$CopyConstruct@PAUface_t@@@@YAXPAPAUface_t@@ABQAU0@@Z 0043f680 f i vbsp.obj
 0001:0003e6a0       ??$Construct@UOccluderInfo_t@@@@YAXPAUOccluderInfo_t@@@Z 0043f6a0 f i vbsp.obj
 0001:0003e6b0       ??0doccluderdata_t@@QAE@XZ 0043f6b0 f i vbsp.obj
 0001:0003e6c0       ?NumAllocated@?$CUtlMemory@Udoccluderdata_t@@@@QBEHXZ 0043f6c0 f i vbsp.obj
 0001:0003e6d0       ?NumAllocated@?$CUtlMemory@Udoccluderpolydata_t@@@@QBEHXZ 0043f6d0 f i vbsp.obj
 0001:0003e6e0       ?NumAllocated@?$CUtlMemory@PAUmapbrush_t@@@@QBEHXZ 0043f6e0 f i vbsp.obj
 0001:0003e6f0       ?IsExternallyAllocated@?$CUtlMemory@PAUmapbrush_t@@@@QBE_NXZ 0043f6f0 f i vbsp.obj
 0001:0003e700       ??$Destruct@PAUmapbrush_t@@@@YAXPAPAUmapbrush_t@@@Z 0043f700 f i vbsp.obj
 0001:0003e710       ?NumAllocated@?$CUtlMemory@PAUside_t@@@@QBEHXZ 0043f710 f i vbsp.obj
 0001:0003e720       ?IsExternallyAllocated@?$CUtlMemory@PAUside_t@@@@QBE_NXZ 0043f720 f i vbsp.obj
 0001:0003e730       ??$Destruct@PAUface_t@@@@YAXPAPAUface_t@@@Z 0043f730 f i vbsp.obj
 0001:0003e740       ?NumAllocated@?$CUtlMemory@PAUface_t@@@@QBEHXZ 0043f740 f i vbsp.obj
 0001:0003e750       ?IsExternallyAllocated@?$CUtlMemory@PAUface_t@@@@QBE_NXZ 0043f750 f i vbsp.obj
 0001:0003e760       ??$Destruct@UOccluderInfo_t@@@@YAXPAUOccluderInfo_t@@@Z 0043f760 f i vbsp.obj
 0001:0003e770       ?NumAllocated@?$CUtlMemory@UOccluderInfo_t@@@@QBEHXZ 0043f770 f i vbsp.obj
 0001:0003e780       ?IsExternallyAllocated@?$CUtlMemory@UOccluderInfo_t@@@@QBE_NXZ 0043f780 f i vbsp.obj
 0001:0003e790       ?IsExternallyAllocated@?$CUtlMemory@Udoccluderdata_t@@@@QBE_NXZ 0043f790 f i vbsp.obj
 0001:0003e7a0       ?IsExternallyAllocated@?$CUtlMemory@Udoccluderpolydata_t@@@@QBE_NXZ 0043f7a0 f i vbsp.obj
 0001:0003e7b0       ?Base@?$CUtlVector@PAUmapbrush_t@@V?$CUtlMemory@PAUmapbrush_t@@@@@@QAEPAPAUmapbrush_t@@XZ 0043f7b0 f i vbsp.obj
 0001:0003e7c0       ?Base@?$CUtlVector@Udoccluderdata_t@@V?$CUtlMemory@Udoccluderdata_t@@@@@@QAEPAUdoccluderdata_t@@XZ 0043f7c0 f i vbsp.obj
 0001:0003e7d0       ?Base@?$CUtlVector@Udoccluderpolydata_t@@V?$CUtlMemory@Udoccluderpolydata_t@@@@@@QAEPAUdoccluderpolydata_t@@XZ 0043f7d0 f i vbsp.obj
 0001:0003e7e0       ?ResetDbgInfo@?$CUtlVector@PAUmapbrush_t@@V?$CUtlMemory@PAUmapbrush_t@@@@@@IAEXXZ 0043f7e0 f i vbsp.obj
 0001:0003e7f0       ?Base@?$CUtlVector@PAUside_t@@V?$CUtlMemory@PAUside_t@@@@@@QAEPAPAUside_t@@XZ 0043f7f0 f i vbsp.obj
 0001:0003e800       ?ResetDbgInfo@?$CUtlVector@PAUside_t@@V?$CUtlMemory@PAUside_t@@@@@@IAEXXZ 0043f800 f i vbsp.obj
 0001:0003e810       ?Base@?$CUtlVector@PAUface_t@@V?$CUtlMemory@PAUface_t@@@@@@QAEPAPAUface_t@@XZ 0043f810 f i vbsp.obj
 0001:0003e820       ?ResetDbgInfo@?$CUtlVector@PAUface_t@@V?$CUtlMemory@PAUface_t@@@@@@IAEXXZ 0043f820 f i vbsp.obj
 0001:0003e830       ?Base@?$CUtlVector@UOccluderInfo_t@@V?$CUtlMemory@UOccluderInfo_t@@@@@@QAEPAUOccluderInfo_t@@XZ 0043f830 f i vbsp.obj
 0001:0003e840       ?ResetDbgInfo@?$CUtlVector@UOccluderInfo_t@@V?$CUtlMemory@UOccluderInfo_t@@@@@@IAEXXZ 0043f840 f i vbsp.obj
 0001:0003e850       ?Element@?$CUtlVector@Udoccluderdata_t@@V?$CUtlMemory@Udoccluderdata_t@@@@@@QAEAAUdoccluderdata_t@@H@Z 0043f850 f i vbsp.obj
 0001:0003e860       ?Element@?$CUtlVector@Udoccluderpolydata_t@@V?$CUtlMemory@Udoccluderpolydata_t@@@@@@QAEAAUdoccluderpolydata_t@@H@Z 0043f860 f i vbsp.obj
 0001:0003e870       ??0?$CUtlMemory@PAUmapbrush_t@@@@QAE@HH@Z 0043f870 f i vbsp.obj
 0001:0003e8b0       ?Element@?$CUtlVector@PAUside_t@@V?$CUtlMemory@PAUside_t@@@@@@QAEAAPAUside_t@@H@Z 0043f8b0 f i vbsp.obj
 0001:0003e8c0       ??0?$CUtlMemory@PAUside_t@@@@QAE@HH@Z 0043f8c0 f i vbsp.obj
 0001:0003e900       ??0?$CUtlMemory@PAUface_t@@@@QAE@HH@Z 0043f900 f i vbsp.obj
 0001:0003e940       ??0?$CUtlMemory@UOccluderInfo_t@@@@QAE@HH@Z 0043f940 f i vbsp.obj
 0001:0003e980       ?ShiftElementsRight@?$CUtlVector@Udoccluderdata_t@@V?$CUtlMemory@Udoccluderdata_t@@@@@@IAEXHH@Z 0043f980 f i vbsp.obj
 0001:0003e9d0       ??$Construct@Udoccluderdata_t@@@@YAXPAUdoccluderdata_t@@@Z 0043f9d0 f i vbsp.obj
 0001:0003e9e0       ?ShiftElementsRight@?$CUtlVector@Udoccluderpolydata_t@@V?$CUtlMemory@Udoccluderpolydata_t@@@@@@IAEXHH@Z 0043f9e0 f i vbsp.obj
 0001:0003ea20       ?Purge@?$CUtlMemory@PAUmapbrush_t@@@@QAEXXZ 0043fa20 f i vbsp.obj
 0001:0003ea50       ?Element@?$CUtlVector@PAUmapbrush_t@@V?$CUtlMemory@PAUmapbrush_t@@@@@@QAEAAPAUmapbrush_t@@H@Z 0043fa50 f i vbsp.obj
 0001:0003ea60       ?RemoveAll@?$CUtlVector@PAUmapbrush_t@@V?$CUtlMemory@PAUmapbrush_t@@@@@@QAEXXZ 0043fa60 f i vbsp.obj
 0001:0003ea70       ?ShiftElementsRight@?$CUtlVector@PAUmapbrush_t@@V?$CUtlMemory@PAUmapbrush_t@@@@@@IAEXHH@Z 0043fa70 f i vbsp.obj
 0001:0003eab0       ?ShiftElementsRight@?$CUtlVector@PAUside_t@@V?$CUtlMemory@PAUside_t@@@@@@IAEXHH@Z 0043fab0 f i vbsp.obj
 0001:0003eaf0       ?Purge@?$CUtlMemory@PAUside_t@@@@QAEXXZ 0043faf0 f i vbsp.obj
 0001:0003eb20       ?Element@?$CUtlVector@PAUface_t@@V?$CUtlMemory@PAUface_t@@@@@@QAEAAPAUface_t@@H@Z 0043fb20 f i vbsp.obj
 0001:0003eb30       ?RemoveAll@?$CUtlVector@PAUface_t@@V?$CUtlMemory@PAUface_t@@@@@@QAEXXZ 0043fb30 f i vbsp.obj
 0001:0003eb40       ?ShiftElementsRight@?$CUtlVector@PAUface_t@@V?$CUtlMemory@PAUface_t@@@@@@IAEXHH@Z 0043fb40 f i vbsp.obj
 0001:0003eb80       ?Purge@?$CUtlMemory@PAUface_t@@@@QAEXXZ 0043fb80 f i vbsp.obj
 0001:0003ebb0       ?Element@?$CUtlVector@UOccluderInfo_t@@V?$CUtlMemory@UOccluderInfo_t@@@@@@QAEAAUOccluderInfo_t@@H@Z 0043fbb0 f i vbsp.obj
 0001:0003ebc0       ?RemoveAll@?$CUtlVector@UOccluderInfo_t@@V?$CUtlMemory@UOccluderInfo_t@@@@@@QAEXXZ 0043fbc0 f i vbsp.obj
 0001:0003ebd0       ?ShiftElementsRight@?$CUtlVector@UOccluderInfo_t@@V?$CUtlMemory@UOccluderInfo_t@@@@@@IAEXHH@Z 0043fbd0 f i vbsp.obj
 0001:0003ec10       ?Purge@?$CUtlMemory@UOccluderInfo_t@@@@QAEXXZ 0043fc10 f i vbsp.obj
 0001:0003ec40       ?ResetDbgInfo@?$CUtlVector@Udoccluderdata_t@@V?$CUtlMemory@Udoccluderdata_t@@@@@@IAEXXZ 0043fc40 f i vbsp.obj
 0001:0003ec50       ?ResetDbgInfo@?$CUtlVector@Udoccluderpolydata_t@@V?$CUtlMemory@Udoccluderpolydata_t@@@@@@IAEXXZ 0043fc50 f i vbsp.obj
 0001:0003ec60       ?Grow@?$CUtlMemory@Udoccluderdata_t@@@@QAEXH@Z 0043fc60 f i vbsp.obj
 0001:0003ece0       ?Grow@?$CUtlMemory@Udoccluderpolydata_t@@@@QAEXH@Z 0043fce0 f i vbsp.obj
 0001:0003ed50       ?Grow@?$CUtlMemory@PAUmapbrush_t@@@@QAEXH@Z 0043fd50 f i vbsp.obj
 0001:0003edc0       ?Grow@?$CUtlMemory@PAUside_t@@@@QAEXH@Z 0043fdc0 f i vbsp.obj
 0001:0003ee30       ?Grow@?$CUtlMemory@PAUface_t@@@@QAEXH@Z 0043fe30 f i vbsp.obj
 0001:0003eea0       ?Grow@?$CUtlMemory@UOccluderInfo_t@@@@QAEXH@Z 0043fea0 f i vbsp.obj
 0001:0003ef10       ??A?$CUtlVector@Udoccluderdata_t@@V?$CUtlMemory@Udoccluderdata_t@@@@@@QAEAAUdoccluderdata_t@@H@Z 0043ff10 f i vbsp.obj
 0001:0003ef20       ?RemoveAll@?$CUtlVector@Udoccluderdata_t@@V?$CUtlMemory@Udoccluderdata_t@@@@@@QAEXXZ 0043ff20 f i vbsp.obj
 0001:0003ef30       ??A?$CUtlVector@Udoccluderpolydata_t@@V?$CUtlMemory@Udoccluderpolydata_t@@@@@@QAEAAUdoccluderpolydata_t@@H@Z 0043ff30 f i vbsp.obj
 0001:0003ef40       ?RemoveAll@?$CUtlVector@Udoccluderpolydata_t@@V?$CUtlMemory@Udoccluderpolydata_t@@@@@@QAEXXZ 0043ff40 f i vbsp.obj
 0001:0003ef50       ??A?$CUtlVector@PAUside_t@@V?$CUtlMemory@PAUside_t@@@@@@QAEAAPAUside_t@@H@Z 0043ff50 f i vbsp.obj
 0001:0003ef60       ?RemoveAll@?$CUtlVector@PAUside_t@@V?$CUtlMemory@PAUside_t@@@@@@QAEXXZ 0043ff60 f i vbsp.obj
 0001:0003ef70       ??A?$CUtlVector@PAUface_t@@V?$CUtlMemory@PAUface_t@@@@@@QAEAAPAUface_t@@H@Z 0043ff70 f i vbsp.obj
 0001:0003ef80       ??A?$CUtlVector@UOccluderInfo_t@@V?$CUtlMemory@UOccluderInfo_t@@@@@@QAEAAUOccluderInfo_t@@H@Z 0043ff80 f i vbsp.obj
 0001:0003ef90       ??1?$CUtlMemory@PAUmapbrush_t@@@@QAE@XZ 0043ff90 f i vbsp.obj
 0001:0003efc0       ?Purge@?$CUtlVector@PAUmapbrush_t@@V?$CUtlMemory@PAUmapbrush_t@@@@@@QAEXXZ 0043ffc0 f i vbsp.obj
 0001:0003f010       ?Purge@?$CUtlVector@PAUside_t@@V?$CUtlMemory@PAUside_t@@@@@@QAEXXZ 00440010 f i vbsp.obj
 0001:0003f060       ??1?$CUtlMemory@PAUside_t@@@@QAE@XZ 00440060 f i vbsp.obj
 0001:0003f090       ?Purge@?$CUtlVector@PAUface_t@@V?$CUtlMemory@PAUface_t@@@@@@QAEXXZ 00440090 f i vbsp.obj
 0001:0003f0e0       ??1?$CUtlMemory@PAUface_t@@@@QAE@XZ 004400e0 f i vbsp.obj
 0001:0003f110       ?Purge@?$CUtlVector@UOccluderInfo_t@@V?$CUtlMemory@UOccluderInfo_t@@@@@@QAEXXZ 00440110 f i vbsp.obj
 0001:0003f160       ??1?$CUtlMemory@UOccluderInfo_t@@@@QAE@XZ 00440160 f i vbsp.obj
 0001:0003f190       ?GrowVector@?$CUtlVector@Udoccluderdata_t@@V?$CUtlMemory@Udoccluderdata_t@@@@@@IAEXH@Z 00440190 f i vbsp.obj
 0001:0003f1c0       ?GrowVector@?$CUtlVector@Udoccluderpolydata_t@@V?$CUtlMemory@Udoccluderpolydata_t@@@@@@IAEXH@Z 004401c0 f i vbsp.obj
 0001:0003f1f0       ?GrowVector@?$CUtlVector@PAUmapbrush_t@@V?$CUtlMemory@PAUmapbrush_t@@@@@@IAEXH@Z 004401f0 f i vbsp.obj
 0001:0003f220       ?GrowVector@?$CUtlVector@PAUside_t@@V?$CUtlMemory@PAUside_t@@@@@@IAEXH@Z 00440220 f i vbsp.obj
 0001:0003f250       ?GrowVector@?$CUtlVector@PAUface_t@@V?$CUtlMemory@PAUface_t@@@@@@IAEXH@Z 00440250 f i vbsp.obj
 0001:0003f280       ?GrowVector@?$CUtlVector@UOccluderInfo_t@@V?$CUtlMemory@UOccluderInfo_t@@@@@@IAEXH@Z 00440280 f i vbsp.obj
 0001:0003f2b0       ?ComputeOccluderBrushArea@@YAMPAUmapbrush_t@@@Z 004402b0 f   vbsp.obj
 0001:0003f320       ?SetOccluderArea@@YAXHHH@Z 00440320 f   vbsp.obj
 0001:0003f380       ?AssignAreaToOccluder@@YAXHPAUtree_t@@_N@Z 00440380 f   vbsp.obj
 0001:0003f570       ?AssignOccluderAreas@@YAXPAUtree_t@@@Z 00440570 f   vbsp.obj
 0001:0003f5c0       ?MarkNoDynamicShadowSides@@YAXXZ 004405c0 f   vbsp.obj
 0001:0003f620       ??0?$CUtlVector@PAUmapbrush_t@@V?$CUtlMemory@PAUmapbrush_t@@@@@@QAE@HH@Z 00440620 f i vbsp.obj
 0001:0003f670       ??1?$CUtlVector@PAUmapbrush_t@@V?$CUtlMemory@PAUmapbrush_t@@@@@@QAE@XZ 00440670 f i vbsp.obj
 0001:0003f6e0       ??0?$CUtlVector@PAUside_t@@V?$CUtlMemory@PAUside_t@@@@@@QAE@HH@Z 004406e0 f i vbsp.obj
 0001:0003f730       ??1?$CUtlVector@PAUside_t@@V?$CUtlMemory@PAUside_t@@@@@@QAE@XZ 00440730 f i vbsp.obj
 0001:0003f7a0       ??0?$CUtlVector@PAUface_t@@V?$CUtlMemory@PAUface_t@@@@@@QAE@HH@Z 004407a0 f i vbsp.obj
 0001:0003f7f0       ??1?$CUtlVector@PAUface_t@@V?$CUtlMemory@PAUface_t@@@@@@QAE@XZ 004407f0 f i vbsp.obj
 0001:0003f860       ??0?$CUtlVector@UOccluderInfo_t@@V?$CUtlMemory@UOccluderInfo_t@@@@@@QAE@HH@Z 00440860 f i vbsp.obj
 0001:0003f8b0       ??1?$CUtlVector@UOccluderInfo_t@@V?$CUtlMemory@UOccluderInfo_t@@@@@@QAE@XZ 004408b0 f i vbsp.obj
 0001:0003f920       ?InsertBefore@?$CUtlVector@Udoccluderdata_t@@V?$CUtlMemory@Udoccluderdata_t@@@@@@QAEHH@Z 00440920 f i vbsp.obj
 0001:0003f980       ?InsertBefore@?$CUtlVector@Udoccluderpolydata_t@@V?$CUtlMemory@Udoccluderpolydata_t@@@@@@QAEHH@Z 00440980 f i vbsp.obj
 0001:0003f9e0       ?InsertBefore@?$CUtlVector@PAUmapbrush_t@@V?$CUtlMemory@PAUmapbrush_t@@@@@@QAEHHABQAUmapbrush_t@@@Z 004409e0 f i vbsp.obj
 0001:0003fa50       ?InsertBefore@?$CUtlVector@PAUside_t@@V?$CUtlMemory@PAUside_t@@@@@@QAEHHABQAUside_t@@@Z 00440a50 f i vbsp.obj
 0001:0003fac0       ?InsertBefore@?$CUtlVector@PAUface_t@@V?$CUtlMemory@PAUface_t@@@@@@QAEHHABQAUface_t@@@Z 00440ac0 f i vbsp.obj
 0001:0003fb30       ?InsertBefore@?$CUtlVector@UOccluderInfo_t@@V?$CUtlMemory@UOccluderInfo_t@@@@@@QAEHH@Z 00440b30 f i vbsp.obj
 0001:0003fb90       ?ProcessWorldModel@@YAXXZ  00440b90 f   vbsp.obj
 0001:00040010       ?AddToTail@?$CUtlVector@Udoccluderdata_t@@V?$CUtlMemory@Udoccluderdata_t@@@@@@QAEHXZ 00441010 f i vbsp.obj
 0001:00040020       ?AddToTail@?$CUtlVector@Udoccluderpolydata_t@@V?$CUtlMemory@Udoccluderpolydata_t@@@@@@QAEHXZ 00441020 f i vbsp.obj
 0001:00040030       ?AddToTail@?$CUtlVector@PAUmapbrush_t@@V?$CUtlMemory@PAUmapbrush_t@@@@@@QAEHABQAUmapbrush_t@@@Z 00441030 f i vbsp.obj
 0001:00040050       ?AddToTail@?$CUtlVector@PAUside_t@@V?$CUtlMemory@PAUside_t@@@@@@QAEHABQAUside_t@@@Z 00441050 f i vbsp.obj
 0001:00040070       ?AddToTail@?$CUtlVector@PAUface_t@@V?$CUtlMemory@PAUface_t@@@@@@QAEHABQAUface_t@@@Z 00441070 f i vbsp.obj
 0001:00040090       ?AddToTail@?$CUtlVector@UOccluderInfo_t@@V?$CUtlMemory@UOccluderInfo_t@@@@@@QAEHXZ 00441090 f i vbsp.obj
 0001:000407a0       ?ProcessModels@@YAXXZ      004417a0 f   vbsp.obj
 0001:00040840       ?RunVBSP@@YAHHPAPAD@Z      00441840 f   vbsp.obj
 0001:00041680       _main                      00442680 f   vbsp.obj
 0001:00041690       _acosf                     00442690 f i vmatrix.obj
 0001:000416b0       ?acos@@YAMM@Z              004426b0 f i vmatrix.obj
 0001:000416d0       ??AQAngle@@QAEAAMH@Z       004426d0 f i vmatrix.obj
 0001:000416e0       ??AQAngle@@QBEMH@Z         004426e0 f i vmatrix.obj
 0001:000416f0       ??0VPlane@@QAE@XZ          004426f0 f i vmatrix.obj
 0001:00041700       ?GetPointOnPlane@VPlane@@QBE?AVVector@@XZ 00442700 f i vmatrix.obj
 0001:00041730       ??0Vector4D@@QAE@XZ        00442730 f i vmatrix.obj
 0001:00041740       ??AVector4D@@QAEAAMH@Z     00442740 f i vmatrix.obj
 0001:00041750       ??AVector4D@@QBEMH@Z       00442750 f i vmatrix.obj
 0001:00041760       ?AsVector3D@Vector4D@@QAEAAVVector@@XZ 00442760 f i vmatrix.obj
 0001:00041770       ?Vector4DCopy@@YAXABVVector4D@@AAV1@@Z 00442770 f i vmatrix.obj
 0001:00041790       ?SetPlane@Frustum_t@@QAEXHHABVVector@@M@Z 00442790 f i vmatrix.obj
 0001:00041820       ?SinCos@@YAXMPAM0@Z        00442820 f i vmatrix.obj
 0001:00041840       ??AVMatrix@@QAEPAMH@Z      00442840 f i vmatrix.obj
 0001:00041850       ??AVMatrix@@QBEPBMH@Z      00442850 f i vmatrix.obj
 0001:00041860       ?Base@VMatrix@@QAEPAMXZ    00442860 f i vmatrix.obj
 0001:00041870       ?GetBasisVectors@VMatrix@@QBEXAAVVector@@00@Z 00442870 f i vmatrix.obj
 0001:000418f0       ?GetTranslation@VMatrix@@QBEAAVVector@@AAV2@@Z 004428f0 f i vmatrix.obj
 0001:00041910       ?MatrixSetColumn@@YAXAAVVMatrix@@HABVVector@@@Z 00442910 f i vmatrix.obj
 0001:00041930       ?SetupMatrixProjection@@YA?AVVMatrix@@ABVVector@@ABVVPlane@@@Z 00442930 f   vmatrix.obj
 0001:00041a10       ??4VMatrix@@QAEAAV0@ABV0@@Z 00442a10 f   vmatrix.obj
 0001:00041a80       ??8VMatrix@@QBE_NABV0@@Z   00442a80 f   vmatrix.obj
 0001:00041b30       ?MatrixMul@VMatrix@@QBEXABV1@AAV1@@Z 00442b30 f   vmatrix.obj
 0001:00041dc0       ??DVMatrix@@QBE?AV0@ABV0@@Z 00442dc0 f   vmatrix.obj
 0001:00041de0       ?MatrixInverseGeneral@@YA_NABVVMatrix@@AAV1@@Z 00442de0 f   vmatrix.obj
 0001:00042110       ?GetScale@VMatrix@@QBE?AVVector@@XZ 00443110 f   vmatrix.obj
 0001:000421e0       ?NormalizeBasisVectors@VMatrix@@QBE?AV1@XZ 004431e0 f   vmatrix.obj
 0001:00042280       ?IsRotationMatrix@VMatrix@@QBE_NXZ 00443280 f   vmatrix.obj
 0001:00042440       ?SetupMatrixOrgAngles@VMatrix@@QAEXABVVector@@ABVQAngle@@@Z 00443440 f   vmatrix.obj
 0001:000425a0       ?MatrixSetIdentity@@YAXAAVVMatrix@@@Z 004435a0 f   vmatrix.obj
 0001:000425e0       ?MatrixFromAngles@@YAXABVQAngle@@AAVVMatrix@@@Z 004435e0 f   vmatrix.obj
 0001:00042600       ?MatrixToAngles@@YAXABVVMatrix@@AAVQAngle@@@Z 00443600 f   vmatrix.obj
 0001:00042730       ?Swap@@YAXAAM0@Z           00443730 f i vmatrix.obj
 0001:00042750       ?MatrixTranspose@@YAXABVVMatrix@@AAV1@@Z 00443750 f   vmatrix.obj
 0001:00042840       ?MatrixCopy@@YAXABVVMatrix@@AAV1@@Z 00443840 f   vmatrix.obj
 0001:00042860       ?MatrixMultiply@@YAXABVVMatrix@@0AAV1@@Z 00443860 f   vmatrix.obj
 0001:00042ae0       ?Vector4DMultiply@@YAXABVVMatrix@@ABVVector4D@@AAV2@@Z 00443ae0 f   vmatrix.obj
 0001:00042ba0       ?Vector4DMultiplyPosition@@YAXABVVMatrix@@ABVVector@@AAVVector4D@@@Z 00443ba0 f   vmatrix.obj
 0001:00042c60       ?Vector3DMultiply@@YAXABVVMatrix@@ABVVector@@AAV2@@Z 00443c60 f   vmatrix.obj
 0001:00042d00       ?Vector3DMultiplyPositionProjective@@YAXABVVMatrix@@ABVVector@@AAV2@@Z 00443d00 f   vmatrix.obj
 0001:00042e00       ?Vector3DMultiplyProjective@@YAXABVVMatrix@@ABVVector@@AAV2@@Z 00443e00 f   vmatrix.obj
 0001:00042f10       ?Vector4DMultiplyTranspose@@YAXABVVMatrix@@ABVVector4D@@AAV2@@Z 00443f10 f   vmatrix.obj
 0001:00042fe0       ?Vector3DMultiplyTranspose@@YAXABVVMatrix@@ABVVector@@AAV2@@Z 00443fe0 f   vmatrix.obj
 0001:00043080       ?MatrixTransformPlane@@YAXABVVMatrix@@ABUcplane_t@@AAU2@@Z 00444080 f   vmatrix.obj
 0001:00043110       ?MatrixBuildTranslation@@YAXAAVVMatrix@@MMM@Z 00444110 f   vmatrix.obj
 0001:00043160       ?MatrixBuildTranslation@@YAXAAVVMatrix@@ABVVector@@@Z 00444160 f   vmatrix.obj
 0001:000431b0       ?MatrixBuildRotationAboutAxis@@YAXAAVVMatrix@@ABVVector@@M@Z 004441b0 f   vmatrix.obj
 0001:000432e0       ?MatrixBuildRotation@@YAXAAVVMatrix@@ABVVector@@1@Z 004442e0 f   vmatrix.obj
 0001:000434c0       ?MatrixBuildRotateZ@@YAXAAVVMatrix@@M@Z 004444c0 f   vmatrix.obj
 0001:00043540       ?MatrixBuildScale@@YAXAAVVMatrix@@MMM@Z 00444540 f   vmatrix.obj
 0001:00043590       ?MatrixBuildScale@@YAXAAVVMatrix@@ABVVector@@@Z 00444590 f   vmatrix.obj
 0001:00043640       ?CalculateAABBFromProjectionMatrixInverse@@YAXABVVMatrix@@PAVVector@@1@Z 00444640 f   vmatrix.obj
 0001:000437d0       ?CalculateAABBFromProjectionMatrix@@YAXABVVMatrix@@PAVVector@@1@Z 004447d0 f   vmatrix.obj
 0001:00043900       ?FrustumPlanesFromMatrix@@YAXABVVMatrix@@AAVFrustum_t@@@Z 00444900 f   vmatrix.obj
 0001:00043b30       ??0VMatrix@@QAE@MMMMMMMMMMMMMMMM@Z 00444b30 f i vmatrix.obj
 0001:00043bb0       ?TransformPlane@VMatrix@@QBEXABVVPlane@@AAV2@@Z 00444bb0 f i vmatrix.obj
 0001:00043c40       ?SetupMatrixIdentity@@YA?AVVMatrix@@XZ 00444c40 f   vmatrix.obj
 0001:00043c80       ?SetupMatrixTranslation@@YA?AVVMatrix@@ABVVector@@@Z 00444c80 f   vmatrix.obj
 0001:00043cd0       ?SetupMatrixScale@@YA?AVVMatrix@@ABVVector@@@Z 00444cd0 f   vmatrix.obj
 0001:00043d20       ?SetupMatrixReflection@@YA?AVVMatrix@@ABVVPlane@@@Z 00444d20 f   vmatrix.obj
 0001:00043f50       ?SetupMatrixAxisRot@@YA?AVVMatrix@@ABVVector@@M@Z 00444f50 f   vmatrix.obj
 0001:00044080       ?SetupMatrixAngles@@YA?AVVMatrix@@ABVQAngle@@@Z 00445080 f   vmatrix.obj
 0001:000440a0       ?SetupMatrixOrgAngles@@YA?AVVMatrix@@ABVVector@@ABVQAngle@@@Z 004450a0 f   vmatrix.obj
 0001:000440c0       ?InverseGeneral@VMatrix@@QBE_NAAV1@@Z 004450c0 f   vmatrix.obj
 0001:000440e0       ?MatrixInverseTR@@YAXABVVMatrix@@AAV1@@Z 004450e0 f   vmatrix.obj
 0001:00044180       ?InverseTR@VMatrix@@QBEXAAV1@@Z 00445180 f   vmatrix.obj
 0001:000441a0       ?MatrixInverseTranspose@@YAXABVVMatrix@@AAV1@@Z 004451a0 f   vmatrix.obj
 0001:000441c0       ?InverseTR@VMatrix@@QBE?AV1@XZ 004451c0 f   vmatrix.obj
 0001:000441e0       ?Scale@VMatrix@@QAE?AV1@ABVVector@@@Z 004451e0 f   vmatrix.obj
 0001:00044270       ?Transpose@VMatrix@@QBE?AV1@XZ 00445270 f   vmatrix.obj
 0001:000442e0       ?Transpose3x3@VMatrix@@QBE?AV1@XZ 004452e0 f   vmatrix.obj
 0001:00044350       ??DVMatrix@@QBE?AVVPlane@@ABV1@@Z 00445350 f   vmatrix.obj
 0001:00044370       ?MatrixBuildPerspective@@YAXAAVVMatrix@@MMMM@Z 00445370 f   vmatrix.obj
 0001:00044510       ?CalculateSphereFromProjectionMatrixInverse@@YAXABVVMatrix@@PAVVector@@PAM@Z 00445510 f   vmatrix.obj
 0001:00044700       ?CalculateSphereFromProjectionMatrix@@YAXABVVMatrix@@PAVVector@@PAM@Z 00445700 f   vmatrix.obj
 0001:00044730       ?PlaneIntersection@@YA_NABVVPlane@@00AAVVector@@@Z 00445730 f   vmatrix.obj
 0001:00044800       ?MemAlloc_StrDup@@YAPADPBD@Z 00445800 f i writebsp.obj
 0001:00044860       ?StringLessThan@@YA_NABQBD0@Z 00445860 f i writebsp.obj
 0001:000448b0       ?CaselessStringLessThan@@YA_NABQBD0@Z 004458b0 f i writebsp.obj
 0001:000448d0       ?SetNumPrims@dface_t@@QAEXG@Z 004458d0 f i writebsp.obj
 0001:000448f0       ?SetDynamicShadowsEnabled@dface_t@@QAEX_N@Z 004458f0 f i writebsp.obj
 0001:00044910       ?EmitPlanes@@YAXXZ         00445910 f   writebsp.obj
 0001:00044a40       ?EmitMarkFace@@YAXPAUdleaf_t@@PAUface_t@@@Z 00445a40 f   writebsp.obj
 0001:00044af0       ?EmitLeaf@@YAXPAUnode_t@@@Z 00445af0 f   writebsp.obj
 0001:00044cb0       ?CreateOrigFace@@YAHPAUface_t@@@Z 00445cb0 f   writebsp.obj
 0001:00044f10       ?FindOrigFace@@YAHPAUface_t@@@Z 00445f10 f   writebsp.obj
 0001:00044f70       ?FindOrCreateOrigFace@@YAHPAUface_t@@@Z 00445f70 f   writebsp.obj
 0001:00044fa0       ?FreeLeafFaces@@YAXPAUface_t@@@Z 00445fa0 f   writebsp.obj
 0001:00044fd0       ?MarkNoShadowFaces@@YAXXZ  00445fd0 f   writebsp.obj
 0001:00044fe0       ?SetModelNumbers@@YAXXZ    00445fe0 f   writebsp.obj
 0001:00045070       ?SetLightStyles@@YAXXZ     00446070 f   writebsp.obj
 0001:00045200       ?EmitBrushes@@YAXXZ        00446200 f   writebsp.obj
 0001:000453f0       ?BeginBSPFile@@YAXXZ       004463f0 f   writebsp.obj
 0001:00045450       ?EnsurePresenceOfWaterLODControlEntity@@YAXXZ 00446450 f   writebsp.obj
 0001:00045520       ?BeginModel@@YAXXZ         00446520 f   writebsp.obj
 0001:00045620       ?EndModel@@YAXXZ           00446620 f   writebsp.obj
 0001:000456c0       ?PointLeafnum@@YAHPAUdmodel_t@@ABVVector@@@Z 004466c0 f   writebsp.obj
 0001:000456e0       ?Count@?$CUtlVector@Vddispinfo_t@@V?$CUtlMemory@Vddispinfo_t@@@@@@QBEHXZ 004466e0 f i writebsp.obj
 0001:000456f0       ?Count@?$CUtlVector@Udtexdata_t@@V?$CUtlMemory@Udtexdata_t@@@@@@QBEHXZ 004466f0 f i writebsp.obj
 0001:00045700       ??0CKeyLess@?$CUtlMap@PBDHH@@QAE@P6A_NABQBD0@Z@Z 00446700 f i writebsp.obj
 0001:00045710       ??0Node_t@?$CUtlMap@PBDHH@@QAE@XZ 00446710 f i writebsp.obj
 0001:00045720       ??$Destruct@Utexinfo_s@@@@YAXPAUtexinfo_s@@@Z 00446720 f i writebsp.obj
 0001:00045730       ?Base@?$CUtlMemory@Udtexdata_t@@@@QAEPAUdtexdata_t@@XZ 00446730 f i writebsp.obj
 0001:00045740       ?InvalidIndex@?$CUtlRBTree@UNode_t@?$CUtlMap@PBDHH@@HVCKeyLess@2@@@SAHXZ 00446740 f i writebsp.obj
 0001:00045750       ?Base@?$CUtlMemory@VCFaceMacroTextureInfo@@@@QAEPAVCFaceMacroTextureInfo@@XZ 00446750 f i writebsp.obj
 0001:00045760       ?ValidateGrowSize@?$CUtlMemory@Utexinfo_s@@@@IAEXXZ 00446760 f i writebsp.obj
 0001:00045770       ?ValidateGrowSize@?$CUtlMemory@Udtexdata_t@@@@IAEXXZ 00446770 f i writebsp.obj
 0001:00045780       ??7CKeyLess@?$CUtlMap@PBDHH@@QBE_NXZ 00446780 f i writebsp.obj
 0001:00045790       ??RCKeyLess@?$CUtlMap@PBDHH@@QBE_NABUNode_t@1@0@Z 00446790 f i writebsp.obj
 0001:000457b0       ?Base@?$CUtlMemory@UNode_t@?$CUtlRBTree@UNode_t@?$CUtlMap@PBDHH@@HVCKeyLess@2@@@@@QAEPAUNode_t@?$CUtlRBTree@UNode_t@?$CUtlMap@PBDHH@@HVCKeyLess@2@@@XZ 004467b0 f i writebsp.obj
 0001:000457c0       ?ValidateGrowSize@?$CUtlMemory@UNode_t@?$CUtlRBTree@UNode_t@?$CUtlMap@PBDHH@@HVCKeyLess@2@@@@@IAEXXZ 004467c0 f i writebsp.obj
 0001:000457d0       ??0Node_t@?$CUtlMap@PBDHH@@QAE@ABU01@@Z 004467d0 f i writebsp.obj
 0001:000457f0       ??$Destruct@VCFaceMacroTextureInfo@@@@YAXPAVCFaceMacroTextureInfo@@@Z 004467f0 f i writebsp.obj
 0001:00045800       ??$Destruct@Udtexdata_t@@@@YAXPAUdtexdata_t@@@Z 00446800 f i writebsp.obj
 0001:00045810       ?IsExternallyAllocated@?$CUtlMemory@Udtexdata_t@@@@QBE_NXZ 00446810 f i writebsp.obj
 0001:00045820       ??A?$CUtlMemory@UNode_t@?$CUtlRBTree@UNode_t@?$CUtlMap@PBDHH@@HVCKeyLess@2@@@@@QBEABUNode_t@?$CUtlRBTree@UNode_t@?$CUtlMap@PBDHH@@HVCKeyLess@2@@@H@Z 00446820 f i writebsp.obj
 0001:00045830       ??A?$CUtlMemory@UNode_t@?$CUtlRBTree@UNode_t@?$CUtlMap@PBDHH@@HVCKeyLess@2@@@@@QAEAAUNode_t@?$CUtlRBTree@UNode_t@?$CUtlMap@PBDHH@@HVCKeyLess@2@@@H@Z 00446830 f i writebsp.obj
 0001:00045840       ??$Destruct@UNode_t@?$CUtlMap@PBDHH@@@@YAXPAUNode_t@?$CUtlMap@PBDHH@@@Z 00446840 f i writebsp.obj
 0001:00045850       ??$Construct@VCFaceMacroTextureInfo@@@@YAXPAVCFaceMacroTextureInfo@@@Z 00446850 f i writebsp.obj
 0001:00045860       ?Links@?$CUtlRBTree@UNode_t@?$CUtlMap@PBDHH@@HVCKeyLess@2@@@IAEAAULinks_t@1@H@Z 00446860 f i writebsp.obj
 0001:00045870       ?IsIdxValid@?$CUtlMemory@UNode_t@?$CUtlRBTree@UNode_t@?$CUtlMap@PBDHH@@HVCKeyLess@2@@@@@QBE_NH@Z 00446870 f i writebsp.obj
 0001:00045890       ?NumAllocated@?$CUtlMemory@UNode_t@?$CUtlRBTree@UNode_t@?$CUtlMap@PBDHH@@HVCKeyLess@2@@@@@QBEHXZ 00446890 f i writebsp.obj
 0001:000458a0       ?IsExternallyAllocated@?$CUtlMemory@UNode_t@?$CUtlRBTree@UNode_t@?$CUtlMap@PBDHH@@HVCKeyLess@2@@@@@QBE_NXZ 004468a0 f i writebsp.obj
 0001:000458b0       ??$Construct@UNode_t@?$CUtlMap@PBDHH@@@@YAXPAUNode_t@?$CUtlMap@PBDHH@@@Z 004468b0 f i writebsp.obj
 0001:000458c0       ??$Construct@Utexinfo_s@@@@YAXPAUtexinfo_s@@@Z 004468c0 f i writebsp.obj
 0001:000458d0       ?NumAllocated@?$CUtlMemory@VCFaceMacroTextureInfo@@@@QBEHXZ 004468d0 f i writebsp.obj
 0001:000458e0       ?IsRoot@?$CUtlRBTree@UNode_t@?$CUtlMap@PBDHH@@HVCKeyLess@2@@@QBE_NH@Z 004468e0 f i writebsp.obj
 0001:000458f0       ?SetColor@?$CUtlRBTree@UNode_t@?$CUtlMap@PBDHH@@HVCKeyLess@2@@@IAEXHW4NodeColor_t@1@@Z 004468f0 f i writebsp.obj
 0001:00045910       ??0dtexdata_t@@QAE@XZ      00446910 f i writebsp.obj
 0001:00045920       ?IsExternallyAllocated@?$CUtlMemory@VCFaceMacroTextureInfo@@@@QBE_NXZ 00446920 f i writebsp.obj
 0001:00045930       ?NumAllocated@?$CUtlMemory@Udtexdata_t@@@@QBEHXZ 00446930 f i writebsp.obj
 0001:00045940       ?Grow@?$CUtlMemory@Udtexdata_t@@@@QAEXH@Z 00446940 f i writebsp.obj
 0001:000459b0       ?SetParent@?$CUtlRBTree@UNode_t@?$CUtlMap@PBDHH@@HVCKeyLess@2@@@IAEXHH@Z 004469b0 f i writebsp.obj
 0001:000459d0       ?Base@?$CUtlVector@VCFaceMacroTextureInfo@@V?$CUtlMemory@VCFaceMacroTextureInfo@@@@@@QAEPAVCFaceMacroTextureInfo@@XZ 004469d0 f i writebsp.obj
 0001:000459e0       ?Base@?$CUtlVector@Udtexdata_t@@V?$CUtlMemory@Udtexdata_t@@@@@@QAEPAUdtexdata_t@@XZ 004469e0 f i writebsp.obj
 0001:000459f0       ?ResetDbgInfo@?$CUtlVector@Udtexdata_t@@V?$CUtlMemory@Udtexdata_t@@@@@@IAEXXZ 004469f0 f i writebsp.obj
 0001:00045a00       ?InvalidIndex@?$CUtlMap@PBDHH@@SAHXZ 00446a00 f i writebsp.obj
 0001:00045a10       ??0?$CUtlMemory@Utexinfo_s@@@@QAE@HH@Z 00446a10 f i writebsp.obj
 0001:00045a50       ??0?$CUtlMemory@Udtexdata_t@@@@QAE@HH@Z 00446a50 f i writebsp.obj
 0001:00045a90       ?SetLessFunc@?$CUtlRBTree@UNode_t@?$CUtlMap@PBDHH@@HVCKeyLess@2@@@QAEXABVCKeyLess@?$CUtlMap@PBDHH@@@Z 00446a90 f i writebsp.obj
 0001:00045aa0       ?ResetDbgInfo@?$CUtlRBTree@UNode_t@?$CUtlMap@PBDHH@@HVCKeyLess@2@@@IAEXXZ 00446aa0 f i writebsp.obj
 0001:00045ab0       ?Purge@?$CUtlMemory@Utexinfo_s@@@@QAEXXZ 00446ab0 f i writebsp.obj
 0001:00045ae0       ?Purge@?$CUtlMemory@Udtexdata_t@@@@QAEXXZ 00446ae0 f i writebsp.obj
 0001:00045b10       ?Element@?$CUtlRBTree@UNode_t@?$CUtlMap@PBDHH@@HVCKeyLess@2@@@QBEABUNode_t@?$CUtlMap@PBDHH@@H@Z 00446b10 f i writebsp.obj
 0001:00045b30       ?Element@?$CUtlRBTree@UNode_t@?$CUtlMap@PBDHH@@HVCKeyLess@2@@@QAEAAUNode_t@?$CUtlMap@PBDHH@@H@Z 00446b30 f i writebsp.obj
 0001:00045b50       ??0?$CUtlMemory@UNode_t@?$CUtlRBTree@UNode_t@?$CUtlMap@PBDHH@@HVCKeyLess@2@@@@@QAE@HH@Z 00446b50 f i writebsp.obj
 0001:00045b90       ??$CopyConstruct@UNode_t@?$CUtlMap@PBDHH@@@@YAXPAUNode_t@?$CUtlMap@PBDHH@@ABU01@@Z 00446b90 f i writebsp.obj
 0001:00045bb0       ?Key@?$CUtlMap@PBDHH@@QAEAAPBDH@Z 00446bb0 f i writebsp.obj
 0001:00045bd0       ?Element@?$CUtlVector@VCFaceMacroTextureInfo@@V?$CUtlMemory@VCFaceMacroTextureInfo@@@@@@QAEAAVCFaceMacroTextureInfo@@H@Z 00446bd0 f i writebsp.obj
 0001:00045be0       ?Element@?$CUtlVector@Udtexdata_t@@V?$CUtlMemory@Udtexdata_t@@@@@@QAEAAUdtexdata_t@@H@Z 00446be0 f i writebsp.obj
 0001:00045bf0       ?Links@?$CUtlRBTree@UNode_t@?$CUtlMap@PBDHH@@HVCKeyLess@2@@@IBEABULinks_t@1@H@Z 00446bf0 f i writebsp.obj
 0001:00045c40       ?Purge@?$CUtlMemory@UNode_t@?$CUtlRBTree@UNode_t@?$CUtlMap@PBDHH@@HVCKeyLess@2@@@@@QAEXXZ 00446c40 f i writebsp.obj
 0001:00045c70       ?ShiftElementsRight@?$CUtlVector@VCFaceMacroTextureInfo@@V?$CUtlMemory@VCFaceMacroTextureInfo@@@@@@IAEXHH@Z 00446c70 f i writebsp.obj
 0001:00045cb0       ?Parent@?$CUtlRBTree@UNode_t@?$CUtlMap@PBDHH@@HVCKeyLess@2@@@QBEHH@Z 00446cb0 f i writebsp.obj
 0001:00045d00       ?SetLeftChild@?$CUtlRBTree@UNode_t@?$CUtlMap@PBDHH@@HVCKeyLess@2@@@IAEXHH@Z 00446d00 f i writebsp.obj
 0001:00045d20       ?SetRightChild@?$CUtlRBTree@UNode_t@?$CUtlMap@PBDHH@@HVCKeyLess@2@@@IAEXHH@Z 00446d20 f i writebsp.obj
 0001:00045d40       ?Grow@?$CUtlMemory@UNode_t@?$CUtlRBTree@UNode_t@?$CUtlMap@PBDHH@@HVCKeyLess@2@@@@@QAEXH@Z 00446d40 f i writebsp.obj
 0001:00045dc0       ?ResetDbgInfo@?$CUtlVector@VCFaceMacroTextureInfo@@V?$CUtlMemory@VCFaceMacroTextureInfo@@@@@@IAEXXZ 00446dc0 f i writebsp.obj
 0001:00045dd0       ?Grow@?$CUtlMemory@VCFaceMacroTextureInfo@@@@QAEXH@Z 00446dd0 f i writebsp.obj
 0001:00045e40       ?GrowVector@?$CUtlVector@Udtexdata_t@@V?$CUtlMemory@Udtexdata_t@@@@@@IAEXH@Z 00446e40 f i writebsp.obj
 0001:00045e70       ?ShiftElementsRight@?$CUtlVector@Udtexdata_t@@V?$CUtlMemory@Udtexdata_t@@@@@@IAEXHH@Z 00446e70 f i writebsp.obj
 0001:00045eb0       ??$Construct@Udtexdata_t@@@@YAXPAUdtexdata_t@@@Z 00446eb0 f i writebsp.obj
 0001:00045ec0       ?IsRed@?$CUtlRBTree@UNode_t@?$CUtlMap@PBDHH@@HVCKeyLess@2@@@IBE_NH@Z 00446ec0 f i writebsp.obj
 0001:00045f20       ?Color@?$CUtlRBTree@UNode_t@?$CUtlMap@PBDHH@@HVCKeyLess@2@@@IBE?AW4NodeColor_t@1@H@Z 00446f20 f i writebsp.obj
 0001:00045f70       ?EmitFace@@YAXPAUface_t@@H@Z 00446f70 f   writebsp.obj
 0001:00046160       ?EmitLeafFaces@@YAXPAUface_t@@@Z 00447160 f   writebsp.obj
 0001:00046190       ?EmitDrawNode_r@@YAHPAUnode_t@@@Z 00447190 f   writebsp.obj
 0001:00046300       ?FindMatchingBrushSideTexinfo@@YAHHPBUtexinfomap_t@@@Z 00447300 f   writebsp.obj
 0001:00046370       ?WriteBSP@@YAXPAUnode_t@@PAUface_t@@@Z 00447370 f   writebsp.obj
 0001:00046650       ?IsBoxInsideWorld@@YA_NHAAV?$CUtlVector@HV?$CUtlMemory@H@@@@ABVVector@@1@Z 00447650 f   writebsp.obj
 0001:00046710       ?AddDispsToBounds@@YAXHAAV?$CUtlVector@HV?$CUtlMemory@H@@@@AAVVector@@1@Z 00447710 f   writebsp.obj
 0001:00046790       ?RemoveAll@?$CUtlVector@Utexinfo_s@@V?$CUtlMemory@Utexinfo_s@@@@@@QAEXXZ 00447790 f i writebsp.obj
 0001:000467a0       ??A?$CUtlVector@VCFaceMacroTextureInfo@@V?$CUtlMemory@VCFaceMacroTextureInfo@@@@@@QAEAAVCFaceMacroTextureInfo@@H@Z 004477a0 f i writebsp.obj
 0001:000467b0       ??A?$CUtlVector@Udtexdata_t@@V?$CUtlMemory@Udtexdata_t@@@@@@QAEAAUdtexdata_t@@H@Z 004477b0 f i writebsp.obj
 0001:000467c0       ?InvalidIndex@?$CUtlDict@HH@@SAHXZ 004477c0 f i writebsp.obj
 0001:000467d0       ?SetLessFunc@?$CUtlMap@PBDHH@@QAEXP6A_NABQBD0@Z@Z 004477d0 f i writebsp.obj
 0001:000467e0       ??1?$CUtlMemory@Utexinfo_s@@@@QAE@XZ 004477e0 f i writebsp.obj
 0001:00046810       ?Purge@?$CUtlVector@Utexinfo_s@@V?$CUtlMemory@Utexinfo_s@@@@@@QAEXXZ 00447810 f i writebsp.obj
 0001:00046860       ??1?$CUtlMemory@Udtexdata_t@@@@QAE@XZ 00447860 f i writebsp.obj
 0001:00046890       ?RemoveAll@?$CUtlVector@VCFaceMacroTextureInfo@@V?$CUtlMemory@VCFaceMacroTextureInfo@@@@@@QAEXXZ 00447890 f i writebsp.obj
 0001:000468a0       ?RemoveAll@?$CUtlVector@Udtexdata_t@@V?$CUtlMemory@Udtexdata_t@@@@@@QAEXXZ 004478a0 f i writebsp.obj
 0001:000468b0       ?LeftChild@?$CUtlRBTree@UNode_t@?$CUtlMap@PBDHH@@HVCKeyLess@2@@@QBEHH@Z 004478b0 f i writebsp.obj
 0001:00046900       ?RightChild@?$CUtlRBTree@UNode_t@?$CUtlMap@PBDHH@@HVCKeyLess@2@@@QBEHH@Z 00447900 f i writebsp.obj
 0001:00046950       ?FindInsertionPosition@?$CUtlRBTree@UNode_t@?$CUtlMap@PBDHH@@HVCKeyLess@2@@@IAEXABUNode_t@?$CUtlMap@PBDHH@@AAHAA_N@Z 00447950 f i writebsp.obj
 0001:00046a40       ??1?$CUtlMemory@UNode_t@?$CUtlRBTree@UNode_t@?$CUtlMap@PBDHH@@HVCKeyLess@2@@@@@QAE@XZ 00447a40 f i writebsp.obj
 0001:00046a70       ?IsValidIndex@?$CUtlRBTree@UNode_t@?$CUtlMap@PBDHH@@HVCKeyLess@2@@@QBE_NH@Z 00447a70 f i writebsp.obj
 0001:00046aa0       ?NewNode@?$CUtlRBTree@UNode_t@?$CUtlMap@PBDHH@@HVCKeyLess@2@@@QAEHXZ 00447aa0 f i writebsp.obj
 0001:00046af0       ?RemoveAll@?$CUtlRBTree@UNode_t@?$CUtlMap@PBDHH@@HVCKeyLess@2@@@QAEXXZ 00447af0 f i writebsp.obj
 0001:00046b80       ?FirstInorder@?$CUtlRBTree@UNode_t@?$CUtlMap@PBDHH@@HVCKeyLess@2@@@QBEHXZ 00447b80 f i writebsp.obj
 0001:00046c20       ?InsertMultipleBefore@?$CUtlVector@Utexinfo_s@@V?$CUtlMemory@Utexinfo_s@@@@@@QAEHHHPBUtexinfo_s@@@Z 00447c20 f i writebsp.obj
 0001:00046ce0       ?GrowVector@?$CUtlVector@VCFaceMacroTextureInfo@@V?$CUtlMemory@VCFaceMacroTextureInfo@@@@@@IAEXH@Z 00447ce0 f i writebsp.obj
 0001:00046d10       ?InsertMultipleBefore@?$CUtlVector@Udtexdata_t@@V?$CUtlMemory@Udtexdata_t@@@@@@QAEHHHPBUdtexdata_t@@@Z 00447d10 f i writebsp.obj
 0001:00046f20       ?IsRightChild@?$CUtlRBTree@UNode_t@?$CUtlMap@PBDHH@@HVCKeyLess@2@@@QBE_NH@Z 00447f20 f i writebsp.obj
 0001:00046f50       ?IsLeftChild@?$CUtlRBTree@UNode_t@?$CUtlMap@PBDHH@@HVCKeyLess@2@@@QBE_NH@Z 00447f50 f i writebsp.obj
 0001:00046fc0       ?RotateLeft@?$CUtlRBTree@UNode_t@?$CUtlMap@PBDHH@@HVCKeyLess@2@@@IAEXH@Z 00447fc0 f i writebsp.obj
 0001:000470f0       ?RotateRight@?$CUtlRBTree@UNode_t@?$CUtlMap@PBDHH@@HVCKeyLess@2@@@IAEXH@Z 004480f0 f i writebsp.obj
 0001:000471f0       ??0?$CUtlVector@Utexinfo_s@@V?$CUtlMemory@Utexinfo_s@@@@@@QAE@HH@Z 004481f0 f i writebsp.obj
 0001:00047240       ??1?$CUtlVector@Utexinfo_s@@V?$CUtlMemory@Utexinfo_s@@@@@@QAE@XZ 00448240 f i writebsp.obj
 0001:000472b0       ??0?$CUtlVector@Udtexdata_t@@V?$CUtlMemory@Udtexdata_t@@@@@@QAE@HH@Z 004482b0 f i writebsp.obj
 0001:00047300       ?Purge@?$CUtlVector@Udtexdata_t@@V?$CUtlMemory@Udtexdata_t@@@@@@QAEXXZ 00448300 f i writebsp.obj
 0001:00047350       ??0?$CUtlRBTree@UNode_t@?$CUtlMap@PBDHH@@HVCKeyLess@2@@@QAE@HHABVCKeyLess@?$CUtlMap@PBDHH@@@Z 00448350 f i writebsp.obj
 0001:000473c0       ?Find@?$CUtlRBTree@UNode_t@?$CUtlMap@PBDHH@@HVCKeyLess@2@@@QBEHABUNode_t@?$CUtlMap@PBDHH@@@Z 004483c0 f i writebsp.obj
 0001:000474b0       ?Purge@?$CUtlRBTree@UNode_t@?$CUtlMap@PBDHH@@HVCKeyLess@2@@@QAEXXZ 004484b0 f i writebsp.obj
 0001:00047540       ?RemoveAll@?$CUtlMap@PBDHH@@QAEXXZ 00448540 f i writebsp.obj
 0001:00047550       ?FirstInorder@?$CUtlMap@PBDHH@@QBEHXZ 00448550 f i writebsp.obj
 0001:00047560       ?AddMultipleToTail@?$CUtlVector@Utexinfo_s@@V?$CUtlMemory@Utexinfo_s@@@@@@QAEHHPBUtexinfo_s@@@Z 00448560 f i writebsp.obj
 0001:00047580       ?InsertMultipleBefore@?$CUtlVector@VCFaceMacroTextureInfo@@V?$CUtlMemory@VCFaceMacroTextureInfo@@@@@@QAEHHHPBVCFaceMacroTextureInfo@@@Z 00448580 f i writebsp.obj
 0001:00047620       ?AddMultipleToTail@?$CUtlVector@Udtexdata_t@@V?$CUtlMemory@Udtexdata_t@@@@@@QAEHHPBUdtexdata_t@@@Z 00448620 f i writebsp.obj
 0001:00047640       ?NextInorder@?$CUtlRBTree@UNode_t@?$CUtlMap@PBDHH@@HVCKeyLess@2@@@QBEHH@Z 00448640 f i writebsp.obj
 0001:000477d0       ?InsertRebalance@?$CUtlRBTree@UNode_t@?$CUtlMap@PBDHH@@HVCKeyLess@2@@@IAEXH@Z 004487d0 f i writebsp.obj
 0001:00047d10       ??1?$CUtlVector@Udtexdata_t@@V?$CUtlMemory@Udtexdata_t@@@@@@QAE@XZ 00448d10 f i writebsp.obj
 0001:00047d80       ?Find@?$CUtlMap@PBDHH@@QBEHABQBD@Z 00448d80 f i writebsp.obj
 0001:00047da0       ??1?$CUtlRBTree@UNode_t@?$CUtlMap@PBDHH@@HVCKeyLess@2@@@QAE@XZ 00448da0 f i writebsp.obj
 0001:00047de0       ?SetCount@?$CUtlVector@Utexinfo_s@@V?$CUtlMemory@Utexinfo_s@@@@@@QAEXH@Z 00448de0 f i writebsp.obj
 0001:00047e00       ?AddMultipleToTail@?$CUtlVector@VCFaceMacroTextureInfo@@V?$CUtlMemory@VCFaceMacroTextureInfo@@@@@@QAEHHPBVCFaceMacroTextureInfo@@@Z 00448e00 f i writebsp.obj
 0001:00047e20       ?SetCount@?$CUtlVector@Udtexdata_t@@V?$CUtlMemory@Udtexdata_t@@@@@@QAEXH@Z 00448e20 f i writebsp.obj
 0001:00047e40       ?NextInorder@?$CUtlMap@PBDHH@@QBEHH@Z 00448e40 f i writebsp.obj
 0001:00047e50       ?LinkToParent@?$CUtlRBTree@UNode_t@?$CUtlMap@PBDHH@@HVCKeyLess@2@@@IAEXHH_N@Z 00448e50 f i writebsp.obj
 0001:00047fc0       ?ComputeBoundsNoSkybox@@YAXXZ 00448fc0 f   writebsp.obj
 0001:00048160       ?Find@?$CUtlDict@HH@@QBEHPBD@Z 00449160 f i writebsp.obj
 0001:00048190       ??1?$CUtlMap@PBDHH@@QAE@XZ 00449190 f i writebsp.obj
 0001:000481d0       ??0?$CUtlMap@PBDHH@@QAE@HHP6A_NABQBD0@Z@Z 004491d0 f i writebsp.obj
 0001:00048200       ?SetSize@?$CUtlVector@Utexinfo_s@@V?$CUtlMemory@Utexinfo_s@@@@@@QAEXH@Z 00449200 f i writebsp.obj
 0001:00048220       ?SetCount@?$CUtlVector@VCFaceMacroTextureInfo@@V?$CUtlMemory@VCFaceMacroTextureInfo@@@@@@QAEXH@Z 00449220 f i writebsp.obj
 0001:00048240       ?SetSize@?$CUtlVector@Udtexdata_t@@V?$CUtlMemory@Udtexdata_t@@@@@@QAEXH@Z 00449240 f i writebsp.obj
 0001:00048260       ?RemoveAll@?$CUtlDict@HH@@QAEXXZ 00449260 f i writebsp.obj
 0001:000482b0       ?InsertAt@?$CUtlRBTree@UNode_t@?$CUtlMap@PBDHH@@HVCKeyLess@2@@@IAEHH_N@Z 004492b0 f i writebsp.obj
 0001:00048310       ?CopyArray@?$CUtlVector@Utexinfo_s@@V?$CUtlMemory@Utexinfo_s@@@@@@QAEXPBUtexinfo_s@@H@Z 00449310 f i writebsp.obj
 0001:00048360       ?SetSize@?$CUtlVector@VCFaceMacroTextureInfo@@V?$CUtlMemory@VCFaceMacroTextureInfo@@@@@@QAEXH@Z 00449360 f i writebsp.obj
 0001:00048380       ?CopyArray@?$CUtlVector@Udtexdata_t@@V?$CUtlMemory@Udtexdata_t@@@@@@QAEXPBUdtexdata_t@@H@Z 00449380 f i writebsp.obj
 0001:00048540       ??0?$CUtlDict@HH@@QAE@_NHH@Z 00449540 f i writebsp.obj
 0001:00048590       ?Purge@?$CUtlDict@HH@@QAEXXZ 00449590 f i writebsp.obj
 0001:000485a0       ?Insert@?$CUtlRBTree@UNode_t@?$CUtlMap@PBDHH@@HVCKeyLess@2@@@QAEHABUNode_t@?$CUtlMap@PBDHH@@@Z 004495a0 f i writebsp.obj
 0001:000485f0       ?ComapctTexinfoArray@@YAXPAUtexinfomap_t@@@Z 004495f0 f   writebsp.obj
 0001:000486d0       ?CompactTexdataArray@@YAXPAUtexdatamap_t@@@Z 004496d0 f   writebsp.obj
 0001:000488a0       ?CompactTexinfos@@YAXXZ    004498a0 f   writebsp.obj
 0001:00048c70       ??1?$CUtlDict@HH@@QAE@XZ   00449c70 f i writebsp.obj
 0001:00048cb0       ?Insert@?$CUtlMap@PBDHH@@QAEHABQBDABH@Z 00449cb0 f i writebsp.obj
 0001:00048d20       ?Insert@?$CUtlDict@HH@@QAEHPBDABH@Z 00449d20 f i writebsp.obj
 0001:00048d50       ?DiscoverMacroTextures@@YAXXZ 00449d50 f   writebsp.obj
 0001:00048eb0       ?EndBSPFile@@YAXXZ         00449eb0 f   writebsp.obj
 0001:00048f60       ?TellGet@CUtlBuffer@@QBEHXZ 00449f60 f i zip_utils.obj
 0001:00048f70       ??0IWriteStream@@QAE@XZ    00449f70 f i zip_utils.obj
 0001:00048f80       ??0CFileStream@@QAE@PAU_iobuf@@@Z 00449f80 f i zip_utils.obj
 0001:00048fa0       ?Put@CFileStream@@UAEXPBXH@Z 00449fa0 f i zip_utils.obj
 0001:00048fc0       ?Tell@CFileStream@@UAEHXZ  00449fc0 f i zip_utils.obj
 0001:00048fd0       ??0CZipEntry@CZipFile@@QAE@XZ 00449fd0 f   zip_utils.obj
 0001:00049000       ??0CZipEntry@CZipFile@@QAE@ABV01@@Z 0044a000 f   zip_utils.obj
 0001:00049060       ??1CZipEntry@CZipFile@@QAE@XZ 0044a060 f   zip_utils.obj
 0001:00049070       ?ZipFileLessFunc@CZipEntry@CZipFile@@SA_NABV12@0@Z 0044a070 f   zip_utils.obj
 0001:00049090       ?ForceAlignment@CZipFile@@QAEX_NI@Z 0044a090 f   zip_utils.obj
 0001:000490b0       ?GetAlignment@CZipFile@@QAEIXZ 0044a0b0 f   zip_utils.obj
 0001:000490c0       ??0TmpFileInfo_t@CZipFile@@QAE@XZ 0044a0c0 f i zip_utils.obj
 0001:00049130       ?CalculatePadding@CZipFile@@AAEGIH@Z 0044a130 f   zip_utils.obj
 0001:00049160       ?SetAlignment@@YAXAAPAXAAI@Z 0044a160 f   zip_utils.obj
 0001:000491a0       ??0IZip@@QAE@XZ            0044a1a0 f i zip_utils.obj
 0001:000491b0       ?ForceAlignment@CZip@@UAEX_NI@Z 0044a1b0 f   zip_utils.obj
 0001:000491d0       ?GetAlignment@CZip@@UAEIXZ 0044a1d0 f   zip_utils.obj
 0001:000491e0       ?InvalidIndex@?$CUtlRBTree@VCZipEntry@CZipFile@@HP6A_NABV12@0@Z@@SAHXZ 0044a1e0 f i zip_utils.obj
 0001:000491f0       ?Base@?$CUtlMemory@UNode_t@?$CUtlRBTree@VCZipEntry@CZipFile@@HP6A_NABV12@0@Z@@@@QAEPAUNode_t@?$CUtlRBTree@VCZipEntry@CZipFile@@HP6A_NABV12@0@Z@@XZ 0044a1f0 f i zip_utils.obj
 0001:00049200       ??$CopyConstruct@VCZipEntry@CZipFile@@@@YAXPAVCZipEntry@CZipFile@@ABV01@@Z 0044a200 f i zip_utils.obj
 0001:00049220       ??_GCZipEntry@CZipFile@@QAEPAXI@Z 0044a220 f i zip_utils.obj
 0001:00049250       ?ValidateGrowSize@?$CUtlMemory@UNode_t@?$CUtlRBTree@VCZipEntry@CZipFile@@HP6A_NABV12@0@Z@@@@IAEXXZ 0044a250 f i zip_utils.obj
 0001:00049260       ??A?$CUtlMemory@UNode_t@?$CUtlRBTree@VCZipEntry@CZipFile@@HP6A_NABV12@0@Z@@@@QBEABUNode_t@?$CUtlRBTree@VCZipEntry@CZipFile@@HP6A_NABV12@0@Z@@H@Z 0044a260 f i zip_utils.obj
 0001:00049270       ??A?$CUtlMemory@UNode_t@?$CUtlRBTree@VCZipEntry@CZipFile@@HP6A_NABV12@0@Z@@@@QAEAAUNode_t@?$CUtlRBTree@VCZipEntry@CZipFile@@HP6A_NABV12@0@Z@@H@Z 0044a270 f i zip_utils.obj
 0001:00049280       ?IsIdxValid@?$CUtlMemory@UNode_t@?$CUtlRBTree@VCZipEntry@CZipFile@@HP6A_NABV12@0@Z@@@@QBE_NH@Z 0044a280 f i zip_utils.obj
 0001:000492a0       ?IsRoot@?$CUtlRBTree@VCZipEntry@CZipFile@@HP6A_NABV12@0@Z@@QBE_NH@Z 0044a2a0 f i zip_utils.obj
 0001:000492b0       ?NumAllocated@?$CUtlMemory@UNode_t@?$CUtlRBTree@VCZipEntry@CZipFile@@HP6A_NABV12@0@Z@@@@QBEHXZ 0044a2b0 f i zip_utils.obj
 0001:000492c0       ?IsExternallyAllocated@?$CUtlMemory@UNode_t@?$CUtlRBTree@VCZipEntry@CZipFile@@HP6A_NABV12@0@Z@@@@QBE_NXZ 0044a2c0 f i zip_utils.obj
 0001:000492d0       ??$Construct@VCZipEntry@CZipFile@@@@YAXPAVCZipEntry@CZipFile@@@Z 0044a2d0 f i zip_utils.obj
 0001:00049310       ?WasLastCharacterCR@CUtlBuffer@@IAE_NXZ 0044a310 f i zip_utils.obj
 0001:00049340       ??0CBufferStream@@QAE@AAVCUtlBuffer@@@Z 0044a340 f i zip_utils.obj
 0001:00049360       ?Put@CBufferStream@@UAEXPBXH@Z 0044a360 f i zip_utils.obj
 0001:00049370       ?Tell@CBufferStream@@UAEHXZ 0044a370 f i zip_utils.obj
 0001:00049380       ??$PutTypeBin@D@CUtlBuffer@@IAEXD@Z 0044a380 f i zip_utils.obj
 0001:000493b0       ?ResetDbgInfo@?$CUtlRBTree@VCZipEntry@CZipFile@@HP6A_NABV12@0@Z@@IAEXXZ 0044a3b0 f i zip_utils.obj
 0001:000493c0       ?Element@?$CUtlRBTree@VCZipEntry@CZipFile@@HP6A_NABV12@0@Z@@QBEABVCZipEntry@CZipFile@@H@Z 0044a3c0 f i zip_utils.obj
 0001:000493e0       ?Element@?$CUtlRBTree@VCZipEntry@CZipFile@@HP6A_NABV12@0@Z@@QAEAAVCZipEntry@CZipFile@@H@Z 0044a3e0 f i zip_utils.obj
 0001:00049400       ??0?$CUtlMemory@UNode_t@?$CUtlRBTree@VCZipEntry@CZipFile@@HP6A_NABV12@0@Z@@@@QAE@HH@Z 0044a400 f i zip_utils.obj
 0001:00049440       ??$Destruct@VCZipEntry@CZipFile@@@@YAXPAVCZipEntry@CZipFile@@@Z 0044a440 f i zip_utils.obj
 0001:00049450       ?Links@?$CUtlRBTree@VCZipEntry@CZipFile@@HP6A_NABV12@0@Z@@IAEAAULinks_t@1@H@Z 0044a450 f i zip_utils.obj
 0001:00049460       ?Links@?$CUtlRBTree@VCZipEntry@CZipFile@@HP6A_NABV12@0@Z@@IBEABULinks_t@1@H@Z 0044a460 f i zip_utils.obj
 0001:000494b0       ?Purge@?$CUtlMemory@UNode_t@?$CUtlRBTree@VCZipEntry@CZipFile@@HP6A_NABV12@0@Z@@@@QAEXXZ 0044a4b0 f i zip_utils.obj
 0001:000494e0       ?SetParent@?$CUtlRBTree@VCZipEntry@CZipFile@@HP6A_NABV12@0@Z@@IAEXHH@Z 0044a4e0 f i zip_utils.obj
 0001:00049500       ?Color@?$CUtlRBTree@VCZipEntry@CZipFile@@HP6A_NABV12@0@Z@@IBE?AW4NodeColor_t@1@H@Z 0044a500 f i zip_utils.obj
 0001:00049550       ?SetColor@?$CUtlRBTree@VCZipEntry@CZipFile@@HP6A_NABV12@0@Z@@IAEXHW4NodeColor_t@1@@Z 0044a550 f i zip_utils.obj
 0001:00049570       ?Grow@?$CUtlMemory@UNode_t@?$CUtlRBTree@VCZipEntry@CZipFile@@HP6A_NABV12@0@Z@@@@QAEXH@Z 0044a570 f i zip_utils.obj
 0001:000495e0       ?IsRed@?$CUtlRBTree@VCZipEntry@CZipFile@@HP6A_NABV12@0@Z@@IBE_NH@Z 0044a5e0 f i zip_utils.obj
 0001:00049640       ?IsBlack@?$CUtlRBTree@VCZipEntry@CZipFile@@HP6A_NABV12@0@Z@@IBE_NH@Z 0044a640 f i zip_utils.obj
 0001:000496a0       ?PutTabs@CUtlBuffer@@IAEXXZ 0044a6a0 f i zip_utils.obj
 0001:000496f0       ?PutChar@CUtlBuffer@@QAEXD@Z 0044a6f0 f i zip_utils.obj
 0001:00049870       ??A?$CUtlRBTree@VCZipEntry@CZipFile@@HP6A_NABV12@0@Z@@QAEAAVCZipEntry@CZipFile@@H@Z 0044a870 f i zip_utils.obj
 0001:00049890       ?Parent@?$CUtlRBTree@VCZipEntry@CZipFile@@HP6A_NABV12@0@Z@@QBEHH@Z 0044a890 f i zip_utils.obj
 0001:000498e0       ?LeftChild@?$CUtlRBTree@VCZipEntry@CZipFile@@HP6A_NABV12@0@Z@@QBEHH@Z 0044a8e0 f i zip_utils.obj
 0001:00049930       ?RightChild@?$CUtlRBTree@VCZipEntry@CZipFile@@HP6A_NABV12@0@Z@@QBEHH@Z 0044a930 f i zip_utils.obj
 0001:00049980       ?IsRightChild@?$CUtlRBTree@VCZipEntry@CZipFile@@HP6A_NABV12@0@Z@@QBE_NH@Z 0044a980 f i zip_utils.obj
 0001:00049a30       ?IsValidIndex@?$CUtlRBTree@VCZipEntry@CZipFile@@HP6A_NABV12@0@Z@@QBE_NH@Z 0044aa30 f i zip_utils.obj
 0001:00049a60       ?Purge@?$CUtlRBTree@VCZipEntry@CZipFile@@HP6A_NABV12@0@Z@@QAEXXZ 0044aa60 f i zip_utils.obj
 0001:00049b20       ?SetLeftChild@?$CUtlRBTree@VCZipEntry@CZipFile@@HP6A_NABV12@0@Z@@IAEXHH@Z 0044ab20 f i zip_utils.obj
 0001:00049b40       ?SetRightChild@?$CUtlRBTree@VCZipEntry@CZipFile@@HP6A_NABV12@0@Z@@IAEXHH@Z 0044ab40 f i zip_utils.obj
 0001:00049b60       ?FindInsertionPosition@?$CUtlRBTree@VCZipEntry@CZipFile@@HP6A_NABV12@0@Z@@IAEXABVCZipEntry@CZipFile@@AAHAA_N@Z 0044ab60 f i zip_utils.obj
 0001:00049c50       ??1?$CUtlMemory@UNode_t@?$CUtlRBTree@VCZipEntry@CZipFile@@HP6A_NABV12@0@Z@@@@QAE@XZ 0044ac50 f i zip_utils.obj
 0001:00049c80       ?NewNode@?$CUtlRBTree@VCZipEntry@CZipFile@@HP6A_NABV12@0@Z@@QAEHXZ 0044ac80 f i zip_utils.obj
 0001:00049d10       ?FreeNode@?$CUtlRBTree@VCZipEntry@CZipFile@@HP6A_NABV12@0@Z@@QAEXH@Z 0044ad10 f i zip_utils.obj
 0001:00049d50       ?IsLeftChild@?$CUtlRBTree@VCZipEntry@CZipFile@@HP6A_NABV12@0@Z@@QBE_NH@Z 0044ad50 f i zip_utils.obj
 0001:00049e00       ?RotateLeft@?$CUtlRBTree@VCZipEntry@CZipFile@@HP6A_NABV12@0@Z@@IAEXH@Z 0044ae00 f i zip_utils.obj
 0001:00049f70       ?RotateRight@?$CUtlRBTree@VCZipEntry@CZipFile@@HP6A_NABV12@0@Z@@IAEXH@Z 0044af70 f i zip_utils.obj
 0001:0004a0f0       ??0?$CUtlRBTree@VCZipEntry@CZipFile@@HP6A_NABV12@0@Z@@QAE@HHABQ6A_NABVCZipEntry@CZipFile@@0@Z@Z 0044b0f0 f i zip_utils.obj
 0001:0004a150       ??1?$CUtlRBTree@VCZipEntry@CZipFile@@HP6A_NABV12@0@Z@@QAE@XZ 0044b150 f i zip_utils.obj
 0001:0004a190       ?Find@?$CUtlRBTree@VCZipEntry@CZipFile@@HP6A_NABV12@0@Z@@QBEHABVCZipEntry@CZipFile@@@Z 0044b190 f i zip_utils.obj
 0001:0004a280       ?RemoveAll@?$CUtlRBTree@VCZipEntry@CZipFile@@HP6A_NABV12@0@Z@@QAEXXZ 0044b280 f i zip_utils.obj
 0001:0004a340       ?FirstInorder@?$CUtlRBTree@VCZipEntry@CZipFile@@HP6A_NABV12@0@Z@@QBEHXZ 0044b340 f i zip_utils.obj
 0001:0004a3d0       ?NextInorder@?$CUtlRBTree@VCZipEntry@CZipFile@@HP6A_NABV12@0@Z@@QBEHH@Z 0044b3d0 f i zip_utils.obj
 0001:0004a520       ?InsertRebalance@?$CUtlRBTree@VCZipEntry@CZipFile@@HP6A_NABV12@0@Z@@IAEXH@Z 0044b520 f i zip_utils.obj
 0001:0004a950       ?RemoveRebalance@?$CUtlRBTree@VCZipEntry@CZipFile@@HP6A_NABV12@0@Z@@IAEXH@Z 0044b950 f i zip_utils.obj
 0001:0004b250       ??0CZipFile@@QAE@XZ        0044c250 f   zip_utils.obj
 0001:0004b2a0       ?ReadFileFromZip@CZipFile@@QAE_NPBD_NAAVCUtlBuffer@@@Z 0044c2a0 f   zip_utils.obj
 0001:0004b3b0       ?FileExistsInZip@CZipFile@@QAE_NPBD@Z 0044c3b0 f   zip_utils.obj
 0001:0004b450       ?CalculateSize@CZipFile@@QAEHXZ 0044c450 f   zip_utils.obj
 0001:0004b510       ?PrintDirectory@CZipFile@@QAEXXZ 0044c510 f   zip_utils.obj
 0001:0004b560       ?GetNextFilename@CZipFile@@QAEHHPADHAAH@Z 0044c560 f   zip_utils.obj
 0001:0004b5d0       ?SaveDirectory@CZipFile@@AAEXAAVIWriteStream@@@Z 0044c5d0 f   zip_utils.obj
 0001:0004b9a0       ?Reset@CZipFile@@QAEXXZ    0044c9a0 f   zip_utils.obj
 0001:0004b9b0       ?FileExistsInZip@CZip@@UAE_NPBD@Z 0044c9b0 f   zip_utils.obj
 0001:0004b9c0       ?ReadFileFromZip@CZip@@UAE_NPBD_NAAVCUtlBuffer@@@Z 0044c9c0 f   zip_utils.obj
 0001:0004b9d0       ?GetNextFilename@CZip@@UAEHHPADHAAH@Z 0044c9d0 f   zip_utils.obj
 0001:0004b9e0       ?PrintDirectory@CZip@@UAEXXZ 0044c9e0 f   zip_utils.obj
 0001:0004b9f0       ?Reset@CZip@@UAEXXZ        0044c9f0 f   zip_utils.obj
 0001:0004ba00       ?EstimateSize@CZip@@UAEHXZ 0044ca00 f   zip_utils.obj
 0001:0004ba10       ?LinkToParent@?$CUtlRBTree@VCZipEntry@CZipFile@@HP6A_NABV12@0@Z@@IAEXHH_N@Z 0044ca10 f i zip_utils.obj
 0001:0004ba80       ?Unlink@?$CUtlRBTree@VCZipEntry@CZipFile@@HP6A_NABV12@0@Z@@IAEXH@Z 0044ca80 f i zip_utils.obj
 0001:0004bcb0       ??1CZipFile@@QAE@XZ        0044ccb0 f   zip_utils.obj
 0001:0004bcf0       ?SaveToDisk@CZipFile@@QAEXPAU_iobuf@@@Z 0044ccf0 f   zip_utils.obj
 0001:0004bd20       ?SaveToBuffer@CZipFile@@QAEXAAVCUtlBuffer@@@Z 0044cd20 f   zip_utils.obj
 0001:0004bd50       ??0CZip@@QAE@XZ            0044cd50 f   zip_utils.obj
 0001:0004bd70       ??1CZip@@UAE@XZ            0044cd70 f   zip_utils.obj
 0001:0004bdc0       ?SaveToBuffer@CZip@@UAEXAAVCUtlBuffer@@@Z 0044cdc0 f   zip_utils.obj
 0001:0004bdf0       ?SaveToDisk@CZip@@UAEXPAU_iobuf@@@Z 0044cdf0 f   zip_utils.obj
 0001:0004be20       ?RemoveAt@?$CUtlRBTree@VCZipEntry@CZipFile@@HP6A_NABV12@0@Z@@QAEXH@Z 0044ce20 f i zip_utils.obj
 0001:0004be70       ?InsertAt@?$CUtlRBTree@VCZipEntry@CZipFile@@HP6A_NABV12@0@Z@@IAEHH_N@Z 0044ce70 f i zip_utils.obj
 0001:0004bea0       ??_GCZip@@UAEPAXI@Z        0044cea0 f i zip_utils.obj
 0001:0004bea0       ??_ECZip@@UAEPAXI@Z        0044cea0 f i zip_utils.obj
 0001:0004bec0       ?Insert@?$CUtlRBTree@VCZipEntry@CZipFile@@HP6A_NABV12@0@Z@@QAEHABVCZipEntry@CZipFile@@@Z 0044cec0 f i zip_utils.obj
 0001:0004bf20       ?Remove@?$CUtlRBTree@VCZipEntry@CZipFile@@HP6A_NABV12@0@Z@@QAE_NABVCZipEntry@CZipFile@@@Z 0044cf20 f i zip_utils.obj
 0001:0004bf50       ?ParseFromBuffer@CZipFile@@QAEXPAEH@Z 0044cf50 f   zip_utils.obj
 0001:0004c340       ?AddBufferToZip@CZipFile@@QAEXPBDPAXH_N@Z 0044d340 f   zip_utils.obj
 0001:0004c500       ?AddFileToZip@CZipFile@@QAEXPBD0@Z 0044d500 f   zip_utils.obj
 0001:0004c580       ?RemoveFileFromZip@CZipFile@@QAEXPBD@Z 0044d580 f   zip_utils.obj
 0001:0004c630       ?AddFileToZip@CZip@@UAEXPBD0@Z 0044d630 f   zip_utils.obj
 0001:0004c640       ?RemoveFileFromZip@CZip@@UAEXPBD@Z 0044d640 f   zip_utils.obj
 0001:0004c650       ?AddBufferToZip@CZip@@UAEXPBDPAXH_N@Z 0044d650 f   zip_utils.obj
 0001:0004c660       ?ParseFromBuffer@CZip@@UAEXPAEH@Z 0044d660 f   zip_utils.obj
 0001:0004c690       _ceilf                     0044d690 f i bsplib.obj
 0001:0004c6b0       ?ceil@@YAMM@Z              0044d6b0 f i bsplib.obj
 0001:0004c6d0       ??0dmodel_t@@QAE@XZ        0044d6d0 f i bsplib.obj
 0001:0004c6e0       ??0dvertex_t@@QAE@XZ       0044d6e0 f i bsplib.obj
 0001:0004c6f0       ??0dprimvert_t@@QAE@XZ     0044d6f0 f i bsplib.obj
 0001:0004c700       ??0dworldlight_t@@QAE@XZ   0044d700 f i bsplib.obj
 0001:0004c710       ??0doverlay_t@@QAE@XZ      0044d710 f i bsplib.obj
 0001:0004c720       ??0dwateroverlay_t@@QAE@XZ 0044d720 f i bsplib.obj
 0001:0004c730       ?GetPakFile@@YAPAVIZip@@XZ 0044d730 f   bsplib.obj
 0001:0004c740       ?ForceAlignment@@YAX_NI@Z  0044d740 f   bsplib.obj
 0001:0004c760       ?ClearPackFile@@YAXXZ      0044d760 f   bsplib.obj
 0001:0004c770       ?AddFileToPack@@YAXPBD0@Z  0044d770 f   bsplib.obj
 0001:0004c790       ?AddBufferToPack@@YAXPBDPAXH_N@Z 0044d790 f   bsplib.obj
 0001:0004c7c0       ?FileExistsInPack@@YA_NPBD@Z 0044d7c0 f   bsplib.obj
 0001:0004c7e0       ?ReadFileFromPack@@YA_NPBD_NAAVCUtlBuffer@@@Z 0044d7e0 f   bsplib.obj
 0001:0004c800       ?RemoveFileFromPack@@YAXPBD@Z 0044d800 f   bsplib.obj
 0001:0004c820       ?GetNextFilename@@YAHHPADHAAH@Z 0044d820 f   bsplib.obj
 0001:0004c850       ?InvalidGameLump@@YAGXZ    0044d850 f   bsplib.obj
 0001:0004c860       ?CompressVis@@YAHPAE0@Z    0044d860 f   bsplib.obj
 0001:0004c8d0       ?DecompressVis@@YAXPAE0@Z  0044d8d0 f   bsplib.obj
 0001:0004c960       ?LumpVersion@@YAHH@Z       0044d960 f   bsplib.obj
 0001:0004c980       ?HasLump@@YA_NH@Z          0044d980 f   bsplib.obj
 0001:0004c9a0       ?CopyLump@@YAHHPAXHH@Z     0044d9a0 f   bsplib.obj
 0001:0004ca30       ?CopyVariableLump@@YAHHPAPAXHH@Z 0044da30 f   bsplib.obj
 0001:0004cac0       ?Lumps_Init@@YAXXZ         0044dac0 f   bsplib.obj
 0001:0004cae0       ?Lumps_Parse@@YAXXZ        0044dae0 f   bsplib.obj
 0001:0004cb60       ?OpenBSPFile@@YAXPAD@Z     0044db60 f   bsplib.obj
 0001:0004cc00       ?CloseBSPFile@@YAXXZ       0044dc00 f   bsplib.obj
 0001:0004cc10       ?LoadBSPFile_FileSystemOnly@@YAXPAD@Z 0044dc10 f   bsplib.obj
 0001:0004cd00       ?ExtractZipFileFromBSP@@YAXPAD0@Z 0044dd00 f   bsplib.obj
 0001:0004cf40       ?GenerateNextLumpFileName@@YA_NPBDPADH@Z 0044df40 f   bsplib.obj
 0001:0004cf90       ?WriteLumpToFile@@YAXPADH@Z 0044df90 f   bsplib.obj
 0001:0004d090       ?ArrayUsage@@YAHPADHHH@Z   0044e090 f   bsplib.obj
 0001:0004d160       ?GlobUsage@@YAHPADHH@Z     0044e160 f   bsplib.obj
 0001:0004d220       ?PrintBSPPackDirectory@@YAXXZ 0044e220 f   bsplib.obj
 0001:0004d230       ??0entity_t@@QAE@XZ        0044e230 f i bsplib.obj
 0001:0004d240       ?StripTrailing@@YAXPAD@Z   0044e240 f   bsplib.obj
 0001:0004d280       ?ParseEpair@@YAPAUepair_t@@XZ 0044e280 f   bsplib.obj
 0001:0004d330       ?ParseEntity@@YAHXZ        0044e330 f   bsplib.obj
 0001:0004d3e0       ?PrintEntity@@YAXPAUentity_t@@@Z 0044e3e0 f   bsplib.obj
 0001:0004d420       ?SetKeyValue@@YAXPAUentity_t@@PBD1@Z 0044e420 f   bsplib.obj
 0001:0004d4c0       ?ValueForKey@@YAPADPAUentity_t@@PAD@Z 0044e4c0 f   bsplib.obj
 0001:0004d520       ?FloatForKey@@YAMPAUentity_t@@PAD@Z 0044e520 f   bsplib.obj
 0001:0004d550       ?IntForKey@@YAHPAUentity_t@@PAD@Z 0044e550 f   bsplib.obj
 0001:0004d570       ?GetVectorForKey@@YAXPAUentity_t@@PADAAVVector@@@Z 0044e570 f   bsplib.obj
 0001:0004d5d0       ?GetVector2DForKey@@YAXPAUentity_t@@PADAAVVector2D@@@Z 0044e5d0 f   bsplib.obj
 0001:0004d620       ?GetAnglesForKey@@YAXPAUentity_t@@PADAAVQAngle@@@Z 0044e620 f   bsplib.obj
 0001:0004d680       ?BuildFaceCalcWindingData@@YAXPAUdface_t@@PAH@Z 0044e680 f   bsplib.obj
 0001:0004d6d0       ?TriStripToTriList@@YAXPBGHPAPAGPAH@Z 0044e6d0 f   bsplib.obj
 0001:0004d7a0       ?CalcTextureCoordsAtPoints@@YAXQAY03$$CBMQBHPBVVector@@HPAVVector2D@@@Z 0044e7a0 f   bsplib.obj
 0001:0004d870       ?LeafCount@CToolBSPTree@@UBEHXZ 0044e870 f   bsplib.obj
 0001:0004d880       ?EnumerateLeavesAtPoint@CToolBSPTree@@UAE_NABVVector@@PAVISpatialLeafEnumerator@@H@Z 0044e880 f   bsplib.obj
 0001:0004da40       ?EnumerateLeavesInBox@CToolBSPTree@@UAE_NABVVector@@0PAVISpatialLeafEnumerator@@H@Z 0044ea40 f   bsplib.obj
 0001:0004db40       ?EnumerateLeavesInSphere@CToolBSPTree@@UAE_NABVVector@@MPAVISpatialLeafEnumerator@@H@Z 0044eb40 f   bsplib.obj
 0001:0004dd90       ?EnumerateLeavesAlongRay@CToolBSPTree@@UAE_NABURay_t@@PAVISpatialLeafEnumerator@@H@Z 0044ed90 f   bsplib.obj
 0001:0004de40       ??0ISpatialQuery@@QAE@XZ   0044ee40 f i bsplib.obj
 0001:0004e080       ?EnumerateNodesAlongRay@@YA_NABURay_t@@PAVIBSPNodeEnumerator@@H@Z 0044f080 f   bsplib.obj
 0001:0004e0b0       ?GetPlatformMapPath@@YAXPBDPADHH@Z 0044f0b0 f   bsplib.obj
 0001:0004e0e0       ?SetHDRMode@@YAX_N@Z       0044f0e0 f   bsplib.obj
 0001:0004e140       ?Count@?$CUtlVector@VCDispVert@@V?$CUtlMemory@VCDispVert@@@@@@QBEHXZ 0044f140 f i bsplib.obj
 0001:0004e150       ?Count@?$CUtlVector@VCDispTri@@V?$CUtlMemory@VCDispTri@@@@@@QBEHXZ 0044f150 f i bsplib.obj
 0001:0004e160       ?Base@?$CUtlMemory@UCompressedLightCube@@@@QAEPAUCompressedLightCube@@XZ 0044f160 f i bsplib.obj
 0001:0004e170       ?Count@?$CUtlVector@UCompressedLightCube@@V?$CUtlMemory@UCompressedLightCube@@@@@@QBEHXZ 0044f170 f i bsplib.obj
 0001:0004e180       ?Count@?$CUtlLinkedList@UGameLump_t@@G@@QBEHXZ 0044f180 f i bsplib.obj
 0001:0004e190       ?InvalidIndex@?$CUtlLinkedList@UGameLump_t@@G@@SAGXZ 0044f190 f i bsplib.obj
 0001:0004e1a0       ?Count@?$CUtlVector@VCFaceMacroTextureInfo@@V?$CUtlMemory@VCFaceMacroTextureInfo@@@@@@QBEHXZ 0044f1a0 f i bsplib.obj
 0001:0004e1b0       ?Count@?$CUtlVector@Udlightmappage_t@@V?$CUtlMemory@Udlightmappage_t@@@@@@QBEHXZ 0044f1b0 f i bsplib.obj
 0001:0004e1c0       ?Base@?$CUtlMemory@Udlightmappage_t@@@@QAEPAUdlightmappage_t@@XZ 0044f1c0 f i bsplib.obj
 0001:0004e1d0       ?Count@?$CUtlVector@Udlightmappageinfo_t@@V?$CUtlMemory@Udlightmappageinfo_t@@@@@@QBEHXZ 0044f1d0 f i bsplib.obj
 0001:0004e1e0       ?Base@?$CUtlMemory@Udlightmappageinfo_t@@@@QAEPAUdlightmappageinfo_t@@XZ 0044f1e0 f i bsplib.obj
 0001:0004e1f0       ?Base@?$CUtlMemory@Uclusterlist_t@@@@QAEPAUclusterlist_t@@XZ 0044f1f0 f i bsplib.obj
 0001:0004e200       ?ConstructList@?$CUtlLinkedList@UGameLump_t@@G@@IAEXXZ 0044f200 f i bsplib.obj
 0001:0004e220       ??A?$CUtlMemory@UListElem_t@?$CUtlLinkedList@UGameLump_t@@G@@@@QAEAAUListElem_t@?$CUtlLinkedList@UGameLump_t@@G@@H@Z 0044f220 f i bsplib.obj
 0001:0004e230       ?Base@?$CUtlMemory@UListElem_t@?$CUtlLinkedList@UGameLump_t@@G@@@@QAEPAUListElem_t@?$CUtlLinkedList@UGameLump_t@@G@@XZ 0044f230 f i bsplib.obj
 0001:0004e240       ?ValidateGrowSize@?$CUtlMemory@E@@IAEXXZ 0044f240 f i bsplib.obj
 0001:0004e250       ?ValidateGrowSize@?$CUtlMemory@Vddispinfo_t@@@@IAEXXZ 0044f250 f i bsplib.obj
 0001:0004e260       ?ValidateGrowSize@?$CUtlMemory@VCDispVert@@@@IAEXXZ 0044f260 f i bsplib.obj
 0001:0004e270       ?ValidateGrowSize@?$CUtlMemory@VCDispTri@@@@IAEXXZ 0044f270 f i bsplib.obj
 0001:0004e280       ?ValidateGrowSize@?$CUtlMemory@VCFaceMacroTextureInfo@@@@IAEXXZ 0044f280 f i bsplib.obj
 0001:0004e290       ?ValidateGrowSize@?$CUtlMemory@Udoccluderdata_t@@@@IAEXXZ 0044f290 f i bsplib.obj
 0001:0004e2a0       ?ValidateGrowSize@?$CUtlMemory@Udoccluderpolydata_t@@@@IAEXXZ 0044f2a0 f i bsplib.obj
 0001:0004e2b0       ?ValidateGrowSize@?$CUtlMemory@Udlightmappage_t@@@@IAEXXZ 0044f2b0 f i bsplib.obj
 0001:0004e2c0       ?ValidateGrowSize@?$CUtlMemory@Udlightmappageinfo_t@@@@IAEXXZ 0044f2c0 f i bsplib.obj
 0001:0004e2d0       ?ValidateGrowSize@?$CUtlMemory@Uclusterlist_t@@@@IAEXXZ 0044f2d0 f i bsplib.obj
 0001:0004e2e0       ?ValidateGrowSize@?$CUtlMemory@UCompressedLightCube@@@@IAEXXZ 0044f2e0 f i bsplib.obj
 0001:0004e2f0       ?ValidateGrowSize@?$CUtlMemory@UListElem_t@?$CUtlLinkedList@UGameLump_t@@G@@@@IAEXXZ 0044f2f0 f i bsplib.obj
 0001:0004e300       ??$Destruct@UCompressedLightCube@@@@YAXPAUCompressedLightCube@@@Z 0044f300 f i bsplib.obj
 0001:0004e310       ??A?$CUtlMemory@UListElem_t@?$CUtlLinkedList@UGameLump_t@@G@@@@QBEABUListElem_t@?$CUtlLinkedList@UGameLump_t@@G@@H@Z 0044f310 f i bsplib.obj
 0001:0004e320       ??4doccluderdata_t@@QAEAAU0@ABU0@@Z 0044f320 f i bsplib.obj
 0001:0004e370       ??$Destruct@E@@YAXPAE@Z    0044f370 f i bsplib.obj
 0001:0004e380       ??$Destruct@Udlightmappage_t@@@@YAXPAUdlightmappage_t@@@Z 0044f380 f i bsplib.obj
 0001:0004e390       ?IsExternallyAllocated@?$CUtlMemory@Udlightmappage_t@@@@QBE_NXZ 0044f390 f i bsplib.obj
 0001:0004e3a0       ??$Destruct@Udlightmappageinfo_t@@@@YAXPAUdlightmappageinfo_t@@@Z 0044f3a0 f i bsplib.obj
 0001:0004e3b0       ?IsExternallyAllocated@?$CUtlMemory@Udlightmappageinfo_t@@@@QBE_NXZ 0044f3b0 f i bsplib.obj
 0001:0004e3c0       ?IsExternallyAllocated@?$CUtlMemory@Uclusterlist_t@@@@QBE_NXZ 0044f3c0 f i bsplib.obj
 0001:0004e3d0       ?IsExternallyAllocated@?$CUtlMemory@UCompressedLightCube@@@@QBE_NXZ 0044f3d0 f i bsplib.obj
 0001:0004e3e0       ??$Construct@UCompressedLightCube@@@@YAXPAUCompressedLightCube@@@Z 0044f3e0 f i bsplib.obj
 0001:0004e3f0       ?NumAllocated@?$CUtlMemory@UListElem_t@?$CUtlLinkedList@UGameLump_t@@G@@@@QBEHXZ 0044f3f0 f i bsplib.obj
 0001:0004e400       ?IsExternallyAllocated@?$CUtlMemory@UListElem_t@?$CUtlLinkedList@UGameLump_t@@G@@@@QBE_NXZ 0044f400 f i bsplib.obj
 0001:0004e410       ?NumAllocated@?$CUtlMemory@Uclusterlist_t@@@@QBEHXZ 0044f410 f i bsplib.obj
 0001:0004e420       ?Grow@?$CUtlMemory@Uclusterlist_t@@@@QAEXH@Z 0044f420 f i bsplib.obj
 0001:0004e4a0       ?NumAllocated@?$CUtlMemory@UCompressedLightCube@@@@QBEHXZ 0044f4a0 f i bsplib.obj
 0001:0004e4b0       ?Grow@?$CUtlMemory@UCompressedLightCube@@@@QAEXH@Z 0044f4b0 f i bsplib.obj
 0001:0004e530       ?InternalElement@?$CUtlLinkedList@UGameLump_t@@G@@IBEABUListElem_t@1@G@Z 0044f530 f i bsplib.obj
 0001:0004e540       ??$Construct@E@@YAXPAE@Z   0044f540 f i bsplib.obj
 0001:0004e550       ??$Construct@Udlightmappage_t@@@@YAXPAUdlightmappage_t@@@Z 0044f550 f i bsplib.obj
 0001:0004e560       ??$Construct@Udlightmappageinfo_t@@@@YAXPAUdlightmappageinfo_t@@@Z 0044f560 f i bsplib.obj
 0001:0004e570       ?NumAllocated@?$CUtlMemory@Udlightmappage_t@@@@QBEHXZ 0044f570 f i bsplib.obj
 0001:0004e580       ?Grow@?$CUtlMemory@Udlightmappage_t@@@@QAEXH@Z 0044f580 f i bsplib.obj
 0001:0004e5f0       ?NumAllocated@?$CUtlMemory@Udlightmappageinfo_t@@@@QBEHXZ 0044f5f0 f i bsplib.obj
 0001:0004e600       ?Grow@?$CUtlMemory@Udlightmappageinfo_t@@@@QAEXH@Z 0044f600 f i bsplib.obj
 0001:0004e730       ?FirstGameLump@@YAGXZ      0044f730 f   bsplib.obj
 0001:0004e750       ?NextGameLump@@YAGG@Z      0044f750 f   bsplib.obj
 0001:0004e770       ?Lumps_Write@@YAXXZ        0044f770 f   bsplib.obj
 0001:0004e840       ??0CToolBSPTree@@QAE@XZ    0044f840 f i bsplib.obj
 0001:0004e850       ?Base@?$CUtlVector@UCompressedLightCube@@V?$CUtlMemory@UCompressedLightCube@@@@@@QAEPAUCompressedLightCube@@XZ 0044f850 f i bsplib.obj
 0001:0004e860       ?EnsureCapacity@?$CUtlMemory@E@@QAEXH@Z 0044f860 f i bsplib.obj
 0001:0004e8b0       ??$GetType@H@CUtlBuffer@@IAEXAAHPBD@Z 0044f8b0 f i bsplib.obj
 0001:0004e910       ??A?$CUtlVector@UCompressedLightCube@@V?$CUtlMemory@UCompressedLightCube@@@@@@QAEAAUCompressedLightCube@@H@Z 0044f910 f i bsplib.obj
 0001:0004e920       ??A?$CUtlLinkedList@UGameLump_t@@G@@QAEAAUGameLump_t@@G@Z 0044f920 f i bsplib.obj
 0001:0004e9d0       ?Base@?$CUtlVector@Udlightmappage_t@@V?$CUtlMemory@Udlightmappage_t@@@@@@QAEPAUdlightmappage_t@@XZ 0044f9d0 f i bsplib.obj
 0001:0004e9e0       ?ResetDbgInfo@?$CUtlVector@Udlightmappage_t@@V?$CUtlMemory@Udlightmappage_t@@@@@@IAEXXZ 0044f9e0 f i bsplib.obj
 0001:0004e9f0       ?Base@?$CUtlVector@Udlightmappageinfo_t@@V?$CUtlMemory@Udlightmappageinfo_t@@@@@@QAEPAUdlightmappageinfo_t@@XZ 0044f9f0 f i bsplib.obj
 0001:0004ea00       ?ResetDbgInfo@?$CUtlVector@Udlightmappageinfo_t@@V?$CUtlMemory@Udlightmappageinfo_t@@@@@@IAEXXZ 0044fa00 f i bsplib.obj
 0001:0004ea10       ?Base@?$CUtlVector@Uclusterlist_t@@V?$CUtlMemory@Uclusterlist_t@@@@@@QAEPAUclusterlist_t@@XZ 0044fa10 f i bsplib.obj
 0001:0004ea20       ?ResetDbgInfo@?$CUtlVector@Uclusterlist_t@@V?$CUtlMemory@Uclusterlist_t@@@@@@IAEXXZ 0044fa20 f i bsplib.obj
 0001:0004ea30       ?ResetDbgInfo@?$CUtlVector@UCompressedLightCube@@V?$CUtlMemory@UCompressedLightCube@@@@@@IAEXXZ 0044fa30 f i bsplib.obj
 0001:0004ea40       ?InternalElement@?$CUtlLinkedList@UGameLump_t@@G@@IAEAAUListElem_t@1@G@Z 0044fa40 f i bsplib.obj
 0001:0004ea50       ?ResetDbgInfo@?$CUtlLinkedList@UGameLump_t@@G@@IAEXXZ 0044fa50 f i bsplib.obj
 0001:0004ea60       ??0?$CUtlMemory@E@@QAE@HH@Z 0044fa60 f i bsplib.obj
 0001:0004eaa0       ??0?$CUtlMemory@Vddispinfo_t@@@@QAE@HH@Z 0044faa0 f i bsplib.obj
 0001:0004eae0       ??0?$CUtlMemory@VCDispVert@@@@QAE@HH@Z 0044fae0 f i bsplib.obj
 0001:0004eb20       ??0?$CUtlMemory@VCDispTri@@@@QAE@HH@Z 0044fb20 f i bsplib.obj
 0001:0004eb60       ??0?$CUtlMemory@VCFaceMacroTextureInfo@@@@QAE@HH@Z 0044fb60 f i bsplib.obj
 0001:0004eba0       ??0?$CUtlMemory@Udoccluderdata_t@@@@QAE@HH@Z 0044fba0 f i bsplib.obj
 0001:0004ebe0       ??0?$CUtlMemory@Udoccluderpolydata_t@@@@QAE@HH@Z 0044fbe0 f i bsplib.obj
 0001:0004ec20       ??0?$CUtlMemory@Udlightmappage_t@@@@QAE@HH@Z 0044fc20 f i bsplib.obj
 0001:0004ec60       ??0?$CUtlMemory@Udlightmappageinfo_t@@@@QAE@HH@Z 0044fc60 f i bsplib.obj
 0001:0004eca0       ??0?$CUtlMemory@Uclusterlist_t@@@@QAE@HH@Z 0044fca0 f i bsplib.obj
 0001:0004ece0       ??0?$CUtlMemory@UCompressedLightCube@@@@QAE@HH@Z 0044fce0 f i bsplib.obj
 0001:0004ed20       ?Element@?$CUtlLinkedList@UGameLump_t@@G@@QAEAAUGameLump_t@@G@Z 0044fd20 f i bsplib.obj
 0001:0004ed30       ?IsValidIndex@?$CUtlLinkedList@UGameLump_t@@G@@QBE_NG@Z 0044fd30 f i bsplib.obj
 0001:0004ed60       ??0?$CUtlMemory@UListElem_t@?$CUtlLinkedList@UGameLump_t@@G@@@@QAE@HH@Z 0044fd60 f i bsplib.obj
 0001:0004eda0       ?RemoveAll@?$CUtlVector@EV?$CUtlMemory@E@@@@QAEXXZ 0044fda0 f i bsplib.obj
 0001:0004edb0       ?Purge@?$CUtlMemory@VCDispVert@@@@QAEXXZ 0044fdb0 f i bsplib.obj
 0001:0004ede0       ?Purge@?$CUtlMemory@VCDispTri@@@@QAEXXZ 0044fde0 f i bsplib.obj
 0001:0004ee10       ?Purge@?$CUtlMemory@VCFaceMacroTextureInfo@@@@QAEXXZ 0044fe10 f i bsplib.obj
 0001:0004ee40       ?Purge@?$CUtlMemory@Udoccluderdata_t@@@@QAEXXZ 0044fe40 f i bsplib.obj
 0001:0004ee70       ?Purge@?$CUtlMemory@Udoccluderpolydata_t@@@@QAEXXZ 0044fe70 f i bsplib.obj
 0001:0004eea0       ?Purge@?$CUtlMemory@Udlightmappage_t@@@@QAEXXZ 0044fea0 f i bsplib.obj
 0001:0004eed0       ?Purge@?$CUtlMemory@Udlightmappageinfo_t@@@@QAEXXZ 0044fed0 f i bsplib.obj
 0001:0004ef00       ?Element@?$CUtlVector@Uclusterlist_t@@V?$CUtlMemory@Uclusterlist_t@@@@@@QAEAAUclusterlist_t@@H@Z 0044ff00 f i bsplib.obj
 0001:0004ef10       ?Purge@?$CUtlMemory@Uclusterlist_t@@@@QAEXXZ 0044ff10 f i bsplib.obj
 0001:0004ef40       ?Purge@?$CUtlMemory@UCompressedLightCube@@@@QAEXXZ 0044ff40 f i bsplib.obj
 0001:0004ef70       ?Element@?$CUtlVector@UCompressedLightCube@@V?$CUtlMemory@UCompressedLightCube@@@@@@QAEAAUCompressedLightCube@@H@Z 0044ff70 f i bsplib.obj
 0001:0004ef80       ?Purge@?$CUtlMemory@UListElem_t@?$CUtlLinkedList@UGameLump_t@@G@@@@QAEXXZ 0044ff80 f i bsplib.obj
 0001:0004efb0       ?Element@?$CUtlVector@Udlightmappage_t@@V?$CUtlMemory@Udlightmappage_t@@@@@@QAEAAUdlightmappage_t@@H@Z 0044ffb0 f i bsplib.obj
 0001:0004efc0       ?Element@?$CUtlVector@Udlightmappageinfo_t@@V?$CUtlMemory@Udlightmappageinfo_t@@@@@@QAEAAUdlightmappageinfo_t@@H@Z 0044ffc0 f i bsplib.obj
 0001:0004efd0       ?GrowVector@?$CUtlVector@Uclusterlist_t@@V?$CUtlMemory@Uclusterlist_t@@@@@@IAEXH@Z 0044ffd0 f i bsplib.obj
 0001:0004f000       ?ShiftElementsRight@?$CUtlVector@Uclusterlist_t@@V?$CUtlMemory@Uclusterlist_t@@@@@@IAEXHH@Z 00450000 f i bsplib.obj
 0001:0004f050       ?GrowVector@?$CUtlVector@UCompressedLightCube@@V?$CUtlMemory@UCompressedLightCube@@@@@@IAEXH@Z 00450050 f i bsplib.obj
 0001:0004f080       ?ShiftElementsRight@?$CUtlVector@UCompressedLightCube@@V?$CUtlMemory@UCompressedLightCube@@@@@@IAEXHH@Z 00450080 f i bsplib.obj
 0001:0004f0d0       ?Grow@?$CUtlMemory@UListElem_t@?$CUtlLinkedList@UGameLump_t@@G@@@@QAEXH@Z 004500d0 f i bsplib.obj
 0001:0004f150       ?Previous@?$CUtlLinkedList@UGameLump_t@@G@@QBEGG@Z 00450150 f i bsplib.obj
 0001:0004f170       ?GrowVector@?$CUtlVector@Udlightmappage_t@@V?$CUtlMemory@Udlightmappage_t@@@@@@IAEXH@Z 00450170 f i bsplib.obj
 0001:0004f1a0       ?ShiftElementsRight@?$CUtlVector@Udlightmappage_t@@V?$CUtlMemory@Udlightmappage_t@@@@@@IAEXHH@Z 004501a0 f i bsplib.obj
 0001:0004f1f0       ?GrowVector@?$CUtlVector@Udlightmappageinfo_t@@V?$CUtlMemory@Udlightmappageinfo_t@@@@@@IAEXH@Z 004501f0 f i bsplib.obj
 0001:0004f220       ?ShiftElementsRight@?$CUtlVector@Udlightmappageinfo_t@@V?$CUtlMemory@Udlightmappageinfo_t@@@@@@IAEXHH@Z 00450220 f i bsplib.obj
 0001:0004f260       ?GetInt@CUtlBuffer@@QAEHXZ 00450260 f i bsplib.obj
 0001:0004f280       ?GetGameLumpHandle@@YAGH@Z 00450280 f   bsplib.obj
 0001:0004f2b0       ?GetGameLumpId@@YAHG@Z     004502b0 f   bsplib.obj
 0001:0004f2d0       ?GetGameLumpFlags@@YAHG@Z  004502d0 f   bsplib.obj
 0001:0004f2f0       ?GetGameLumpVersion@@YAHG@Z 004502f0 f   bsplib.obj
 0001:0004f310       ?GetGameLump@@YAPAXG@Z     00450310 f   bsplib.obj
 0001:0004f330       ?GameLumpSize@@YAHG@Z      00450330 f   bsplib.obj
 0001:0004f350       ?TexDataStringTable_GetString@@YAPBDH@Z 00450350 f   bsplib.obj
 0001:0004f660       ?PrintBSPFileSizes@@YAXXZ  00450660 f   bsplib.obj
 0001:0004fc30       ?ParseEntities@@YAXXZ      00450c30 f   bsplib.obj
 0001:0004fc60       ?CalcFaceExtents@@YAXPAUdface_t@@QAH1@Z 00450c60 f   bsplib.obj
 0001:0004ff50       ?UpdateAllFaceLightmapExtents@@YAXXZ 00450f50 f   bsplib.obj
 0001:0004ffa0       ?ToolBSPTree@@YAPAVISpatialQuery@@XZ 00450fa0 f   bsplib.obj
 0001:0004ffd0       ??0?$CUtlVector@EV?$CUtlMemory@E@@@@QAE@HH@Z 00450fd0 f i bsplib.obj
 0001:00050010       ??A?$CUtlVector@Uclusterlist_t@@V?$CUtlMemory@Uclusterlist_t@@@@@@QAEAAUclusterlist_t@@H@Z 00451010 f i bsplib.obj
 0001:000500e0       ?Purge@?$CUtlVector@EV?$CUtlMemory@E@@@@QAEXXZ 004510e0 f i bsplib.obj
 0001:00050130       ??1?$CUtlMemory@Vddispinfo_t@@@@QAE@XZ 00451130 f i bsplib.obj
 0001:00050160       ??1?$CUtlMemory@VCDispVert@@@@QAE@XZ 00451160 f i bsplib.obj
 0001:00050190       ??1?$CUtlMemory@VCDispTri@@@@QAE@XZ 00451190 f i bsplib.obj
 0001:000501c0       ??1?$CUtlMemory@VCFaceMacroTextureInfo@@@@QAE@XZ 004511c0 f i bsplib.obj
 0001:000501f0       ??1?$CUtlMemory@Udoccluderdata_t@@@@QAE@XZ 004511f0 f i bsplib.obj
 0001:00050220       ?Purge@?$CUtlVector@Udoccluderdata_t@@V?$CUtlMemory@Udoccluderdata_t@@@@@@QAEXXZ 00451220 f i bsplib.obj
 0001:00050270       ??1?$CUtlMemory@Udoccluderpolydata_t@@@@QAE@XZ 00451270 f i bsplib.obj
 0001:000502a0       ?Purge@?$CUtlVector@Udoccluderpolydata_t@@V?$CUtlMemory@Udoccluderpolydata_t@@@@@@QAEXXZ 004512a0 f i bsplib.obj
 0001:000502f0       ??1?$CUtlMemory@Udlightmappage_t@@@@QAE@XZ 004512f0 f i bsplib.obj
 0001:00050320       ??1?$CUtlMemory@Udlightmappageinfo_t@@@@QAE@XZ 00451320 f i bsplib.obj
 0001:00050350       ??1?$CUtlMemory@Uclusterlist_t@@@@QAE@XZ 00451350 f i bsplib.obj
 0001:00050380       ??1?$CUtlMemory@UCompressedLightCube@@@@QAE@XZ 00451380 f i bsplib.obj
 0001:000503b0       ?RemoveAll@?$CUtlVector@UCompressedLightCube@@V?$CUtlMemory@UCompressedLightCube@@@@@@QAEXXZ 004513b0 f i bsplib.obj
 0001:000503c0       ?Purge@?$CUtlVector@UCompressedLightCube@@V?$CUtlMemory@UCompressedLightCube@@@@@@QAEXXZ 004513c0 f i bsplib.obj
 0001:00050410       ??1?$CUtlMemory@UListElem_t@?$CUtlLinkedList@UGameLump_t@@G@@@@QAE@XZ 00451410 f i bsplib.obj
 0001:00050440       ??1GameLump_t@@QAE@XZ      00451440 f i bsplib.obj
 0001:00050470       ?InsertMultipleBefore@?$CUtlVector@Udoccluderdata_t@@V?$CUtlMemory@Udoccluderdata_t@@@@@@QAEHHHPBUdoccluderdata_t@@@Z 00451470 f i bsplib.obj
 0001:000506c0       ?InsertMultipleBefore@?$CUtlVector@Udoccluderpolydata_t@@V?$CUtlMemory@Udoccluderpolydata_t@@@@@@QAEHHHPBUdoccluderpolydata_t@@@Z 004516c0 f i bsplib.obj
 0001:00050770       ?RemoveAll@?$CUtlVector@Udlightmappage_t@@V?$CUtlMemory@Udlightmappage_t@@@@@@QAEXXZ 00451770 f i bsplib.obj
 0001:00050780       ?RemoveAll@?$CUtlVector@Udlightmappageinfo_t@@V?$CUtlMemory@Udlightmappageinfo_t@@@@@@QAEXXZ 00451780 f i bsplib.obj
 0001:00050790       ?InsertMultipleBefore@?$CUtlVector@UCompressedLightCube@@V?$CUtlMemory@UCompressedLightCube@@@@@@QAEHHHPBUCompressedLightCube@@@Z 00451790 f i bsplib.obj
 0001:00050850       ?AllocInternal@?$CUtlLinkedList@UGameLump_t@@G@@IAEG_N@Z 00451850 f i bsplib.obj
 0001:00050900       ??0GameLump_t@@QAE@XZ      00451900 f i bsplib.obj
 0001:00050910       ?IsInList@?$CUtlLinkedList@UGameLump_t@@G@@QBE_NG@Z 00451910 f i bsplib.obj
 0001:00050940       ?InsertMultipleBefore@?$CUtlVector@EV?$CUtlMemory@E@@@@QAEHHHPBE@Z 00451940 f i bsplib.obj
 0001:000509d0       ?InsertMultipleBefore@?$CUtlVector@Udlightmappage_t@@V?$CUtlMemory@Udlightmappage_t@@@@@@QAEHHHPBUdlightmappage_t@@@Z 004519d0 f i bsplib.obj
 0001:00050a90       ?InsertMultipleBefore@?$CUtlVector@Udlightmappageinfo_t@@V?$CUtlMemory@Udlightmappageinfo_t@@@@@@QAEHHHPBUdlightmappageinfo_t@@@Z 00451a90 f i bsplib.obj
 0001:00050b30       ??1?$CUtlVector@EV?$CUtlMemory@E@@@@QAE@XZ 00451b30 f i bsplib.obj
 0001:00050ba0       ??0?$CUtlVector@Vddispinfo_t@@V?$CUtlMemory@Vddispinfo_t@@@@@@QAE@HH@Z 00451ba0 f i bsplib.obj
 0001:00050bf0       ??0?$CUtlVector@VCDispVert@@V?$CUtlMemory@VCDispVert@@@@@@QAE@HH@Z 00451bf0 f i bsplib.obj
 0001:00050c40       ??0?$CUtlVector@VCDispTri@@V?$CUtlMemory@VCDispTri@@@@@@QAE@HH@Z 00451c40 f i bsplib.obj
 0001:00050c90       ??0?$CUtlVector@VCFaceMacroTextureInfo@@V?$CUtlMemory@VCFaceMacroTextureInfo@@@@@@QAE@HH@Z 00451c90 f i bsplib.obj
 0001:00050ce0       ??0?$CUtlVector@Udoccluderdata_t@@V?$CUtlMemory@Udoccluderdata_t@@@@@@QAE@HH@Z 00451ce0 f i bsplib.obj
 0001:00050d30       ??1?$CUtlVector@Udoccluderdata_t@@V?$CUtlMemory@Udoccluderdata_t@@@@@@QAE@XZ 00451d30 f i bsplib.obj
 0001:00050da0       ??0?$CUtlVector@Udoccluderpolydata_t@@V?$CUtlMemory@Udoccluderpolydata_t@@@@@@QAE@HH@Z 00451da0 f i bsplib.obj
 0001:00050df0       ??1?$CUtlVector@Udoccluderpolydata_t@@V?$CUtlMemory@Udoccluderpolydata_t@@@@@@QAE@XZ 00451df0 f i bsplib.obj
 0001:00050e60       ??0?$CUtlVector@Udlightmappage_t@@V?$CUtlMemory@Udlightmappage_t@@@@@@QAE@HH@Z 00451e60 f i bsplib.obj
 0001:00050eb0       ??0?$CUtlVector@Udlightmappageinfo_t@@V?$CUtlMemory@Udlightmappageinfo_t@@@@@@QAE@HH@Z 00451eb0 f i bsplib.obj
 0001:00050f00       ??0?$CUtlVector@Uclusterlist_t@@V?$CUtlMemory@Uclusterlist_t@@@@@@QAE@HH@Z 00451f00 f i bsplib.obj
 0001:00050f50       ??0?$CUtlVector@UCompressedLightCube@@V?$CUtlMemory@UCompressedLightCube@@@@@@QAE@HH@Z 00451f50 f i bsplib.obj
 0001:00050fa0       ??1?$CUtlVector@UCompressedLightCube@@V?$CUtlMemory@UCompressedLightCube@@@@@@QAE@XZ 00451fa0 f i bsplib.obj
 0001:00051010       ??0?$CUtlLinkedList@UGameLump_t@@G@@QAE@HH@Z 00452010 f i bsplib.obj
 0001:00051070       ?Purge@?$CUtlVector@VCDispVert@@V?$CUtlMemory@VCDispVert@@@@@@QAEXXZ 00452070 f i bsplib.obj
 0001:000510c0       ?Purge@?$CUtlVector@VCDispTri@@V?$CUtlMemory@VCDispTri@@@@@@QAEXXZ 004520c0 f i bsplib.obj
 0001:00051110       ?Purge@?$CUtlVector@VCFaceMacroTextureInfo@@V?$CUtlMemory@VCFaceMacroTextureInfo@@@@@@QAEXXZ 00452110 f i bsplib.obj
 0001:00051160       ?AddMultipleToTail@?$CUtlVector@Udoccluderdata_t@@V?$CUtlMemory@Udoccluderdata_t@@@@@@QAEHHPBUdoccluderdata_t@@@Z 00452160 f i bsplib.obj
 0001:00051180       ?AddMultipleToTail@?$CUtlVector@Udoccluderpolydata_t@@V?$CUtlMemory@Udoccluderpolydata_t@@@@@@QAEHHPBUdoccluderpolydata_t@@@Z 00452180 f i bsplib.obj
 0001:000511a0       ?Purge@?$CUtlVector@Udlightmappage_t@@V?$CUtlMemory@Udlightmappage_t@@@@@@QAEXXZ 004521a0 f i bsplib.obj
 0001:000511f0       ?Purge@?$CUtlVector@Udlightmappageinfo_t@@V?$CUtlMemory@Udlightmappageinfo_t@@@@@@QAEXXZ 004521f0 f i bsplib.obj
 0001:00051240       ?AddMultipleToTail@?$CUtlVector@UCompressedLightCube@@V?$CUtlMemory@UCompressedLightCube@@@@@@QAEHHPBUCompressedLightCube@@@Z 00452240 f i bsplib.obj
 0001:00051260       ??_GGameLump_t@@QAEPAXI@Z  00452260 f i bsplib.obj
 0001:000512b0       ?Unlink@?$CUtlLinkedList@UGameLump_t@@G@@QAEXG@Z 004522b0 f i bsplib.obj
 0001:00051350       ??$Construct@UGameLump_t@@@@YAXPAUGameLump_t@@@Z 00452350 f i bsplib.obj
 0001:00051370       ??1clusterlist_t@@QAE@XZ   00452370 f i bsplib.obj
 0001:00051380       ?AddMultipleToTail@?$CUtlVector@EV?$CUtlMemory@E@@@@QAEHHPBE@Z 00452380 f i bsplib.obj
 0001:000513a0       ?AddMultipleToTail@?$CUtlVector@Udlightmappage_t@@V?$CUtlMemory@Udlightmappage_t@@@@@@QAEHHPBUdlightmappage_t@@@Z 004523a0 f i bsplib.obj
 0001:000513c0       ?AddMultipleToTail@?$CUtlVector@Udlightmappageinfo_t@@V?$CUtlMemory@Udlightmappageinfo_t@@@@@@QAEHHPBUdlightmappageinfo_t@@@Z 004523c0 f i bsplib.obj
 0001:000513e0       ??0clusterlist_t@@QAE@XZ   004523e0 f i bsplib.obj
 0001:000514c0       ?LoadBSPFileTexinfo@@YAXPAD@Z 004524c0 f   bsplib.obj
 0001:00051660       ??1?$CUtlVector@Vddispinfo_t@@V?$CUtlMemory@Vddispinfo_t@@@@@@QAE@XZ 00452660 f i bsplib.obj
 0001:000516d0       ??1?$CUtlVector@VCDispVert@@V?$CUtlMemory@VCDispVert@@@@@@QAE@XZ 004526d0 f i bsplib.obj
 0001:00051740       ??1?$CUtlVector@VCDispTri@@V?$CUtlMemory@VCDispTri@@@@@@QAE@XZ 00452740 f i bsplib.obj
 0001:000517b0       ??1?$CUtlVector@VCFaceMacroTextureInfo@@V?$CUtlMemory@VCFaceMacroTextureInfo@@@@@@QAE@XZ 004527b0 f i bsplib.obj
 0001:00051820       ?SetCount@?$CUtlVector@Udoccluderdata_t@@V?$CUtlMemory@Udoccluderdata_t@@@@@@QAEXH@Z 00452820 f i bsplib.obj
 0001:00051840       ?SetCount@?$CUtlVector@Udoccluderpolydata_t@@V?$CUtlMemory@Udoccluderpolydata_t@@@@@@QAEXH@Z 00452840 f i bsplib.obj
 0001:00051860       ??1?$CUtlVector@Udlightmappage_t@@V?$CUtlMemory@Udlightmappage_t@@@@@@QAE@XZ 00452860 f i bsplib.obj
 0001:000518d0       ??1?$CUtlVector@Udlightmappageinfo_t@@V?$CUtlMemory@Udlightmappageinfo_t@@@@@@QAE@XZ 004528d0 f i bsplib.obj
 0001:00051940       ?SetCount@?$CUtlVector@UCompressedLightCube@@V?$CUtlMemory@UCompressedLightCube@@@@@@QAEXH@Z 00452940 f i bsplib.obj
 0001:00051960       ?SetSize@?$CUtlVector@UCompressedLightCube@@V?$CUtlMemory@UCompressedLightCube@@@@@@QAEXH@Z 00452960 f i bsplib.obj
 0001:00051980       ??$Destruct@UGameLump_t@@@@YAXPAUGameLump_t@@@Z 00452980 f i bsplib.obj
 0001:000519c0       ?SetCount@?$CUtlVector@EV?$CUtlMemory@E@@@@QAEXH@Z 004529c0 f i bsplib.obj
 0001:00051a10       ?SetCount@?$CUtlVector@Udlightmappage_t@@V?$CUtlMemory@Udlightmappage_t@@@@@@QAEXH@Z 00452a10 f i bsplib.obj
 0001:00051a30       ?SetCount@?$CUtlVector@Udlightmappageinfo_t@@V?$CUtlMemory@Udlightmappageinfo_t@@@@@@QAEXH@Z 00452a30 f i bsplib.obj
 0001:00051a50       ?LinkBefore@?$CUtlLinkedList@UGameLump_t@@G@@QAEXGG@Z 00452a50 f i bsplib.obj
 0001:00051ad0       ??_Gclusterlist_t@@QAEPAXI@Z 00452ad0 f i bsplib.obj
 0001:00051b00       ??$Construct@Uclusterlist_t@@@@YAXPAUclusterlist_t@@@Z 00452b00 f i bsplib.obj
 0001:00051b20       ?TexDataStringTable_AddOrFindString@@YAHPBD@Z 00452b20 f   bsplib.obj
 0001:00051d80       ?LoadLeafs@@YAHXZ          00452d80 f   bsplib.obj
 0001:00051ed0       ?WriteBSPFile@@YAXPAD0@Z   00452ed0 f   bsplib.obj
 0001:000525d0       ?RemoveAll@?$CUtlLinkedList@UGameLump_t@@G@@QAEXXZ 004535d0 f i bsplib.obj
 0001:00052690       ??$CopyLump@Utexinfo_s@@@@YAXHAAV?$CUtlVector@Utexinfo_s@@V?$CUtlMemory@Utexinfo_s@@@@@@H@Z 00453690 f i bsplib.obj
 0001:00052740       ??$CopyOptionalLump@UCompressedLightCube@@@@YAXHAAV?$CUtlVector@UCompressedLightCube@@V?$CUtlMemory@UCompressedLightCube@@@@@@H@Z 00453740 f i bsplib.obj
 0001:000527f0       ??$CopyLump@D@@YAXHAAV?$CUtlVector@DV?$CUtlMemory@D@@@@H@Z 004537f0 f i bsplib.obj
 0001:00052890       ??$CopyLump@H@@YAXHAAV?$CUtlVector@HV?$CUtlMemory@H@@@@H@Z 00453890 f i bsplib.obj
 0001:00052930       ?SetSize@?$CUtlVector@EV?$CUtlMemory@E@@@@QAEXH@Z 00453930 f i bsplib.obj
 0001:00052980       ?SetSize@?$CUtlVector@Udlightmappage_t@@V?$CUtlMemory@Udlightmappage_t@@@@@@QAEXH@Z 00453980 f i bsplib.obj
 0001:000529a0       ?SetSize@?$CUtlVector@Udlightmappageinfo_t@@V?$CUtlMemory@Udlightmappageinfo_t@@@@@@QAEXH@Z 004539a0 f i bsplib.obj
 0001:000529c0       ?InsertBefore@?$CUtlLinkedList@UGameLump_t@@G@@QAEGG@Z 004539c0 f i bsplib.obj
 0001:00052a10       ?Free@?$CUtlLinkedList@UGameLump_t@@G@@QAEXG@Z 00453a10 f i bsplib.obj
 0001:00052a70       ??$Destruct@Uclusterlist_t@@@@YAXPAUclusterlist_t@@@Z 00453a70 f i bsplib.obj
 0001:00052a80       ?DestroyAllGameLumps@@YAXXZ 00453a80 f   bsplib.obj
 0001:00052a90       ?UnparseEntities@@YAXXZ    00453a90 f   bsplib.obj
 0001:00052cc0       ??1?$CUtlLinkedList@UGameLump_t@@G@@QAE@XZ 00453cc0 f i bsplib.obj
 0001:00052d00       ?AddToTail@?$CUtlLinkedList@UGameLump_t@@G@@QAEGXZ 00453d00 f i bsplib.obj
 0001:00052d80       ?Remove@?$CUtlLinkedList@UGameLump_t@@G@@QAEXG@Z 00453d80 f i bsplib.obj
 0001:00052d90       ??$CopyLump@Vddispinfo_t@@@@YAXHAAV?$CUtlVector@Vddispinfo_t@@V?$CUtlMemory@Vddispinfo_t@@@@@@H@Z 00453d90 f i bsplib.obj
 0001:00052e40       ??$CopyLump@VCDispVert@@@@YAXHAAV?$CUtlVector@VCDispVert@@V?$CUtlMemory@VCDispVert@@@@@@H@Z 00453e40 f i bsplib.obj
 0001:00052ef0       ??$CopyLump@VCDispTri@@@@YAXHAAV?$CUtlVector@VCDispTri@@V?$CUtlMemory@VCDispTri@@@@@@H@Z 00453ef0 f i bsplib.obj
 0001:00052f80       ??$CopyLump@E@@YAXHAAV?$CUtlVector@EV?$CUtlMemory@E@@@@H@Z 00453f80 f i bsplib.obj
 0001:00053020       ??$CopyLump@VCFaceMacroTextureInfo@@@@YAXHAAV?$CUtlVector@VCFaceMacroTextureInfo@@V?$CUtlMemory@VCFaceMacroTextureInfo@@@@@@H@Z 00454020 f i bsplib.obj
 0001:000530b0       ??$CopyOptionalLump@E@@YAXHAAV?$CUtlVector@EV?$CUtlMemory@E@@@@H@Z 004540b0 f i bsplib.obj
 0001:00053160       ??$CopyOptionalLump@Udlightmappage_t@@@@YAXHAAV?$CUtlVector@Udlightmappage_t@@V?$CUtlMemory@Udlightmappage_t@@@@@@H@Z 00454160 f i bsplib.obj
 0001:00053210       ??$CopyOptionalLump@Udlightmappageinfo_t@@@@YAXHAAV?$CUtlVector@Udlightmappageinfo_t@@V?$CUtlMemory@Udlightmappageinfo_t@@@@@@H@Z 00454210 f i bsplib.obj
 0001:000532b0       ?RemoveAll@?$CUtlVector@Uclusterlist_t@@V?$CUtlMemory@Uclusterlist_t@@@@@@QAEXXZ 004542b0 f i bsplib.obj
 0001:00053350       ?Purge@?$CUtlVector@Uclusterlist_t@@V?$CUtlMemory@Uclusterlist_t@@@@@@QAEXXZ 00454350 f i bsplib.obj
 0001:00053390       ?CreateGameLump@@YAGHHHH@Z 00454390 f   bsplib.obj
 0001:00053430       ?DestroyGameLump@@YAXG@Z   00454430 f   bsplib.obj
 0001:000534d0       ?LoadBSPFile@@YAXPAD@Z     004544d0 f   bsplib.obj
 0001:000543b0       ??1?$CUtlVector@Uclusterlist_t@@V?$CUtlMemory@Uclusterlist_t@@@@@@QAE@XZ 004553b0 f i bsplib.obj
 0001:00054410       ??4clusterlist_t@@QAEAAU0@ABU0@@Z 00455410 f i bsplib.obj
 0001:00054440       ?InsertMultipleBefore@?$CUtlVector@Uclusterlist_t@@V?$CUtlMemory@Uclusterlist_t@@@@@@QAEHHHPBUclusterlist_t@@@Z 00455440 f i bsplib.obj
 0001:000545b0       ?AddMultipleToTail@?$CUtlVector@Uclusterlist_t@@V?$CUtlMemory@Uclusterlist_t@@@@@@QAEHHPBUclusterlist_t@@@Z 004555b0 f i bsplib.obj
 0001:000545d0       ?SetCount@?$CUtlVector@Uclusterlist_t@@V?$CUtlMemory@Uclusterlist_t@@@@@@QAEXH@Z 004555d0 f i bsplib.obj
 0001:000545f0       ?BuildClusterTable@@YAXXZ  004555f0 f   bsplib.obj
 0001:00054700       ?Vector2DClear@@YAXAAVVector2D@@@Z 00455700 f i builddisp.obj
 0001:00054710       ?Vector2DAdd@@YAXABVVector2D@@0AAV1@@Z 00455710 f i builddisp.obj
 0001:00054730       ?Vector2DMultiply@@YAXABVVector2D@@MAAV1@@Z 00455730 f i builddisp.obj
 0001:00054750       ?VectorFill@@YAXAAVVector@@M@Z 00455750 f i builddisp.obj
 0001:00054770       ?GetCornerNeighbors@CCoreDispSurface@@QAEPAVCDispCornerNeighbors@@H@Z 00455770 f i builddisp.obj
 0001:00054790       ?GetEdgeNeighbor@CCoreDispSurface@@QAEPAVCDispNeighbor@@H@Z 00455790 f i builddisp.obj
 0001:000547b0       ?GetPointCount@CCoreDispSurface@@QBEHXZ 004557b0 f i builddisp.obj
 0001:000547c0       ?GetTexCoord@CCoreDispSurface@@QBEXHAAVVector2D@@@Z 004557c0 f i builddisp.obj
 0001:000547e0       ?GetLuxelCoord@CCoreDispSurface@@QBEXHHAAVVector2D@@@Z 004557e0 f i builddisp.obj
 0001:00054810       ?SetFlags@CCoreDispSurface@@QAEXH@Z 00455810 f i builddisp.obj
 0001:00054820       ?GetSAxis@CCoreDispSurface@@QAEXAAVVector@@@Z 00455820 f i builddisp.obj
 0001:00054850       ?GetTAxis@CCoreDispSurface@@QAEXAAVVector@@@Z 00455850 f i builddisp.obj
 0001:00054880       ?GetNormal@CCoreDispSurface@@QAEXAAVVector@@@Z 00455880 f i builddisp.obj
 0001:00054920       ?SetBoundingBox@CCoreDispNode@@QAEXABVVector@@0@Z 00455920 f i builddisp.obj
 0001:00054950       ?SetErrorTerm@CCoreDispNode@@QAEXM@Z 00455950 f i builddisp.obj
 0001:00054960       ?GetErrorTerm@CCoreDispNode@@QAEMXZ 00455960 f i builddisp.obj
 0001:00054970       ?SetCenterVertIndex@CCoreDispNode@@QAEXH@Z 00455970 f i builddisp.obj
 0001:00054980       ?GetCenterVertIndex@CCoreDispNode@@QAEHXZ 00455980 f i builddisp.obj
 0001:00054990       ?SetNeighborVertIndex@CCoreDispNode@@QAEXHH@Z 00455990 f i builddisp.obj
 0001:000549a0       ?GetNeighborVertIndex@CCoreDispNode@@QAEHH@Z 004559a0 f i builddisp.obj
 0001:000549b0       ?SetTriBoundingBox@CCoreDispNode@@QAEXHABVVector@@0@Z 004559b0 f i builddisp.obj
 0001:000549f0       ?GetTriBoundingBox@CCoreDispNode@@QAEXHAAVVector@@0@Z 004559f0 f i builddisp.obj
 0001:00054a30       ?SetTriPlane@CCoreDispNode@@QAEXHABVVector@@M@Z 00455a30 f i builddisp.obj
 0001:00054a70       ?SetRayBoundingBox@CCoreDispNode@@QAEXHABVVector@@0@Z 00455a70 f i builddisp.obj
 0001:00054ac0       ?IsTriTag@CCoreDispInfo@@QAE_NHG@Z 00455ac0 f i builddisp.obj
 0001:00054ae0       ?GetPostSpacing@CCoreDispInfo@@QAEHXZ 00455ae0 f i builddisp.obj
 0001:00054af0       ?GetFlatVert@CCoreDispInfo@@QBEXHAAVVector@@@Z 00455af0 f i builddisp.obj
 0001:00054b20       ?GetElevation@CCoreDispInfo@@QAEMXZ 00455b20 f i builddisp.obj
 0001:00054b30       ?SetFieldVector@CCoreDispInfo@@QAEXHABVVector@@@Z 00455b30 f i builddisp.obj
 0001:00054b60       ?GetSubdivPosition@CCoreDispInfo@@QAEXHAAVVector@@@Z 00455b60 f i builddisp.obj
 0001:00054b90       ?SetFieldDistance@CCoreDispInfo@@QAEXHM@Z 00455b90 f i builddisp.obj
 0001:00054bb0       ?CalcBarycentricCooefs@@YA_NABVVector@@000AAM11@Z 00455bb0 f   builddisp.obj
 0001:00054f50       ?Init@CCoreDispSurface@@QAEXXZ 00455f50 f   builddisp.obj
 0001:00055110       ?SetNeighborData@CCoreDispSurface@@QAEXQBVCDispNeighbor@@QBVCDispCornerNeighbors@@@Z 00456110 f   builddisp.obj
 0001:00055190       ?GeneratePointStartIndexFromMappingAxes@CCoreDispSurface@@QAEXABVVector@@0@Z 00456190 f   builddisp.obj
 0001:00055390       ?GenerateSurfPointStartIndex@CCoreDispSurface@@QAEHXZ 00456390 f   builddisp.obj
 0001:000554f0       ?FindSurfPointStartIndex@CCoreDispSurface@@QAEHXZ 004564f0 f   builddisp.obj
 0001:000555e0       ?AdjustSurfPointData@CCoreDispSurface@@QAEXXZ 004565e0 f   builddisp.obj
 0001:00055920       ?Init@CCoreDispNode@@QAEXXZ 00456920 f   builddisp.obj
 0001:00055a50       ?GetDispNodeTriVerts@@YAXPAVCCoreDispInfo@@HHAAVVector@@11@Z 00456a50 f   builddisp.obj
 0001:00055ce0       ??0CDispUtilsHelper@@QAE@XZ 00456ce0 f i builddisp.obj
 0001:00055d00       ??1CCoreDispInfo@@QAE@XZ   00456d00 f   builddisp.obj
 0001:00055da0       ??0CoreDispVert_t@@QAE@XZ  00456da0 f i builddisp.obj
 0001:00055e30       ?SetDispUtilsHelperInfo@CCoreDispInfo@@QAEXPAPAV1@H@Z 00456e30 f   builddisp.obj
 0001:00055e60       ?GetPowerInfo@CCoreDispInfo@@UBEPBVCPowerInfo@@XZ 00456e60 f   builddisp.obj
 0001:00055e80       ?GetEdgeNeighbor@CCoreDispInfo@@UAEPAVCDispNeighbor@@H@Z 00456e80 f   builddisp.obj
 0001:00055ea0       ?GetCornerNeighbors@CCoreDispInfo@@UAEPAVCDispCornerNeighbors@@H@Z 00456ea0 f   builddisp.obj
 0001:00055ec0       ?GetDispUtilsByIndex@CCoreDispInfo@@UAEPAVCDispUtilsHelper@@H@Z 00456ec0 f   builddisp.obj
 0001:00055f00       ?BuildTriTLtoBR@CCoreDispInfo@@AAEXH@Z 00456f00 f   builddisp.obj
 0001:00056000       ?BuildTriBLtoTR@CCoreDispInfo@@AAEXH@Z 00457000 f   builddisp.obj
 0001:00056100       ?GenerateCollisionSurface@CCoreDispInfo@@AAEXXZ 00457100 f   builddisp.obj
 0001:000561d0       ?GenerateCollisionData@CCoreDispInfo@@AAEXXZ 004571d0 f   builddisp.obj
 0001:000561f0       ?CalcTriSurfPlanes@CCoreDispInfo@@AAEXHQAY02H@Z 004571f0 f   builddisp.obj
 0001:000563e0       ?CalcRayBoundingBoxes@CCoreDispInfo@@AAEXHQAY02H@Z 004573e0 f   builddisp.obj
 0001:00056b60       ?CalcTriSurfBoundingBoxes@CCoreDispInfo@@AAEXHQAY02H@Z 00457b60 f   builddisp.obj
 0001:00056ee0       ?CalcTriSurfIndices@CCoreDispInfo@@AAEXHQAY02H@Z 00457ee0 f   builddisp.obj
 0001:00057140       ?CalcTriSurfInfoAtNode@CCoreDispInfo@@AAEXH@Z 00458140 f   builddisp.obj
 0001:00057190       ?CalcNeighborVertIndicesAtNode@CCoreDispInfo@@AAEXHH@Z 00458190 f   builddisp.obj
 0001:00057320       ?GetNodeVertIndexFromParentIndex@CCoreDispInfo@@AAEHHHH@Z 00458320 f   builddisp.obj
 0001:00057400       ?CalcDispSurfCoords@CCoreDispInfo@@QAEX_NH@Z 00458400 f   builddisp.obj
 0001:00057710       ?GenerateDispSurfTangentSpaces@CCoreDispInfo@@AAEXXZ 00458710 f   builddisp.obj
 0001:00057990       ?CalcNormalFromEdges@CCoreDispInfo@@AAEXHHQA_NAAVVector@@@Z 00458990 f   builddisp.obj
 0001:000585a0       ?DoesEdgeExist@CCoreDispInfo@@AAE_NHHHH@Z 004595a0 f   builddisp.obj
 0001:00058630       ?GenerateDispSurfNormals@CCoreDispInfo@@AAEXXZ 00459630 f   builddisp.obj
 0001:00058730       ?GenerateDispSurf@CCoreDispInfo@@AAEXXZ 00459730 f   builddisp.obj
 0001:00058c70       ?GetNodeLevel@@YAHH@Z      00459c70 f   builddisp.obj
 0001:00058cb0       ?GetNodeCount@@YAHH@Z      00459cb0 f   builddisp.obj
 0001:00058cd0       ?GetNodeParent@@YAHH@Z     00459cd0 f   builddisp.obj
 0001:00058ce0       ?GetNodeChild@@YAHHHH@Z    00459ce0 f   builddisp.obj
 0001:00058cf0       ?GetNodeMinNodeAtLevel@@YAHH@Z 00459cf0 f   builddisp.obj
 0001:00058d50       ?GetComponentsFromNodeIndex@@YAXHPAH0@Z 00459d50 f   builddisp.obj
 0001:00058dc0       ?GetNodeIndexFromComponents@@YAHHH@Z 00459dc0 f   builddisp.obj
 0001:00058e40       ?BaseFacePlaneToDispUV@CCoreDispInfo@@QAEXABVVector@@AAVVector2D@@@Z 00459e40 f   builddisp.obj
 0001:00058ec0       ?DispUVToSurf_TriTLToBR_2@CCoreDispInfo@@AAEXABVVector@@HHHHAAV2@PAV2@PAM_N@Z 00459ec0 f   builddisp.obj
 0001:000596b0       ?DispUVToSurf_TriBLToTR_2@CCoreDispInfo@@AAEXABVVector@@HHHHAAV2@PAV2@PAM_N@Z 0045a6b0 f   builddisp.obj
 0001:00059eb0       ?CreateBoundingBoxes@CCoreDispInfo@@AAEXPAUCoreDispBBox_t@@H@Z 0045aeb0 f   builddisp.obj
 0001:0005a0c0       ?PointInDispBBox@@YA_NPAUCoreDispBBox_t@@ABVVector@@@Z 0045b0c0 f i builddisp.obj
 0001:0005a130       ?GetTriangleIndicesForDispBBox@CCoreDispInfo@@AAEXHQAY02H@Z 0045b130 f   builddisp.obj
 0001:0005a190       ??0CoreDispBBox_t@@QAE@XZ  0045b190 f i builddisp.obj
 0001:0005a1a0       ?GetTriCount@CCoreDispInfo@@QAEHXZ 0045b1a0 f   builddisp.obj
 0001:0005a1b0       ?GetTriIndices@CCoreDispInfo@@QAEXHAAG00@Z 0045b1b0 f   builddisp.obj
 0001:0005a200       ?SetTriIndices@CCoreDispInfo@@QAEXHGGG@Z 0045b200 f   builddisp.obj
 0001:0005a250       ?GetTriPos@CCoreDispInfo@@QAEXHAAVVector@@00@Z 0045b250 f   builddisp.obj
 0001:0005a310       ?InitTris@CCoreDispInfo@@AAEXXZ 0045b310 f   builddisp.obj
 0001:0005a360       ?CreateTris@CCoreDispInfo@@AAEXXZ 0045b360 f   builddisp.obj
 0001:0005a3e0       ?IsTriWalkable@CCoreDispInfo@@QAE_NH@Z 0045b3e0 f   builddisp.obj
 0001:0005a410       ?IsTriBuildable@CCoreDispInfo@@QAE_NH@Z 0045b410 f   builddisp.obj
 0001:0005a440       ?Position_Update@CCoreDispInfo@@QAEXHVVector@@@Z 0045b440 f   builddisp.obj
 0001:0005a580       ??0?$CBitVec@$0BCB@@@QAE@XZ 0045b580 f i builddisp.obj
 0001:0005a5b0       ??0CCoreDispSurface@@QAE@XZ 0045b5b0 f   builddisp.obj
 0001:0005a650       ??0CCoreDispInfo@@QAE@XZ   0045b650 f   builddisp.obj
 0001:0005a740       ??0CCoreDispNode@@QAE@XZ   0045b740 f i builddisp.obj
 0001:0005a7b0       ?CalcMinMaxBoundingBoxAtNode@CCoreDispInfo@@AAEXHAAVVector@@0@Z 0045b7b0 f   builddisp.obj
 0001:0005a9e0       ?CalcBoundingBoxAtNode@CCoreDispInfo@@AAEXH@Z 0045b9e0 f   builddisp.obj
 0001:0005afb0       ?GetMaxErrorFromChildren@CCoreDispInfo@@AAEMHH@Z 0045bfb0 f   builddisp.obj
 0001:0005b040       ?CalcErrorTermAtNode@CCoreDispInfo@@AAEXHH@Z 0045c040 f   builddisp.obj
 0001:0005b660       ?CalcNodeInfo@CCoreDispInfo@@AAEXHH@Z 0045c660 f   builddisp.obj
 0001:0005b710       ?CalcVertIndicesAtNodes@CCoreDispInfo@@AAEXH@Z 0045c710 f   builddisp.obj
 0001:0005b7f0       ?GenerateLODTree@CCoreDispInfo@@AAEXXZ 0045c7f0 f   builddisp.obj
 0001:0005b860       ?Create@CCoreDispInfo@@QAE_NXZ 0045c860 f   builddisp.obj
 0001:0005b8f0       ?CreateWithoutLOD@CCoreDispInfo@@QAE_NXZ 0045c8f0 f   builddisp.obj
 0001:0005b980       ?GetNodeNeighborNode@@YAHHHHH@Z 0045c980 f   builddisp.obj
 0001:0005baa0       ?GetNodeNeighborNodeFromNeighborSurf@@YAHHHHHH@Z 0045caa0 f   builddisp.obj
 0001:0005bdc0       ?DispUVToSurf_TriTLToBR_1@CCoreDispInfo@@AAEXABVVector@@HHHHAAV2@PAV2@PAM_N@Z 0045cdc0 f   builddisp.obj
 0001:0005c5b0       ?DispUVToSurf_TriTLToBR@CCoreDispInfo@@AAEXAAVVector@@PAV2@PAMMMABV2@@Z 0045d5b0 f   builddisp.obj
 0001:0005c660       ?DispUVToSurf_TriBLToTR_1@CCoreDispInfo@@AAEXABVVector@@HHHHAAV2@PAV2@PAM_N@Z 0045d660 f   builddisp.obj
 0001:0005cea0       ?DispUVToSurf_TriBLToTR@CCoreDispInfo@@AAEXAAVVector@@PAV2@PAMMMABV2@@Z 0045dea0 f   builddisp.obj
 0001:0005cf50       ?DispUVToSurf@CCoreDispInfo@@QAEXABVVector2D@@AAVVector@@PAV3@PAM@Z 0045df50 f   builddisp.obj
 0001:0005d090       ?SurfToBaseFacePlane@CCoreDispInfo@@QAE_NABVVector@@AAV2@@Z 0045e090 f   builddisp.obj
 0001:0005d380       ?InitDispInfo@CCoreDispInfo@@QAEXHHMPAMPAVVector@@0@Z 0045e380 f   builddisp.obj
 0001:0005d870       ?InitDispInfo@CCoreDispInfo@@QAEXHHMPBVCDispVert@@PBVCDispTri@@@Z 0045e870 f   builddisp.obj
 0001:0005d9f0       ?GetPositionOnSurface@CCoreDispInfo@@QAEXMMAAVVector@@PAV2@PAM@Z 0045e9f0 f   builddisp.obj
 0001:0005da30       ?assign@?$char_traits@D@std@@SAPADPADID@Z 0045ea30 f i ChunkFile.obj
 0001:0005da50       ?eq_int_type@?$char_traits@D@std@@SA_NABH0@Z 0045ea50 f i ChunkFile.obj
 0001:0005da70       ?eof@?$char_traits@D@std@@SAHXZ 0045ea70 f i ChunkFile.obj
 0001:0005da80       ?_Decref@facet@locale@std@@QAEPAV123@XZ 0045ea80 f i ChunkFile.obj
 0001:0005dac0       ??1locale@std@@QAE@XZ      0045eac0 f i ChunkFile.obj
 0001:0005db10       ??1ios_base@std@@UAE@XZ    0045eb10 f i ChunkFile.obj
 0001:0005db20       ??_Eios_base@std@@UAEPAXI@Z 0045eb20 f i ChunkFile.obj
 0001:0005db20       ??_Gios_base@std@@UAEPAXI@Z 0045eb20 f i ChunkFile.obj
 0001:0005db50       ??0CChunkHandlerMap@@QAE@XZ 0045eb50 f   ChunkFile.obj
 0001:0005db70       ??1CChunkHandlerMap@@QAE@XZ 0045eb70 f   ChunkFile.obj
 0001:0005dbb0       ?AddHandler@CChunkHandlerMap@@QAEXPBDP6A?AW4ChunkFileResult_t@@PAVCChunkFile@@PAX@Z2@Z 0045ebb0 f   ChunkFile.obj
 0001:0005dc40       ?SetErrorHandler@CChunkHandlerMap@@QAEXP6A_NPAVCChunkFile@@PBDPAX@Z2@Z 0045ec40 f   ChunkFile.obj
 0001:0005dc60       ?GetErrorHandler@CChunkHandlerMap@@QAEP6A_NPAVCChunkFile@@PBDPAX@ZPAPAX@Z 0045ec60 f   ChunkFile.obj
 0001:0005dc80       ?GetHandler@CChunkHandlerMap@@QAEP6A?AW4ChunkFileResult_t@@PAVCChunkFile@@PAX@ZPBDPAPAX@Z 0045ec80 f   ChunkFile.obj
 0001:0005dce0       ?BuildIndentString@CChunkFile@@IAEXPADH@Z 0045ece0 f   ChunkFile.obj
 0001:0005dd30       ?Close@CChunkFile@@QAE?AW4ChunkFileResult_t@@XZ 0045ed30 f   ChunkFile.obj
 0001:0005dd70       ?GetErrorText@CChunkFile@@QAEPBDW4ChunkFileResult_t@@@Z 0045ed70 f   ChunkFile.obj
 0001:0005de70       ?HandleError@CChunkFile@@QAEXPBDW4ChunkFileResult_t@@@Z 0045ee70 f   ChunkFile.obj
 0001:0005de80       ?Open@CChunkFile@@QAE?AW4ChunkFileResult_t@@PBDW4ChunkFileOpenMode_t@@@Z 0045ee80 f   ChunkFile.obj
 0001:0005df00       ?PopHandlers@CChunkFile@@QAEXXZ 0045ef00 f   ChunkFile.obj
 0001:0005df30       ?SetDefaultChunkHandler@CChunkFile@@QAEXP6A?AW4ChunkFileResult_t@@PAV1@PAXPBD@Z1@Z 0045ef30 f   ChunkFile.obj
 0001:0005df60       ?PushHandlers@CChunkFile@@QAEXPAVCChunkHandlerMap@@@Z 0045ef60 f   ChunkFile.obj
 0001:0005dfb0       ?ReadNext@CChunkFile@@QAE?AW4ChunkFileResult_t@@PAD0HAAW4ChunkType_t@@@Z 0045efb0 f   ChunkFile.obj
 0001:0005e1e0       ?ReadKeyValueBool@CChunkFile@@SA_NPBDAA_N@Z 0045f1e0 f   ChunkFile.obj
 0001:0005e210       ?ReadKeyValueFloat@CChunkFile@@SA_NPBDAAM@Z 0045f210 f   ChunkFile.obj
 0001:0005e230       ?ReadKeyValueInt@CChunkFile@@SA_NPBDAAH@Z 0045f230 f   ChunkFile.obj
 0001:0005e250       ?ReadKeyValueColor@CChunkFile@@SA_NPBDAAE11@Z 0045f250 f   ChunkFile.obj
 0001:0005e2a0       ?ReadKeyValuePoint@CChunkFile@@SA_NPBDAAVVector@@@Z 0045f2a0 f   ChunkFile.obj
 0001:0005e2e0       ?ReadKeyValueVector2@CChunkFile@@SA_NPBDAAVVector2D@@@Z 0045f2e0 f   ChunkFile.obj
 0001:0005e320       ?ReadKeyValueVector3@CChunkFile@@SA_NPBDAAVVector@@@Z 0045f320 f   ChunkFile.obj
 0001:0005e360       ?ReadKeyValueVector4@CChunkFile@@SA_NPBDAAVVector4D@@@Z 0045f360 f   ChunkFile.obj
 0001:0005e3c0       ?WriteLine@CChunkFile@@QAE?AW4ChunkFileResult_t@@PBD@Z 0045f3c0 f   ChunkFile.obj
 0001:0005e4b0       ??1?$basic_ios@DU?$char_traits@D@std@@@std@@UAE@XZ 0045f4b0 f i ChunkFile.obj
 0001:0005e4d0       ??1?$basic_istream@DU?$char_traits@D@std@@@std@@UAE@XZ 0045f4d0 f i ChunkFile.obj
 0001:0005e4f0       ??_E?$basic_ios@DU?$char_traits@D@std@@@std@@UAEPAXI@Z 0045f4f0 f i ChunkFile.obj
 0001:0005e4f0       ??_G?$basic_ios@DU?$char_traits@D@std@@@std@@UAEPAXI@Z 0045f4f0 f i ChunkFile.obj
 0001:0005e530       ??_Glocale@std@@QAEPAXI@Z  0045f530 f i ChunkFile.obj
 0001:0005e560       ??_D?$basic_istream@DU?$char_traits@D@std@@@std@@QAEXXZ 0045f560 f i ChunkFile.obj
 0001:0005e5b0       ?setg@?$basic_streambuf@DU?$char_traits@D@std@@@std@@IAEXPAD00@Z 0045f5b0 f i ChunkFile.obj
 0001:0005e5f0       ?_Init@?$basic_streambuf@DU?$char_traits@D@std@@@std@@IAEXPAPAD0PAH001@Z 0045f5f0 f i ChunkFile.obj
 0001:0005e640       ??D?$_String_const_iterator@DU?$char_traits@D@std@@V?$allocator@D@2@@std@@QBEABDXZ 0045f640 f i ChunkFile.obj
 0001:0005e6b0       ?unshift@?$codecvt@DDH@std@@QBEHAAHPAD1AAPAD@Z 0045f6b0 f i ChunkFile.obj
 0001:0005e6e0       ?setp@?$basic_streambuf@DU?$char_traits@D@std@@@std@@IAEXPAD0@Z 0045f6e0 f i ChunkFile.obj
 0001:0005e720       ??0?$_Ranit_base@DHPBDABDU_Iterator_base@std@@@std@@QAE@XZ 0045f720 f i ChunkFile.obj
 0001:0005e740       ?BeginChunk@CChunkFile@@QAE?AW4ChunkFileResult_t@@PBD@Z 0045f740 f   ChunkFile.obj
 0001:0005e7f0       ?EndChunk@CChunkFile@@QAE?AW4ChunkFileResult_t@@XZ 0045f7f0 f   ChunkFile.obj
 0001:0005e850       ?HandleChunk@CChunkFile@@QAE?AW4ChunkFileResult_t@@PBD@Z 0045f850 f   ChunkFile.obj
 0001:0005e990       ?ReadChunk@CChunkFile@@QAE?AW4ChunkFileResult_t@@P6A?AW42@PBD0PAX@Z1@Z 0045f990 f   ChunkFile.obj
 0001:0005ea30       ?WriteKeyValue@CChunkFile@@QAE?AW4ChunkFileResult_t@@PBD0@Z 0045fa30 f   ChunkFile.obj
 0001:0005ea90       ?WriteKeyValueBool@CChunkFile@@QAE?AW4ChunkFileResult_t@@PBD_N@Z 0045fa90 f   ChunkFile.obj
 0001:0005eaf0       ?WriteKeyValueInt@CChunkFile@@QAE?AW4ChunkFileResult_t@@PBDH@Z 0045faf0 f   ChunkFile.obj
 0001:0005eb50       ?WriteKeyValueFloat@CChunkFile@@QAE?AW4ChunkFileResult_t@@PBDM@Z 0045fb50 f   ChunkFile.obj
 0001:0005ebb0       ?WriteKeyValueColor@CChunkFile@@QAE?AW4ChunkFileResult_t@@PBDEEE@Z 0045fbb0 f   ChunkFile.obj
 0001:0005ec10       ?WriteKeyValuePoint@CChunkFile@@QAE?AW4ChunkFileResult_t@@PBDABVVector@@@Z 0045fc10 f   ChunkFile.obj
 0001:0005ec90       ?WriteKeyValueVector2@CChunkFile@@QAE?AW4ChunkFileResult_t@@PBDABVVector2D@@@Z 0045fc90 f   ChunkFile.obj
 0001:0005ed00       ?WriteKeyValueVector3@CChunkFile@@QAE?AW4ChunkFileResult_t@@PBDABVVector@@@Z 0045fd00 f   ChunkFile.obj
 0001:0005ed80       ?WriteKeyValueVector4@CChunkFile@@QAE?AW4ChunkFileResult_t@@PBDABVVector4D@@@Z 0045fd80 f   ChunkFile.obj
 0001:0005ee00       ??1?$basic_streambuf@DU?$char_traits@D@std@@@std@@UAE@XZ 0045fe00 f i ChunkFile.obj
 0001:0005ee70       ?to_char_type@?$char_traits@D@std@@SADABH@Z 0045fe70 f i ChunkFile.obj
 0001:0005ee80       ?to_int_type@?$char_traits@D@std@@SAHABD@Z 0045fe80 f i ChunkFile.obj
 0001:0005ee90       ?overflow@?$basic_streambuf@DU?$char_traits@D@std@@@std@@MAEHH@Z 0045fe90 f i ChunkFile.obj
 0001:0005eeb0       ?pbackfail@?$basic_streambuf@DU?$char_traits@D@std@@@std@@MAEHH@Z 0045feb0 f i ChunkFile.obj
 0001:0005eed0       ?showmanyc@?$basic_streambuf@DU?$char_traits@D@std@@@std@@MAEHXZ 0045fed0 f i ChunkFile.obj
 0001:0005eee0       ?underflow@?$basic_streambuf@DU?$char_traits@D@std@@@std@@MAEHXZ 0045fee0 f i ChunkFile.obj
 0001:0005eef0       ?xsgetn@?$basic_streambuf@DU?$char_traits@D@std@@@std@@MAEHPADH@Z 0045fef0 f i ChunkFile.obj
 0001:0005ef20       ?setbuf@?$basic_streambuf@DU?$char_traits@D@std@@@std@@MAEPAV12@PADH@Z 0045ff20 f i ChunkFile.obj
 0001:0005ef30       ?sync@?$basic_streambuf@DU?$char_traits@D@std@@@std@@MAEHXZ 0045ff30 f i ChunkFile.obj
 0001:0005ef40       ?imbue@?$basic_streambuf@DU?$char_traits@D@std@@@std@@MAEXABVlocale@2@@Z 0045ff40 f i ChunkFile.obj
 0001:0005ef50       ?gptr@?$basic_streambuf@DU?$char_traits@D@std@@@std@@IBEPADXZ 0045ff50 f i ChunkFile.obj
 0001:0005ef70       ?pptr@?$basic_streambuf@DU?$char_traits@D@std@@@std@@IBEPADXZ 0045ff70 f i ChunkFile.obj
 0001:0005ef90       ?gbump@?$basic_streambuf@DU?$char_traits@D@std@@@std@@IAEXH@Z 0045ff90 f i ChunkFile.obj
 0001:0005efd0       ?_Gninc@?$basic_streambuf@DU?$char_traits@D@std@@@std@@IAEPADXZ 0045ffd0 f i ChunkFile.obj
 0001:0005f020       ?_Gnavail@?$basic_streambuf@DU?$char_traits@D@std@@@std@@IBEHXZ 00460020 f i ChunkFile.obj
 0001:0005f050       ?pbump@?$basic_streambuf@DU?$char_traits@D@std@@@std@@IAEXH@Z 00460050 f i ChunkFile.obj
 0001:0005f090       ?_Pnavail@?$basic_streambuf@DU?$char_traits@D@std@@@std@@IBEHXZ 00460090 f i ChunkFile.obj
 0001:0005f0c0       ??0?$fpos@H@std@@QAE@J@Z   004600c0 f i ChunkFile.obj
 0001:0005f100       ?uflow@?$basic_streambuf@DU?$char_traits@D@std@@@std@@MAEHXZ 00460100 f i ChunkFile.obj
 0001:0005f160       ?seekoff@?$basic_streambuf@DU?$char_traits@D@std@@@std@@MAE?AV?$fpos@H@2@JHH@Z 00460160 f i ChunkFile.obj
 0001:0005f1a0       ?seekpos@?$basic_streambuf@DU?$char_traits@D@std@@@std@@MAE?AV?$fpos@H@2@V32@H@Z 004601a0 f i ChunkFile.obj
 0001:0005f1e0       ??_E?$basic_istream@DU?$char_traits@D@std@@@std@@UAEPAXI@Z 004601e0 f i ChunkFile.obj
 0001:0005f1e0       ??_G?$basic_istream@DU?$char_traits@D@std@@@std@@UAEPAXI@Z 004601e0 f i ChunkFile.obj
 0001:0005f220       ??_E?$basic_streambuf@DU?$char_traits@D@std@@@std@@UAEPAXI@Z 00460220 f i ChunkFile.obj
 0001:0005f220       ??_G?$basic_streambuf@DU?$char_traits@D@std@@@std@@UAEPAXI@Z 00460220 f i ChunkFile.obj
 0001:0005f250       ??D?$_String_iterator@DU?$char_traits@D@std@@V?$allocator@D@2@@std@@QBEAADXZ 00460250 f i ChunkFile.obj
 0001:0005f270       ?_Chassign@?$basic_string@DU?$char_traits@D@std@@V?$allocator@D@2@@std@@IAEXIID@Z 00460270 f i ChunkFile.obj
 0001:0005f2f0       ?_Init@?$basic_streambuf@DU?$char_traits@D@std@@@std@@IAEXXZ 004602f0 f i ChunkFile.obj
 0001:0005f390       ??0?$_String_const_iterator@DU?$char_traits@D@std@@V?$allocator@D@2@@std@@QAE@PBDPBU_Container_base@1@@Z 00460390 f i ChunkFile.obj
 0001:0005f420       ?_Xsgetn_s@?$basic_streambuf@DU?$char_traits@D@std@@@std@@MAEHPADIH@Z 00460420 f i ChunkFile.obj
 0001:0005f560       ?xsputn@?$basic_streambuf@DU?$char_traits@D@std@@@std@@MAEHPBDH@Z 00460560 f i ChunkFile.obj
 0001:0005f6a0       ?_Init@?$basic_filebuf@DU?$char_traits@D@std@@@std@@IAEXPAU_iobuf@@W4_Initfl@12@@Z 004606a0 f i ChunkFile.obj
 0001:0005f760       ??0?$_String_iterator@DU?$char_traits@D@std@@V?$allocator@D@2@@std@@QAE@PADPBU_Container_base@1@@Z 00460760 f i ChunkFile.obj
 0001:0005f780       ?begin@?$basic_string@DU?$char_traits@D@std@@V?$allocator@D@2@@std@@QAE?AV?$_String_iterator@DU?$char_traits@D@std@@V?$allocator@D@2@@2@XZ 00460780 f i ChunkFile.obj
 0001:0005f7c0       ?append@?$basic_string@DU?$char_traits@D@std@@V?$allocator@D@2@@std@@QAEAAV12@ID@Z 004607c0 f i ChunkFile.obj
 0001:0005f870       ?assign@?$basic_string@DU?$char_traits@D@std@@V?$allocator@D@2@@std@@QAEAAV12@ID@Z 00460870 f i ChunkFile.obj
 0001:0005f900       ??0?$basic_string@DU?$char_traits@D@std@@V?$allocator@D@2@@std@@QAE@ID@Z 00460900 f i ChunkFile.obj
 0001:0005f940       ?_Endwrite@?$basic_filebuf@DU?$char_traits@D@std@@@std@@IAE_NXZ 00460940 f i ChunkFile.obj
 0001:0005fbd0       ?close@?$basic_filebuf@DU?$char_traits@D@std@@@std@@QAEPAV12@XZ 00460bd0 f i ChunkFile.obj
 0001:0005fc50       ??1?$basic_filebuf@DU?$char_traits@D@std@@@std@@UAE@XZ 00460c50 f i ChunkFile.obj
 0001:0005fca0       ?not_eof@?$char_traits@D@std@@SAHABH@Z 00460ca0 f i ChunkFile.obj
 0001:0005fcc0       ??Bid@locale@std@@QAEIXZ   00460cc0 f i ChunkFile.obj
 0001:0005fd00       ?_Incref@facet@locale@std@@QAEXXZ 00460d00 f i ChunkFile.obj
 0001:0005fd30       ?_Register@facet@locale@std@@QAEXXZ 00460d30 f i ChunkFile.obj
 0001:0005fd40       ??1facet@locale@std@@UAE@XZ 00460d40 f i ChunkFile.obj
 0001:0005fd50       ??0facet@locale@std@@IAE@I@Z 00460d50 f i ChunkFile.obj
 0001:0005fd70       ?_Getfacet@locale@std@@QBEPBVfacet@12@I@Z 00460d70 f i ChunkFile.obj
 0001:0005fdb0       ??_Efacet@locale@std@@UAEPAXI@Z 00460db0 f i ChunkFile.obj
 0001:0005fdb0       ??_Gfacet@locale@std@@UAEPAXI@Z 00460db0 f i ChunkFile.obj
 0001:0005fdd0       ??0codecvt_base@std@@QAE@I@Z 00460dd0 f i ChunkFile.obj
 0001:0005fdf0       ?always_noconv@codecvt_base@std@@QBE_NXZ 00460df0 f i ChunkFile.obj
 0001:0005fe00       ??1codecvt_base@std@@UAE@XZ 00460e00 f i ChunkFile.obj
 0001:0005fe10       ?do_always_noconv@codecvt_base@std@@MBE_NXZ 00460e10 f i ChunkFile.obj
 0001:0005fe20       ?do_max_length@codecvt_base@std@@MBEHXZ 00460e20 f i ChunkFile.obj
 0001:0005fe30       ?do_encoding@codecvt_base@std@@MBEHXZ 00460e30 f i ChunkFile.obj
 0001:0005fe40       ??_Gcodecvt_base@std@@UAEPAXI@Z 00460e40 f i ChunkFile.obj
 0001:0005fe40       ??_Ecodecvt_base@std@@UAEPAXI@Z 00460e40 f i ChunkFile.obj
 0001:0005fe60       ??$_Fgetc@D@std@@YA_NAADPAU_iobuf@@@Z 00460e60 f i ChunkFile.obj
 0001:0005fe80       ??$_Fputc@D@std@@YA_NDPAU_iobuf@@@Z 00460e80 f i ChunkFile.obj
 0001:0005fea0       ??$_Ungetc@D@std@@YA_NABDPAU_iobuf@@@Z 00460ea0 f i ChunkFile.obj
 0001:0005fec0       ?sync@?$basic_filebuf@DU?$char_traits@D@std@@@std@@MAEHXZ 00460ec0 f i ChunkFile.obj
 0001:0005ff40       ?eback@?$basic_streambuf@DU?$char_traits@D@std@@@std@@IBEPADXZ 00460f40 f i ChunkFile.obj
 0001:0005ff60       ?egptr@?$basic_streambuf@DU?$char_traits@D@std@@@std@@IBEPADXZ 00460f60 f i ChunkFile.obj
 0001:0005ff80       ?epptr@?$basic_streambuf@DU?$char_traits@D@std@@@std@@IBEPADXZ 00460f80 f i ChunkFile.obj
 0001:0005ffa0       ?_Gndec@?$basic_streambuf@DU?$char_traits@D@std@@@std@@IAEPADXZ 00460fa0 f i ChunkFile.obj
 0001:0005ffe0       ?_Pninc@?$basic_streambuf@DU?$char_traits@D@std@@@std@@IAEPADXZ 00460fe0 f i ChunkFile.obj
 0001:00060030       ??0?$fpos@H@std@@QAE@H_J@Z 00461030 f i ChunkFile.obj
 0001:00060070       ?state@?$fpos@H@std@@QBEHXZ 00461070 f i ChunkFile.obj
 0001:00060090       ?seekpos@?$fpos@H@std@@QBE_JXZ 00461090 f i ChunkFile.obj
 0001:000600b0       ??B?$fpos@H@std@@QBEJXZ    004610b0 f i ChunkFile.obj
 0001:000600d0       ?in@?$codecvt@DDH@std@@QBEHAAHPBD1AAPBDPAD3AAPAD@Z 004610d0 f i ChunkFile.obj
 0001:00060110       ?out@?$codecvt@DDH@std@@QBEHAAHPBD1AAPBDPAD3AAPAD@Z 00461110 f i ChunkFile.obj
 0001:00060150       ?_Init@?$codecvt@DDH@std@@IAEXABV_Locinfo@2@@Z 00461150 f i ChunkFile.obj
 0001:00060160       ?pbackfail@?$basic_filebuf@DU?$char_traits@D@std@@@std@@MAEHH@Z 00461160 f i ChunkFile.obj
 0001:000602e0       ?underflow@?$basic_filebuf@DU?$char_traits@D@std@@@std@@MAEHXZ 004612e0 f i ChunkFile.obj
 0001:00060390       ?_Initcvt@?$basic_filebuf@DU?$char_traits@D@std@@@std@@IAEXPAV?$codecvt@DDH@2@@Z 00461390 f i ChunkFile.obj
 0001:000603d0       ??0?$basic_string@DU?$char_traits@D@std@@V?$allocator@D@2@@std@@QAE@XZ 004613d0 f i ChunkFile.obj
 0001:00060400       ?setbuf@?$basic_filebuf@DU?$char_traits@D@std@@@std@@MAEPAV?$basic_streambuf@DU?$char_traits@D@std@@@2@PADH@Z 00461400 f i ChunkFile.obj
 0001:00060470       ??1_Locinfo@std@@QAE@XZ    00461470 f i ChunkFile.obj
 0001:000604b0       ?uflow@?$basic_filebuf@DU?$char_traits@D@std@@@std@@MAEHXZ 004614b0 f i ChunkFile.obj
 0001:000608a0       ??0runtime_error@std@@QAE@ABV?$basic_string@DU?$char_traits@D@std@@V?$allocator@D@2@@1@@Z 004618a0 f i ChunkFile.obj
 0001:000608d0       ?what@runtime_error@std@@UBEPBDXZ 004618d0 f i ChunkFile.obj
 0001:000608e0       ??1runtime_error@std@@UAE@XZ 004618e0 f i ChunkFile.obj
 0001:00060900       ??_Gruntime_error@std@@UAEPAXI@Z 00461900 f i ChunkFile.obj
 0001:00060900       ??_Eruntime_error@std@@UAEPAXI@Z 00461900 f i ChunkFile.obj
 0001:00060930       ?overflow@?$basic_filebuf@DU?$char_traits@D@std@@@std@@MAEHH@Z 00461930 f i ChunkFile.obj
 0001:00060d30       ?seekoff@?$basic_filebuf@DU?$char_traits@D@std@@@std@@MAE?AV?$fpos@H@2@JHH@Z 00461d30 f i ChunkFile.obj
 0001:00060ee0       ?seekpos@?$basic_filebuf@DU?$char_traits@D@std@@@std@@MAE?AV?$fpos@H@2@V32@H@Z 00461ee0 f i ChunkFile.obj
 0001:000610b0       ??0_Locinfo@std@@QAE@PBD@Z 004620b0 f i ChunkFile.obj
 0001:00061140       ??0runtime_error@std@@QAE@ABV01@@Z 00462140 f i ChunkFile.obj
 0001:00061170       ??_E?$basic_filebuf@DU?$char_traits@D@std@@@std@@UAEPAXI@Z 00462170 f i ChunkFile.obj
 0001:00061170       ??_G?$basic_filebuf@DU?$char_traits@D@std@@@std@@UAEPAXI@Z 00462170 f i ChunkFile.obj
 0001:000611e0       ??0?$codecvt@DDH@std@@QAE@I@Z 004621e0 f i ChunkFile.obj
 0001:00061230       ??1?$codecvt@DDH@std@@MAE@XZ 00462230 f i ChunkFile.obj
 0001:00061250       ?do_in@?$codecvt@DDH@std@@MBEHAAHPBD1AAPBDPAD3AAPAD@Z 00462250 f i ChunkFile.obj
 0001:00061280       ?do_out@?$codecvt@DDH@std@@MBEHAAHPBD1AAPBDPAD3AAPAD@Z 00462280 f i ChunkFile.obj
 0001:000612b0       ?do_unshift@?$codecvt@DDH@std@@MBEHAAHPAD1AAPAD@Z 004622b0 f i ChunkFile.obj
 0001:000612d0       ?do_length@?$codecvt@DDH@std@@MBEHABHPBD1I@Z 004622d0 f i ChunkFile.obj
 0001:00061300       ??_G?$codecvt@DDH@std@@MAEPAXI@Z 00462300 f i ChunkFile.obj
 0001:00061300       ??_E?$codecvt@DDH@std@@MAEPAXI@Z 00462300 f i ChunkFile.obj
 0001:00061340       ??1?$basic_ifstream@DU?$char_traits@D@std@@@std@@UAE@XZ 00462340 f i ChunkFile.obj
 0001:000613b0       ??_D?$basic_ifstream@DU?$char_traits@D@std@@@std@@QAEXXZ 004623b0 f i ChunkFile.obj
 0001:000613f0       ?_Getcat@?$codecvt@DDH@std@@SAIPAPBVfacet@locale@2@@Z 004623f0 f i ChunkFile.obj
 0001:00061470       ??1TokenReader@@UAE@XZ     00462470 f i ChunkFile.obj
 0001:00061480       ??_E?$basic_ifstream@DU?$char_traits@D@std@@@std@@UAEPAXI@Z 00462480 f i ChunkFile.obj
 0001:00061480       ??_G?$basic_ifstream@DU?$char_traits@D@std@@@std@@UAEPAXI@Z 00462480 f i ChunkFile.obj
 0001:000614e0       ??$use_facet@V?$codecvt@DDH@std@@@std@@YAABV?$codecvt@DDH@0@ABVlocale@0@@Z 004624e0 f i ChunkFile.obj
 0001:000615a0       ??_DTokenReader@@QAEXXZ    004625a0 f i ChunkFile.obj
 0001:000615c0       ??0CChunkFile@@QAE@XZ      004625c0 f   ChunkFile.obj
 0001:00061620       ??1CChunkFile@@QAE@XZ      00462620 f   ChunkFile.obj
 0001:00061660       ?imbue@?$basic_filebuf@DU?$char_traits@D@std@@@std@@MAEXABVlocale@2@@Z 00462660 f i ChunkFile.obj
 0001:000616b0       ?strstr@@YAPADPADPBD@Z     004626b0 f i cmdlib.obj
 0001:000616d0       ?CmdLib_FGets@@YAPADPADHPAX@Z 004626d0 f   cmdlib.obj
 0001:00061740       ??1CExitStopper@@QAE@XZ    00462740 f i cmdlib.obj
 0001:00061890       ?CmdLib_AllocError@@YAXK@Z 00462890 f   cmdlib.obj
 0001:000618b0       ?CmdLib_NewHandler@@YAHI@Z 004628b0 f   cmdlib.obj
 0001:000618d0       ?InstallAllocationFunctions@@YAXXZ 004628d0 f   cmdlib.obj
 0001:000618f0       ?CloseSpewFunctionLogFile@@YAXXZ 004628f0 f   cmdlib.obj
 0001:00061920       ?CmdLib_Exit@@YAXH@Z       00462920 f   cmdlib.obj
 0001:00061930       ?qprintf@@YAXPADZZ         00462930 f   cmdlib.obj
 0001:000619b0       ?ExpandArg@@YAPADPAD@Z     004629b0 f   cmdlib.obj
 0001:00061a30       ?ExpandPath@@YAPADPAD@Z    00462a30 f   cmdlib.obj
 0001:00061a70       ?copystring@@YAPADPBD@Z    00462a70 f   cmdlib.obj
 0001:00061ab0       ?GetHourMinuteSeconds@@YAXHAAH00@Z 00462ab0 f   cmdlib.obj
 0001:00061ac0       ?GetHourMinuteSecondsString@@YAXHPADH@Z 00462ac0 f   cmdlib.obj
 0001:00061bd0       ?Q_mkdir@@YAXPAD@Z         00462bd0 f   cmdlib.obj
 0001:00061c00       ?CmdLib_InitFileSystem@@YAXPBDH@Z 00462c00 f   cmdlib.obj
 0001:00061c30       ?CmdLib_TermFileSystem@@YAXXZ 00462c30 f   cmdlib.obj
 0001:00061c40       ?CmdLib_GetFileSystemFactory@@YAP6APAXPBDPAH@ZXZ 00462c40 f   cmdlib.obj
 0001:00061c50       ?FileTime@@YAHPAD@Z        00462c50 f   cmdlib.obj
 0001:00061c80       ?COM_Parse@@YAPADPAD@Z     00462c80 f   cmdlib.obj
 0001:00061ca0       ?CheckParm@@YAHPAD@Z       00462ca0 f   cmdlib.obj
 0001:00061ce0       ?Q_filelength@@YAHPAX@Z    00462ce0 f   cmdlib.obj
 0001:00061d00       ?SafeOpenWrite@@YAPAXPAD@Z 00462d00 f   cmdlib.obj
 0001:00061d40       ?CmdLib_AddBasePath@@YAXPBD@Z 00462d40 f   cmdlib.obj
 0001:00061d90       ?CmdLib_HasBasePath@@YA_NPBDAAH@Z 00462d90 f   cmdlib.obj
 0001:00061e60       ?CmdLib_GetNumBasePaths@@YAHXZ 00462e60 f   cmdlib.obj
 0001:00061e70       ?CmdLib_GetBasePath@@YAPBDH@Z 00462e70 f   cmdlib.obj
 0001:00061e80       ?SafeOpenRead@@YAPAXPAD@Z  00462e80 f   cmdlib.obj
 0001:00061fa0       ?SafeRead@@YAXPAX0H@Z      00462fa0 f   cmdlib.obj
 0001:00061fd0       ?SafeWrite@@YAXPAX0H@Z     00462fd0 f   cmdlib.obj
 0001:00062000       ?FileExists@@YAHPAD@Z      00463000 f   cmdlib.obj
 0001:00062040       ?LoadFile@@YAHPADPAPAX@Z   00463040 f   cmdlib.obj
 0001:000620c0       ?SaveFile@@YAXPADPAXH@Z    004630c0 f   cmdlib.obj
 0001:00062130       ?ParseHex@@YAHPAD@Z        00463130 f   cmdlib.obj
 0001:000621a0       ?ParseNum@@YAHPAD@Z        004631a0 f   cmdlib.obj
 0001:000621e0       ?CreatePath@@YAXPAD@Z      004631e0 f   cmdlib.obj
 0001:00062240       ?SafeCreatePath@@YAXPAD@Z  00463240 f   cmdlib.obj
 0001:00062290       ?QCopyFile@@YAXPAD0@Z      00463290 f   cmdlib.obj
 0001:000622d0       ?InvalidIndex@?$CUtlLinkedList@P6AXXZG@@SAGXZ 004632d0 f i cmdlib.obj
 0001:000622e0       ?InvalidIndex@?$CUtlLinkedList@P6AXPBD@ZG@@SAGXZ 004632e0 f i cmdlib.obj
 0001:000622f0       ?Head@?$CUtlLinkedList@P6AXXZG@@QBEGXZ 004632f0 f i cmdlib.obj
 0001:00062300       ?Head@?$CUtlLinkedList@P6AXPBD@ZG@@QBEGXZ 00463300 f i cmdlib.obj
 0001:00062310       ?ConstructList@?$CUtlLinkedList@P6AXXZG@@IAEXXZ 00463310 f i cmdlib.obj
 0001:00062330       ??A?$CUtlMemory@UListElem_t@?$CUtlLinkedList@P6AXXZG@@@@QBEABUListElem_t@?$CUtlLinkedList@P6AXXZG@@H@Z 00463330 f i cmdlib.obj
 0001:00062340       ??A?$CUtlMemory@UListElem_t@?$CUtlLinkedList@P6AXXZG@@@@QAEAAUListElem_t@?$CUtlLinkedList@P6AXXZG@@H@Z 00463340 f i cmdlib.obj
 0001:00062350       ?Base@?$CUtlMemory@UListElem_t@?$CUtlLinkedList@P6AXXZG@@@@QAEPAUListElem_t@?$CUtlLinkedList@P6AXXZG@@XZ 00463350 f i cmdlib.obj
 0001:00062360       ?ConstructList@?$CUtlLinkedList@P6AXPBD@ZG@@IAEXXZ 00463360 f i cmdlib.obj
 0001:00062380       ??A?$CUtlMemory@UListElem_t@?$CUtlLinkedList@P6AXPBD@ZG@@@@QBEABUListElem_t@?$CUtlLinkedList@P6AXPBD@ZG@@H@Z 00463380 f i cmdlib.obj
 0001:00062390       ??A?$CUtlMemory@UListElem_t@?$CUtlLinkedList@P6AXPBD@ZG@@@@QAEAAUListElem_t@?$CUtlLinkedList@P6AXPBD@ZG@@H@Z 00463390 f i cmdlib.obj
 0001:000623a0       ?Base@?$CUtlMemory@UListElem_t@?$CUtlLinkedList@P6AXPBD@ZG@@@@QAEPAUListElem_t@?$CUtlLinkedList@P6AXPBD@ZG@@XZ 004633a0 f i cmdlib.obj
 0001:000623b0       ?InternalElement@?$CUtlLinkedList@P6AXXZG@@IAEAAUListElem_t@1@G@Z 004633b0 f i cmdlib.obj
 0001:000623c0       ?ValidateGrowSize@?$CUtlMemory@UListElem_t@?$CUtlLinkedList@P6AXXZG@@@@IAEXXZ 004633c0 f i cmdlib.obj
 0001:000623d0       ?InternalElement@?$CUtlLinkedList@P6AXPBD@ZG@@IAEAAUListElem_t@1@G@Z 004633d0 f i cmdlib.obj
 0001:000623e0       ?ValidateGrowSize@?$CUtlMemory@UListElem_t@?$CUtlLinkedList@P6AXPBD@ZG@@@@IAEXXZ 004633e0 f i cmdlib.obj
 0001:000623f0       ?Element@?$CUtlLinkedList@P6AXXZG@@QAEAAP6AXXZG@Z 004633f0 f i cmdlib.obj
 0001:00062400       ?IsValidIndex@?$CUtlLinkedList@P6AXXZG@@QBE_NG@Z 00463400 f i cmdlib.obj
 0001:00062430       ??$CopyConstruct@P6AXXZ@@YAXPAP6AXXZABQ6AXXZ@Z 00463430 f i cmdlib.obj
 0001:00062450       ??$Destruct@P6AXXZ@@YAXPAP6AXXZ@Z 00463450 f i cmdlib.obj
 0001:00062460       ?Element@?$CUtlLinkedList@P6AXPBD@ZG@@QAEAAP6AXPBD@ZG@Z 00463460 f i cmdlib.obj
 0001:00062470       ?IsValidIndex@?$CUtlLinkedList@P6AXPBD@ZG@@QBE_NG@Z 00463470 f i cmdlib.obj
 0001:000624a0       ??$CopyConstruct@P6AXPBD@Z@@YAXPAP6AXPBD@ZABQ6AX0@Z@Z 004634a0 f i cmdlib.obj
 0001:000624c0       ??$Destruct@P6AXPBD@Z@@YAXPAP6AXPBD@Z@Z 004634c0 f i cmdlib.obj
 0001:000624d0       ?NumAllocated@?$CUtlMemory@UListElem_t@?$CUtlLinkedList@P6AXXZG@@@@QBEHXZ 004634d0 f i cmdlib.obj
 0001:000624e0       ?IsExternallyAllocated@?$CUtlMemory@UListElem_t@?$CUtlLinkedList@P6AXXZG@@@@QBE_NXZ 004634e0 f i cmdlib.obj
 0001:000624f0       ?NumAllocated@?$CUtlMemory@UListElem_t@?$CUtlLinkedList@P6AXPBD@ZG@@@@QBEHXZ 004634f0 f i cmdlib.obj
 0001:00062500       ?IsExternallyAllocated@?$CUtlMemory@UListElem_t@?$CUtlLinkedList@P6AXPBD@ZG@@@@QBE_NXZ 00463500 f i cmdlib.obj
 0001:00062510       ?ExpandWildcards@@YAXPAHPAPAPAD@Z 00463510 f   cmdlib.obj
 0001:00062680       ??A?$CUtlLinkedList@P6AXXZG@@QAEAAP6AXXZG@Z 00463680 f i cmdlib.obj
 0001:00062690       ??A?$CUtlLinkedList@P6AXPBD@ZG@@QAEAAP6AXPBD@ZG@Z 00463690 f i cmdlib.obj
 0001:000626a0       ?InternalElement@?$CUtlLinkedList@P6AXXZG@@IBEABUListElem_t@1@G@Z 004636a0 f i cmdlib.obj
 0001:000626b0       ?ResetDbgInfo@?$CUtlLinkedList@P6AXXZG@@IAEXXZ 004636b0 f i cmdlib.obj
 0001:000626c0       ?InternalElement@?$CUtlLinkedList@P6AXPBD@ZG@@IBEABUListElem_t@1@G@Z 004636c0 f i cmdlib.obj
 0001:000626d0       ?ResetDbgInfo@?$CUtlLinkedList@P6AXPBD@ZG@@IAEXXZ 004636d0 f i cmdlib.obj
 0001:000626e0       ?RemoveAll@?$CUtlLinkedList@P6AXXZG@@QAEXXZ 004636e0 f i cmdlib.obj
 0001:00062740       ??0?$CUtlMemory@UListElem_t@?$CUtlLinkedList@P6AXXZG@@@@QAE@HH@Z 00463740 f i cmdlib.obj
 0001:00062780       ?RemoveAll@?$CUtlLinkedList@P6AXPBD@ZG@@QAEXXZ 00463780 f i cmdlib.obj
 0001:000627e0       ??0?$CUtlMemory@UListElem_t@?$CUtlLinkedList@P6AXPBD@ZG@@@@QAE@HH@Z 004637e0 f i cmdlib.obj
 0001:00062820       ?Purge@?$CUtlMemory@UListElem_t@?$CUtlLinkedList@P6AXXZG@@@@QAEXXZ 00463820 f i cmdlib.obj
 0001:00062850       ?Purge@?$CUtlMemory@UListElem_t@?$CUtlLinkedList@P6AXPBD@ZG@@@@QAEXXZ 00463850 f i cmdlib.obj
 0001:00062880       ?Grow@?$CUtlMemory@UListElem_t@?$CUtlLinkedList@P6AXXZG@@@@QAEXH@Z 00463880 f i cmdlib.obj
 0001:000628f0       ?Grow@?$CUtlMemory@UListElem_t@?$CUtlLinkedList@P6AXPBD@ZG@@@@QAEXH@Z 004638f0 f i cmdlib.obj
 0001:00062960       ?Previous@?$CUtlLinkedList@P6AXXZG@@QBEGG@Z 00463960 f i cmdlib.obj
 0001:00062970       ?Previous@?$CUtlLinkedList@P6AXPBD@ZG@@QBEGG@Z 00463970 f i cmdlib.obj
 0001:00062980       ?Next@?$CUtlLinkedList@P6AXXZG@@QBEGG@Z 00463980 f i cmdlib.obj
 0001:00062990       ?Next@?$CUtlLinkedList@P6AXPBD@ZG@@QBEGG@Z 00463990 f i cmdlib.obj
 0001:000629a0       ??1?$CUtlMemory@UListElem_t@?$CUtlLinkedList@P6AXXZG@@@@QAE@XZ 004639a0 f i cmdlib.obj
 0001:000629d0       ??1?$CUtlMemory@UListElem_t@?$CUtlLinkedList@P6AXPBD@ZG@@@@QAE@XZ 004639d0 f i cmdlib.obj
 0001:00062a00       ?AllocInternal@?$CUtlLinkedList@P6AXXZG@@IAEG_N@Z 00463a00 f i cmdlib.obj
 0001:00062aa0       ?AllocInternal@?$CUtlLinkedList@P6AXPBD@ZG@@IAEG_N@Z 00463aa0 f i cmdlib.obj
 0001:00062b40       ?IsInList@?$CUtlLinkedList@P6AXXZG@@QBE_NG@Z 00463b40 f i cmdlib.obj
 0001:00062b70       ?IsInList@?$CUtlLinkedList@P6AXPBD@ZG@@QBE_NG@Z 00463b70 f i cmdlib.obj
 0001:00062ba0       ?CmdLib_Cleanup@@YAXXZ     00463ba0 f   cmdlib.obj
 0001:00062c10       ??0?$CUtlLinkedList@P6AXXZG@@QAE@HH@Z 00463c10 f i cmdlib.obj
 0001:00062c70       ??1?$CUtlLinkedList@P6AXXZG@@QAE@XZ 00463c70 f i cmdlib.obj
 0001:00062cb0       ??0?$CUtlLinkedList@P6AXPBD@ZG@@QAE@HH@Z 00463cb0 f i cmdlib.obj
 0001:00062d10       ??1?$CUtlLinkedList@P6AXPBD@ZG@@QAE@XZ 00463d10 f i cmdlib.obj
 0001:00062d50       ?Unlink@?$CUtlLinkedList@P6AXXZG@@QAEXG@Z 00463d50 f i cmdlib.obj
 0001:00062de0       ?Unlink@?$CUtlLinkedList@P6AXPBD@ZG@@QAEXG@Z 00463de0 f i cmdlib.obj
 0001:00062e70       ?LinkBefore@?$CUtlLinkedList@P6AXXZG@@QAEXGG@Z 00463e70 f i cmdlib.obj
 0001:00062ef0       ?LinkBefore@?$CUtlLinkedList@P6AXPBD@ZG@@QAEXGG@Z 00463ef0 f i cmdlib.obj
 0001:00062f70       ?CmdLib_FPrintf@@YAXPAXPBDZZ 00463f70 f   cmdlib.obj
 0001:00063100       ?CmdLib_SpewOutputFunc@@YA?AW4SpewRetval_t@@W4SpewType_t@@PBD@Z 00464100 f   cmdlib.obj
 0001:00063390       ?InstallSpewFunction@@YAXXZ 00464390 f   cmdlib.obj
 0001:000633d0       ?SetSpewFunctionLogFile@@YAXPBD@Z 004643d0 f   cmdlib.obj
 0001:00063420       ?InsertBefore@?$CUtlLinkedList@P6AXXZG@@QAEGGABQ6AXXZ@Z 00464420 f i cmdlib.obj
 0001:00063460       ?InsertBefore@?$CUtlLinkedList@P6AXPBD@ZG@@QAEGGABQ6AXPBD@Z@Z 00464460 f i cmdlib.obj
 0001:000634a0       ?AddToTail@?$CUtlLinkedList@P6AXXZG@@QAEGABQ6AXXZ@Z 004644a0 f i cmdlib.obj
 0001:00063510       ?AddToTail@?$CUtlLinkedList@P6AXPBD@ZG@@QAEGABQ6AXPBD@Z@Z 00464510 f i cmdlib.obj
 0001:00063580       ?InstallExtraSpewHook@@YAXP6AXPBD@Z@Z 00464580 f   cmdlib.obj
 0001:00063590       ?CmdLib_AtCleanup@@YAXP6AXXZ@Z 00464590 f   cmdlib.obj
 0001:000635e0       ?ParseFile@@YAPBDPBDPADPA_NPAUcharacterset_s@@@Z 004645e0 f   filesystem_helpers.obj
 0001:00063740       ?ParseFile@@YAPADPAD0PA_N@Z 00464740 f   filesystem_helpers.obj
 0001:00063760       ?V_strstr@@YAPADPBD0@Z     00464760 f i filesystem_init.obj
 0001:00063770       ?SetRestoreOriginalValue@CTempEnvVar@@QAEX_N@Z 00464770 f i filesystem_init.obj
 0001:00063780       ?GetValue@CTempEnvVar@@QAEHPADH@Z 00464780 f i filesystem_init.obj
 0001:000637b0       ?SetValue@CTempEnvVar@@QAAXPBDZZ 004647b0 f i filesystem_init.obj
 0001:00063820       ?ClearValue@CTempEnvVar@@QAEXXZ 00464820 f i filesystem_init.obj
 0001:00063850       ?SetRestoreOriginalValue_ALL@CSteamEnvVars@@QAEX_N@Z 00464850 f i filesystem_init.obj
 0001:00063870       ?Q_getwd@@YAXPADH@Z        00464870 f   filesystem_init.obj
 0001:000638a0       ??0CFSSearchPathsInit@@QAE@XZ 004648a0 f   filesystem_init.obj
 0001:000638b0       ??0CFSSteamSetupInfo@@QAE@XZ 004648b0 f   filesystem_init.obj
 0001:000638d0       ??0CFSLoadModuleInfo@@QAE@XZ 004648d0 f   filesystem_init.obj
 0001:00063900       ??0CFSMountContentInfo@@QAE@XZ 00464900 f   filesystem_init.obj
 0001:00063910       ?FileSystem_GetLastErrorString@@YAPBDXZ 00464910 f   filesystem_init.obj
 0001:00063920       ?AddLanguageGameDir@@YAXPAVIFileSystem@@PBD1@Z 00464920 f   filesystem_init.obj
 0001:000639f0       ?AddGameBinDir@@YAXPAVIFileSystem@@PBD@Z 004649f0 f   filesystem_init.obj
 0001:00063a60       ?FileSystem_GetExecutableDir@@YA_NPADH@Z 00464a60 f   filesystem_init.obj
 0001:00063b20       ?LaunchVConfig@@YAXXZ      00464b20 f   filesystem_init.obj
 0001:00063b90       ?GetVProjectCmdLineValue@@YAPBDXZ 00464b90 f   filesystem_init.obj
 0001:00063bd0       ?SetupFileSystemError@@YA?AW4FSReturnCode_t@@_NW41@PBDZZ 00464bd0 f   filesystem_init.obj
 0001:00063c60       ?IsLowViolenceBuild@@YA_NXZ 00464c60 f   filesystem_init.obj
 0001:00063d30       ?DoesFileExistIn@@YA_NPBD0@Z 00464d30 f   filesystem_init.obj
 0001:00063da0       ?LocateGameInfoFile@@YA?AW4FSReturnCode_t@@ABVCFSSteamSetupInfo@@PADH@Z 00464da0 f   filesystem_init.obj
 0001:00063f80       ?DoesPathExistAlready@@YA_NPBD0@Z 00464f80 f   filesystem_init.obj
 0001:000640c0       ?SetSteamInstallPath@@YA?AW4FSReturnCode_t@@PADHAAVCSteamEnvVars@@_N@Z 004650c0 f   filesystem_init.obj
 0001:00064260       ?GetSteamCfgPath@@YA?AW4FSReturnCode_t@@PADH@Z 00465260 f   filesystem_init.obj
 0001:000643a0       ?SetSteamUserPassphrase@@YAXPAVKeyValues@@AAVCSteamEnvVars@@@Z 004653a0 f   filesystem_init.obj
 0001:00064400       ?SetSteamAppId@@YAXPAVKeyValues@@PBDAAVCSteamEnvVars@@@Z 00465400 f   filesystem_init.obj
 0001:00064450       ?FileSystem_SetBasePaths@@YA?AW4FSReturnCode_t@@PAVIFileSystem@@@Z 00465450 f   filesystem_init.obj
 0001:000644c0       ?FileSystem_GetFileSystemDLLName@@YA?AW4FSReturnCode_t@@PADHAA_N@Z 004654c0 f   filesystem_init.obj
 0001:00064590       ?FileSystem_SetErrorMode@@YAXW4FSErrorMode_t@@@Z 00465590 f   filesystem_init.obj
 0001:000645a0       ?FileSystem_AddSearchPath_Platform@@YAXPAVIFileSystem@@PBD@Z 004655a0 f   filesystem_init.obj
 0001:00064630       ??1CTempEnvVar@@QAE@XZ     00465630 f i filesystem_init.obj
 0001:000646a0       ??1CSteamEnvVars@@QAE@XZ   004656a0 f i filesystem_init.obj
 0001:000646d0       ??0CTempEnvVar@@QAE@PBD@Z  004656d0 f i filesystem_init.obj
 0001:00064770       ??0CSteamEnvVars@@QAE@XZ   00465770 f i filesystem_init.obj
 0001:000647b0       ?ReadKeyValuesFile@@YAPAVKeyValues@@PBD@Z 004657b0 f   filesystem_init.obj
 0001:00064890       ?LoadGameInfoFile@@YA?AW4FSReturnCode_t@@PBDAAPAVKeyValues@@11@Z 00465890 f   filesystem_init.obj
 0001:00064980       ?FileSystem_LoadSearchPaths@@YA?AW4FSReturnCode_t@@AAVCFSSearchPathsInit@@@Z 00465980 f   filesystem_init.obj
 0001:00064c30       ?SetSteamAppUser@@YAXPAVKeyValues@@PBDAAVCSteamEnvVars@@@Z 00465c30 f   filesystem_init.obj
 0001:00064d60       ?SetupSteamStartupEnvironment@@YA?AW4FSReturnCode_t@@PAVKeyValues@@PBDAAVCSteamEnvVars@@@Z 00465d60 f   filesystem_init.obj
 0001:00064e50       ?GetSteamExtraAppId@@YA?AW4FSReturnCode_t@@PBDPAH@Z 00465e50 f   filesystem_init.obj
 0001:00064ea0       ?FileSystem_SetupSteamInstallPath@@YA?AW4FSReturnCode_t@@XZ 00465ea0 f   filesystem_init.obj
 0001:00064f30       ?FileSystem_SetupSteamEnvironment@@YA?AW4FSReturnCode_t@@AAVCFSSteamSetupInfo@@@Z 00465f30 f   filesystem_init.obj
 0001:00065060       ?FileSystem_LoadFileSystemModule@@YA?AW4FSReturnCode_t@@AAVCFSLoadModuleInfo@@@Z 00466060 f   filesystem_init.obj
 0001:00065120       ?FileSystem_MountContent@@YA?AW4FSReturnCode_t@@AAVCFSMountContentInfo@@@Z 00466120 f   filesystem_init.obj
 0001:00065240       ?FileSystem_ClearSteamEnvVars@@YAXXZ 00466240 f   filesystem_init.obj
 0001:000652f0       ?FileSystem_Init_Normal@@YA_NPBDW4FSInitType_t@@_N@Z 004662f0 f   filesystem_tools.obj
 0001:00065570       ?FileSystem_Init@@YA_NPBDHW4FSInitType_t@@_N@Z 00466570 f   filesystem_tools.obj
 0001:00065590       ?FileSystem_Term@@YAXXZ    00466590 f   filesystem_tools.obj
 0001:000655e0       ?FileSystem_GetFactory@@YAP6APAXPBDPAH@ZXZ 004665e0 f   filesystem_tools.obj
 0001:000655f0       ?FileSystem_SetGame@@YA_NPBD@Z 004665f0 f   filesystem_tools.obj
 0001:00065660       ?LoadEntityKeyCallback@@YA?AW4ChunkFileResult_t@@PBD0PAULoadEntity_t@@@Z 00466660 f   map_shared.obj
 0001:000657e0       ?LoadEntsFromMapFile@@YA_NPBD@Z 004667e0 f   map_shared.obj
 0001:000658a0       ??$clamp@H@@YAHABH00@Z     004668a0 f i pacifier.obj
 0001:000658c0       ?UpdatePacifier@@YAXM@Z    004668c0 f   pacifier.obj
 0001:00065950       ?EndPacifier@@YAX_N@Z      00466950 f   pacifier.obj
 0001:00065980       ?StartPacifier@@YAXPBD@Z   00466980 f   pacifier.obj
 0001:000659b0       ?pw@@YAXPAUwinding_t@@@Z   004669b0 f   polylib.obj
 0001:00065a00       ?AllocWinding@@YAPAUwinding_t@@H@Z 00466a00 f   polylib.obj
 0001:00065a90       ?FreeWinding@@YAXPAUwinding_t@@@Z 00466a90 f   polylib.obj
 0001:00065ad0       ?RemoveColinearPoints@@YAXPAUwinding_t@@@Z 00466ad0 f   polylib.obj
 0001:00065c30       ?WindingPlane@@YAXPAUwinding_t@@AAVVector@@PAM@Z 00466c30 f   polylib.obj
 0001:00065d10       ?WindingArea@@YAMPAUwinding_t@@@Z 00466d10 f   polylib.obj
 0001:00065e20       ?WindingBounds@@YAXPAUwinding_t@@AAVVector@@1@Z 00466e20 f   polylib.obj
 0001:00065f00       ?WindingCenter@@YAXPAUwinding_t@@AAVVector@@@Z 00466f00 f   polylib.obj
 0001:00065f90       ?WindingAreaAndBalancePoint@@YAMPAUwinding_t@@AAVVector@@@Z 00466f90 f   polylib.obj
 0001:00066180       ?BaseWindingForPlane@@YAPAUwinding_t@@ABVVector@@M@Z 00467180 f   polylib.obj
 0001:00066480       ?CopyWinding@@YAPAUwinding_t@@PAU1@@Z 00467480 f   polylib.obj
 0001:000664c0       ?ReverseWinding@@YAPAUwinding_t@@PAU1@@Z 004674c0 f   polylib.obj
 0001:00066520       ?ClipWindingEpsilon@@YAXPAUwinding_t@@ABVVector@@MMPAPAU1@2@Z 00467520 f   polylib.obj
 0001:00066b30       ?ClassifyWindingEpsilon@@YAXPAUwinding_t@@ABVVector@@MMPAPAU1@22@Z 00467b30 f   polylib.obj
 0001:00066f20       ?ChopWindingInPlace@@YAXPAPAUwinding_t@@ABVVector@@MM@Z 00467f20 f   polylib.obj
 0001:00067250       ?ChopWinding@@YAPAUwinding_t@@PAU1@ABVVector@@M@Z 00468250 f   polylib.obj
 0001:00067310       ?CheckWinding@@YAXPAUwinding_t@@@Z 00468310 f   polylib.obj
 0001:000675c0       ?WindingOnPlaneSide@@YAHPAUwinding_t@@ABVVector@@M@Z 004685c0 f   polylib.obj
 0001:00067680       ?PointInWinding@@YA_NABVVector@@PAUwinding_t@@@Z 00468680 f   polylib.obj
 0001:00067870       ?TranslateWinding@@YAXPAUwinding_t@@ABVVector@@@Z 00468870 f   polylib.obj
 0001:000678b0       ?ClipWindingEpsilon_Offset@@YAXPAUwinding_t@@ABVVector@@MMPAPAU1@21@Z 004688b0 f   polylib.obj
 0001:000679b0       ?ClassifyWindingEpsilon_Offset@@YAXPAUwinding_t@@ABVVector@@MMPAPAU1@221@Z 004689b0 f   polylib.obj
 0001:00067af0       ?AddScriptToStack@@YAXPADW4ScriptPathMode_t@@@Z 00468af0 f   scriplib.obj
 0001:00067ba0       _LoadScriptFile            00468ba0 f   scriplib.obj
 0001:00067bd0       ?AddMacroToStack@@YA_NPAD@Z 00468bd0 f   scriplib.obj
 0001:00067da0       ?ExpandMacroToken@@YA_NAAPAD@Z 00468da0 f   scriplib.obj
 0001:00067ed0       _ParseFromMemory           00468ed0 f   scriplib.obj
 0001:00067f40       _UnGetToken                00468f40 f   scriplib.obj
 0001:00067f50       ?EndOfScript@@YAHH@Z       00468f50 f   scriplib.obj
 0001:00067ff0       _TokenAvailable            00468ff0 f   scriplib.obj
 0001:00068050       _GetTokenizerStatus        00469050 f   scriplib.obj
 0001:00068090       ?DefineMacro@@YAXPAD@Z     00469090 f   scriplib.obj
 0001:00068240       _GetToken                  00469240 f   scriplib.obj
 0001:000685e0       _GetExprToken              004695e0 f   scriplib.obj
 0001:00068940       ??0CCritInit@@QAE@XZ       00469940 f i threads.obj
 0001:00068960       ?SetLowPriority@@YAXXZ     00469960 f   threads.obj
 0001:00068970       ?ThreadSetDefault@@YAXXZ   00469970 f   threads.obj
 0001:000689c0       ?ThreadLock@@YAXXZ         004699c0 f   threads.obj
 0001:00068a00       ?ThreadUnlock@@YAXXZ       00469a00 f   threads.obj
 0001:00068a40       ?InternalRunThreadsFn@@YGKPAX@Z 00469a40 f   threads.obj
 0001:00068a60       ?RunThreads_Start@@YAXP6AXHPAX@Z0@Z 00469a60 f   threads.obj
 0001:00068af0       ?RunThreads_End@@YAXXZ     00469af0 f   threads.obj
 0001:00068b50       ?RunThreadsOn@@YAXHHP6AXHPAX@Z0@Z 00469b50 f   threads.obj
 0001:00068bd0       ?GetThreadWork@@YAHXZ      00469bd0 f   threads.obj
 0001:00068cc0       ?ThreadWorkerFunction@@YAXHPAX@Z 00469cc0 f   threads.obj
 0001:00068cf0       ?RunThreadsOnIndividual@@YAXHHP6AXHH@Z@Z 00469cf0 f   threads.obj
 0001:00068d80       ?EnableFullMinidumps@@YAX_N@Z 00469d80 f   tools_minidump.obj
 0001:00068d90       ?SetupDefaultToolsMinidumpHandler@@YAXXZ 00469d90 f   tools_minidump.obj
 0001:00068da0       ?SetupToolsMinidumpHandler@@YAXP6AXK@Z@Z 00469da0 f   tools_minidump.obj
 0001:00068db6       _GetModuleFileNameA@12     00469db6 f   kernel32:KERNEL32.dll
 0001:00068dbc       _VirtualQuery@12           00469dbc f   kernel32:KERNEL32.dll
 0001:00068dc2       _HeapAlloc@12              00469dc2 f   kernel32:KERNEL32.dll
 0001:00068dc8       _GetProcessHeap@0          00469dc8 f   kernel32:KERNEL32.dll
 0001:00068dce       _Sleep@4                   00469dce f   kernel32:KERNEL32.dll
 0001:00068dd4       _GetConsoleScreenBufferInfo@8 00469dd4 f   kernel32:KERNEL32.dll
 0001:00068dda       _GetStdHandle@4            00469dda f   kernel32:KERNEL32.dll
 0001:00068de0       _SetConsoleTextAttribute@8 00469de0 f   kernel32:KERNEL32.dll
 0001:00068de6       _TerminateProcess@8        00469de6 f   kernel32:KERNEL32.dll
 0001:00068dec       _GetCurrentProcess@0       00469dec f   kernel32:KERNEL32.dll
 0001:00068df2       _LeaveCriticalSection@4    00469df2 f   kernel32:KERNEL32.dll
 0001:00068df8       _OutputDebugStringA@4      00469df8 f   kernel32:KERNEL32.dll
 0001:00068dfe       _EnterCriticalSection@4    00469dfe f   kernel32:KERNEL32.dll
 0001:00068e04       _InitializeCriticalSection@4 00469e04 f   kernel32:KERNEL32.dll
 0001:00068e0a       _GetEnvironmentVariableA@12 00469e0a f   kernel32:KERNEL32.dll
 0001:00068e10       _GetModuleHandleA@4        00469e10 f   kernel32:KERNEL32.dll
 0001:00068e16       _SetPriorityClass@8        00469e16 f   kernel32:KERNEL32.dll
 0001:00068e1c       _GetSystemInfo@4           00469e1c f   kernel32:KERNEL32.dll
 0001:00068e22       _SetThreadPriority@8       00469e22 f   kernel32:KERNEL32.dll
 0001:00068e28       _CreateThread@24           00469e28 f   kernel32:KERNEL32.dll
 0001:00068e2e       _CloseHandle@4             00469e2e f   kernel32:KERNEL32.dll
 0001:00068e34       _WaitForMultipleObjects@16 00469e34 f   kernel32:KERNEL32.dll
 0001:00068e3a       _SetUnhandledExceptionFilter@4 00469e3a f   kernel32:KERNEL32.dll
 0001:00068e40       _RegCloseKey@4             00469e40 f   advapi32:ADVAPI32.dll
 0001:00068e46       _RegQueryValueExA@24       00469e46 f   advapi32:ADVAPI32.dll
 0001:00068e4c       _RegOpenKeyExA@20          00469e4c f   advapi32:ADVAPI32.dll
 0001:00068e60       ?_V_strlen@@YAHPBDH0@Z     00469e60 f   tier1:strtools.obj
 0001:00068e90       ?_V_wcslen@@YAHPBDHPB_W@Z  00469e90 f   tier1:strtools.obj
 0001:00068eb0       ?_V_strrchr@@YAPADPBDH0D@Z 00469eb0 f   tier1:strtools.obj
 0001:00068f00       ?_V_strcmp@@YAHPBDH00@Z    00469f00 f   tier1:strtools.obj
 0001:00068f60       ?_V_wcscmp@@YAHPBDHPB_W1@Z 00469f60 f   tier1:strtools.obj
 0001:00068f90       ?_V_stricmp@@YAHPBDH00@Z   00469f90 f   tier1:strtools.obj
 0001:00068fc0       ?_V_strstr@@YAPADPBDH00@Z  00469fc0 f   tier1:strtools.obj
 0001:00068ff0       ?_V_strupr@@YAPADPBDHPAD@Z 00469ff0 f   tier1:strtools.obj
 0001:00069010       ?_V_strlower@@YAPADPBDHPAD@Z 0046a010 f   tier1:strtools.obj
 0001:00069030       ?V_strncmp@@YAHPBD0H@Z     0046a030 f   tier1:strtools.obj
 0001:00069090       ?V_strnlwr@@YAPADPADI@Z    0046a090 f   tier1:strtools.obj
 0001:000690d0       ?V_strncasecmp@@YAHPBD0H@Z 0046a0d0 f   tier1:strtools.obj
 0001:00069150       ?V_strcasecmp@@YAHPBD0@Z   0046a150 f   tier1:strtools.obj
 0001:00069190       ?V_strnicmp@@YAHPBD0H@Z    0046a190 f   tier1:strtools.obj
 0001:000691d0       ?V_atoi@@YAHPBD@Z          0046a1d0 f   tier1:strtools.obj
 0001:00069290       ?V_atof@@YAMPBD@Z          0046a290 f   tier1:strtools.obj
 0001:00069420       ?V_normalizeFloatString@@YAXPAD@Z 0046a420 f   tier1:strtools.obj
 0001:00069480       ?V_stristr@@YAPBDPBD0@Z    0046a480 f   tier1:strtools.obj
 0001:00069550       ?V_stristr@@YAPADPADPBD@Z  0046a550 f   tier1:strtools.obj
 0001:00069580       ?V_strnistr@@YAPBDPBD0H@Z  0046a580 f   tier1:strtools.obj
 0001:00069680       ?V_strnchr@@YAPBDPBDDH@Z   0046a680 f   tier1:strtools.obj
 0001:000696b0       ?V_strncat@@YAPADPADPBDIH@Z 0046a6b0 f   tier1:strtools.obj
 0001:00069770       ?V_hextobinary@@YAXPBDHPAEH@Z 0046a770 f   tier1:strtools.obj
 0001:00069850       ?V_StripTrailingSlash@@YAXPAD@Z 0046a850 f   tier1:strtools.obj
 0001:00069890       ?V_DefaultExtension@@YAXPADPBDH@Z 0046a890 f   tier1:strtools.obj
 0001:00069940       ?V_StripFilename@@YAXPAD@Z 0046a940 f   tier1:strtools.obj
 0001:00069980       ?V_FixSlashes@@YAXPADD@Z   0046a980 f   tier1:strtools.obj
 0001:000699b0       ?V_UnqualifiedFileName@@YAPBDPBD@Z 0046a9b0 f   tier1:strtools.obj
 0001:000699f0       ?V_ExtractFilePath@@YA_NPBDPADH@Z 0046a9f0 f   tier1:strtools.obj
 0001:00069a60       ?V_GetFileExtension@@YAPBDPBD@Z 0046aa60 f   tier1:strtools.obj
 0001:00069ab0       ?V_RemoveDotSlashes@@YA_NPAD@Z 0046aab0 f   tier1:strtools.obj
 0001:00069bd0       ?V_AppendSlash@@YAXPADH@Z  0046abd0 f   tier1:strtools.obj
 0001:00069c30       ?V_IsAbsolutePath@@YA_NPBD@Z 0046ac30 f   tier1:strtools.obj
 0001:00069cb0       ?V_StrSlice@@YAXPBDHHPADH@Z 0046acb0 f   tier1:strtools.obj
 0001:00069d70       ?V_StrLeft@@YAXPBDHPADH@Z  0046ad70 f   tier1:strtools.obj
 0001:00069db0       ?V_strtowcs@@YAXPBDHPA_WH@Z 0046adb0 f   tier1:strtools.obj
 0001:00069de0       ?V_wcstostr@@YAXPB_WHPADH@Z 0046ade0 f   tier1:strtools.obj
 0001:00069e10       ??$AssertValidWritePtr@X@@YAXPAXH@Z 0046ae10 f i tier1:strtools.obj
 0001:00069e20       ??$AssertValidReadPtr@$$CBX@@YAXPBXH@Z 0046ae20 f i tier1:strtools.obj
 0001:00069e30       ??$AssertValidWritePtr@D@@YAXPADH@Z 0046ae30 f i tier1:strtools.obj
 0001:00069e40       ??$AssertValidWritePtr@_W@@YAXPA_WH@Z 0046ae40 f i tier1:strtools.obj
 0001:00069e50       ??$AssertValidReadPtr@$$CB_W@@YAXPB_WH@Z 0046ae50 f i tier1:strtools.obj
 0001:00069e60       ??$CopyConstruct@PAD@@YAXPAPADABQAD@Z 0046ae60 f i tier1:strtools.obj
 0001:00069e80       ?_V_memset@@YAXPBDHPAXHH@Z 0046ae80 f   tier1:strtools.obj
 0001:00069eb0       ?_V_memcpy@@YAXPBDHPAXPBXH@Z 0046aeb0 f   tier1:strtools.obj
 0001:00069ee0       ?_V_memmove@@YAXPBDHPAXPBXH@Z 0046aee0 f   tier1:strtools.obj
 0001:00069f10       ?_V_memcmp@@YAHPBDHPBX1H@Z 0046af10 f   tier1:strtools.obj
 0001:00069fc0       ?_V_strcpy@@YAXPBDHPAD0@Z  0046afc0 f   tier1:strtools.obj
 0001:0006a000       ?V_strncpy@@YAXPADPBDH@Z   0046b000 f   tier1:strtools.obj
 0001:0006a040       ?V_wcsncpy@@YAXPA_WPB_WH@Z 0046b040 f   tier1:strtools.obj
 0001:0006a080       ?V_snprintf@@YAHPADHPBDZZ  0046b080 f   tier1:strtools.obj
 0001:0006a0d0       ?V_vsnprintf@@YAHPADHPBD0@Z 0046b0d0 f   tier1:strtools.obj
 0001:0006a120       ?V_pretifymem@@YAPADMH_N@Z 0046b120 f   tier1:strtools.obj
 0001:0006a2e0       ?V_pretifynum@@YAPAD_J@Z   0046b2e0 f   tier1:strtools.obj
 0001:0006a590       ?V_UTF8ToUnicode@@YAHPBDPA_WH@Z 0046b590 f   tier1:strtools.obj
 0001:0006a5e0       ?V_UnicodeToUTF8@@YAHPB_WPADH@Z 0046b5e0 f   tier1:strtools.obj
 0001:0006a630       ?V_binarytohex@@YAXPBEHPADH@Z 0046b630 f   tier1:strtools.obj
 0001:0006a710       ?V_FileBase@@YAXPBDPADH@Z  0046b710 f   tier1:strtools.obj
 0001:0006a7d0       ?V_StripExtension@@YAXPBDPADH@Z 0046b7d0 f   tier1:strtools.obj
 0001:0006a850       ?V_SetExtension@@YAXPADPBDH@Z 0046b850 f   tier1:strtools.obj
 0001:0006a880       ?V_StripLastDir@@YA_NPADH@Z 0046b880 f   tier1:strtools.obj
 0001:0006a920       ?V_ComposeFileName@@YAXPBD0PADH@Z 0046b920 f   tier1:strtools.obj
 0001:0006a9e0       ?V_ExtractFileExtension@@YAXPBDPADH@Z 0046b9e0 f   tier1:strtools.obj
 0001:0006aa30       ?V_MakeAbsolutePath@@YAXPADHPBD1@Z 0046ba30 f   tier1:strtools.obj
 0001:0006ab50       ?V_StrSubst@@YA_NPBD00PADH_N@Z 0046bb50 f   tier1:strtools.obj
 0001:0006acd0       ?AllocString@@YAPADPBDH@Z  0046bcd0 f   tier1:strtools.obj
 0001:0006ad50       ?V_StrRight@@YAXPBDHPADH@Z 0046bd50 f   tier1:strtools.obj
 0001:0006ade0       ?InsertBefore@?$CUtlVector@PADV?$CUtlMemory@PAD@@@@QAEHHABQAD@Z 0046bde0 f i tier1:strtools.obj
 0001:0006ae50       ?AddToTail@?$CUtlVector@PADV?$CUtlMemory@PAD@@@@QAEHABQAD@Z 0046be50 f i tier1:strtools.obj
 0001:0006ae70       ?V_SplitString2@@YAXPBDPAPBDHAAV?$CUtlVector@PADV?$CUtlMemory@PAD@@@@@Z 0046be70 f   tier1:strtools.obj
 0001:0006b040       ?V_SplitString@@YAXPBD0AAV?$CUtlVector@PADV?$CUtlMemory@PAD@@@@@Z 0046c040 f   tier1:strtools.obj
 0001:0006b060       ?TellMaxPut@CUtlBuffer@@QBEHXZ 0046c060 f i tier1:utlbuffer.obj
 0001:0006b070       ?IsGrowable@CUtlBuffer@@QBE_NXZ 0046c070 f i tier1:utlbuffer.obj
 0001:0006b080       ?IsValid@CUtlBuffer@@QBE_NXZ 0046c080 f i tier1:utlbuffer.obj
 0001:0006b090       ?ContainsCRLF@CUtlBuffer@@QBE_NXZ 0046c090 f i tier1:utlbuffer.obj
 0001:0006b0b0       ?IsReadOnly@CUtlBuffer@@QBE_NXZ 0046c0b0 f i tier1:utlbuffer.obj
 0001:0006b0c0       ?GetCStringCharConversion@@YAPAVCUtlCharConversion@@XZ 0046c0c0 f   tier1:utlbuffer.obj
 0001:0006b0d0       ?GetNoEscCharConversion@@YAPAVCUtlCharConversion@@XZ 0046c0d0 f   tier1:utlbuffer.obj
 0001:0006b0e0       ?FindConversion@CUtlCStringConversion@@UAEDPBDPAH@Z 0046c0e0 f   tier1:utlbuffer.obj
 0001:0006b100       ??0CUtlCharConversion@@QAE@DPBDHPAUConversionArray_t@0@@Z 0046c100 f   tier1:utlbuffer.obj
 0001:0006b1b0       ?GetEscapeChar@CUtlCharConversion@@QBEDXZ 0046c1b0 f   tier1:utlbuffer.obj
 0001:0006b1c0       ?GetDelimiter@CUtlCharConversion@@QBEPBDXZ 0046c1c0 f   tier1:utlbuffer.obj
 0001:0006b1d0       ?GetDelimiterLength@CUtlCharConversion@@QBEHXZ 0046c1d0 f   tier1:utlbuffer.obj
 0001:0006b1e0       ?GetConversionString@CUtlCharConversion@@QBEPBDD@Z 0046c1e0 f   tier1:utlbuffer.obj
 0001:0006b1f0       ?GetConversionLength@CUtlCharConversion@@QBEHD@Z 0046c1f0 f   tier1:utlbuffer.obj
 0001:0006b200       ?MaxConversionLength@CUtlCharConversion@@QBEHXZ 0046c200 f   tier1:utlbuffer.obj
 0001:0006b210       ?FindConversion@CUtlCharConversion@@UAEDPBDPAH@Z 0046c210 f   tier1:utlbuffer.obj
 0001:0006b290       ?SetBufferType@CUtlBuffer@@QAEX_N0@Z 0046c290 f   tier1:utlbuffer.obj
 0001:0006b2c0       ?SeekGet@CUtlBuffer@@QAEXW4SeekType_t@1@H@Z 0046c2c0 f   tier1:utlbuffer.obj
 0001:0006b310       ?SetOverflowFuncs@CUtlBuffer@@IAEXP81@AE_NH@Z0@Z 0046c310 f   tier1:utlbuffer.obj
 0001:0006b330       ?OnPutOverflow@CUtlBuffer@@IAE_NH@Z 0046c330 f   tier1:utlbuffer.obj
 0001:0006b340       ?OnGetOverflow@CUtlBuffer@@IAE_NH@Z 0046c340 f   tier1:utlbuffer.obj
 0001:0006b350       ?GetOverflow@CUtlBuffer@@IAE_NH@Z 0046c350 f   tier1:utlbuffer.obj
 0001:0006b360       ?SetLittleEndian@CUtlBuffer@@QAEX_N@Z 0046c360 f   tier1:utlbuffer.obj
 0001:0006b370       ??0?$CUtlMemory@E@@QAE@PAEH@Z 0046c370 f i tier1:utlbuffer.obj
 0001:0006b390       ?Size@CUtlBuffer@@QBEHXZ   0046c390 f i tier1:utlbuffer.obj
 0001:0006b3a0       ??0CUtlNoEscConversion@@QAE@DPBDHPAUConversionArray_t@CUtlCharConversion@@@Z 0046c3a0 f i tier1:utlbuffer.obj
 0001:0006b3d0       ?FindConversion@CUtlNoEscConversion@@UAEDPBDPAH@Z 0046c3d0 f i tier1:utlbuffer.obj
 0001:0006b3e0       ??0CUtlCStringConversion@@QAE@DPBDHPAUConversionArray_t@CUtlCharConversion@@@Z 0046c3e0 f   tier1:utlbuffer.obj
 0001:0006b450       ?CheckGet@CUtlBuffer@@IAE_NH@Z 0046c450 f   tier1:utlbuffer.obj
 0001:0006b4b0       ?CheckPeekGet@CUtlBuffer@@IAE_NHH@Z 0046c4b0 f   tier1:utlbuffer.obj
 0001:0006b4e0       ?CheckArbitraryPeekGet@CUtlBuffer@@IAE_NHAAH@Z 0046c4e0 f   tier1:utlbuffer.obj
 0001:0006b550       ?PeekGet@CUtlBuffer@@QAEPBXHH@Z 0046c550 f   tier1:utlbuffer.obj
 0001:0006b590       ?GetToken@CUtlBuffer@@QAE_NPBD@Z 0046c590 f   tier1:utlbuffer.obj
 0001:0006b6e0       ?CheckPut@CUtlBuffer@@IAE_NH@Z 0046c6e0 f   tier1:utlbuffer.obj
 0001:0006b730       ?AddNullTermination@CUtlBuffer@@IAEXXZ 0046c730 f   tier1:utlbuffer.obj
 0001:0006b780       ?ConvertToGrowableMemory@?$CUtlMemory@E@@QAEXH@Z 0046c780 f i tier1:utlbuffer.obj
 0001:0006b7d0       ??$GetType@D@CUtlBuffer@@IAEXAADPBD@Z 0046c7d0 f i tier1:utlbuffer.obj
 0001:0006b830       ?GetChar@CUtlBuffer@@QAEDXZ 0046c830 f i tier1:utlbuffer.obj
 0001:0006b880       ?Purge@CUtlBuffer@@QAEXXZ  0046c880 f i tier1:utlbuffer.obj
 0001:0006b8c0       ?EnsureCapacity@CUtlBuffer@@QAEXH@Z 0046c8c0 f   tier1:utlbuffer.obj
 0001:0006b920       ?Get@CUtlBuffer@@QAEXPAXH@Z 0046c920 f   tier1:utlbuffer.obj
 0001:0006b960       ?GetUpTo@CUtlBuffer@@QAEHPAXH@Z 0046c960 f   tier1:utlbuffer.obj
 0001:0006b9a0       ?EatWhiteSpace@CUtlBuffer@@QAEXXZ 0046c9a0 f   tier1:utlbuffer.obj
 0001:0006ba10       ?EatCPPComment@CUtlBuffer@@QAE_NXZ 0046ca10 f   tier1:utlbuffer.obj
 0001:0006ba80       ?PeekWhiteSpace@CUtlBuffer@@IAEHH@Z 0046ca80 f   tier1:utlbuffer.obj
 0001:0006bb20       ?PeekStringLength@CUtlBuffer@@QAEHXZ 0046cb20 f   tier1:utlbuffer.obj
 0001:0006bc80       ?PeekLineLength@CUtlBuffer@@IAEHXZ 0046cc80 f   tier1:utlbuffer.obj
 0001:0006bd70       ?PeekStringMatch@CUtlBuffer@@IAE_NHPBDH@Z 0046cd70 f   tier1:utlbuffer.obj
 0001:0006bdd0       ?PeekDelimitedStringLength@CUtlBuffer@@QAEHPAVCUtlCharConversion@@_N@Z 0046cdd0 f   tier1:utlbuffer.obj
 0001:0006bf20       ?GetString@CUtlBuffer@@QAEXPADH@Z 0046cf20 f   tier1:utlbuffer.obj
 0001:0006bfd0       ?GetLine@CUtlBuffer@@QAEXPADH@Z 0046cfd0 f   tier1:utlbuffer.obj
 0001:0006c070       ?GetDelimitedCharInternal@CUtlBuffer@@IAEDPAVCUtlCharConversion@@@Z 0046d070 f   tier1:utlbuffer.obj
 0001:0006c0e0       ?GetDelimitedChar@CUtlBuffer@@QAEDPAVCUtlCharConversion@@@Z 0046d0e0 f   tier1:utlbuffer.obj
 0001:0006c100       ?GetDelimitedString@CUtlBuffer@@QAEXPAVCUtlCharConversion@@PADH@Z 0046d100 f   tier1:utlbuffer.obj
 0001:0006c200       ?VaScanf@CUtlBuffer@@QAEHPBDPAD@Z 0046d200 f   tier1:utlbuffer.obj
 0001:0006c520       ?Scanf@CUtlBuffer@@QAAHPBDZZ 0046d520 f   tier1:utlbuffer.obj
 0001:0006c540       ?ParseToken@CUtlBuffer@@QAE_NPBD0PADH@Z 0046d540 f   tier1:utlbuffer.obj
 0001:0006c740       ?Put@CUtlBuffer@@QAEXPBXH@Z 0046d740 f   tier1:utlbuffer.obj
 0001:0006c7b0       ?PutOverflow@CUtlBuffer@@IAE_NH@Z 0046d7b0 f   tier1:utlbuffer.obj
 0001:0006c800       ?SeekPut@CUtlBuffer@@QAEXW4SeekType_t@1@H@Z 0046d800 f   tier1:utlbuffer.obj
 0001:0006c880       ?SetExternalBuffer@?$CUtlMemory@E@@QAEXPAEH@Z 0046d880 f i tier1:utlbuffer.obj
 0001:0006c8d0       ??0CUtlBuffer@@QAE@HHH@Z   0046d8d0 f   tier1:utlbuffer.obj
 0001:0006c980       ??0CUtlBuffer@@QAE@PBXHH@Z 0046d980 f   tier1:utlbuffer.obj
 0001:0006ca30       ?SetExternalBuffer@CUtlBuffer@@QAEXPAXHHH@Z 0046da30 f   tier1:utlbuffer.obj
 0001:0006cad0       ?PutString@CUtlBuffer@@QAEXPBD@Z 0046dad0 f   tier1:utlbuffer.obj
 0001:0006cbb0       ?PutDelimitedCharInternal@CUtlBuffer@@IAEXPAVCUtlCharConversion@@D@Z 0046dbb0 f i tier1:utlbuffer.obj
 0001:0006cc60       ?PutDelimitedChar@CUtlBuffer@@QAEXPAVCUtlCharConversion@@D@Z 0046dc60 f   tier1:utlbuffer.obj
 0001:0006ccc0       ?PutDelimitedString@CUtlBuffer@@QAEXPAVCUtlCharConversion@@PBD@Z 0046dcc0 f   tier1:utlbuffer.obj
 0001:0006cda0       ?VaPrintf@CUtlBuffer@@QAEXPBDPAD@Z 0046dda0 f   tier1:utlbuffer.obj
 0001:0006ce00       ?Printf@CUtlBuffer@@QAAXPBDZZ 0046de00 f   tier1:utlbuffer.obj
 0001:0006ce20       ?ConvertCRLF@CUtlBuffer@@QAE_NAAV1@@Z 0046de20 f   tier1:utlbuffer.obj
 0001:0006d080       ??3@YAXPAX0@Z              0046e080 f i tier1:utlsymbol.obj
 0001:0006d090       ??0CUtlSymbol@@QAE@G@Z     0046e090 f i tier1:utlsymbol.obj
 0001:0006d0a0       ?IsValid@CUtlSymbol@@QBE_NXZ 0046e0a0 f i tier1:utlsymbol.obj
 0001:0006d0b0       ??0CStringPoolIndex@CUtlSymbolTable@@QAE@XZ 0046e0b0 f i tier1:utlsymbol.obj
 0001:0006d0c0       ??0CStringPoolIndex@CUtlSymbolTable@@QAE@GG@Z 0046e0c0 f i tier1:utlsymbol.obj
 0001:0006d0e0       ??8CStringPoolIndex@CUtlSymbolTable@@QBE_NABV01@@Z 0046e0e0 f i tier1:utlsymbol.obj
 0001:0006d110       ??0CLess@CUtlSymbolTable@@QAE@H@Z 0046e110 f i tier1:utlsymbol.obj
 0001:0006d120       ??0FileNameHandleInternal_t@CUtlFilenameSymbolTable@@QAE@XZ 0046e120 f i tier1:utlsymbol.obj
 0001:0006d130       ?DisableStaticSymbolTable@CUtlSymbol@@SAXXZ 0046e130 f   tier1:utlsymbol.obj
 0001:0006d140       ?FindOrAddFileName@CUtlFilenameSymbolTable@@QAEPAXPBD@Z 0046e140 f   tier1:utlsymbol.obj
 0001:0006d230       ?FindFileName@CUtlFilenameSymbolTable@@QAEPAXPBD@Z 0046e230 f   tier1:utlsymbol.obj
 0001:0006d340       ?String@CUtlFilenameSymbolTable@@QAE_NABQAXPADH@Z 0046e340 f   tier1:utlsymbol.obj
 0001:0006d3b0       ?Count@?$CUtlVector@PAUStringPool_t@CUtlSymbolTable@@V?$CUtlMemory@PAUStringPool_t@CUtlSymbolTable@@@@@@QBEHXZ 0046e3b0 f i tier1:utlsymbol.obj
 0001:0006d3c0       ?InvalidIndex@?$CUtlRBTree@VCStringPoolIndex@CUtlSymbolTable@@GVCLess@2@@@SAGXZ 0046e3c0 f i tier1:utlsymbol.obj
 0001:0006d3d0       ?Base@?$CUtlMemory@UNode_t@?$CUtlRBTree@VCStringPoolIndex@CUtlSymbolTable@@GVCLess@2@@@@@QAEPAUNode_t@?$CUtlRBTree@VCStringPoolIndex@CUtlSymbolTable@@GVCLess@2@@@XZ 0046e3d0 f i tier1:utlsymbol.obj
 0001:0006d3e0       ??$CopyConstruct@VCStringPoolIndex@CUtlSymbolTable@@@@YAXPAVCStringPoolIndex@CUtlSymbolTable@@ABV01@@Z 0046e3e0 f i tier1:utlsymbol.obj
 0001:0006d400       ??$Destruct@VCStringPoolIndex@CUtlSymbolTable@@@@YAXPAVCStringPoolIndex@CUtlSymbolTable@@@Z 0046e400 f i tier1:utlsymbol.obj
 0001:0006d410       ?Base@?$CUtlMemory@PAUStringPool_t@CUtlSymbolTable@@@@QBEPBQAUStringPool_t@CUtlSymbolTable@@XZ 0046e410 f i tier1:utlsymbol.obj
 0001:0006d420       ?Base@?$CUtlMemory@PAUStringPool_t@CUtlSymbolTable@@@@QAEPAPAUStringPool_t@CUtlSymbolTable@@XZ 0046e420 f i tier1:utlsymbol.obj
 0001:0006d430       ??$Destruct@PAUStringPool_t@CUtlSymbolTable@@@@YAXPAPAUStringPool_t@CUtlSymbolTable@@@Z 0046e430 f i tier1:utlsymbol.obj
 0001:0006d440       ?ValidateGrowSize@?$CUtlMemory@UNode_t@?$CUtlRBTree@VCStringPoolIndex@CUtlSymbolTable@@GVCLess@2@@@@@IAEXXZ 0046e440 f i tier1:utlsymbol.obj
 0001:0006d450       ?ValidateGrowSize@?$CUtlMemory@PAUStringPool_t@CUtlSymbolTable@@@@IAEXXZ 0046e450 f i tier1:utlsymbol.obj
 0001:0006d460       ??A?$CUtlMemory@UNode_t@?$CUtlRBTree@VCStringPoolIndex@CUtlSymbolTable@@GVCLess@2@@@@@QBEABUNode_t@?$CUtlRBTree@VCStringPoolIndex@CUtlSymbolTable@@GVCLess@2@@@H@Z 0046e460 f i tier1:utlsymbol.obj
 0001:0006d470       ??A?$CUtlMemory@UNode_t@?$CUtlRBTree@VCStringPoolIndex@CUtlSymbolTable@@GVCLess@2@@@@@QAEAAUNode_t@?$CUtlRBTree@VCStringPoolIndex@CUtlSymbolTable@@GVCLess@2@@@H@Z 0046e470 f i tier1:utlsymbol.obj
 0001:0006d480       ?IsIdxValid@?$CUtlMemory@UNode_t@?$CUtlRBTree@VCStringPoolIndex@CUtlSymbolTable@@GVCLess@2@@@@@QBE_NH@Z 0046e480 f i tier1:utlsymbol.obj
 0001:0006d4a0       ??$CopyConstruct@PAUStringPool_t@CUtlSymbolTable@@@@YAXPAPAUStringPool_t@CUtlSymbolTable@@ABQAU01@@Z 0046e4a0 f i tier1:utlsymbol.obj
 0001:0006d4c0       ?NumAllocated@?$CUtlMemory@UNode_t@?$CUtlRBTree@VCStringPoolIndex@CUtlSymbolTable@@GVCLess@2@@@@@QBEHXZ 0046e4c0 f i tier1:utlsymbol.obj
 0001:0006d4d0       ?IsExternallyAllocated@?$CUtlMemory@UNode_t@?$CUtlRBTree@VCStringPoolIndex@CUtlSymbolTable@@GVCLess@2@@@@@QBE_NXZ 0046e4d0 f i tier1:utlsymbol.obj
 0001:0006d4e0       ??$Construct@VCStringPoolIndex@CUtlSymbolTable@@@@YAXPAVCStringPoolIndex@CUtlSymbolTable@@@Z 0046e4e0 f i tier1:utlsymbol.obj
 0001:0006d4f0       ?NumAllocated@?$CUtlMemory@PAUStringPool_t@CUtlSymbolTable@@@@QBEHXZ 0046e4f0 f i tier1:utlsymbol.obj
 0001:0006d500       ?IsExternallyAllocated@?$CUtlMemory@PAUStringPool_t@CUtlSymbolTable@@@@QBE_NXZ 0046e500 f i tier1:utlsymbol.obj
 0001:0006d510       ?IsRoot@?$CUtlRBTree@VCStringPoolIndex@CUtlSymbolTable@@GVCLess@2@@@QBE_NG@Z 0046e510 f i tier1:utlsymbol.obj
 0001:0006d530       ?ResetDbgInfo@?$CUtlRBTree@VCStringPoolIndex@CUtlSymbolTable@@GVCLess@2@@@IAEXXZ 0046e530 f i tier1:utlsymbol.obj
 0001:0006d540       ?Base@?$CUtlVector@PAUStringPool_t@CUtlSymbolTable@@V?$CUtlMemory@PAUStringPool_t@CUtlSymbolTable@@@@@@QAEPAPAUStringPool_t@CUtlSymbolTable@@XZ 0046e540 f i tier1:utlsymbol.obj
 0001:0006d550       ?Base@?$CUtlVector@PAUStringPool_t@CUtlSymbolTable@@V?$CUtlMemory@PAUStringPool_t@CUtlSymbolTable@@@@@@QBEPBQAUStringPool_t@CUtlSymbolTable@@XZ 0046e550 f i tier1:utlsymbol.obj
 0001:0006d560       ?ResetDbgInfo@?$CUtlVector@PAUStringPool_t@CUtlSymbolTable@@V?$CUtlMemory@PAUStringPool_t@CUtlSymbolTable@@@@@@IAEXXZ 0046e560 f i tier1:utlsymbol.obj
 0001:0006d570       ?Element@?$CUtlRBTree@VCStringPoolIndex@CUtlSymbolTable@@GVCLess@2@@@QBEABVCStringPoolIndex@CUtlSymbolTable@@G@Z 0046e570 f i tier1:utlsymbol.obj
 0001:0006d590       ?Element@?$CUtlRBTree@VCStringPoolIndex@CUtlSymbolTable@@GVCLess@2@@@QAEAAVCStringPoolIndex@CUtlSymbolTable@@G@Z 0046e590 f i tier1:utlsymbol.obj
 0001:0006d5b0       ??0?$CUtlMemory@UNode_t@?$CUtlRBTree@VCStringPoolIndex@CUtlSymbolTable@@GVCLess@2@@@@@QAE@HH@Z 0046e5b0 f i tier1:utlsymbol.obj
 0001:0006d5f0       ?Element@?$CUtlVector@PAUStringPool_t@CUtlSymbolTable@@V?$CUtlMemory@PAUStringPool_t@CUtlSymbolTable@@@@@@QAEAAPAUStringPool_t@CUtlSymbolTable@@H@Z 0046e5f0 f i tier1:utlsymbol.obj
 0001:0006d600       ??0?$CUtlMemory@PAUStringPool_t@CUtlSymbolTable@@@@QAE@HH@Z 0046e600 f i tier1:utlsymbol.obj
 0001:0006d640       ?Links@?$CUtlRBTree@VCStringPoolIndex@CUtlSymbolTable@@GVCLess@2@@@IAEAAULinks_t@1@G@Z 0046e640 f i tier1:utlsymbol.obj
 0001:0006d660       ?Links@?$CUtlRBTree@VCStringPoolIndex@CUtlSymbolTable@@GVCLess@2@@@IBEABULinks_t@1@G@Z 0046e660 f i tier1:utlsymbol.obj
 0001:0006d6c0       ?Purge@?$CUtlMemory@UNode_t@?$CUtlRBTree@VCStringPoolIndex@CUtlSymbolTable@@GVCLess@2@@@@@QAEXXZ 0046e6c0 f i tier1:utlsymbol.obj
 0001:0006d6f0       ?ShiftElementsRight@?$CUtlVector@PAUStringPool_t@CUtlSymbolTable@@V?$CUtlMemory@PAUStringPool_t@CUtlSymbolTable@@@@@@IAEXHH@Z 0046e6f0 f i tier1:utlsymbol.obj
 0001:0006d730       ?Purge@?$CUtlMemory@PAUStringPool_t@CUtlSymbolTable@@@@QAEXXZ 0046e730 f i tier1:utlsymbol.obj
 0001:0006d760       ?Grow@?$CUtlMemory@UNode_t@?$CUtlRBTree@VCStringPoolIndex@CUtlSymbolTable@@GVCLess@2@@@@@QAEXH@Z 0046e760 f i tier1:utlsymbol.obj
 0001:0006d7d0       ?Grow@?$CUtlMemory@PAUStringPool_t@CUtlSymbolTable@@@@QAEXH@Z 0046e7d0 f i tier1:utlsymbol.obj
 0001:0006d840       ?Parent@?$CUtlRBTree@VCStringPoolIndex@CUtlSymbolTable@@GVCLess@2@@@QBEGG@Z 0046e840 f i tier1:utlsymbol.obj
 0001:0006d860       ?IsRed@?$CUtlRBTree@VCStringPoolIndex@CUtlSymbolTable@@GVCLess@2@@@IBE_NG@Z 0046e860 f i tier1:utlsymbol.obj
 0001:0006d880       ?Color@?$CUtlRBTree@VCStringPoolIndex@CUtlSymbolTable@@GVCLess@2@@@IBE?AW4NodeColor_t@1@G@Z 0046e880 f i tier1:utlsymbol.obj
 0001:0006d8a0       ?SetColor@?$CUtlRBTree@VCStringPoolIndex@CUtlSymbolTable@@GVCLess@2@@@IAEXGW4NodeColor_t@1@@Z 0046e8a0 f i tier1:utlsymbol.obj
 0001:0006d8c0       ?SetParent@?$CUtlRBTree@VCStringPoolIndex@CUtlSymbolTable@@GVCLess@2@@@IAEXGG@Z 0046e8c0 f i tier1:utlsymbol.obj
 0001:0006d8e0       ??A?$CUtlRBTree@VCStringPoolIndex@CUtlSymbolTable@@GVCLess@2@@@QBEABVCStringPoolIndex@CUtlSymbolTable@@G@Z 0046e8e0 f i tier1:utlsymbol.obj
 0001:0006d900       ??A?$CUtlVector@PAUStringPool_t@CUtlSymbolTable@@V?$CUtlMemory@PAUStringPool_t@CUtlSymbolTable@@@@@@QBEABQAUStringPool_t@CUtlSymbolTable@@H@Z 0046e900 f i tier1:utlsymbol.obj
 0001:0006d910       ??A?$CUtlVector@PAUStringPool_t@CUtlSymbolTable@@V?$CUtlMemory@PAUStringPool_t@CUtlSymbolTable@@@@@@QAEAAPAUStringPool_t@CUtlSymbolTable@@H@Z 0046e910 f i tier1:utlsymbol.obj
 0001:0006d920       ?RemoveAll@?$CUtlVector@PAUStringPool_t@CUtlSymbolTable@@V?$CUtlMemory@PAUStringPool_t@CUtlSymbolTable@@@@@@QAEXXZ 0046e920 f i tier1:utlsymbol.obj
 0001:0006d930       ?LeftChild@?$CUtlRBTree@VCStringPoolIndex@CUtlSymbolTable@@GVCLess@2@@@QBEGG@Z 0046e930 f i tier1:utlsymbol.obj
 0001:0006d940       ?RightChild@?$CUtlRBTree@VCStringPoolIndex@CUtlSymbolTable@@GVCLess@2@@@QBEGG@Z 0046e940 f i tier1:utlsymbol.obj
 0001:0006d960       ?IsValidIndex@?$CUtlRBTree@VCStringPoolIndex@CUtlSymbolTable@@GVCLess@2@@@QBE_NG@Z 0046e960 f i tier1:utlsymbol.obj
 0001:0006d990       ?Purge@?$CUtlRBTree@VCStringPoolIndex@CUtlSymbolTable@@GVCLess@2@@@QAEXXZ 0046e990 f i tier1:utlsymbol.obj
 0001:0006da30       ?SetLeftChild@?$CUtlRBTree@VCStringPoolIndex@CUtlSymbolTable@@GVCLess@2@@@IAEXGG@Z 0046ea30 f i tier1:utlsymbol.obj
 0001:0006da50       ?SetRightChild@?$CUtlRBTree@VCStringPoolIndex@CUtlSymbolTable@@GVCLess@2@@@IAEXGG@Z 0046ea50 f i tier1:utlsymbol.obj
 0001:0006da70       ??1?$CUtlMemory@UNode_t@?$CUtlRBTree@VCStringPoolIndex@CUtlSymbolTable@@GVCLess@2@@@@@QAE@XZ 0046ea70 f i tier1:utlsymbol.obj
 0001:0006daa0       ?Purge@?$CUtlVector@PAUStringPool_t@CUtlSymbolTable@@V?$CUtlMemory@PAUStringPool_t@CUtlSymbolTable@@@@@@QAEXXZ 0046eaa0 f i tier1:utlsymbol.obj
 0001:0006daf0       ??1?$CUtlMemory@PAUStringPool_t@CUtlSymbolTable@@@@QAE@XZ 0046eaf0 f i tier1:utlsymbol.obj
 0001:0006db20       ?NewNode@?$CUtlRBTree@VCStringPoolIndex@CUtlSymbolTable@@GVCLess@2@@@QAEGXZ 0046eb20 f i tier1:utlsymbol.obj
 0001:0006db80       ?GrowVector@?$CUtlVector@PAUStringPool_t@CUtlSymbolTable@@V?$CUtlMemory@PAUStringPool_t@CUtlSymbolTable@@@@@@IAEXH@Z 0046eb80 f i tier1:utlsymbol.obj
 0001:0006dbb0       ?IsLeftChild@?$CUtlRBTree@VCStringPoolIndex@CUtlSymbolTable@@GVCLess@2@@@QBE_NG@Z 0046ebb0 f i tier1:utlsymbol.obj
 0001:0006dbe0       ?IsRightChild@?$CUtlRBTree@VCStringPoolIndex@CUtlSymbolTable@@GVCLess@2@@@QBE_NG@Z 0046ebe0 f i tier1:utlsymbol.obj
 0001:0006dc10       ?RotateLeft@?$CUtlRBTree@VCStringPoolIndex@CUtlSymbolTable@@GVCLess@2@@@IAEXG@Z 0046ec10 f i tier1:utlsymbol.obj
 0001:0006dd10       ?RotateRight@?$CUtlRBTree@VCStringPoolIndex@CUtlSymbolTable@@GVCLess@2@@@IAEXG@Z 0046ed10 f i tier1:utlsymbol.obj
 0001:0006de10       ?StringFromIndex@CUtlSymbolTable@@ABEPBDABVCStringPoolIndex@1@@Z 0046ee10 f i tier1:utlsymbol.obj
 0001:0006de30       ??RCLess@CUtlSymbolTable@@QBE_NABVCStringPoolIndex@1@0@Z 0046ee30 f   tier1:utlsymbol.obj
 0001:0006def0       ?FindPoolWithSpace@CUtlSymbolTable@@ABEHH@Z 0046eef0 f   tier1:utlsymbol.obj
 0001:0006df30       ?String@CUtlSymbolTable@@QBEPBDVCUtlSymbol@@@Z 0046ef30 f   tier1:utlsymbol.obj
 0001:0006df70       ??0?$CUtlRBTree@VCStringPoolIndex@CUtlSymbolTable@@GVCLess@2@@@QAE@HHABVCLess@CUtlSymbolTable@@@Z 0046ef70 f i tier1:utlsymbol.obj
 0001:0006dfd0       ??1?$CUtlRBTree@VCStringPoolIndex@CUtlSymbolTable@@GVCLess@2@@@QAE@XZ 0046efd0 f i tier1:utlsymbol.obj
 0001:0006e050       ?Find@?$CUtlRBTree@VCStringPoolIndex@CUtlSymbolTable@@GVCLess@2@@@QBEGABVCStringPoolIndex@CUtlSymbolTable@@@Z 0046f050 f i tier1:utlsymbol.obj
 0001:0006e160       ?RemoveAll@?$CUtlRBTree@VCStringPoolIndex@CUtlSymbolTable@@GVCLess@2@@@QAEXXZ 0046f160 f i tier1:utlsymbol.obj
 0001:0006e200       ??0?$CUtlVector@PAUStringPool_t@CUtlSymbolTable@@V?$CUtlMemory@PAUStringPool_t@CUtlSymbolTable@@@@@@QAE@HH@Z 0046f200 f i tier1:utlsymbol.obj
 0001:0006e250       ??1?$CUtlVector@PAUStringPool_t@CUtlSymbolTable@@V?$CUtlMemory@PAUStringPool_t@CUtlSymbolTable@@@@@@QAE@XZ 0046f250 f i tier1:utlsymbol.obj
 0001:0006e2e0       ?FindInsertionPosition@?$CUtlRBTree@VCStringPoolIndex@CUtlSymbolTable@@GVCLess@2@@@IAEXABVCStringPoolIndex@CUtlSymbolTable@@AAGAA_N@Z 0046f2e0 f i tier1:utlsymbol.obj
 0001:0006e3f0       ?InsertBefore@?$CUtlVector@PAUStringPool_t@CUtlSymbolTable@@V?$CUtlMemory@PAUStringPool_t@CUtlSymbolTable@@@@@@QAEHHABQAUStringPool_t@CUtlSymbolTable@@@Z 0046f3f0 f i tier1:utlsymbol.obj
 0001:0006e460       ?InsertRebalance@?$CUtlRBTree@VCStringPoolIndex@CUtlSymbolTable@@GVCLess@2@@@IAEXG@Z 0046f460 f i tier1:utlsymbol.obj
 0001:0006e9d0       ??0CTree@CUtlSymbolTable@@QAE@HH@Z 0046f9d0 f i tier1:utlsymbol.obj
 0001:0006e9f0       ?String@CUtlSymbolTableMT@@QBEPBDVCUtlSymbol@@@Z 0046f9f0 f i tier1:utlsymbol.obj
 0001:0006ea50       ??1CTree@CUtlSymbolTable@@QAE@XZ 0046fa50 f i tier1:utlsymbol.obj
 0001:0006ea60       ?Find@CUtlSymbolTable@@QAE?AVCUtlSymbol@@PBD@Z 0046fa60 f   tier1:utlsymbol.obj
 0001:0006eaa0       ?RemoveAll@CUtlSymbolTable@@QAEXXZ 0046faa0 f   tier1:utlsymbol.obj
 0001:0006eae0       ?AddToTail@?$CUtlVector@PAUStringPool_t@CUtlSymbolTable@@V?$CUtlMemory@PAUStringPool_t@CUtlSymbolTable@@@@@@QAEHABQAUStringPool_t@CUtlSymbolTable@@@Z 0046fae0 f i tier1:utlsymbol.obj
 0001:0006eb00       ?LinkToParent@?$CUtlRBTree@VCStringPoolIndex@CUtlSymbolTable@@GVCLess@2@@@IAEXGG_N@Z 0046fb00 f i tier1:utlsymbol.obj
 0001:0006eb70       ??0CUtlSymbolTable@@QAE@HH_N@Z 0046fb70 f   tier1:utlsymbol.obj
 0001:0006ebe0       ??1CUtlSymbolTable@@QAE@XZ 0046fbe0 f   tier1:utlsymbol.obj
 0001:0006ec50       ?InsertAt@?$CUtlRBTree@VCStringPoolIndex@CUtlSymbolTable@@GVCLess@2@@@IAEGG_N@Z 0046fc50 f i tier1:utlsymbol.obj
 0001:0006ec80       ??0CUtlSymbolTableMT@@QAE@HH_N@Z 0046fc80 f i tier1:utlsymbol.obj
 0001:0006ecc0       ?Initialize@CUtlSymbol@@KAXXZ 0046fcc0 f   tier1:utlsymbol.obj
 0001:0006ed50       ??1CUtlSymbolTableMT@@QAE@XZ 0046fd50 f i tier1:utlsymbol.obj
 0001:0006ed70       ?CurrTable@CUtlSymbol@@KAPAVCUtlSymbolTableMT@@XZ 0046fd70 f   tier1:utlsymbol.obj
 0001:0006ed80       ?String@CUtlSymbol@@QBEPBDXZ 0046fd80 f   tier1:utlsymbol.obj
 0001:0006eda0       ??8CUtlSymbol@@QBE_NPBD@Z  0046fda0 f   tier1:utlsymbol.obj
 0001:0006ee10       ?Insert@?$CUtlRBTree@VCStringPoolIndex@CUtlSymbolTable@@GVCLess@2@@@QAEGABVCStringPoolIndex@CUtlSymbolTable@@@Z 0046fe10 f i tier1:utlsymbol.obj
 0001:0006ee70       ??_GCUtlSymbolTableMT@@QAEPAXI@Z 0046fe70 f i tier1:utlsymbol.obj
 0001:0006eea0       ?AddString@CUtlSymbolTable@@QAE?AVCUtlSymbol@@PBD@Z 0046fea0 f   tier1:utlsymbol.obj
 0001:0006efa0       ?AddString@CUtlSymbolTableMT@@QAE?AVCUtlSymbol@@PBD@Z 0046ffa0 f i tier1:utlsymbol.obj
 0001:0006efd0       ??1CCleanupUtlSymbolTable@@QAE@XZ 0046ffd0 f i tier1:utlsymbol.obj
 0001:0006f010       ??0CUtlSymbol@@QAE@PBD@Z   00470010 f   tier1:utlsymbol.obj
 0001:0006f060       ?swprintf@@YAHPA_WPB_WZZ   00470060 f i tier1:KeyValues.obj
 0001:0006f080       ?V_memcpy@@YAXPAXPBXH@Z    00470080 f i tier1:KeyValues.obj
 0001:0006f090       ?SetColor@Color@@QAEXHHHH@Z 00470090 f i tier1:KeyValues.obj
 0001:0006f0b0       ??AColor@@QAEAAEH@Z        004700b0 f i tier1:KeyValues.obj
 0001:0006f0c0       ??0CKeyValuesErrorStack@@QAE@XZ 004700c0 f i tier1:KeyValues.obj
 0001:0006f0e0       ?SetFilename@CKeyValuesErrorStack@@QAEXPBD@Z 004700e0 f i tier1:KeyValues.obj
 0001:0006f100       ?Push@CKeyValuesErrorStack@@QAEHH@Z 00470100 f i tier1:KeyValues.obj
 0001:0006f140       ?Pop@CKeyValuesErrorStack@@QAEXXZ 00470140 f i tier1:KeyValues.obj
 0001:0006f150       ?Reset@CKeyValuesErrorStack@@QAEXHH@Z 00470150 f i tier1:KeyValues.obj
 0001:0006f160       ?ReportError@CKeyValuesErrorStack@@QAEXPBD@Z 00470160 f i tier1:KeyValues.obj
 0001:0006f200       ??1CKeyErrorContext@@QAE@XZ 00470200 f i tier1:KeyValues.obj
 0001:0006f210       ?Reset@CKeyErrorContext@@QAEXH@Z 00470210 f i tier1:KeyValues.obj
 0001:0006f220       ?Init@CKeyErrorContext@@AAEXH@Z 00470220 f i tier1:KeyValues.obj
 0001:0006f260       ?Init@KeyValues@@AAEXXZ    00470260 f   tier1:KeyValues.obj
 0001:0006f290       ??1KeyValues@@AAE@XZ       00470290 f   tier1:KeyValues.obj
 0001:0006f2a0       ?ChainKeyValue@KeyValues@@QAEXPAV1@@Z 004702a0 f   tier1:KeyValues.obj
 0001:0006f2b0       ?GetName@KeyValues@@QBEPBDXZ 004702b0 f   tier1:KeyValues.obj
 0001:0006f2d0       ?GetNameSymbol@KeyValues@@QBEHXZ 004702d0 f   tier1:KeyValues.obj
 0001:0006f2e0       ?ReadToken@KeyValues@@AAEPBDAAVCUtlBuffer@@AA_N@Z 004702e0 f   tier1:KeyValues.obj
 0001:0006f430       ?UsesEscapeSequences@KeyValues@@QAEX_N@Z 00470430 f   tier1:KeyValues.obj
 0001:0006f440       ?InternalWrite@KeyValues@@AAEXPAVIBaseFileSystem@@PAXPAVCUtlBuffer@@PBXH@Z 00470440 f   tier1:KeyValues.obj
 0001:0006f480       ?FindKey@KeyValues@@QBEPAV1@H@Z 00470480 f   tier1:KeyValues.obj
 0001:0006f4a0       ?RemoveSubKey@KeyValues@@QAEXPAV1@@Z 004704a0 f   tier1:KeyValues.obj
 0001:0006f4f0       ?GetFirstSubKey@KeyValues@@QAEPAV1@XZ 004704f0 f   tier1:KeyValues.obj
 0001:0006f500       ?GetNextKey@KeyValues@@QAEPAV1@XZ 00470500 f   tier1:KeyValues.obj
 0001:0006f510       ?SetNextKey@KeyValues@@QAEXPAV1@@Z 00470510 f   tier1:KeyValues.obj
 0001:0006f520       ?GetFirstTrueSubKey@KeyValues@@QAEPAV1@XZ 00470520 f   tier1:KeyValues.obj
 0001:0006f540       ?GetNextTrueSubKey@KeyValues@@QAEPAV1@XZ 00470540 f   tier1:KeyValues.obj
 0001:0006f560       ?GetFirstValue@KeyValues@@QAEPAV1@XZ 00470560 f   tier1:KeyValues.obj
 0001:0006f580       ?GetNextValue@KeyValues@@QAEPAV1@XZ 00470580 f   tier1:KeyValues.obj
 0001:0006f5a0       ?SetStringValue@KeyValues@@QAEXPBD@Z 004705a0 f   tier1:KeyValues.obj
 0001:0006f600       ?SetName@KeyValues@@QAEXPBD@Z 00470600 f   tier1:KeyValues.obj
 0001:0006f620       ?CopySubkeys@KeyValues@@QBEXPAV1@@Z 00470620 f   tier1:KeyValues.obj
 0001:0006f660       ??2KeyValues@@SAPAXI@Z     00470660 f   tier1:KeyValues.obj
 0001:0006f680       ??2KeyValues@@SAPAXIHPBDH@Z 00470680 f   tier1:KeyValues.obj
 0001:0006f6a0       ??3KeyValues@@SAXPAX@Z     004706a0 f   tier1:KeyValues.obj
 0001:0006f6c0       ??3KeyValues@@SAXPAXHPBDH@Z 004706c0 f   tier1:KeyValues.obj
 0001:0006f6e0       ??$AlignValue@I@@YAIII@Z   004706e0 f i tier1:KeyValues.obj
 0001:0006f700       ?Count@?$CUtlVector@PAVKeyValues@@V?$CUtlMemory@PAVKeyValues@@@@@@QBEHXZ 00470700 f i tier1:KeyValues.obj
 0001:0006f710       ?Base@?$CUtlMemory@PAVKeyValues@@@@QAEPAPAVKeyValues@@XZ 00470710 f i tier1:KeyValues.obj
 0001:0006f720       ?ValidateGrowSize@?$CUtlMemory@PAVKeyValues@@@@IAEXXZ 00470720 f i tier1:KeyValues.obj
 0001:0006f730       ??$CopyConstruct@PAVKeyValues@@@@YAXPAPAVKeyValues@@ABQAV0@@Z 00470730 f i tier1:KeyValues.obj
 0001:0006f750       ??$Destruct@PAVKeyValues@@@@YAXPAPAVKeyValues@@@Z 00470750 f i tier1:KeyValues.obj
 0001:0006f760       ?NumAllocated@?$CUtlMemory@PAVKeyValues@@@@QBEHXZ 00470760 f i tier1:KeyValues.obj
 0001:0006f770       ?IsExternallyAllocated@?$CUtlMemory@PAVKeyValues@@@@QBE_NXZ 00470770 f i tier1:KeyValues.obj
 0001:0006f780       ??0Color@@QAE@HHHH@Z       00470780 f i tier1:KeyValues.obj
 0001:0006f7a0       ?GetOptimalReadSize@IFileSystem@@QAEIPAXI@Z 004707a0 f i tier1:KeyValues.obj
 0001:0006f7e0       ??0CKeyErrorContext@@QAE@PAVKeyValues@@@Z 004707e0 f i tier1:KeyValues.obj
 0001:0006f820       ??0CKeyErrorContext@@QAE@H@Z 00470820 f i tier1:KeyValues.obj
 0001:0006f860       ??0KeyValues@@QAE@PBD@Z    00470860 f   tier1:KeyValues.obj
 0001:0006f8b0       ??_GKeyValues@@AAEPAXI@Z   004708b0 f i tier1:KeyValues.obj
 0001:0006f8e0       ?LoadFromFile@KeyValues@@QAE_NPAVIBaseFileSystem@@PBD1@Z 004708e0 f   tier1:KeyValues.obj
 0001:0006fa40       ?WriteIndents@KeyValues@@AAEXPAVIBaseFileSystem@@PAXPAVCUtlBuffer@@H@Z 00470a40 f   tier1:KeyValues.obj
 0001:0006faa0       ?WriteConvertedString@KeyValues@@AAEXPAVIBaseFileSystem@@PAXPAVCUtlBuffer@@PBD@Z 00470aa0 f   tier1:KeyValues.obj
 0001:0006fb60       ?RecursiveSaveToFile@KeyValues@@AAEXPAVIBaseFileSystem@@PAXPAVCUtlBuffer@@H@Z 00470b60 f   tier1:KeyValues.obj
 0001:000701f0       ?FindKey@KeyValues@@QAEPAV1@PBD_N@Z 004711f0 f   tier1:KeyValues.obj
 0001:00070370       ?AddSubKey@KeyValues@@QAEXPAV1@@Z 00471370 f   tier1:KeyValues.obj
 0001:000703a0       ?GetInt@KeyValues@@QAEHPBDH@Z 004713a0 f   tier1:KeyValues.obj
 0001:00070420       ?GetUint64@KeyValues@@QAE_KPBD_K@Z 00471420 f   tier1:KeyValues.obj
 0001:000704b0       ?GetPtr@KeyValues@@QAEPAXPBDPAX@Z 004714b0 f   tier1:KeyValues.obj
 0001:000704e0       ?GetFloat@KeyValues@@QAEMPBDM@Z 004714e0 f   tier1:KeyValues.obj
 0001:000705a0       ?GetColor@KeyValues@@QAE?AVColor@@PBD@Z 004715a0 f   tier1:KeyValues.obj
 0001:00070720       ?SetColor@KeyValues@@QAEXPBDVColor@@@Z 00471720 f   tier1:KeyValues.obj
 0001:00070750       ?SetString@KeyValues@@QAEXPBD0@Z 00471750 f   tier1:KeyValues.obj
 0001:000707c0       ?SetWString@KeyValues@@QAEXPBDPB_W@Z 004717c0 f   tier1:KeyValues.obj
 0001:00070850       ?SetInt@KeyValues@@QAEXPBDH@Z 00471850 f   tier1:KeyValues.obj
 0001:00070870       ?SetUint64@KeyValues@@QAEXPBD_K@Z 00471870 f   tier1:KeyValues.obj
 0001:000708c0       ?SetFloat@KeyValues@@QAEXPBDM@Z 004718c0 f   tier1:KeyValues.obj
 0001:000708e0       ?SetPtr@KeyValues@@QAEXPBDPAX@Z 004718e0 f   tier1:KeyValues.obj
 0001:00070900       ?RecursiveCopyKeyValues@KeyValues@@AAEXAAV1@@Z 00471900 f   tier1:KeyValues.obj
 0001:00070b80       ?MakeCopy@KeyValues@@QBEPAV1@XZ 00471b80 f   tier1:KeyValues.obj
 0001:00070d60       ?IsEmpty@KeyValues@@QAE_NPBD@Z 00471d60 f   tier1:KeyValues.obj
 0001:00070d90       ?Clear@KeyValues@@QAEXXZ   00471d90 f   tier1:KeyValues.obj
 0001:00070dc0       ?GetDataType@KeyValues@@QAE?AW4types_t@1@PBD@Z 00471dc0 f   tier1:KeyValues.obj
 0001:00070de0       ?deleteThis@KeyValues@@QAEXXZ 00471de0 f   tier1:KeyValues.obj
 0001:00070e00       ??$GetType@E@CUtlBuffer@@IAEXAAEPBD@Z 00471e00 f i tier1:KeyValues.obj
 0001:00070e60       ??$GetType@I@CUtlBuffer@@IAEXAAIPBD@Z 00471e60 f i tier1:KeyValues.obj
 0001:00070ec0       ??$GetType@M@CUtlBuffer@@IAEXAAMPBD@Z 00471ec0 f i tier1:KeyValues.obj
 0001:00070f20       ??$GetType@N@CUtlBuffer@@IAEXAANPBD@Z 00471f20 f i tier1:KeyValues.obj
 0001:00070f80       ?Base@?$CUtlVector@PAVKeyValues@@V?$CUtlMemory@PAVKeyValues@@@@@@QAEPAPAVKeyValues@@XZ 00471f80 f i tier1:KeyValues.obj
 0001:00070f90       ?ResetDbgInfo@?$CUtlVector@PAVKeyValues@@V?$CUtlMemory@PAVKeyValues@@@@@@IAEXXZ 00471f90 f i tier1:KeyValues.obj
 0001:00070fa0       ??$PutTypeBin@E@CUtlBuffer@@IAEXE@Z 00471fa0 f i tier1:KeyValues.obj
 0001:00070fd0       ??$PutTypeBin@I@CUtlBuffer@@IAEXI@Z 00471fd0 f i tier1:KeyValues.obj
 0001:00071020       ??$PutTypeBin@M@CUtlBuffer@@IAEXM@Z 00472020 f i tier1:KeyValues.obj
 0001:00071070       ??$PutTypeBin@N@CUtlBuffer@@IAEXN@Z 00472070 f i tier1:KeyValues.obj
 0001:000710c0       ??0?$CUtlMemory@PAVKeyValues@@@@QAE@HH@Z 004720c0 f i tier1:KeyValues.obj
 0001:00071100       ?Element@?$CUtlVector@PAVKeyValues@@V?$CUtlMemory@PAVKeyValues@@@@@@QAEAAPAVKeyValues@@H@Z 00472100 f i tier1:KeyValues.obj
 0001:00071110       ?RemoveAll@?$CUtlVector@PAVKeyValues@@V?$CUtlMemory@PAVKeyValues@@@@@@QAEXXZ 00472110 f i tier1:KeyValues.obj
 0001:00071120       ?ShiftElementsRight@?$CUtlVector@PAVKeyValues@@V?$CUtlMemory@PAVKeyValues@@@@@@IAEXHH@Z 00472120 f i tier1:KeyValues.obj
 0001:00071160       ?Purge@?$CUtlMemory@PAVKeyValues@@@@QAEXXZ 00472160 f i tier1:KeyValues.obj
 0001:00071190       ?Grow@?$CUtlMemory@PAVKeyValues@@@@QAEXH@Z 00472190 f i tier1:KeyValues.obj
 0001:00071200       ?GetUnsignedChar@CUtlBuffer@@QAEEXZ 00472200 f i tier1:KeyValues.obj
 0001:00071250       ?GetUnsignedInt@CUtlBuffer@@QAEIXZ 00472250 f i tier1:KeyValues.obj
 0001:00071270       ?GetFloat@CUtlBuffer@@QAEMXZ 00472270 f i tier1:KeyValues.obj
 0001:000712d0       ?GetDouble@CUtlBuffer@@QAENXZ 004722d0 f i tier1:KeyValues.obj
 0001:00071330       ??0KeyValues@@QAE@PBD00@Z  00472330 f   tier1:KeyValues.obj
 0001:00071390       ??0KeyValues@@QAE@PBD0PB_W@Z 00472390 f   tier1:KeyValues.obj
 0001:000713f0       ??0KeyValues@@QAE@PBD0H@Z  004723f0 f   tier1:KeyValues.obj
 0001:00071460       ??0KeyValues@@QAE@PBD0000@Z 00472460 f   tier1:KeyValues.obj
 0001:000714d0       ??0KeyValues@@QAE@PBD0H0H@Z 004724d0 f   tier1:KeyValues.obj
 0001:00071560       ?RemoveEverything@KeyValues@@AAEXXZ 00472560 f   tier1:KeyValues.obj
 0001:000715f0       ?RecursiveSaveToFile@KeyValues@@QAEXAAVCUtlBuffer@@H@Z 004725f0 f   tier1:KeyValues.obj
 0001:00071610       ?SaveToFile@KeyValues@@QAE_NPAVIBaseFileSystem@@PBD1@Z 00472610 f   tier1:KeyValues.obj
 0001:00071690       ?CreateKey@KeyValues@@AAEPAV1@PBD@Z 00472690 f   tier1:KeyValues.obj
 0001:00071760       ?GetString@KeyValues@@QAEPBDPBD0@Z 00472760 f   tier1:KeyValues.obj
 0001:000718e0       ?GetWString@KeyValues@@QAEPB_WPBDPB_W@Z 004728e0 f   tier1:KeyValues.obj
 0001:00071a20       ??4KeyValues@@QAEAAV0@AAV0@@Z 00472a20 f   tier1:KeyValues.obj
 0001:00071a60       ?RecursiveLoadFromBuffer@KeyValues@@AAEXPBDAAVCUtlBuffer@@@Z 00472a60 f   tier1:KeyValues.obj
 0001:00071cb0       ?ReadAsBinary@KeyValues@@QAE_NAAVCUtlBuffer@@@Z 00472cb0 f   tier1:KeyValues.obj
 0001:00071fe0       ??$PutType@E@CUtlBuffer@@IAEXEPBD@Z 00472fe0 f i tier1:KeyValues.obj
 0001:00072030       ??$PutType@I@CUtlBuffer@@IAEXIPBD@Z 00473030 f i tier1:KeyValues.obj
 0001:00072060       ??$PutType@M@CUtlBuffer@@IAEXMPBD@Z 00473060 f i tier1:KeyValues.obj
 0001:000720a0       ??$PutType@N@CUtlBuffer@@IAEXNPBD@Z 004730a0 f i tier1:KeyValues.obj
 0001:000720d0       ??A?$CUtlVector@PAVKeyValues@@V?$CUtlMemory@PAVKeyValues@@@@@@QAEAAPAVKeyValues@@H@Z 004730d0 f i tier1:KeyValues.obj
 0001:000720e0       ?Purge@?$CUtlVector@PAVKeyValues@@V?$CUtlMemory@PAVKeyValues@@@@@@QAEXXZ 004730e0 f i tier1:KeyValues.obj
 0001:00072130       ??1?$CUtlMemory@PAVKeyValues@@@@QAE@XZ 00473130 f i tier1:KeyValues.obj
 0001:00072160       ?GrowVector@?$CUtlVector@PAVKeyValues@@V?$CUtlMemory@PAVKeyValues@@@@@@IAEXH@Z 00473160 f i tier1:KeyValues.obj
 0001:00072190       ?PutUnsignedChar@CUtlBuffer@@QAEXE@Z 00473190 f i tier1:KeyValues.obj
 0001:000721e0       ?PutUnsignedInt@CUtlBuffer@@QAEXI@Z 004731e0 f i tier1:KeyValues.obj
 0001:00072210       ?PutFloat@CUtlBuffer@@QAEXM@Z 00473210 f i tier1:KeyValues.obj
 0001:00072250       ?PutDouble@CUtlBuffer@@QAEXN@Z 00473250 f i tier1:KeyValues.obj
 0001:00072280       ?CreateNewKey@KeyValues@@QAEPAV1@XZ 00473280 f   tier1:KeyValues.obj
 0001:00072300       ?AppendIncludedKeys@KeyValues@@AAEXAAV?$CUtlVector@PAVKeyValues@@V?$CUtlMemory@PAVKeyValues@@@@@@@Z 00473300 f   tier1:KeyValues.obj
 0001:00072350       ?WriteAsBinary@KeyValues@@QAE_NAAVCUtlBuffer@@@Z 00473350 f   tier1:KeyValues.obj
 0001:00072500       ??0?$CUtlVector@PAVKeyValues@@V?$CUtlMemory@PAVKeyValues@@@@@@QAE@HH@Z 00473500 f i tier1:KeyValues.obj
 0001:00072550       ??1?$CUtlVector@PAVKeyValues@@V?$CUtlMemory@PAVKeyValues@@@@@@QAE@XZ 00473550 f i tier1:KeyValues.obj
 0001:000725e0       ?InsertBefore@?$CUtlVector@PAVKeyValues@@V?$CUtlMemory@PAVKeyValues@@@@@@QAEHHABQAVKeyValues@@@Z 004735e0 f i tier1:KeyValues.obj
 0001:00072650       ?AddToTail@?$CUtlVector@PAVKeyValues@@V?$CUtlMemory@PAVKeyValues@@@@@@QAEHABQAVKeyValues@@@Z 00473650 f i tier1:KeyValues.obj
 0001:00072670       ?ParseIncludedKeys@KeyValues@@AAEXPBD0PAVIBaseFileSystem@@0AAV?$CUtlVector@PAVKeyValues@@V?$CUtlMemory@PAVKeyValues@@@@@@@Z 00473670 f   tier1:KeyValues.obj
 0001:00072810       ?LoadFromBuffer@KeyValues@@QAE_NPBDAAVCUtlBuffer@@PAVIBaseFileSystem@@0@Z 00473810 f   tier1:KeyValues.obj
 0001:00072a20       ?LoadFromBuffer@KeyValues@@QAE_NPBD0PAVIBaseFileSystem@@0@Z 00473a20 f   tier1:KeyValues.obj
 0001:00072af0       ??0InterfaceReg@@QAE@P6APAXXZPBD@Z 00473af0 f   tier1:interface.obj
 0001:00072b10       _CreateInterface           00473b10 f   tier1:interface.obj
 0001:00072bf0       ?Sys_LoadLibrary@@YAPAUHINSTANCE__@@PBD@Z 00473bf0 f   tier1:interface.obj
 0001:00072c80       ?Sys_LoadModule@@YAPAVCSysModule@@PBD@Z 00473c80 f   tier1:interface.obj
 0001:00072d90       ?Sys_UnloadModule@@YAXPAVCSysModule@@@Z 00473d90 f   tier1:interface.obj
 0001:00072da0       ?Sys_GetFactory@@YAP6APAXPBDPAH@ZPAVCSysModule@@@Z 00473da0 f   tier1:interface.obj
 0001:00072dc0       ?Sys_GetFactoryThis@@YAP6APAXPBDPAH@ZXZ 00473dc0 f   tier1:interface.obj
 0001:00072dd0       ?Sys_GetFactory@@YAP6APAXPBDPAH@Z0@Z 00473dd0 f   tier1:interface.obj
 0001:00072df0       ?Sys_LoadInterface@@YA_NPBD0PAPAVCSysModule@@PAPAX@Z 00473df0 f   tier1:interface.obj
 0001:00072e50       ?CRC32_Init@@YAXPAK@Z      00473e50 f   tier1:checksum_crc.obj
 0001:00072e60       ?CRC32_Final@@YAXPAK@Z     00473e60 f   tier1:checksum_crc.obj
 0001:00072e70       ?CRC32_GetTableEntry@@YAKI@Z 00473e70 f   tier1:checksum_crc.obj
 0001:00072e80       ?CRC32_ProcessBuffer@@YAXPAKPBXH@Z 00473e80 f   tier1:checksum_crc.obj
 0001:00073060       ?eq@?$char_traits@D@std@@SA_NABD0@Z 00474060 f i tier1:tokenreader.obj
 0001:00073080       ??0_Iterator_base_secure@std@@QAE@XZ 00474080 f i tier1:tokenreader.obj
 0001:00073090       ?_Getctype@_Locinfo@std@@QBE?AU_Ctypevec@@XZ 00474090 f i tier1:tokenreader.obj
 0001:000730c0       ??0locale@std@@QAE@XZ      004740c0 f i tier1:tokenreader.obj
 0001:00073100       ??0locale@std@@QAE@ABV01@@Z 00474100 f i tier1:tokenreader.obj
 0001:00073140       ??0ctype_base@std@@QAE@I@Z 00474140 f i tier1:tokenreader.obj
 0001:00073160       ??1ctype_base@std@@UAE@XZ  00474160 f i tier1:tokenreader.obj
 0001:00073170       ??_Ectype_base@std@@UAEPAXI@Z 00474170 f i tier1:tokenreader.obj
 0001:00073170       ??_Gctype_base@std@@UAEPAXI@Z 00474170 f i tier1:tokenreader.obj
 0001:00073190       ?is@?$ctype@D@std@@QBE_NFD@Z 00474190 f i tier1:tokenreader.obj
 0001:000731b0       ?widen@?$ctype@D@std@@QBEDD@Z 004741b0 f i tier1:tokenreader.obj
 0001:000731c0       ?_Init@?$ctype@D@std@@IAEXABV_Locinfo@2@@Z 004741c0 f i tier1:tokenreader.obj
 0001:00073200       ?_Tidy@?$ctype@D@std@@IAEXXZ 00474200 f i tier1:tokenreader.obj
 0001:00073230       ?rdstate@ios_base@std@@QBEHXZ 00474230 f i tier1:tokenreader.obj
 0001:00073240       ?good@ios_base@std@@QBE_NXZ 00474240 f i tier1:tokenreader.obj
 0001:00073250       ?eof@ios_base@std@@QBE_NXZ 00474250 f i tier1:tokenreader.obj
 0001:00073260       ?fail@ios_base@std@@QBE_NXZ 00474260 f i tier1:tokenreader.obj
 0001:00073270       ?flags@ios_base@std@@QBEHXZ 00474270 f i tier1:tokenreader.obj
 0001:00073280       ?getloc@ios_base@std@@QBE?AVlocale@2@XZ 00474280 f i tier1:tokenreader.obj
 0001:000732c0       ??0ios_base@std@@IAE@XZ    004742c0 f i tier1:tokenreader.obj
 0001:000732d0       ?Error@TokenReader@@QAAPBDPADZZ 004742d0 f   tier1:tokenreader.obj
 0001:00073320       ?Stuff@TokenReader@@QAEXW4trtoken_t@@PBD@Z 00474320 f   tier1:tokenreader.obj
 0001:00073360       ?rdbuf@?$basic_ios@DU?$char_traits@D@std@@@std@@QBEPAV?$basic_streambuf@DU?$char_traits@D@std@@@2@XZ 00474360 f i tier1:tokenreader.obj
 0001:00073370       ??0?$basic_ios@DU?$char_traits@D@std@@@std@@IAE@XZ 00474370 f i tier1:tokenreader.obj
 0001:00073380       ??Bsentry@?$basic_istream@DU?$char_traits@D@std@@@std@@QBE_NXZ 00474380 f i tier1:tokenreader.obj
 0001:00073390       ?pubsync@?$basic_streambuf@DU?$char_traits@D@std@@@std@@QAEHXZ 00474390 f i tier1:tokenreader.obj
 0001:000733a0       ?_Unlock@?$basic_streambuf@DU?$char_traits@D@std@@@std@@QAEXXZ 004743a0 f i tier1:tokenreader.obj
 0001:000733b0       ?_Gnpreinc@?$basic_streambuf@DU?$char_traits@D@std@@@std@@IAEPADXZ 004743b0 f i tier1:tokenreader.obj
 0001:000733d0       ?is_open@?$basic_filebuf@DU?$char_traits@D@std@@@std@@QBE_NXZ 004743d0 f i tier1:tokenreader.obj
 0001:000733e0       ?tie@?$basic_ios@DU?$char_traits@D@std@@@std@@QBEPAV?$basic_ostream@DU?$char_traits@D@std@@@2@XZ 004743e0 f i tier1:tokenreader.obj
 0001:000733f0       ?getloc@?$basic_streambuf@DU?$char_traits@D@std@@@std@@QBE?AVlocale@2@XZ 004743f0 f i tier1:tokenreader.obj
 0001:00073430       ?_Lock@?$basic_streambuf@DU?$char_traits@D@std@@@std@@QAEXXZ 00474430 f i tier1:tokenreader.obj
 0001:00073440       ??0?$_Ranit_base@DHPBDABDU_Iterator_base_secure@std@@@std@@QAE@XZ 00474440 f i tier1:tokenreader.obj
 0001:00073450       ??1_Sentry_base@?$basic_istream@DU?$char_traits@D@std@@@std@@QAE@XZ 00474450 f i tier1:tokenreader.obj
 0001:00073470       ?sgetc@?$basic_streambuf@DU?$char_traits@D@std@@@std@@QAEHXZ 00474470 f i tier1:tokenreader.obj
 0001:00073490       ?is_open@?$basic_ifstream@DU?$char_traits@D@std@@@std@@QBE_NXZ 00474490 f i tier1:tokenreader.obj
 0001:000734a0       ??0_Sentry_base@?$basic_istream@DU?$char_traits@D@std@@@std@@QAE@AAV12@@Z 004744a0 f i tier1:tokenreader.obj
 0001:000734d0       ?sbumpc@?$basic_streambuf@DU?$char_traits@D@std@@@std@@QAEHXZ 004744d0 f i tier1:tokenreader.obj
 0001:00073500       ?sputbackc@?$basic_streambuf@DU?$char_traits@D@std@@@std@@QAEHD@Z 00474500 f i tier1:tokenreader.obj
 0001:00073540       ??0?$_String_const_iterator@DU?$char_traits@D@std@@V?$allocator@D@2@@std@@QAE@PBD@Z 00474540 f i tier1:tokenreader.obj
 0001:00073560       ??1sentry@?$basic_istream@DU?$char_traits@D@std@@@std@@QAE@XZ 00474560 f i tier1:tokenreader.obj
 0001:00073580       ?snextc@?$basic_streambuf@DU?$char_traits@D@std@@@std@@QAEHXZ 00474580 f i tier1:tokenreader.obj
 0001:00073600       ??0?$basic_streambuf@DU?$char_traits@D@std@@@std@@IAE@XZ 00474600 f i tier1:tokenreader.obj
 0001:000736b0       ??0?$_String_iterator@DU?$char_traits@D@std@@V?$allocator@D@2@@std@@QAE@PAD@Z 004746b0 f i tier1:tokenreader.obj
 0001:000736d0       ??0?$basic_filebuf@DU?$char_traits@D@std@@@std@@QAE@PAU_iobuf@@@Z 004746d0 f i tier1:tokenreader.obj
 0001:00073730       ??0failure@ios_base@std@@QAE@ABV?$basic_string@DU?$char_traits@D@std@@V?$allocator@D@2@@2@@Z 00474730 f i tier1:tokenreader.obj
 0001:00073750       ??1failure@ios_base@std@@UAE@XZ 00474750 f i tier1:tokenreader.obj
 0001:00073790       ??_Gfailure@ios_base@std@@UAEPAXI@Z 00474790 f i tier1:tokenreader.obj
 0001:00073790       ??_Efailure@ios_base@std@@UAEPAXI@Z 00474790 f i tier1:tokenreader.obj
 0001:000737e0       ??0?$ctype@D@std@@QAE@PBF_NI@Z 004747e0 f i tier1:tokenreader.obj
 0001:000738e0       ?do_tolower@?$ctype@D@std@@MBEDD@Z 004748e0 f i tier1:tokenreader.obj
 0001:00073900       ?do_tolower@?$ctype@D@std@@MBEPBDPADPBD@Z 00474900 f i tier1:tokenreader.obj
 0001:00073930       ?do_toupper@?$ctype@D@std@@MBEDD@Z 00474930 f i tier1:tokenreader.obj
 0001:00073950       ?do_toupper@?$ctype@D@std@@MBEPBDPADPBD@Z 00474950 f i tier1:tokenreader.obj
 0001:00073980       ?do_widen@?$ctype@D@std@@MBEDD@Z 00474980 f i tier1:tokenreader.obj
 0001:00073990       ?do_widen@?$ctype@D@std@@MBEPBDPBD0PAD@Z 00474990 f i tier1:tokenreader.obj
 0001:000739c0       ?_Do_widen_s@?$ctype@D@std@@MBEPBDPBD0PADI@Z 004749c0 f i tier1:tokenreader.obj
 0001:00073a00       ?do_narrow@?$ctype@D@std@@MBEDDD@Z 00474a00 f i tier1:tokenreader.obj
 0001:00073a10       ?do_narrow@?$ctype@D@std@@MBEPBDPBD0DPAD@Z 00474a10 f i tier1:tokenreader.obj
 0001:00073a40       ?_Do_narrow_s@?$ctype@D@std@@MBEPBDPBD0DPADI@Z 00474a40 f i tier1:tokenreader.obj
 0001:00073a80       ??1?$ctype@D@std@@MAE@XZ   00474a80 f i tier1:tokenreader.obj
 0001:00073ac0       ??_G?$ctype@D@std@@MAEPAXI@Z 00474ac0 f i tier1:tokenreader.obj
 0001:00073ac0       ??_E?$ctype@D@std@@MAEPAXI@Z 00474ac0 f i tier1:tokenreader.obj
 0001:00073b10       ?_Getcat@?$ctype@D@std@@SAIPAPBVfacet@locale@2@@Z 00474b10 f i tier1:tokenreader.obj
 0001:00073b90       ?clear@ios_base@std@@QAEXH_N@Z 00474b90 f i tier1:tokenreader.obj
 0001:00073cc0       ??0failure@ios_base@std@@QAE@ABV012@@Z 00474cc0 f i tier1:tokenreader.obj
 0001:00073ce0       ?clear@ios_base@std@@QAEXH@Z 00474ce0 f i tier1:tokenreader.obj
 0001:00073cf0       ?_Init@ios_base@std@@IAEXXZ 00474cf0 f i tier1:tokenreader.obj
 0001:00073d70       ?clear@?$basic_ios@DU?$char_traits@D@std@@@std@@QAEXH_N@Z 00474d70 f i tier1:tokenreader.obj
 0001:00073d90       ?setstate@?$basic_ios@DU?$char_traits@D@std@@@std@@QAEXH_N@Z 00474d90 f i tier1:tokenreader.obj
 0001:00073dc0       ?close@?$basic_ifstream@DU?$char_traits@D@std@@@std@@QAEXXZ 00474dc0 f i tier1:tokenreader.obj
 0001:00073df0       ??$use_facet@V?$ctype@D@std@@@std@@YAABV?$ctype@D@0@ABVlocale@0@@Z 00474df0 f i tier1:tokenreader.obj
 0001:00073f20       ?Close@TokenReader@@QAEXXZ 00474f20 f   tier1:tokenreader.obj
 0001:00073f50       ?flush@?$basic_ostream@DU?$char_traits@D@std@@@std@@QAEAAV12@XZ 00474f50 f i tier1:tokenreader.obj
 0001:00073fa0       ?_Ipfx@?$basic_istream@DU?$char_traits@D@std@@@std@@QAE_N_N@Z 00474fa0 f i tier1:tokenreader.obj
 0001:00074140       ?widen@?$basic_ios@DU?$char_traits@D@std@@@std@@QBEDD@Z 00475140 f i tier1:tokenreader.obj
 0001:00074200       ??0sentry@?$basic_istream@DU?$char_traits@D@std@@@std@@QAE@AAV12@_N@Z 00475200 f i tier1:tokenreader.obj
 0001:00074270       ?init@?$basic_ios@DU?$char_traits@D@std@@@std@@IAEXPAV?$basic_streambuf@DU?$char_traits@D@std@@@2@_N@Z 00475270 f i tier1:tokenreader.obj
 0001:000742d0       ?get@?$basic_istream@DU?$char_traits@D@std@@@std@@QAEHXZ 004752d0 f i tier1:tokenreader.obj
 0001:00074410       ?get@?$basic_istream@DU?$char_traits@D@std@@@std@@QAEAAV12@PADHD@Z 00475410 f i tier1:tokenreader.obj
 0001:00074580       ?ignore@?$basic_istream@DU?$char_traits@D@std@@@std@@QAEAAV12@HH@Z 00475580 f i tier1:tokenreader.obj
 0001:000746e0       ?peek@?$basic_istream@DU?$char_traits@D@std@@@std@@QAEHXZ 004756e0 f i tier1:tokenreader.obj
 0001:00074810       ?putback@?$basic_istream@DU?$char_traits@D@std@@@std@@QAEAAV12@D@Z 00475810 f i tier1:tokenreader.obj
 0001:00074950       ??0?$basic_istream@DU?$char_traits@D@std@@@std@@QAE@PAV?$basic_streambuf@DU?$char_traits@D@std@@@1@_N@Z 00475950 f i tier1:tokenreader.obj
 0001:000749e0       ?open@?$basic_filebuf@DU?$char_traits@D@std@@@std@@QAEPAV12@PBDHH@Z 004759e0 f i tier1:tokenreader.obj
 0001:00074b00       ?SkipWhiteSpace@TokenReader@@AAE_NXZ 00475b00 f   tier1:tokenreader.obj
 0001:00074b90       ??0?$basic_ifstream@DU?$char_traits@D@std@@@std@@QAE@XZ 00475b90 f i tier1:tokenreader.obj
 0001:00074c90       ?open@?$basic_ifstream@DU?$char_traits@D@std@@@std@@QAEXPBDHH@Z 00475c90 f i tier1:tokenreader.obj
 0001:00074ce0       ??0TokenReader@@QAE@XZ     00475ce0 f   tier1:tokenreader.obj
 0001:00074d70       ??_ETokenReader@@UAEPAXI@Z 00475d70 f i tier1:tokenreader.obj
 0001:00074d70       ??_GTokenReader@@UAEPAXI@Z 00475d70 f i tier1:tokenreader.obj
 0001:00074db0       ?Open@TokenReader@@QAE_NPBD@Z 00475db0 f   tier1:tokenreader.obj
 0001:00074e20       ?GetString@TokenReader@@AAE?AW4trtoken_t@@PADH@Z 00475e20 f   tier1:tokenreader.obj
 0001:00074f80       ?NextToken@TokenReader@@QAE?AW4trtoken_t@@PADH@Z 00475f80 f   tier1:tokenreader.obj
 0001:000751b0       ?IgnoreTill@TokenReader@@QAEXW4trtoken_t@@PBD@Z 004761b0 f   tier1:tokenreader.obj
 0001:00075260       ?Expecting@TokenReader@@QAE_NW4trtoken_t@@PBD@Z 00476260 f   tier1:tokenreader.obj
 0001:000752e0       ?PeekTokenType@TokenReader@@QAE?AW4trtoken_t@@PADH@Z 004762e0 f   tier1:tokenreader.obj
 0001:00075340       ?NextTokenDynamic@TokenReader@@QAE?AW4trtoken_t@@PAPAD@Z 00476340 f   tier1:tokenreader.obj
 0001:000753d0       ?CharacterSetBuild@@YAXPAUcharacterset_s@@PBD@Z 004763d0 f   tier1:characterset.obj
 0001:00075420       ?StrLess@@YA_NABQBD0@Z     00476420 f   tier1:stringpool.obj
 0001:00075440       ?Count@?$CUtlRBTree@PBDGP6A_NABQBD0@Z@@QBEIXZ 00476440 f i tier1:stringpool.obj
 0001:00075450       ?InvalidIndex@?$CUtlRBTree@PBDGP6A_NABQBD0@Z@@SAGXZ 00476450 f i tier1:stringpool.obj
 0001:00075460       ?Count@?$CUtlVector@Uhash_item_t@CCountedStringPool@@V?$CUtlMemory@Uhash_item_t@CCountedStringPool@@@@@@QBEHXZ 00476460 f i tier1:stringpool.obj
 0001:00075470       ?IsIdxValid@?$CUtlMemory@UNode_t@?$CUtlRBTree@PBDGP6A_NABQBD0@Z@@@@QBE_NH@Z 00476470 f i tier1:stringpool.obj
 0001:00075490       ?Base@?$CUtlMemory@UNode_t@?$CUtlRBTree@PBDGP6A_NABQBD0@Z@@@@QAEPAUNode_t@?$CUtlRBTree@PBDGP6A_NABQBD0@Z@@XZ 00476490 f i tier1:stringpool.obj
 0001:000754a0       ??$CopyConstruct@PBD@@YAXPAPBDABQBD@Z 004764a0 f i tier1:stringpool.obj
 0001:000754c0       ??$Destruct@PBD@@YAXPAPBD@Z 004764c0 f i tier1:stringpool.obj
 0001:000754d0       ?Base@?$CUtlMemory@Uhash_item_t@CCountedStringPool@@@@QAEPAUhash_item_t@CCountedStringPool@@XZ 004764d0 f i tier1:stringpool.obj
 0001:000754e0       ?ValidateGrowSize@?$CUtlMemory@UNode_t@?$CUtlRBTree@PBDGP6A_NABQBD0@Z@@@@IAEXXZ 004764e0 f i tier1:stringpool.obj
 0001:000754f0       ?ValidateGrowSize@?$CUtlMemory@Uhash_item_t@CCountedStringPool@@@@IAEXXZ 004764f0 f i tier1:stringpool.obj
 0001:00075500       ??A?$CUtlMemory@UNode_t@?$CUtlRBTree@PBDGP6A_NABQBD0@Z@@@@QBEABUNode_t@?$CUtlRBTree@PBDGP6A_NABQBD0@Z@@H@Z 00476500 f i tier1:stringpool.obj
 0001:00075510       ??A?$CUtlMemory@UNode_t@?$CUtlRBTree@PBDGP6A_NABQBD0@Z@@@@QAEAAUNode_t@?$CUtlRBTree@PBDGP6A_NABQBD0@Z@@H@Z 00476510 f i tier1:stringpool.obj
 0001:00075520       ??$Construct@Uhash_item_t@CCountedStringPool@@@@YAXPAUhash_item_t@CCountedStringPool@@@Z 00476520 f i tier1:stringpool.obj
 0001:00075530       ??$Destruct@Uhash_item_t@CCountedStringPool@@@@YAXPAUhash_item_t@CCountedStringPool@@@Z 00476530 f i tier1:stringpool.obj
 0001:00075540       ?NumAllocated@?$CUtlMemory@UNode_t@?$CUtlRBTree@PBDGP6A_NABQBD0@Z@@@@QBEHXZ 00476540 f i tier1:stringpool.obj
 0001:00075550       ?IsExternallyAllocated@?$CUtlMemory@UNode_t@?$CUtlRBTree@PBDGP6A_NABQBD0@Z@@@@QBE_NXZ 00476550 f i tier1:stringpool.obj
 0001:00075560       ??$Construct@PBD@@YAXPAPBD@Z 00476560 f i tier1:stringpool.obj
 0001:00075570       ??$Construct@G@@YAXPAG@Z   00476570 f i tier1:stringpool.obj
 0001:00075580       ?NumAllocated@?$CUtlMemory@Uhash_item_t@CCountedStringPool@@@@QBEHXZ 00476580 f i tier1:stringpool.obj
 0001:00075590       ?IsExternallyAllocated@?$CUtlMemory@Uhash_item_t@CCountedStringPool@@@@QBE_NXZ 00476590 f i tier1:stringpool.obj
 0001:000755a0       ?IsRoot@?$CUtlRBTree@PBDGP6A_NABQBD0@Z@@QBE_NG@Z 004765a0 f i tier1:stringpool.obj
 0001:000755c0       ?Count@CStringPool@@QBEIXZ 004765c0 f   tier1:stringpool.obj
 0001:000755d0       ?ResetDbgInfo@?$CUtlRBTree@PBDGP6A_NABQBD0@Z@@IAEXXZ 004765d0 f i tier1:stringpool.obj
 0001:000755e0       ?Base@?$CUtlVector@Uhash_item_t@CCountedStringPool@@V?$CUtlMemory@Uhash_item_t@CCountedStringPool@@@@@@QAEPAUhash_item_t@CCountedStringPool@@XZ 004765e0 f i tier1:stringpool.obj
 0001:000755f0       ?ResetDbgInfo@?$CUtlVector@Uhash_item_t@CCountedStringPool@@V?$CUtlMemory@Uhash_item_t@CCountedStringPool@@@@@@IAEXXZ 004765f0 f i tier1:stringpool.obj
 0001:00075600       ?Element@?$CUtlRBTree@PBDGP6A_NABQBD0@Z@@QBEABQBDG@Z 00476600 f i tier1:stringpool.obj
 0001:00075620       ?Element@?$CUtlRBTree@PBDGP6A_NABQBD0@Z@@QAEAAPBDG@Z 00476620 f i tier1:stringpool.obj
 0001:00075640       ??0?$CUtlMemory@UNode_t@?$CUtlRBTree@PBDGP6A_NABQBD0@Z@@@@QAE@HH@Z 00476640 f i tier1:stringpool.obj
 0001:00075680       ??0?$CUtlMemory@Uhash_item_t@CCountedStringPool@@@@QAE@HH@Z 00476680 f i tier1:stringpool.obj
 0001:000756c0       ?Links@?$CUtlRBTree@PBDGP6A_NABQBD0@Z@@IAEAAULinks_t@1@G@Z 004766c0 f i tier1:stringpool.obj
 0001:000756e0       ?Links@?$CUtlRBTree@PBDGP6A_NABQBD0@Z@@IBEABULinks_t@1@G@Z 004766e0 f i tier1:stringpool.obj
 0001:00075740       ?Purge@?$CUtlMemory@UNode_t@?$CUtlRBTree@PBDGP6A_NABQBD0@Z@@@@QAEXXZ 00476740 f i tier1:stringpool.obj
 0001:00075770       ?Element@?$CUtlVector@Uhash_item_t@CCountedStringPool@@V?$CUtlMemory@Uhash_item_t@CCountedStringPool@@@@@@QAEAAUhash_item_t@CCountedStringPool@@H@Z 00476770 f i tier1:stringpool.obj
 0001:00075790       ?ShiftElementsRight@?$CUtlVector@Uhash_item_t@CCountedStringPool@@V?$CUtlMemory@Uhash_item_t@CCountedStringPool@@@@@@IAEXHH@Z 00476790 f i tier1:stringpool.obj
 0001:000757e0       ?Purge@?$CUtlMemory@Uhash_item_t@CCountedStringPool@@@@QAEXXZ 004767e0 f i tier1:stringpool.obj
 0001:00075810       ?Grow@?$CUtlMemory@UNode_t@?$CUtlRBTree@PBDGP6A_NABQBD0@Z@@@@QAEXH@Z 00476810 f i tier1:stringpool.obj
 0001:00075880       ?Grow@?$CUtlMemory@Uhash_item_t@CCountedStringPool@@@@QAEXH@Z 00476880 f i tier1:stringpool.obj
 0001:00075900       ?IsRed@?$CUtlRBTree@PBDGP6A_NABQBD0@Z@@IBE_NG@Z 00476900 f i tier1:stringpool.obj
 0001:00075920       ?Color@?$CUtlRBTree@PBDGP6A_NABQBD0@Z@@IBE?AW4NodeColor_t@1@G@Z 00476920 f i tier1:stringpool.obj
 0001:00075940       ?SetColor@?$CUtlRBTree@PBDGP6A_NABQBD0@Z@@IAEXGW4NodeColor_t@1@@Z 00476940 f i tier1:stringpool.obj
 0001:00075960       ?SetParent@?$CUtlRBTree@PBDGP6A_NABQBD0@Z@@IAEXGG@Z 00476960 f i tier1:stringpool.obj
 0001:00075980       ??A?$CUtlRBTree@PBDGP6A_NABQBD0@Z@@QAEAAPBDG@Z 00476980 f i tier1:stringpool.obj
 0001:000759a0       ??A?$CUtlVector@Uhash_item_t@CCountedStringPool@@V?$CUtlMemory@Uhash_item_t@CCountedStringPool@@@@@@QAEAAUhash_item_t@CCountedStringPool@@H@Z 004769a0 f i tier1:stringpool.obj
 0001:000759c0       ?Parent@?$CUtlRBTree@PBDGP6A_NABQBD0@Z@@QBEGG@Z 004769c0 f i tier1:stringpool.obj
 0001:000759e0       ?LeftChild@?$CUtlRBTree@PBDGP6A_NABQBD0@Z@@QBEGG@Z 004769e0 f i tier1:stringpool.obj
 0001:000759f0       ?RightChild@?$CUtlRBTree@PBDGP6A_NABQBD0@Z@@QBEGG@Z 004769f0 f i tier1:stringpool.obj
 0001:00075a10       ?IsRightChild@?$CUtlRBTree@PBDGP6A_NABQBD0@Z@@QBE_NG@Z 00476a10 f i tier1:stringpool.obj
 0001:00075a40       ?SetLeftChild@?$CUtlRBTree@PBDGP6A_NABQBD0@Z@@IAEXGG@Z 00476a40 f i tier1:stringpool.obj
 0001:00075a60       ?SetRightChild@?$CUtlRBTree@PBDGP6A_NABQBD0@Z@@IAEXGG@Z 00476a60 f i tier1:stringpool.obj
 0001:00075a80       ?FindInsertionPosition@?$CUtlRBTree@PBDGP6A_NABQBD0@Z@@IAEXABQBDAAGAA_N@Z 00476a80 f i tier1:stringpool.obj
 0001:00075b90       ??1?$CUtlMemory@UNode_t@?$CUtlRBTree@PBDGP6A_NABQBD0@Z@@@@QAE@XZ 00476b90 f i tier1:stringpool.obj
 0001:00075bc0       ?RemoveAll@?$CUtlVector@Uhash_item_t@CCountedStringPool@@V?$CUtlMemory@Uhash_item_t@CCountedStringPool@@@@@@QAEXXZ 00476bc0 f i tier1:stringpool.obj
 0001:00075bd0       ?Purge@?$CUtlVector@Uhash_item_t@CCountedStringPool@@V?$CUtlMemory@Uhash_item_t@CCountedStringPool@@@@@@QAEXXZ 00476bd0 f i tier1:stringpool.obj
 0001:00075c20       ??1?$CUtlMemory@Uhash_item_t@CCountedStringPool@@@@QAE@XZ 00476c20 f i tier1:stringpool.obj
 0001:00075c50       ?NewNode@?$CUtlRBTree@PBDGP6A_NABQBD0@Z@@QAEGXZ 00476c50 f i tier1:stringpool.obj
 0001:00075cb0       ?InsertMultipleBefore@?$CUtlVector@GV?$CUtlMemory@G@@@@QAEHHHPBG@Z 00476cb0 f i tier1:stringpool.obj
 0001:00075d50       ?GrowVector@?$CUtlVector@Uhash_item_t@CCountedStringPool@@V?$CUtlMemory@Uhash_item_t@CCountedStringPool@@@@@@IAEXH@Z 00476d50 f i tier1:stringpool.obj
 0001:00075d80       ?IsLeftChild@?$CUtlRBTree@PBDGP6A_NABQBD0@Z@@QBE_NG@Z 00476d80 f i tier1:stringpool.obj
 0001:00075db0       ?RotateLeft@?$CUtlRBTree@PBDGP6A_NABQBD0@Z@@IAEXG@Z 00476db0 f i tier1:stringpool.obj
 0001:00075eb0       ?RotateRight@?$CUtlRBTree@PBDGP6A_NABQBD0@Z@@IAEXG@Z 00476eb0 f i tier1:stringpool.obj
 0001:00075fb0       ?FindStringHandle@CCountedStringPool@@QAEGPBD@Z 00476fb0 f   tier1:stringpool.obj
 0001:00076030       ?FindString@CCountedStringPool@@QAEPADPBD@Z 00477030 f   tier1:stringpool.obj
 0001:00076060       ?DereferenceString@CCountedStringPool@@QAEXPBD@Z 00477060 f   tier1:stringpool.obj
 0001:00076180       ?HandleToString@CCountedStringPool@@QAEPADG@Z 00477180 f   tier1:stringpool.obj
 0001:00076210       ??0?$CUtlRBTree@PBDGP6A_NABQBD0@Z@@QAE@HHABQ6A_NABQBD0@Z@Z 00477210 f i tier1:stringpool.obj
 0001:00076280       ?IsValidIndex@?$CUtlRBTree@PBDGP6A_NABQBD0@Z@@QBE_NG@Z 00477280 f i tier1:stringpool.obj
 0001:000762b0       ?Find@?$CUtlRBTree@PBDGP6A_NABQBD0@Z@@QBEGABQBD@Z 004772b0 f i tier1:stringpool.obj
 0001:000763c0       ?RemoveAll@?$CUtlRBTree@PBDGP6A_NABQBD0@Z@@QAEXXZ 004773c0 f i tier1:stringpool.obj
 0001:00076460       ?FirstInorder@?$CUtlRBTree@PBDGP6A_NABQBD0@Z@@QBEGXZ 00477460 f i tier1:stringpool.obj
 0001:00076520       ?NextInorder@?$CUtlRBTree@PBDGP6A_NABQBD0@Z@@QBEGG@Z 00477520 f i tier1:stringpool.obj
 0001:000766e0       ??0?$CUtlVector@Uhash_item_t@CCountedStringPool@@V?$CUtlMemory@Uhash_item_t@CCountedStringPool@@@@@@QAE@HH@Z 004776e0 f i tier1:stringpool.obj
 0001:00076730       ??1?$CUtlVector@Uhash_item_t@CCountedStringPool@@V?$CUtlMemory@Uhash_item_t@CCountedStringPool@@@@@@QAE@XZ 00477730 f i tier1:stringpool.obj
 0001:000767c0       ?Purge@?$CUtlRBTree@PBDGP6A_NABQBD0@Z@@QAEXXZ 004777c0 f i tier1:stringpool.obj
 0001:00076860       ?AddMultipleToTail@?$CUtlVector@GV?$CUtlMemory@G@@@@QAEHHPBG@Z 00477860 f i tier1:stringpool.obj
 0001:00076880       ?InsertBefore@?$CUtlVector@Uhash_item_t@CCountedStringPool@@V?$CUtlMemory@Uhash_item_t@CCountedStringPool@@@@@@QAEHH@Z 00477880 f i tier1:stringpool.obj
 0001:000768e0       ?InsertMultipleBefore@?$CUtlVector@Uhash_item_t@CCountedStringPool@@V?$CUtlMemory@Uhash_item_t@CCountedStringPool@@@@@@QAEHHHPBUhash_item_t@CCountedStringPool@@@Z 004778e0 f i tier1:stringpool.obj
 0001:00076970       ?InsertRebalance@?$CUtlRBTree@PBDGP6A_NABQBD0@Z@@IAEXG@Z 00477970 f i tier1:stringpool.obj
 0001:00076ee0       ?Find@CStringPool@@QAEPBDPBD@Z 00477ee0 f   tier1:stringpool.obj
 0001:00076f30       ?FreeAll@CStringPool@@QAEXXZ 00477f30 f   tier1:stringpool.obj
 0001:00076f80       ??1?$CUtlRBTree@PBDGP6A_NABQBD0@Z@@QAE@XZ 00477f80 f i tier1:stringpool.obj
 0001:00077000       ?EnsureCount@?$CUtlVector@GV?$CUtlMemory@G@@@@QAEXH@Z 00478000 f i tier1:stringpool.obj
 0001:00077020       ?AddToTail@?$CUtlVector@Uhash_item_t@CCountedStringPool@@V?$CUtlMemory@Uhash_item_t@CCountedStringPool@@@@@@QAEHXZ 00478020 f i tier1:stringpool.obj
 0001:00077030       ?AddMultipleToTail@?$CUtlVector@Uhash_item_t@CCountedStringPool@@V?$CUtlMemory@Uhash_item_t@CCountedStringPool@@@@@@QAEHHPBUhash_item_t@CCountedStringPool@@@Z 00478030 f i tier1:stringpool.obj
 0001:00077050       ?LinkToParent@?$CUtlRBTree@PBDGP6A_NABQBD0@Z@@IAEXGG_N@Z 00478050 f i tier1:stringpool.obj
 0001:000770c0       ??0CStringPool@@QAE@XZ     004780c0 f   tier1:stringpool.obj
 0001:00077120       ??1CStringPool@@QAE@XZ     00478120 f   tier1:stringpool.obj
 0001:00077180       ??0CCountedStringPool@@QAE@XZ 00478180 f   tier1:stringpool.obj
 0001:00077290       ?ReferenceStringHandle@CCountedStringPool@@QAEGPBD@Z 00478290 f   tier1:stringpool.obj
 0001:000773d0       ?ReferenceString@CCountedStringPool@@QAEPADPBD@Z 004783d0 f   tier1:stringpool.obj
 0001:00077400       ?SetCount@?$CUtlVector@Uhash_item_t@CCountedStringPool@@V?$CUtlMemory@Uhash_item_t@CCountedStringPool@@@@@@QAEXH@Z 00478400 f i tier1:stringpool.obj
 0001:00077440       ?InsertAt@?$CUtlRBTree@PBDGP6A_NABQBD0@Z@@IAEGG_N@Z 00478440 f i tier1:stringpool.obj
 0001:00077470       ?FreeAll@CCountedStringPool@@QAEXXZ 00478470 f   tier1:stringpool.obj
 0001:00077520       ?Insert@?$CUtlRBTree@PBDGP6A_NABQBD0@Z@@QAEGABQBD@Z 00478520 f i tier1:stringpool.obj
 0001:00077580       ?Allocate@CStringPool@@QAEPBDPBD@Z 00478580 f   tier1:stringpool.obj
 0001:000775e0       ??1CCountedStringPool@@UAE@XZ 004785e0 f   tier1:stringpool.obj
 0001:00077650       ??_ECCountedStringPool@@UAEPAXI@Z 00478650 f i tier1:stringpool.obj
 0001:00077650       ??_GCCountedStringPool@@UAEPAXI@Z 00478650 f i tier1:stringpool.obj
 0001:00077670       ?HashString@@YAIPBD@Z      00478670 f   tier1:generichash.obj
 0001:000776b0       ?HashStringCaseless@@YAIPBD@Z 004786b0 f   tier1:generichash.obj
 0001:00077720       ?HashStringCaselessConventional@@YAIPBD@Z 00478720 f   tier1:generichash.obj
 0001:00077760       ?Hash4@@YAIPBX@Z           00478760 f   tier1:generichash.obj
 0001:000777c0       ?Hash8@@YAIPBX@Z           004787c0 f   tier1:generichash.obj
 0001:00077850       ?Hash12@@YAIPBX@Z          00478850 f   tier1:generichash.obj
 0001:00077920       ?Hash16@@YAIPBX@Z          00478920 f   tier1:generichash.obj
 0001:00077a20       ?HashBlock@@YAIPBXI@Z      00478a20 f   tier1:generichash.obj
 0001:00077a70       ?GetString@ConVar@@QBEPBDXZ 00478a70 f i tier1:convar.obj
 0001:00077a90       ?OneTimeInit@ConCommandBaseMgr@@SAXPAVIConCommandBaseAccessor@@@Z 00478a90 f   tier1:convar.obj
 0001:00077ac0       ??0ConCommandBase@@QAE@XZ  00478ac0 f   tier1:convar.obj
 0001:00077ae0       ??1ConCommandBase@@UAE@XZ  00478ae0 f   tier1:convar.obj
 0001:00077af0       ?IsCommand@ConCommandBase@@UBE_NXZ 00478af0 f   tier1:convar.obj
 0001:00077b00       ?Create@ConCommandBase@@MAEXPBD0H@Z 00478b00 f   tier1:convar.obj
 0001:00077b50       ?Init@ConCommandBase@@MAEXXZ 00478b50 f   tier1:convar.obj
 0001:00077b70       ?GetCommands@ConCommandBase@@SAPBV1@XZ 00478b70 f   tier1:convar.obj
 0001:00077b80       ?AddToList@ConCommandBase@@SAXPAV1@@Z 00478b80 f   tier1:convar.obj
 0001:00077ba0       ?GetName@ConCommandBase@@UBEPBDXZ 00478ba0 f   tier1:convar.obj
 0001:00077bb0       ?RemoveFlaggedCommands@ConCommandBase@@SAXH@Z 00478bb0 f   tier1:convar.obj
 0001:00077bf0       ?IsBitSet@ConCommandBase@@UBE_NH@Z 00478bf0 f   tier1:convar.obj
 0001:00077c00       ?AddFlags@ConCommandBase@@UAEXH@Z 00478c00 f   tier1:convar.obj
 0001:00077c10       ?GetNext@ConCommandBase@@QBEPBV1@XZ 00478c10 f   tier1:convar.obj
 0001:00077c20       ?SetNext@ConCommandBase@@QAEXPAV1@@Z 00478c20 f   tier1:convar.obj
 0001:00077c30       ?CopyString@ConCommandBase@@IAEPADPBD@Z 00478c30 f   tier1:convar.obj
 0001:00077c80       ?GetHelpText@ConCommandBase@@UBEPBDXZ 00478c80 f   tier1:convar.obj
 0001:00077c90       ?IsRegistered@ConCommandBase@@UBE_NXZ 00478c90 f   tier1:convar.obj
 0001:00077ca0       ??1ConCommand@@UAE@XZ      00478ca0 f   tier1:convar.obj
 0001:00077cb0       ?IsCommand@ConCommand@@UBE_NXZ 00478cb0 f   tier1:convar.obj
 0001:00077cc0       ?Dispatch@ConCommand@@UAEXXZ 00478cc0 f   tier1:convar.obj
 0001:00077cd0       ?DefaultCompletionFunc@@YAHPBDQAY0EA@D@Z 00478cd0 f   tier1:convar.obj
 0001:00077ce0       ?Create@ConCommand@@EAEXPBDP6AXXZ0HP6AH0QAY0EA@D@Z@Z 00478ce0 f   tier1:convar.obj
 0001:00077d60       ?AutoCompleteSuggest@ConCommand@@UAEHPBDQAY0EA@D@Z 00478d60 f   tier1:convar.obj
 0001:00077d80       ?CanAutoComplete@ConCommand@@UAE_NXZ 00478d80 f   tier1:convar.obj
 0001:00077d90       ??1ConVar@@UAE@XZ          00478d90 f   tier1:convar.obj
 0001:00077e00       ?InstallChangeCallback@ConVar@@QAEXP6AXPAV1@PBD@Z@Z 00478e00 f   tier1:convar.obj
 0001:00077e20       ?IsBitSet@ConVar@@UBE_NH@Z 00478e20 f   tier1:convar.obj
 0001:00077e30       ?GetHelpText@ConVar@@UBEPBDXZ 00478e30 f   tier1:convar.obj
 0001:00077e40       ?AddFlags@ConVar@@UAEXH@Z  00478e40 f   tier1:convar.obj
 0001:00077e50       ?IsRegistered@ConVar@@UBE_NXZ 00478e50 f   tier1:convar.obj
 0001:00077e60       ?GetName@ConVar@@UBEPBDXZ  00478e60 f   tier1:convar.obj
 0001:00077e70       ?IsCommand@ConVar@@UBE_NXZ 00478e70 f   tier1:convar.obj
 0001:00077e80       ?Init@ConVar@@EAEXXZ       00478e80 f   tier1:convar.obj
 0001:00077ea0       ?InternalSetValue@ConVar@@EAEXPBD@Z 00478ea0 f   tier1:convar.obj
 0001:00077f30       ?ChangeStringValue@ConVar@@EAEXPBD@Z 00478f30 f   tier1:convar.obj
 0001:00077fe0       ?ClampValue@ConVar@@EAE_NAAM@Z 00478fe0 f   tier1:convar.obj
 0001:00078030       ?InternalSetFloatValue@ConVar@@EAEXM@Z 00479030 f   tier1:convar.obj
 0001:000780d0       ?InternalSetIntValue@ConVar@@EAEXH@Z 004790d0 f   tier1:convar.obj
 0001:00078160       ?Create@ConVar@@EAEXPBD0H0_NM1MP6AXPAV1@0@Z@Z 00479160 f   tier1:convar.obj
 0001:00078240       ?SetValue@ConVar@@UAEXPBD@Z 00479240 f   tier1:convar.obj
 0001:00078250       ?SetValue@ConVar@@UAEXM@Z  00479250 f   tier1:convar.obj
 0001:00078270       ?SetValue@ConVar@@UAEXH@Z  00479270 f   tier1:convar.obj
 0001:00078280       ?Revert@ConVar@@QAEXXZ     00479280 f   tier1:convar.obj
 0001:00078290       ?RevertAll@ConVar@@SAXXZ   00479290 f   tier1:convar.obj
 0001:000782d0       ?GetMin@ConVar@@QBE_NAAM@Z 004792d0 f   tier1:convar.obj
 0001:000782f0       ?GetMax@ConVar@@QBE_NAAM@Z 004792f0 f   tier1:convar.obj
 0001:00078310       ?GetDefault@ConVar@@QBEPBDXZ 00479310 f   tier1:convar.obj
 0001:00078320       ??_GConCommandBase@@UAEPAXI@Z 00479320 f i tier1:convar.obj
 0001:00078320       ??_EConCommandBase@@UAEPAXI@Z 00479320 f i tier1:convar.obj
 0001:00078340       ??0ConCommandBase@@QAE@PBD0H@Z 00479340 f   tier1:convar.obj
 0001:000783a0       ?FindCommand@ConCommandBase@@SAPBV1@PBD@Z 004793a0 f   tier1:convar.obj
 0001:000783e0       ?RevertFlaggedCvars@ConCommandBase@@SAXH@Z 004793e0 f   tier1:convar.obj
 0001:00078460       ??0ConCommand@@QAE@PBDP6AXXZ0HP6AH0QAY0EA@D@Z@Z 00479460 f   tier1:convar.obj
 0001:000784e0       ??_EConCommand@@UAEPAXI@Z  004794e0 f i tier1:convar.obj
 0001:000784e0       ??_GConCommand@@UAEPAXI@Z  004794e0 f i tier1:convar.obj
 0001:00078500       ??0ConVar@@QAE@PBD0H@Z     00479500 f   tier1:convar.obj
 0001:00078580       ??_EConVar@@UAEPAXI@Z      00479580 f i tier1:convar.obj
 0001:00078580       ??_GConVar@@UAEPAXI@Z      00479580 f i tier1:convar.obj
 0001:000785a0       ??0ConVar@@QAE@PBD0H0@Z    004795a0 f   tier1:convar.obj
 0001:00078620       ??0ConVar@@QAE@PBD0H0_NM1M@Z 00479620 f   tier1:convar.obj
 0001:000786b0       ??0ConVar@@QAE@PBD0H0P6AXPAV0@0@Z@Z 004796b0 f   tier1:convar.obj
 0001:00078740       ??0ConVar@@QAE@PBD0H0_NM1MP6AXPAV0@0@Z@Z 00479740 f   tier1:convar.obj
 0001:000787e0       _asinf                     004797e0 f i mathlib:mathlib_base.obj
 0001:00078800       _logf                      00479800 f i mathlib:mathlib_base.obj
 0001:00078820       _powf                      00479820 f i mathlib:mathlib_base.obj
 0001:00078840       ?asin@@YAMM@Z              00479840 f i mathlib:mathlib_base.obj
 0001:00078860       ?log@@YAMM@Z               00479860 f i mathlib:mathlib_base.obj
 0001:00078880       ?pow@@YAMMM@Z              00479880 f i mathlib:mathlib_base.obj
 0001:000788a0       ?MulAdd@Vector2D@@QAEXABV1@0M@Z 004798a0 f i mathlib:mathlib_base.obj
 0001:000788d0       ?DotProduct2D@@YAMABVVector2D@@0@Z 004798d0 f i mathlib:mathlib_base.obj
 0001:000788f0       ?Dot@Vector2D@@QBEMABV1@@Z 004798f0 f i mathlib:mathlib_base.obj
 0001:00078910       ?Vector2DLength@@YAMABVVector2D@@@Z 00479910 f i mathlib:mathlib_base.obj
 0001:00078940       ?Length@Vector2D@@QBEMXZ   00479940 f i mathlib:mathlib_base.obj
 0001:00078970       ?DistTo@Vector2D@@QBEMABV1@@Z 00479970 f i mathlib:mathlib_base.obj
 0001:000789c0       ?MulAdd@Vector@@QAEXABV1@0M@Z 004799c0 f i mathlib:mathlib_base.obj
 0001:00078a00       ?DotProductAbs@@YAMABVVector@@PBM@Z 00479a00 f i mathlib:mathlib_base.obj
 0001:00078a70       ?DistTo@Vector@@QBEMABV1@@Z 00479a70 f i mathlib:mathlib_base.obj
 0001:00078ad0       ??0Quaternion@@QAE@XZ      00479ad0 f i mathlib:mathlib_base.obj
 0001:00078ae0       ??AQuaternion@@QAEAAMH@Z   00479ae0 f i mathlib:mathlib_base.obj
 0001:00078af0       ??AQuaternion@@QBEMH@Z     00479af0 f i mathlib:mathlib_base.obj
 0001:00078b00       ??0RadianEuler@@QAE@XZ     00479b00 f i mathlib:mathlib_base.obj
 0001:00078b10       ?Init@RadianEuler@@QAEXMMM@Z 00479b10 f i mathlib:mathlib_base.obj
 0001:00078b30       ??0QAngle@@QAE@MMM@Z       00479b30 f i mathlib:mathlib_base.obj
 0001:00078b50       ?VectorNormalizeFast@@YAXAAVVector@@@Z 00479b50 f i mathlib:mathlib_base.obj
 0001:00078b60       ?GetPlane@Frustum_t@@QBEPBUcplane_t@@H@Z 00479b60 f i mathlib:mathlib_base.obj
 0001:00078b70       ?Base@matrix3x4_t@@QAEPAMXZ 00479b70 f i mathlib:mathlib_base.obj
 0001:00078b80       ?Base@matrix3x4_t@@QBEPBMXZ 00479b80 f i mathlib:mathlib_base.obj
 0001:00078b90       ?VectorScale@@YAXPBMMPAM@Z 00479b90 f i mathlib:mathlib_base.obj
 0001:00078bc0       ?anglemod@@YAMM@Z          00479bc0 f i mathlib:mathlib_base.obj
 0001:00078c20       ?TexLightToLinear@@YAMHH@Z 00479c20 f i mathlib:mathlib_base.obj
 0001:00078c40       ?RoundFloatToInt@@YAHM@Z   00479c40 f i mathlib:mathlib_base.obj
 0001:00078c50       ?Floor2Int@@YAHM@Z         00479c50 f i mathlib:mathlib_base.obj
 0001:00078c80       ?_sqrtf@@YAMM@Z            00479c80 f   mathlib:mathlib_base.obj
 0001:00078ca0       ?_rsqrtf@@YAMM@Z           00479ca0 f   mathlib:mathlib_base.obj
 0001:00078cc0       ?_VectorNormalize@@YIMAAVVector@@@Z 00479cc0 f   mathlib:mathlib_base.obj
 0001:00078d30       ?_VectorNormalizeFast@@YIXAAVVector@@@Z 00479d30 f   mathlib:mathlib_base.obj
 0001:00078d90       ?_InvRSquared@@YAMPBM@Z    00479d90 f   mathlib:mathlib_base.obj
 0001:00078de0       ?_3DNow_Sqrt@@YAMM@Z       00479de0 f   mathlib:mathlib_base.obj
 0001:00078e10       ?_3DNow_RSqrt@@YAMM@Z      00479e10 f   mathlib:mathlib_base.obj
 0001:00078e30       ?_3DNow_VectorNormalize@@YIMAAVVector@@@Z 00479e30 f   mathlib:mathlib_base.obj
 0001:00078eb0       ?_3DNow_VectorNormalizeFast@@YIXAAVVector@@@Z 00479eb0 f   mathlib:mathlib_base.obj
 0001:00078ec0       ?_3DNow_InvRSquared@@YAMPBM@Z 00479ec0 f   mathlib:mathlib_base.obj
 0001:00078f00       ?_SSE_Sqrt@@YAMM@Z         00479f00 f   mathlib:mathlib_base.obj
 0001:00078f20       ?_SSE_RSqrtAccurate@@YAMM@Z 00479f20 f i mathlib:mathlib_base.obj
 0001:00078f70       ?_SSE_RSqrtFast@@YAMM@Z    00479f70 f i mathlib:mathlib_base.obj
 0001:00078f90       ?_SSE_VectorNormalize@@YIMAAVVector@@@Z 00479f90 f   mathlib:mathlib_base.obj
 0001:00079030       ?_SSE_VectorNormalizeFast@@YIXAAVVector@@@Z 0047a030 f   mathlib:mathlib_base.obj
 0001:000790c0       ?_SSE_InvRSquared@@YAMPBM@Z 0047a0c0 f   mathlib:mathlib_base.obj
 0001:00079100       ?_SSE_SinCos@@YAXMPAM0@Z   0047a100 f   mathlib:mathlib_base.obj
 0001:00079240       ?_SSE_cos@@YAMM@Z          0047a240 f   mathlib:mathlib_base.obj
 0001:00079310       ?_SSE2_SinCos@@YAXMPAM0@Z  0047a310 f   mathlib:mathlib_base.obj
 0001:00079430       ?_SSE2_cos@@YAMM@Z         0047a430 f   mathlib:mathlib_base.obj
 0001:00079500       ?InitSinCosTable@@YAXXZ    0047a500 f   mathlib:mathlib_base.obj
 0001:00079540       ?VectorsEqual@@YAHPBM0@Z   0047a540 f   mathlib:mathlib_base.obj
 0001:00079580       ?LineSphereIntersection@@YAHABVVector@@M00PAM1@Z 0047a580 f   mathlib:mathlib_base.obj
 0001:000796a0       ?MatrixAngles@@YAXABUmatrix3x4_t@@PAM@Z 0047a6a0 f   mathlib:mathlib_base.obj
 0001:000797d0       ?VectorTransform@@YAXPBMABUmatrix3x4_t@@PAM@Z 0047a7d0 f   mathlib:mathlib_base.obj
 0001:00079850       ?VectorTransformSSE@@YAXPBMABUmatrix3x4_t@@PAM@Z 0047a850 f   mathlib:mathlib_base.obj
 0001:000798f0       ?VectorITransform@@YAXPBMABUmatrix3x4_t@@PAM@Z 0047a8f0 f   mathlib:mathlib_base.obj
 0001:00079980       ?VectorRotate@@YAXPBMABUmatrix3x4_t@@PAM@Z 0047a980 f   mathlib:mathlib_base.obj
 0001:000799e0       ?VectorRotateSSE@@YAXPBMABUmatrix3x4_t@@PAM@Z 0047a9e0 f   mathlib:mathlib_base.obj
 0001:00079a70       ?TransformAndRotate@@YAXABVVector@@0ABUmatrix3x4_t@@AAV1@2@Z 0047aa70 f   mathlib:mathlib_base.obj
 0001:00079b90       ?VectorIRotate@@YAXPBMABUmatrix3x4_t@@PAM@Z 0047ab90 f   mathlib:mathlib_base.obj
 0001:00079bf0       ?MatrixCopy@@YAXABUmatrix3x4_t@@AAU1@@Z 0047abf0 f   mathlib:mathlib_base.obj
 0001:00079c10       ?MatrixGetColumn@@YAXABUmatrix3x4_t@@HAAVVector@@@Z 0047ac10 f   mathlib:mathlib_base.obj
 0001:00079c30       ?MatrixSetColumn@@YAXABVVector@@HAAUmatrix3x4_t@@@Z 0047ac30 f   mathlib:mathlib_base.obj
 0001:00079c50       ?VectorCompare@@YAHPBM0@Z  0047ac50 f   mathlib:mathlib_base.obj
 0001:00079c90       ?VectorMA@@YAXPBMM0PAM@Z   0047ac90 f   mathlib:mathlib_base.obj
 0001:00079cd0       ?_SSE_VectorMA@@YAXPBMM0PAM@Z 0047acd0 f   mathlib:mathlib_base.obj
 0001:00079d00       ?CrossProduct@@YAXPBM0PAM@Z 0047ad00 f   mathlib:mathlib_base.obj
 0001:00079d40       ?Q_log2@@YAHH@Z            0047ad40 f   mathlib:mathlib_base.obj
 0001:00079d60       ?VectorMatrix@@YAXABVVector@@AAUmatrix3x4_t@@@Z 0047ad60 f   mathlib:mathlib_base.obj
 0001:00079e70       ?VectorVectors@@YAXABVVector@@AAV1@1@Z 0047ae70 f   mathlib:mathlib_base.obj
 0001:00079f30       ?VectorAngles@@YAXPBMPAM@Z 0047af30 f   mathlib:mathlib_base.obj
 0001:0007a040       ?ConcatRotations@@YAXQAY02$$CBM0QAY02M@Z 0047b040 f   mathlib:mathlib_base.obj
 0001:0007a130       ?ConcatTransforms@@YAXABUmatrix3x4_t@@0AAU1@@Z 0047b130 f   mathlib:mathlib_base.obj
 0001:0007a2d0       ?FloorDivMod@@YAXNNPAH0@Z  0047b2d0 f   mathlib:mathlib_base.obj
 0001:0007a3e0       ?GreatestCommonDivisor@@YAHHH@Z 0047b3e0 f   mathlib:mathlib_base.obj
 0001:0007a420       ?IsDenormal@@YA_NABM@Z     0047b420 f   mathlib:mathlib_base.obj
 0001:0007a440       ?SignbitsForPlane@@YAHPAUcplane_t@@@Z 0047b440 f   mathlib:mathlib_base.obj
 0001:0007a480       ?BoxOnPlaneSide@@YAHPBM0PBUcplane_t@@@Z 0047b480 f   mathlib:mathlib_base.obj
 0001:0007a6e0       ?VectorMA@@YAXABVVector@@M0AAV1@@Z 0047b6e0 f   mathlib:mathlib_base.obj
 0001:0007a720       ?AngleVectors@@YAXABVQAngle@@PAVVector@@@Z 0047b720 f   mathlib:mathlib_base.obj
 0001:0007a7b0       ?AngleVectors@@YAXABVQAngle@@PAVVector@@11@Z 0047b7b0 f   mathlib:mathlib_base.obj
 0001:0007a910       ?AngleVectorsTranspose@@YAXABVQAngle@@PAVVector@@11@Z 0047b910 f   mathlib:mathlib_base.obj
 0001:0007aa60       ?VectorAngles@@YAXABVVector@@AAVQAngle@@@Z 0047ba60 f   mathlib:mathlib_base.obj
 0001:0007ab90       ?VectorAngles@@YAXABVVector@@0AAVQAngle@@@Z 0047bb90 f   mathlib:mathlib_base.obj
 0001:0007ace0       ?SetIdentityMatrix@@YAXAAUmatrix3x4_t@@@Z 0047bce0 f   mathlib:mathlib_base.obj
 0001:0007ad00       ?AngleMatrix@@YAXABVQAngle@@AAUmatrix3x4_t@@@Z 0047bd00 f   mathlib:mathlib_base.obj
 0001:0007ae40       ?AngleIMatrix@@YAXABVQAngle@@AAUmatrix3x4_t@@@Z 0047be40 f   mathlib:mathlib_base.obj
 0001:0007af80       ?SphereToAABBIntersection@@YA_NABVVector@@M00@Z 0047bf80 f   mathlib:mathlib_base.obj
 0001:0007b070       ?ClearBounds@@YAXAAVVector@@0@Z 0047c070 f   mathlib:mathlib_base.obj
 0001:0007b0a0       ?AddPointToBounds@@YAXABVVector@@AAV1@1@Z 0047c0a0 f   mathlib:mathlib_base.obj
 0001:0007b140       ?GammaToLinearFullRange@@YAMM@Z 0047c140 f   mathlib:mathlib_base.obj
 0001:0007b160       ?LinearToGammaFullRange@@YAMM@Z 0047c160 f   mathlib:mathlib_base.obj
 0001:0007b180       ?GammaToLinear@@YAMM@Z     0047c180 f   mathlib:mathlib_base.obj
 0001:0007b1d0       ?LinearToGamma@@YAMM@Z     0047c1d0 f   mathlib:mathlib_base.obj
 0001:0007b220       ?TextureToLinear@@YAMH@Z   0047c220 f   mathlib:mathlib_base.obj
 0001:0007b240       ?LinearToTexture@@YAHM@Z   0047c240 f   mathlib:mathlib_base.obj
 0001:0007b280       ?LinearToScreenGamma@@YAHM@Z 0047c280 f   mathlib:mathlib_base.obj
 0001:0007b2c0       ?SolveQuadratic@@YA_NMMMAAM0@Z 0047c2c0 f   mathlib:mathlib_base.obj
 0001:0007b390       ?SolveInverseQuadratic@@YA_NMMMMMMAAM00@Z 0047c390 f   mathlib:mathlib_base.obj
 0001:0007b490       ?SolveInverseReciprocalQuadratic@@YA_NMMMMMMAAM00@Z 0047c490 f   mathlib:mathlib_base.obj
 0001:0007b5c0       ?VectorYawRotate@@YAXABVVector@@MAAV1@@Z 0047c5c0 f   mathlib:mathlib_base.obj
 0001:0007b670       ?Bias@@YAMMM@Z             0047c670 f   mathlib:mathlib_base.obj
 0001:0007b6c0       ?Gain@@YAMMM@Z             0047c6c0 f   mathlib:mathlib_base.obj
 0001:0007b750       ?SmoothCurve@@YAMM@Z       0047c750 f   mathlib:mathlib_base.obj
 0001:0007b780       ?MovePeak@@YAMMM@Z         0047c780 f i mathlib:mathlib_base.obj
 0001:0007b7d0       ?SmoothCurve_Tweak@@YAMMMM@Z 0047c7d0 f   mathlib:mathlib_base.obj
 0001:0007b840       ?QuaternionAlign@@YAXABVQuaternion@@0AAV1@@Z 0047c840 f   mathlib:mathlib_base.obj
 0001:0007b930       ?QuaternionSlerpNoAlign@@YAXABVQuaternion@@0MAAV1@@Z 0047c930 f   mathlib:mathlib_base.obj
 0001:0007baf0       ?QuaternionConjugate@@YAXABVQuaternion@@AAV1@@Z 0047caf0 f   mathlib:mathlib_base.obj
 0001:0007bb20       ?QuaternionNormalize@@YAMAAVQuaternion@@@Z 0047cb20 f   mathlib:mathlib_base.obj
 0001:0007bba0       ?QuaternionScale@@YAXABVQuaternion@@MAAV1@@Z 0047cba0 f   mathlib:mathlib_base.obj
 0001:0007bca0       ?QuaternionAdd@@YAXABVQuaternion@@0AAV1@@Z 0047cca0 f   mathlib:mathlib_base.obj
 0001:0007bcf0       ?QuaternionDotProduct@@YAMABVQuaternion@@0@Z 0047ccf0 f   mathlib:mathlib_base.obj
 0001:0007bd20       ?QuaternionMult@@YAXABVQuaternion@@0AAV1@@Z 0047cd20 f   mathlib:mathlib_base.obj
 0001:0007be10       ?QuaternionMatrix@@YAXABVQuaternion@@AAUmatrix3x4_t@@@Z 0047ce10 f   mathlib:mathlib_base.obj
 0001:0007bee0       ?QuaternionAxisAngle@@YAXABVQuaternion@@AAVVector@@AAM@Z 0047cee0 f   mathlib:mathlib_base.obj
 0001:0007bf50       ?AxisAngleQuaternion@@YAXABVVector@@MAAVQuaternion@@@Z 0047cf50 f   mathlib:mathlib_base.obj
 0001:0007bfc0       ?AngleQuaternion@@YAXABVRadianEuler@@AAVQuaternion@@@Z 0047cfc0 f   mathlib:mathlib_base.obj
 0001:0007c0e0       ?Spline_Normalize@@YAXABVVector@@000AAV1@1@Z 0047d0e0 f   mathlib:mathlib_base.obj
 0001:0007c1e0       ?Catmull_Rom_Spline@@YAXABVVector@@000MAAV1@@Z 0047d1e0 f   mathlib:mathlib_base.obj
 0001:0007c540       ?Catmull_Rom_Spline_Tangent@@YAXABVVector@@000MAAV1@@Z 0047d540 f   mathlib:mathlib_base.obj
 0001:0007c870       ?Catmull_Rom_Spline_Normalize@@YAXABVVector@@000MAAV1@@Z 0047d870 f   mathlib:mathlib_base.obj
 0001:0007c940       ?Catmull_Rom_Spline_NormalizeX@@YAXABVVector@@000MAAV1@@Z 0047d940 f   mathlib:mathlib_base.obj
 0001:0007c9a0       ?Hermite_Spline@@YAXABVVector@@000MAAV1@@Z 0047d9a0 f   mathlib:mathlib_base.obj
 0001:0007ca70       ?Hermite_Spline@@YAMMMMMM@Z 0047da70 f   mathlib:mathlib_base.obj
 0001:0007cb20       ?Hermite_SplineBasis@@YAXMQAM@Z 0047db20 f   mathlib:mathlib_base.obj
 0001:0007cb80       ?Hermite_Spline@@YAXABVVector@@00MAAV1@@Z 0047db80 f   mathlib:mathlib_base.obj
 0001:0007cc20       ?Hermite_Spline@@YAMMMMM@Z 0047dc20 f   mathlib:mathlib_base.obj
 0001:0007cc70       ?Hermite_Spline@@YAXABVQuaternion@@00MAAV1@@Z 0047dc70 f   mathlib:mathlib_base.obj
 0001:0007cde0       ?Kochanek_Bartels_Spline@@YAXMMMABVVector@@000MAAV1@@Z 0047dde0 f   mathlib:mathlib_base.obj
 0001:0007d260       ?Kochanek_Bartels_Spline_NormalizeX@@YAXMMMABVVector@@000MAAV1@@Z 0047e260 f   mathlib:mathlib_base.obj
 0001:0007d2d0       ?Cubic_Spline@@YAXABVVector@@000MAAV1@@Z 0047e2d0 f   mathlib:mathlib_base.obj
 0001:0007d460       ?Cubic_Spline_NormalizeX@@YAXABVVector@@000MAAV1@@Z 0047e460 f   mathlib:mathlib_base.obj
 0001:0007d4c0       ?BSpline@@YAXABVVector@@000MAAV1@@Z 0047e4c0 f   mathlib:mathlib_base.obj
 0001:0007d880       ?BSpline_NormalizeX@@YAXABVVector@@000MAAV1@@Z 0047e880 f   mathlib:mathlib_base.obj
 0001:0007d8e0       ?Parabolic_Spline@@YAXABVVector@@000MAAV1@@Z 0047e8e0 f   mathlib:mathlib_base.obj
 0001:0007db00       ?Parabolic_Spline_NormalizeX@@YAXABVVector@@000MAAV1@@Z 0047eb00 f   mathlib:mathlib_base.obj
 0001:0007db60       ?RangeCompressor@@YAMMMMM@Z 0047eb60 f   mathlib:mathlib_base.obj
 0001:0007dc70       ?CalcSqrDistanceToAABB@@YAMABVVector@@00@Z 0047ec70 f   mathlib:mathlib_base.obj
 0001:0007dd60       ?CalcClosestPointOnAABB@@YAXABVVector@@00AAV1@@Z 0047ed60 f   mathlib:mathlib_base.obj
 0001:0007de00       ?CalcClosestPointToLineT@@YAMABVVector@@00AAV1@@Z 0047ee00 f   mathlib:mathlib_base.obj
 0001:0007deb0       ?CalcClosestPointOnLine@@YAXABVVector@@00AAV1@PAM@Z 0047eeb0 f   mathlib:mathlib_base.obj
 0001:0007df10       ?CalcDistanceToLine@@YAMABVVector@@00PAM@Z 0047ef10 f   mathlib:mathlib_base.obj
 0001:0007df50       ?CalcClosestPointOnLineSegment@@YAXABVVector@@00AAV1@PAM@Z 0047ef50 f   mathlib:mathlib_base.obj
 0001:0007dfe0       ?CalcDistanceToLineSegment@@YAMABVVector@@00PAM@Z 0047efe0 f   mathlib:mathlib_base.obj
 0001:0007e020       ?CalcClosestPointToLineT2D@@YAMABVVector2D@@00AAV1@@Z 0047f020 f   mathlib:mathlib_base.obj
 0001:0007e0b0       ?CalcClosestPointOnLine2D@@YAXABVVector2D@@00AAV1@PAM@Z 0047f0b0 f   mathlib:mathlib_base.obj
 0001:0007e100       ?CalcDistanceToLine2D@@YAMABVVector2D@@00PAM@Z 0047f100 f   mathlib:mathlib_base.obj
 0001:0007e190       ?CalcDistanceSqrToLine2D@@YAMABVVector2D@@00PAM@Z 0047f190 f   mathlib:mathlib_base.obj
 0001:0007e210       ?CalcClosestPointOnLineSegment2D@@YAXABVVector2D@@00AAV1@PAM@Z 0047f210 f   mathlib:mathlib_base.obj
 0001:0007e2a0       ?CalcDistanceToLineSegment2D@@YAMABVVector2D@@00PAM@Z 0047f2a0 f   mathlib:mathlib_base.obj
 0001:0007e310       ?CalcDistanceSqrToLineSegment2D@@YAMABVVector2D@@00PAM@Z 0047f310 f   mathlib:mathlib_base.obj
 0001:0007e370       ?CalcLineToLineIntersectionSegment@@YA_NABVVector@@000PAV1@1PAM2@Z 0047f370 f   mathlib:mathlib_base.obj
 0001:0007e5f0       ?MathLib_3DNowEnabled@@YA_NXZ 0047f5f0 f   mathlib:mathlib_base.obj
 0001:0007e600       ?MathLib_MMXEnabled@@YA_NXZ 0047f600 f   mathlib:mathlib_base.obj
 0001:0007e610       ?MathLib_SSEEnabled@@YA_NXZ 0047f610 f   mathlib:mathlib_base.obj
 0001:0007e620       ?MathLib_SSE2Enabled@@YA_NXZ 0047f620 f   mathlib:mathlib_base.obj
 0001:0007e630       ?Approach@@YAMMMM@Z        0047f630 f   mathlib:mathlib_base.obj
 0001:0007e690       ?ApproachAngle@@YAMMMM@Z   0047f690 f   mathlib:mathlib_base.obj
 0001:0007e790       ?AngleDiff@@YAMMM@Z        0047f790 f   mathlib:mathlib_base.obj
 0001:0007e810       ?AngleDistance@@YAMMM@Z    0047f810 f   mathlib:mathlib_base.obj
 0001:0007e860       ?AngleNormalize@@YAMM@Z    0047f860 f   mathlib:mathlib_base.obj
 0001:0007e8c0       ?AngleNormalizePositive@@YAMM@Z 0047f8c0 f   mathlib:mathlib_base.obj
 0001:0007e900       ?AnglesAreEqual@@YA_NMMM@Z 0047f900 f   mathlib:mathlib_base.obj
 0001:0007e940       ?ComputeTrianglePlane@@YAXABVVector@@00AAV1@AAM@Z 0047f940 f   mathlib:mathlib_base.obj
 0001:0007ea00       ?PolyFromPlane@@YAHPAVVector@@ABV1@MM@Z 0047fa00 f   mathlib:mathlib_base.obj
 0001:0007ecc0       ?ClipPolyToPlane@@YAHPAVVector@@H0ABV1@MM@Z 0047fcc0 f   mathlib:mathlib_base.obj
 0001:0007eff0       ?ClipPolyToPlane_Precise@@YAHPANH0PBNNN@Z 0047fff0 f   mathlib:mathlib_base.obj
 0001:0007f240       ?ColorRGBExp32ToVector@@YAXABUColorRGBExp32@@AAVVector@@@Z 00480240 f   mathlib:mathlib_base.obj
 0001:0007f350       ?CeilPow2@@YAHH@Z          00480350 f   mathlib:mathlib_base.obj
 0001:0007f370       ?FloorPow2@@YAHH@Z         00480370 f   mathlib:mathlib_base.obj
 0001:0007f390       ??$_Pow_int@M@@YAMMH@Z     00480390 f i mathlib:mathlib_base.obj
 0001:0007f3e0       ??$swap@M@@YAXAAM0@Z       004803e0 f i mathlib:mathlib_base.obj
 0001:0007f400       ?pow@@YAMMH@Z              00480400 f i mathlib:mathlib_base.obj
 0001:0007f420       ?MatrixAngles@@YAXABUmatrix3x4_t@@AAVQAngle@@@Z 00480420 f i mathlib:mathlib_base.obj
 0001:0007f430       ?MatrixAngles@@YAXABUmatrix3x4_t@@AAVRadianEuler@@@Z 00480430 f i mathlib:mathlib_base.obj
 0001:0007f480       ?MatrixAngles@@YAXABUmatrix3x4_t@@AAVRadianEuler@@AAVVector@@@Z 00480480 f   mathlib:mathlib_base.obj
 0001:0007f4e0       ?MatrixAngles@@YAXABUmatrix3x4_t@@AAVQuaternion@@AAVVector@@@Z 004804e0 f   mathlib:mathlib_base.obj
 0001:0007f610       ?VectorRotate@@YAXABVVector@@ABVQAngle@@AAV1@@Z 00480610 f   mathlib:mathlib_base.obj
 0001:0007f680       ?TransformAnglesToWorldSpace@@YA?AVQAngle@@ABV1@ABUmatrix3x4_t@@@Z 00480680 f   mathlib:mathlib_base.obj
 0001:0007f6c0       ?MatrixInitialize@@YAXAAUmatrix3x4_t@@ABVVector@@111@Z 004806c0 f   mathlib:mathlib_base.obj
 0001:0007f720       ?MatrixInvert@@YAXABUmatrix3x4_t@@AAU1@@Z 00480720 f   mathlib:mathlib_base.obj
 0001:0007f830       ?AngleMatrix@@YAXABVRadianEuler@@AAUmatrix3x4_t@@@Z 00480830 f   mathlib:mathlib_base.obj
 0001:0007f870       ?AngleMatrix@@YAXABVQAngle@@ABVVector@@AAUmatrix3x4_t@@@Z 00480870 f   mathlib:mathlib_base.obj
 0001:0007f8a0       ?AngleIMatrix@@YAXABVRadianEuler@@AAUmatrix3x4_t@@@Z 004808a0 f   mathlib:mathlib_base.obj
 0001:0007f8e0       ?AngleIMatrix@@YAXABVQAngle@@ABVVector@@AAUmatrix3x4_t@@@Z 004808e0 f   mathlib:mathlib_base.obj
 0001:0007f990       ?BuildExponentTable@@YAXXZ 00480990 f   mathlib:mathlib_base.obj
 0001:0007f9d0       ?BuildGammaTable@@YAXMMMH@Z 004809d0 f   mathlib:mathlib_base.obj
 0001:0007fd90       ?SolveInverseQuadraticMonotonic@@YA_NMMMMMMAAM00@Z 00480d90 f   mathlib:mathlib_base.obj
 0001:0007ffc0       ?QuaternionBlendNoAlign@@YAXABVQuaternion@@0MAAV1@@Z 00480fc0 f   mathlib:mathlib_base.obj
 0001:00080030       ?QuaternionIdentityBlend@@YAXABVQuaternion@@MAAV1@@Z 00481030 f   mathlib:mathlib_base.obj
 0001:000800a0       ?QuaternionSlerp@@YAXABVQuaternion@@0MAAV1@@Z 004810a0 f   mathlib:mathlib_base.obj
 0001:000800e0       ?QuaternionAngleDiff@@YAMABVQuaternion@@0@Z 004810e0 f   mathlib:mathlib_base.obj
 0001:00080180       ?QuaternionInvert@@YAXABVQuaternion@@AAV1@@Z 00481180 f   mathlib:mathlib_base.obj
 0001:00080210       ?QuaternionMatrix@@YAXABVQuaternion@@ABVVector@@AAUmatrix3x4_t@@@Z 00481210 f   mathlib:mathlib_base.obj
 0001:00080240       ?AngleQuaternion@@YAXABVQAngle@@AAVQuaternion@@@Z 00481240 f   mathlib:mathlib_base.obj
 0001:00080280       ?QuaternionAngles@@YAXABVQuaternion@@AAVQAngle@@@Z 00481280 f   mathlib:mathlib_base.obj
 0001:000802b0       ?BasisToQuaternion@@YAXABVVector@@00AAVQuaternion@@@Z 004812b0 f   mathlib:mathlib_base.obj
 0001:00080370       ?QuaternionAngles@@YAXABVQuaternion@@AAVRadianEuler@@@Z 00481370 f   mathlib:mathlib_base.obj
 0001:000803d0       ?TransformAABB@@YAXABUmatrix3x4_t@@ABVVector@@1AAV2@2@Z 004813d0 f   mathlib:mathlib_base.obj
 0001:000804e0       ?ITransformAABB@@YAXABUmatrix3x4_t@@ABVVector@@1AAV2@2@Z 004814e0 f   mathlib:mathlib_base.obj
 0001:000806c0       ?RotateAABB@@YAXABUmatrix3x4_t@@ABVVector@@1AAV2@2@Z 004816c0 f   mathlib:mathlib_base.obj
 0001:00080820       ?IRotateAABB@@YAXABUmatrix3x4_t@@ABVVector@@1AAV2@2@Z 00481820 f   mathlib:mathlib_base.obj
 0001:00080a50       ?CalcDistanceSqrToLine@@YAMABVVector@@00PAM@Z 00481a50 f   mathlib:mathlib_base.obj
 0001:00080ac0       ?CalcDistanceSqrToLineSegment@@YAMABVVector@@00PAM@Z 00481ac0 f   mathlib:mathlib_base.obj
 0001:00080b30       ?MathLib_Init@@YAXMMMH_N000@Z 00481b30 f   mathlib:mathlib_base.obj
 0001:00080cd0       ?RotationDeltaAxisAngle@@YAXABVQAngle@@0AAVVector@@AAM@Z 00481cd0 f   mathlib:mathlib_base.obj
 0001:00080d90       ?RotationDelta@@YAXABVQAngle@@0PAV1@@Z 00481d90 f   mathlib:mathlib_base.obj
 0001:00080e20       ?VectorToColorRGBExp32@@YAXABVVector@@AAUColorRGBExp32@@@Z 00481e20 f   mathlib:mathlib_base.obj
 0001:00080fb0       ?R_CullBox@@YA_NABVVector@@0ABVFrustum_t@@@Z 00481fb0 f   mathlib:mathlib_base.obj
 0001:00081040       ?R_CullBoxSkipNear@@YA_NABVVector@@0ABVFrustum_t@@@Z 00482040 f   mathlib:mathlib_base.obj
 0001:000810c0       ?TransformAnglesToLocalSpace@@YA?AVQAngle@@ABV1@ABUmatrix3x4_t@@@Z 004820c0 f   mathlib:mathlib_base.obj
 0001:00081120       ?AngleMatrix@@YAXABVRadianEuler@@ABVVector@@AAUmatrix3x4_t@@@Z 00482120 f   mathlib:mathlib_base.obj
 0001:00081180       ?QuaternionBlend@@YAXABVQuaternion@@0MAAV1@@Z 00482180 f   mathlib:mathlib_base.obj
 0001:000811b6       _Msg                       004821b6 f   tier0:tier0.dll
 0001:000811bc       _Error                     004821bc f   tier0:tier0.dll
 0001:000811c2       _Warning                   004821c2 f   tier0:tier0.dll
 0001:000811c8       _Plat_FloatTime            004821c8 f   tier0:tier0.dll
 0001:000811ce       _SpewActivate              004821ce f   tier0:tier0.dll
 0001:000811d4       _CommandLine_Tier0         004821d4 f   tier0:tier0.dll
 0001:000811da       _SpewOutputFunc            004821da f   tier0:tier0.dll
 0001:000811e0       _WriteMiniDumpUsingExceptionInfo 004821e0 f   tier0:tier0.dll
 0001:000811e6       _AssertValidStringPtr      004821e6 f   tier0:tier0.dll
 0001:000811ec       __AssertValidWritePtr      004821ec f   tier0:tier0.dll
 0001:000811f2       __AssertValidReadPtr       004821f2 f   tier0:tier0.dll
 0001:000811f8       ?Lock@CThreadMutex@@QBEXXZ 004821f8 f   tier0:tier0.dll
 0001:000811fe       ?Lock@CThreadMutex@@QAEXXZ 004821fe f   tier0:tier0.dll
 0001:00081204       _DevMsg                    00482204 f   tier0:tier0.dll
 0001:0008120a       ?DevMsg@@YAXPBDZZ          0048220a f   tier0:tier0.dll
 0001:00081210       _GetCPUInformation         00482210 f   tier0:tier0.dll
 0001:00081220       ?ConnectTier2Libraries@@YAXPAP6APAXPBDPAH@ZH@Z 00482220 f   tier2:tier2.obj
 0001:000814a0       ?DisconnectTier2Libraries@@YAXXZ 004824a0 f   tier2:tier2.obj
 0001:00081520       ?IsValid@Vector2D@@QBE_NXZ 00482520 f i tier2:tier2.obj
 0001:000815b0       ?IsFinite@@YA_NM@Z         004825b0 f i tier2:tier2.obj
 0001:00081602       _RandomGaussianFloat       00482602 f   vstdlib:vstdlib.dll
 0001:00081608       _RandomSeed                00482608 f   vstdlib:vstdlib.dll
 0001:0008160e       _KeyValuesSystem           0048260e f   vstdlib:vstdlib.dll
 0001:00081614       _GetCVarIF                 00482614 f   vstdlib:vstdlib.dll
 0001:00081620       ??0ResampleInfo_t@ImageLoader@@QAE@XZ 00482620 f i vtf:vtf.obj
 0001:00081650       ?SizeInBytes@ImageLoader@@YAHW4ImageFormat@@@Z 00482650 f i vtf:vtf.obj
 0001:00081670       ?IsCompressed@ImageLoader@@YA_NW4ImageFormat@@@Z 00482670 f i vtf:vtf.obj
 0001:00081690       ?IsPowerOfTwo@@YA_NH@Z     00482690 f i vtf:vtf.obj
 0001:000816b0       ??0CEdgePos@@QAE@XZ        004826b0 f i vtf:vtf.obj
 0001:000816c0       ??0CEdgePos@@QAE@HH@Z      004826c0 f i vtf:vtf.obj
 0001:000816e0       ??YCEdgePos@@QAEXABV0@@Z   004826e0 f i vtf:vtf.obj
 0001:00081700       ??_0CEdgePos@@QAEXH@Z      00482700 f i vtf:vtf.obj
 0001:00081720       ??HCEdgePos@@QAE?AV0@ABV0@@Z 00482720 f i vtf:vtf.obj
 0001:00081740       ??8CEdgePos@@QAE_NABV0@@Z  00482740 f i vtf:vtf.obj
 0001:00081760       ?DestroyVTFTexture@@YAXPAVIVTFTexture@@@Z 00482760 f   vtf:vtf.obj
 0001:00081780       ?VTFFileHeaderSize@@YAHHH@Z 00482780 f   vtf:vtf.obj
 0001:000817c0       ??0IVTFTexture@@QAE@XZ     004827c0 f i vtf:vtf.obj
 0001:000817d0       ?ComputeMipCount@CVTFTexture@@ABEHXZ 004827d0 f   vtf:vtf.obj
 0001:000817f0       ?AllocateImageData@CVTFTexture@@AAEXH@Z 004827f0 f   vtf:vtf.obj
 0001:00081830       ?AllocateLowResImageData@CVTFTexture@@AAEXH@Z 00482830 f   vtf:vtf.obj
 0001:00081870       ?Init@CVTFTexture@@UAE_NHHHW4ImageFormat@@HHH@Z 00482870 f   vtf:vtf.obj
 0001:00081960       ?InitLowResImage@CVTFTexture@@UAEXHHW4ImageFormat@@@Z 00482960 f   vtf:vtf.obj
 0001:000819c0       ?SetBumpScale@CVTFTexture@@UAEXM@Z 004829c0 f   vtf:vtf.obj
 0001:000819d0       ?SetReflectivity@CVTFTexture@@UAEXABVVector@@@Z 004829d0 f   vtf:vtf.obj
 0001:000819f0       ?SetAlphaTestThreshholds@CVTFTexture@@UAEXMM@Z 004829f0 f   vtf:vtf.obj
 0001:00081a10       ?Shutdown@CVTFTexture@@AAEXXZ 00482a10 f   vtf:vtf.obj
 0001:00081a50       ?LowResFileInfo@CVTFTexture@@UBEXPAH0@Z 00482a50 f   vtf:vtf.obj
 0001:00081ad0       ?ImageFileInfo@CVTFTexture@@UBEXHHHPAH0@Z 00482ad0 f   vtf:vtf.obj
 0001:00081be0       ?FileSize@CVTFTexture@@UBEHH@Z 00482be0 f   vtf:vtf.obj
 0001:00081c30       ?LoadLowResData@CVTFTexture@@AAE_NAAVCUtlBuffer@@@Z 00482c30 f   vtf:vtf.obj
 0001:00081c80       ?LoadImageData@CVTFTexture@@AAE_NAAVCUtlBuffer@@ABUVTFFileHeader_t@@H@Z 00482c80 f   vtf:vtf.obj
 0001:00081db0       ?ReadHeader@CVTFTexture@@AAE_NAAVCUtlBuffer@@AAUVTFFileHeader_t@@@Z 00482db0 f   vtf:vtf.obj
 0001:00081e60       ?WriteImageData@CVTFTexture@@AAE_NAAVCUtlBuffer@@@Z 00482e60 f   vtf:vtf.obj
 0001:00081ee0       ?Width@CVTFTexture@@UBEHXZ 00482ee0 f   vtf:vtf.obj
 0001:00081ef0       ?Height@CVTFTexture@@UBEHXZ 00482ef0 f   vtf:vtf.obj
 0001:00081f00       ?Depth@CVTFTexture@@UBEHXZ 00482f00 f   vtf:vtf.obj
 0001:00081f10       ?MipCount@CVTFTexture@@UBEHXZ 00482f10 f   vtf:vtf.obj
 0001:00081f20       ?Format@CVTFTexture@@UBE?AW4ImageFormat@@XZ 00482f20 f   vtf:vtf.obj
 0001:00081f30       ?FaceCount@CVTFTexture@@UBEHXZ 00482f30 f   vtf:vtf.obj
 0001:00081f40       ?FrameCount@CVTFTexture@@UBEHXZ 00482f40 f   vtf:vtf.obj
 0001:00081f50       ?Flags@CVTFTexture@@UBEHXZ 00482f50 f   vtf:vtf.obj
 0001:00081f60       ?IsCubeMap@CVTFTexture@@UBE_NXZ 00482f60 f   vtf:vtf.obj
 0001:00081f70       ?IsNormalMap@CVTFTexture@@UBE_NXZ 00482f70 f   vtf:vtf.obj
 0001:00081f80       ?IsVolumeTexture@CVTFTexture@@UBE_NXZ 00482f80 f   vtf:vtf.obj
 0001:00081f90       ?BumpScale@CVTFTexture@@UBEMXZ 00482f90 f   vtf:vtf.obj
 0001:00081fa0       ?Reflectivity@CVTFTexture@@UBEABVVector@@XZ 00482fa0 f   vtf:vtf.obj
 0001:00081fb0       ?ImageData@CVTFTexture@@UAEPAEXZ 00482fb0 f   vtf:vtf.obj
 0001:00081fc0       ?LowResWidth@CVTFTexture@@UBEHXZ 00482fc0 f   vtf:vtf.obj
 0001:00081fd0       ?LowResHeight@CVTFTexture@@UBEHXZ 00482fd0 f   vtf:vtf.obj
 0001:00081fe0       ?LowResFormat@CVTFTexture@@UBE?AW4ImageFormat@@XZ 00482fe0 f   vtf:vtf.obj
 0001:00081ff0       ?LowResImageData@CVTFTexture@@UAEPAEXZ 00482ff0 f   vtf:vtf.obj
 0001:00082000       ?RowSizeInBytes@CVTFTexture@@UBEHH@Z 00483000 f   vtf:vtf.obj
 0001:00082030       ?FaceSizeInBytes@CVTFTexture@@UBEHH@Z 00483030 f   vtf:vtf.obj
 0001:00082070       ?ImageData@CVTFTexture@@UAEPAEHHHHHH@Z 00483070 f   vtf:vtf.obj
 0001:000820d0       ?ComputeMipSize@CVTFTexture@@ABEHHW4ImageFormat@@@Z 004830d0 f i vtf:vtf.obj
 0001:00082110       ?ComputeMipSize@CVTFTexture@@UBEHH@Z 00483110 f   vtf:vtf.obj
 0001:00082160       ?ComputeFaceSize@CVTFTexture@@ABEHHW4ImageFormat@@@Z 00483160 f i vtf:vtf.obj
 0001:000821f0       ?ComputeFaceSize@CVTFTexture@@UBEHH@Z 004831f0 f   vtf:vtf.obj
 0001:00082210       ?ComputeTotalSize@CVTFTexture@@ABEHW4ImageFormat@@@Z 00483210 f i vtf:vtf.obj
 0001:00082230       ?ComputeTotalSize@CVTFTexture@@UBEHXZ 00483230 f   vtf:vtf.obj
 0001:00082250       ?GetImageOffset@CVTFTexture@@ABEHHHHW4ImageFormat@@@Z 00483250 f   vtf:vtf.obj
 0001:000822d0       ?ComputeMipLevelDimensions@CVTFTexture@@UBEXHPAH00@Z 004832d0 f   vtf:vtf.obj
 0001:00082320       ?ComputeMipLevelSubRect@CVTFTexture@@UBEXPAURect_t@@H0@Z 00483320 f   vtf:vtf.obj
 0001:00082440       ?ConvertImageFormat@CVTFTexture@@UAEXW4ImageFormat@@_N@Z 00483440 f   vtf:vtf.obj
 0001:00082bf0       ??0SphereCalc_t@@QAE@XZ    00483bf0 f i vtf:vtf.obj
 0001:00082c00       ?ComputeHemispheremapFrame@CVTFTexture@@AAEXPAPAEPAEW4LookDir_t@@@Z 00483c00 f   vtf:vtf.obj
 0001:00082dd0       ?GenerateHemisphereMap@CVTFTexture@@UAEXPAEHHW4LookDir_t@@H@Z 00483dd0 f   vtf:vtf.obj
 0001:00082ec0       ?FixCubemapFaceOrientation@CVTFTexture@@UAEXXZ 00483ec0 f   vtf:vtf.obj
 0001:00082f80       ?NormalizeTopMipLevel@CVTFTexture@@UAEXXZ 00483f80 f   vtf:vtf.obj
 0001:00083000       ?GenerateMipmaps@CVTFTexture@@UAEXXZ 00484000 f   vtf:vtf.obj
 0001:00083250       ?PutOneOverMipLevelInAlpha@CVTFTexture@@UAEXXZ 00484250 f   vtf:vtf.obj
 0001:00083320       ?ComputeReflectivity@CVTFTexture@@UAEXXZ 00484320 f   vtf:vtf.obj
 0001:00083480       ?ComputeAlphaFlags@CVTFTexture@@UAEXXZ 00484480 f   vtf:vtf.obj
 0001:00083550       ?PostProcess@CVTFTexture@@UAEX_NW4LookDir_t@@0@Z 00484550 f   vtf:vtf.obj
 0001:000835d0       ?SetupFaceVert@CVTFTexture@@AAEXHHAAVCEdgePos@@@Z 004845d0 f   vtf:vtf.obj
 0001:00083630       ?SetupEdgeIncrement@CVTFTexture@@AAEXAAVCEdgePos@@00@Z 00484630 f   vtf:vtf.obj
 0001:00083690       ?SetupTextureEdgeIncrements@CVTFTexture@@AAEXHHH_NPAVCEdgeIncrements@@@Z 00484690 f   vtf:vtf.obj
 0001:000837b0       ?BlendTexels@@YAXPAPAEH@Z  004847b0 f   vtf:vtf.obj
 0001:00083860       ??0CEdgeIncrements@@QAE@XZ 00484860 f i vtf:vtf.obj
 0001:00083870       ?BlendCubeMapFaceCorners@CVTFTexture@@AAEXHHPBVCCornerMatch@@@Z 00484870 f   vtf:vtf.obj
 0001:00083a40       ?BuildCubeMapMatchLists@CVTFTexture@@AAEXQAVCEdgeMatch@@QAVCCornerMatch@@_N@Z 00484a40 f   vtf:vtf.obj
 0001:00083cc0       ?Base@?$CUtlMemory@VS3RGBA@@@@QAEPAVS3RGBA@@XZ 00484cc0 f i vtf:vtf.obj
 0001:00083cd0       ??$swap@E@@YAXAAE0@Z       00484cd0 f i vtf:vtf.obj
 0001:00083cf0       ?ValidateGrowSize@?$CUtlMemory@VS3RGBA@@@@IAEXXZ 00484cf0 f i vtf:vtf.obj
 0001:00083d00       ?IsExternallyAllocated@?$CUtlMemory@VS3RGBA@@@@QBE_NXZ 00484d00 f i vtf:vtf.obj
 0001:00083d10       ??$Destruct@VS3RGBA@@@@YAXPAVS3RGBA@@@Z 00484d10 f i vtf:vtf.obj
 0001:00083d20       ??$Construct@VS3RGBA@@@@YAXPAVS3RGBA@@@Z 00484d20 f i vtf:vtf.obj
 0001:00083d30       ?NumAllocated@?$CUtlMemory@VS3RGBA@@@@QBEHXZ 00484d30 f i vtf:vtf.obj
 0001:00083d40       ?Grow@?$CUtlMemory@VS3RGBA@@@@QAEXH@Z 00484d40 f i vtf:vtf.obj
 0001:00083db0       ??0VectorAligned@@QAE@XZ   00484db0 f i vtf:vtf.obj
 0001:00083dc0       ??9CEdgePos@@QAE_NABV0@@Z  00484dc0 f i vtf:vtf.obj
 0001:00083e00       ??0VTFFileHeaderV7_1_t@@QAE@XZ 00484e00 f i vtf:vtf.obj
 0001:00083e10       ?ImageData@CVTFTexture@@UAEPAEHHH@Z 00484e10 f   vtf:vtf.obj
 0001:00083e40       ?ComputeSpheremapFrame@CVTFTexture@@AAEXPAPAEPAEW4LookDir_t@@@Z 00484e40 f   vtf:vtf.obj
 0001:00084010       ?GenerateSpheremap@CVTFTexture@@UAEXW4LookDir_t@@@Z 00485010 f   vtf:vtf.obj
 0001:000840d0       ?BlendCubeMapFaceEdges@CVTFTexture@@AAEXHHPBVCEdgeMatch@@@Z 004850d0 f   vtf:vtf.obj
 0001:000842a0       ?Base@?$CUtlVector@VS3RGBA@@V?$CUtlMemory@VS3RGBA@@@@@@QAEPAVS3RGBA@@XZ 004852a0 f i vtf:vtf.obj
 0001:000842b0       ??A?$CUtlVector@VS3RGBA@@V?$CUtlMemory@VS3RGBA@@@@@@QAEAAVS3RGBA@@H@Z 004852b0 f i vtf:vtf.obj
 0001:000842c0       ?ResetDbgInfo@?$CUtlVector@VS3RGBA@@V?$CUtlMemory@VS3RGBA@@@@@@IAEXXZ 004852c0 f i vtf:vtf.obj
 0001:000842d0       ??0?$CUtlMemory@VS3RGBA@@@@QAE@HH@Z 004852d0 f i vtf:vtf.obj
 0001:00084310       ?Purge@?$CUtlMemory@VS3RGBA@@@@QAEXXZ 00485310 f i vtf:vtf.obj
 0001:00084340       ?Element@?$CUtlVector@VS3RGBA@@V?$CUtlMemory@VS3RGBA@@@@@@QAEAAVS3RGBA@@H@Z 00485340 f i vtf:vtf.obj
 0001:00084350       ?GrowVector@?$CUtlVector@VS3RGBA@@V?$CUtlMemory@VS3RGBA@@@@@@IAEXH@Z 00485350 f i vtf:vtf.obj
 0001:00084380       ?ShiftElementsRight@?$CUtlVector@VS3RGBA@@V?$CUtlMemory@VS3RGBA@@@@@@IAEXHH@Z 00485380 f i vtf:vtf.obj
 0001:000843c0       ??0VTFFileHeader_t@@QAE@XZ 004853c0 f i vtf:vtf.obj
 0001:000843d0       ?Serialize@CVTFTexture@@UAE_NAAVCUtlBuffer@@@Z 004853d0 f   vtf:vtf.obj
 0001:00084510       ?BlendCubeMapEdgePalettes@CVTFTexture@@AAEXHHPBVCEdgeMatch@@@Z 00485510 f   vtf:vtf.obj
 0001:00084730       ?BlendCubeMapCornerPalettes@CVTFTexture@@AAEXHHPBVCCornerMatch@@@Z 00485730 f   vtf:vtf.obj
 0001:00084890       ?MatchCubeMapS3TCPalettes@CVTFTexture@@AAEXQAVCEdgeMatch@@QAVCCornerMatch@@@Z 00485890 f   vtf:vtf.obj
 0001:00084910       ??1?$CUtlMemory@VS3RGBA@@@@QAE@XZ 00485910 f i vtf:vtf.obj
 0001:00084940       ?RemoveAll@?$CUtlVector@VS3RGBA@@V?$CUtlMemory@VS3RGBA@@@@@@QAEXXZ 00485940 f i vtf:vtf.obj
 0001:00084950       ?InsertMultipleBefore@?$CUtlVector@VS3RGBA@@V?$CUtlMemory@VS3RGBA@@@@@@QAEHHHPBVS3RGBA@@@Z 00485950 f i vtf:vtf.obj
 0001:000849f0       ?Unserialize@CVTFTexture@@UAE_NAAVCUtlBuffer@@_NH@Z 004859f0 f   vtf:vtf.obj
 0001:00084b80       ?ConstructLowResImage@CVTFTexture@@UAE_NXZ 00485b80 f   vtf:vtf.obj
 0001:00084ca0       ??0?$CUtlVector@VS3RGBA@@V?$CUtlMemory@VS3RGBA@@@@@@QAE@HH@Z 00485ca0 f i vtf:vtf.obj
 0001:00084cf0       ?Purge@?$CUtlVector@VS3RGBA@@V?$CUtlMemory@VS3RGBA@@@@@@QAEXXZ 00485cf0 f i vtf:vtf.obj
 0001:00084d30       ?AddMultipleToTail@?$CUtlVector@VS3RGBA@@V?$CUtlMemory@VS3RGBA@@@@@@QAEHHPBVS3RGBA@@@Z 00485d30 f i vtf:vtf.obj
 0001:00084d50       ??1?$CUtlVector@VS3RGBA@@V?$CUtlMemory@VS3RGBA@@@@@@QAE@XZ 00485d50 f i vtf:vtf.obj
 0001:00084db0       ?SetCount@?$CUtlVector@VS3RGBA@@V?$CUtlMemory@VS3RGBA@@@@@@QAEXH@Z 00485db0 f i vtf:vtf.obj
 0001:00084dd0       ??0CVTFTexture@@QAE@XZ     00485dd0 f   vtf:vtf.obj
 0001:00084e50       ??1CVTFTexture@@UAE@XZ     00485e50 f   vtf:vtf.obj
 0001:00084e90       ?SetSize@?$CUtlVector@VS3RGBA@@V?$CUtlMemory@VS3RGBA@@@@@@QAEXH@Z 00485e90 f i vtf:vtf.obj
 0001:00084eb0       ?CreateVTFTexture@@YAPAVIVTFTexture@@XZ 00485eb0 f   vtf:vtf.obj
 0001:00084ed0       ??_ECVTFTexture@@UAEPAXI@Z 00485ed0 f i vtf:vtf.obj
 0001:00084ed0       ??_GCVTFTexture@@UAEPAXI@Z 00485ed0 f i vtf:vtf.obj
 0001:00084f30       ?MatchCubeMapBorders@CVTFTexture@@UAEXHW4ImageFormat@@_N@Z 00485f30 f   vtf:vtf.obj
 0001:000850c2       __ExitOnFatalAssert        004860c2 f   vtf:tier0.dll
 0001:000850c8       _DoNewAssertDialog         004860c8 f   vtf:tier0.dll
 0001:000850ce       _ShouldUseNewAssertDialog  004860ce f   vtf:tier0.dll
 0001:000850d4       __SpewMessage              004860d4 f   vtf:tier0.dll
 0001:000850da       __SpewInfo                 004860da f   vtf:tier0.dll
 0001:000850e0       _MemFreeScratch            004860e0 f   vtf:tier0.dll
 0001:000850e6       _MemAllocScratch           004860e6 f   vtf:tier0.dll
 0001:000850f0       ?ReadBitInt@@YAHPBDHH@Z    004860f0 f   vtf:s3tc_decode.obj
 0001:00085130       ?WriteBitInt@@YAXPADHHH@Z  00486130 f   vtf:s3tc_decode.obj
 0001:00085180       ?S3TC_BytesPerBlock@@YAHW4ImageFormat@@@Z 00486180 f   vtf:s3tc_decode.obj
 0001:000851a0       ?S3TC_GetPixelPaletteIndex@@YA?AVS3PaletteIndex@@W4ImageFormat@@PBDHH@Z 004861a0 f   vtf:s3tc_decode.obj
 0001:00085200       ?S3TC_SetPixelPaletteIndex@@YAXW4ImageFormat@@PADHHVS3PaletteIndex@@@Z 00486200 f   vtf:s3tc_decode.obj
 0001:00085270       ?S3TC_GetBlock@@YAPBDPBXW4ImageFormat@@HHH@Z 00486270 f   vtf:s3tc_decode.obj
 0001:000852a0       ?S3TC_GetBlock@@YAPADPAXW4ImageFormat@@HHH@Z 004862a0 f   vtf:s3tc_decode.obj
 0001:000852d0       ?GenerateRepresentativePalette@@YAXW4ImageFormat@@PAPAVS3RGBA@@HHQAD@Z 004862d0 f   vtf:s3tc_decode.obj
 0001:00085460       ?S3TC_MergeBlocks@@YAXPAPADPAPAVS3RGBA@@HHW4ImageFormat@@@Z 00486460 f   vtf:s3tc_decode.obj
 0001:000857a0       ?S3TC_GetPaletteIndex@@YA?AVS3PaletteIndex@@PAEW4ImageFormat@@HHH@Z 004867a0 f   vtf:s3tc_decode.obj
 0001:00085800       ?S3TC_SetPaletteIndex@@YAXPAEW4ImageFormat@@HHHVS3PaletteIndex@@@Z 00486800 f   vtf:s3tc_decode.obj
 0001:00085860       ?S3TCsetAlphaReference@@YAXH@Z 00486860 f   vtf:S3_intrf.obj
 0001:00085870       ?S3TCgetEncodeSize@@YAIPAU_DDSURFACEDESC@@I@Z 00486870 f   vtf:S3_intrf.obj
 0001:000858a0       ?S3TCencode@@YAXPAU_DDSURFACEDESC@@PAUtagPALETTEENTRY@@0PAXIPAM@Z 004868a0 f   vtf:S3_intrf.obj
 0001:000865c0       ?S3TCencodeEx@@YAHPAU_DDSURFACEDESC@@PAUtagPALETTEENTRY@@0PAXIPAMP6AHM22@Z22@Z 004875c0 f   vtf:S3_intrf.obj
 0001:000865f0       ?S3TCgetDecodeSize@@YAIPAU_DDSURFACEDESC@@@Z 004875f0 f   vtf:S3_intrf.obj
 0001:00086600       ?S3TCdecode@@YAXPAU_DDSURFACEDESC@@0PAX@Z 00487600 f   vtf:S3_intrf.obj
 0001:00086aa0       _CodeRGBBlock              00487aa0 f   vtf:S3_quant.obj
 0001:00089ac0       _CodeAlphaBlock            0048aac0 f   vtf:S3_quant.obj
 0001:0008a870       _memmove                   0048b870 f   LIBCMT:memmove.obj
 0001:0008abd5       __fpclear                  0048bbd5 f   LIBCMT:fpinit.obj
 0001:0008abd6       __cfltcvt_init             0048bbd6 f   LIBCMT:fpinit.obj
 0001:0008ac36       ___setfflag                0048bc36 f   LIBCMT:fpinit.obj
 0001:0008ac46       __fpmath                   0048bc46 f   LIBCMT:fpinit.obj
 0001:0008ac70       _memset                    0048bc70 f   LIBCMT:memset.obj
 0001:0008acf0       _memcpy                    0048bcf0 f   LIBCMT:memcpy.obj
 0001:0008b060       __CIsqrt                   0048c060 f   LIBCMT:sqrt.obj
 0001:0008b074       _sqrt                      0048c074     LIBCMT:sqrt.obj
 0001:0008b120       __ftol2_sse                0048c120 f   LIBCMT:ftol2.obj
 0001:0008b129       __ftol2_pentium4           0048c129 f   LIBCMT:ftol2.obj
 0001:0008b13c       __ftol2_sse_excpt          0048c13c f   LIBCMT:ftol2.obj
 0001:0008b156       __ftol2                    0048c156 f   LIBCMT:ftol2.obj
 0001:0008b1cb       __fclose_nolock            0048c1cb f   LIBCMT:fclose.obj
 0001:0008b23d       _fclose                    0048c23d f   LIBCMT:fclose.obj
 0001:0008b2b9       _fprintf                   0048c2b9 f   LIBCMT:fprintf.obj
 0001:0008b408       __fprintf_l                0048c408 f   LIBCMT:fprintf.obj
 0001:0008b422       __fprintf_s_l              0048c422 f   LIBCMT:fprintf.obj
 0001:0008b43c       _fprintf_s                 0048c43c f   LIBCMT:fprintf.obj
 0001:0008b454       __fprintf_p_l              0048c454 f   LIBCMT:fprintf.obj
 0001:0008b46e       __fprintf_p                0048c46e f   LIBCMT:fprintf.obj
 0001:0008b486       __fsopen                   0048c486 f   LIBCMT:fopen.obj
 0001:0008b54a       _fopen                     0048c54a f   LIBCMT:fopen.obj
 0001:0008b55d       _fopen_s                   0048c55d f   LIBCMT:fopen.obj
 0001:0008b5ad       _sprintf                   0048c5ad f   LIBCMT:sprintf.obj
 0001:0008b628       __sprintf_l                0048c628 f   LIBCMT:sprintf.obj
 0001:0008b642       _sprintf_s                 0048c642 f   LIBCMT:sprintf.obj
 0001:0008b65e       __sprintf_s_l              0048c65e f   LIBCMT:sprintf.obj
 0001:0008b67b       __snprintf_s               0048c67b f   LIBCMT:sprintf.obj
 0001:0008b69a       __snprintf_s_l             0048c69a f   LIBCMT:sprintf.obj
 0001:0008b6ba       __sprintf_p                0048c6ba f   LIBCMT:sprintf.obj
 0001:0008b6d6       __sprintf_p_l              0048c6d6 f   LIBCMT:sprintf.obj
 0001:0008b6f3       __scprintf                 0048c6f3 f   LIBCMT:sprintf.obj
 0001:0008b704       __scprintf_p               0048c704 f   LIBCMT:sprintf.obj
 0001:0008b715       __scprintf_l               0048c715 f   LIBCMT:sprintf.obj
 0001:0008b72b       __scprintf_p_l             0048c72b f   LIBCMT:sprintf.obj
 0001:0008b7a9       _sscanf                    0048c7a9 f   LIBCMT:sscanf.obj
 0001:0008b7c8       __sscanf_l                 0048c7c8 f   LIBCMT:sscanf.obj
 0001:0008b7e9       _sscanf_s                  0048c7e9 f   LIBCMT:sscanf.obj
 0001:0008b808       __sscanf_s_l               0048c808 f   LIBCMT:sscanf.obj
 0001:0008b829       _strtok                    0048c829 f   LIBCMT:strtok.obj
 0001:0008b8f0       __alloca_probe_16          0048c8f0 f   LIBCMT:alloca16.obj
 0001:0008b906       __alloca_probe_8           0048c906     LIBCMT:alloca16.obj
 0001:0008b9d5       ___onexitinit              0048c9d5 f   LIBCMT:onexit.obj
 0001:0008ba04       __onexit                   0048ca04 f   LIBCMT:onexit.obj
 0001:0008ba40       _atexit                    0048ca40 f   LIBCMT:onexit.obj
 0001:0008ba52       _srand                     0048ca52 f   LIBCMT:rand.obj
 0001:0008ba5f       _rand                      0048ca5f f   LIBCMT:rand.obj
 0001:0008bb50       _qsort                     0048cb50 f   LIBCMT:qsort.obj
 0001:0008be00       _strncpy                   0048ce00 f   LIBCMT:strncpy.obj
 0001:0008bf30       _cos                       0048cf30 f   LIBCMT:cos.obj
 0001:0008bf70       __CIcos                    0048cf70 f   LIBCMT:cos.obj
 0001:0008bfab       __CIcos_default            0048cfab f   LIBCMT:cos.obj
 0001:0008bfbf       __cos_default              0048cfbf     LIBCMT:cos.obj
 0001:0008c060       __alloca_probe             0048d060     LIBCMT:chkstk.obj
 0001:0008c060       __chkstk                   0048d060 f   LIBCMT:chkstk.obj
 0001:0008c08b       ??0_LocaleUpdate@@QAE@PAUlocaleinfo_struct@@@Z 0048d08b f i LIBCMT:atof.obj
 0001:0008c10d       ??1_LocaleUpdate@@QAE@XZ   0048d10d f i LIBCMT:atof.obj
 0001:0008c11b       ?GetLocaleT@_LocaleUpdate@@QAEPAUlocaleinfo_struct@@XZ 0048d11b f i LIBCMT:atof.obj
 0001:0008c11e       __atof_l                   0048d11e f   LIBCMT:atof.obj
 0001:0008c1c7       _atof                      0048d1c7 f   LIBCMT:atof.obj
 0001:0008c1d5       ___strgtold12              0048d1d5 f   LIBCMT:atof.obj
 0001:0008c215       ___STRINGTOLD              0048d215 f   LIBCMT:atof.obj
 0001:0008c24c       ?name@type_info@@QBEPBDPAU__type_info_node@@@Z 0048d24c f   LIBCMT:typinfo.obj
 0001:0008c25b       ??1type_info@@UAE@XZ       0048d25b f   LIBCMT:typinfo.obj
 0001:0008c269       ??_Etype_info@@UAEPAXI@Z   0048d269 f i LIBCMT:typinfo.obj
 0001:0008c269       ??_Gtype_info@@UAEPAXI@Z   0048d269 f i LIBCMT:typinfo.obj
 0001:0008c285       ?_name_internal_method@type_info@@QBEPBDPAU__type_info_node@@@Z 0048d285 f   LIBCMT:typinfo.obj
 0001:0008c294       ?_type_info_dtor_internal_method@type_info@@QAEXXZ 0048d294 f   LIBCMT:typinfo.obj
 0001:0008c29c       ??8type_info@@QBE_NABV0@@Z 0048d29c f   LIBCMT:typinfo.obj
 0001:0008c2b7       ??9type_info@@QBE_NABV0@@Z 0048d2b7 f   LIBCMT:typinfo.obj
 0001:0008c2d3       ?before@type_info@@QBEHABV1@@Z 0048d2d3 f   LIBCMT:typinfo.obj
 0001:0008c2f2       ?raw_name@type_info@@QBEPBDXZ 0048d2f2 f   LIBCMT:typinfo.obj
 0001:0008c2f6       ??0type_info@@AAE@ABV0@@Z  0048d2f6 f   LIBCMT:typinfo.obj
 0001:0008c301       ??4type_info@@AAEAAV0@ABV0@@Z 0048d301 f   LIBCMT:typinfo.obj
 0001:0008c306       __purecall                 0048d306 f   LIBCMT:purevirt.obj
 0001:0008c330       __set_purecall_handler     0048d330 f   LIBCMT:purevirt.obj
 0001:0008c352       __get_purecall_handler     0048d352 f   LIBCMT:purevirt.obj
 0001:0008c35f       __fwrite_nolock            0048d35f f   LIBCMT:fwrite.obj
 0001:0008c4be       _fwrite                    0048d4be f   LIBCMT:fwrite.obj
 0001:0008c540       _floor                     0048d540 f   LIBCMT:floor_pentium4.obj
 0001:0008c580       __floor_pentium4           0048d580 f   LIBCMT:floor_pentium4.obj
 0001:0008c661       _printf                    0048d661 f   LIBCMT:printf.obj
 0001:0008c710       __printf_l                 0048d710 f   LIBCMT:printf.obj
 0001:0008c726       __printf_s_l               0048d726 f   LIBCMT:printf.obj
 0001:0008c73c       _printf_s                  0048d73c f   LIBCMT:printf.obj
 0001:0008c750       __printf_p_l               0048d750 f   LIBCMT:printf.obj
 0001:0008c766       __printf_p                 0048d766 f   LIBCMT:printf.obj
 0001:0008c77a       __set_printf_count_output  0048d77a f   LIBCMT:printf.obj
 0001:0008c79f       __get_printf_count_output  0048d79f f   LIBCMT:printf.obj
 0001:0008c7b5       _atol                      0048d7b5 f   LIBCMT:atox.obj
 0001:0008c7c6       __atol_l                   0048d7c6 f   LIBCMT:atox.obj
 0001:0008c7db       _atoi                      0048d7db f   LIBCMT:atox.obj
 0001:0008c7e0       __atoi_l                   0048d7e0 f   LIBCMT:atox.obj
 0001:0008c7e5       __atoi64                   0048d7e5 f   LIBCMT:atox.obj
 0001:0008c7f6       __atoi64_l                 0048d7f6 f   LIBCMT:atox.obj
 0001:0008c810       _strrchr                   0048d810 f   LIBCMT:strrchr.obj
 0001:0008c83d       __vsnprintf_l              0048d83d f   LIBCMT:vsnprint.obj
 0001:0008c8ee       __vsnprintf                0048d8ee f   LIBCMT:vsnprint.obj
 0001:0008c909       _memcpy_s                  0048d909 f   LIBCMT:memcpy_s.obj
 0001:0008c984       _memmove_s                 0048d984 f   LIBCMT:memmove_s.obj
 0001:0008c9df       ??0exception@std@@QAE@XZ   0048d9df f   LIBCMT:stdexcpt.obj
 0001:0008c9f0       ??0exception@std@@QAE@ABQBD@Z 0048d9f0 f   LIBCMT:stdexcpt.obj
 0001:0008ca3e       ??0exception@std@@QAE@ABQBDH@Z 0048da3e f   LIBCMT:stdexcpt.obj
 0001:0008ca56       ??0exception@std@@QAE@ABV01@@Z 0048da56 f   LIBCMT:stdexcpt.obj
 0001:0008caae       ??4exception@std@@QAEAAV01@ABV01@@Z 0048daae f   LIBCMT:stdexcpt.obj
 0001:0008cb04       ??1exception@std@@UAE@XZ   0048db04 f   LIBCMT:stdexcpt.obj
 0001:0008cb1a       ?what@exception@std@@UBEPBDXZ 0048db1a f   LIBCMT:stdexcpt.obj
 0001:0008cb27       ??0bad_cast@std@@QAE@PBD@Z 0048db27 f   LIBCMT:stdexcpt.obj
 0001:0008cb40       ??0bad_cast@std@@QAE@ABV01@@Z 0048db40 f   LIBCMT:stdexcpt.obj
 0001:0008cb58       ??1bad_cast@std@@UAE@XZ    0048db58 f   LIBCMT:stdexcpt.obj
 0001:0008cb63       ??0bad_typeid@std@@QAE@PBD@Z 0048db63 f   LIBCMT:stdexcpt.obj
 0001:0008cb7c       ??0bad_typeid@std@@QAE@ABV01@@Z 0048db7c f   LIBCMT:stdexcpt.obj
 0001:0008cb94       ??1bad_typeid@std@@UAE@XZ  0048db94 f   LIBCMT:stdexcpt.obj
 0001:0008cb9f       ??0__non_rtti_object@std@@QAE@PBD@Z 0048db9f f   LIBCMT:stdexcpt.obj
 0001:0008cbb7       ??0__non_rtti_object@std@@QAE@ABV01@@Z 0048dbb7 f   LIBCMT:stdexcpt.obj
 0001:0008cbcf       ??1__non_rtti_object@std@@UAE@XZ 0048dbcf f   LIBCMT:stdexcpt.obj
 0001:0008cbda       ??_Eexception@std@@UAEPAXI@Z 0048dbda f i LIBCMT:stdexcpt.obj
 0001:0008cbda       ??_Gexception@std@@UAEPAXI@Z 0048dbda f i LIBCMT:stdexcpt.obj
 0001:0008cbf6       ??_Ebad_cast@std@@UAEPAXI@Z 0048dbf6 f i LIBCMT:stdexcpt.obj
 0001:0008cbf6       ??_Gbad_cast@std@@UAEPAXI@Z 0048dbf6 f i LIBCMT:stdexcpt.obj
 0001:0008cc18       ??_Ebad_typeid@std@@UAEPAXI@Z 0048dc18 f i LIBCMT:stdexcpt.obj
 0001:0008cc18       ??_Gbad_typeid@std@@UAEPAXI@Z 0048dc18 f i LIBCMT:stdexcpt.obj
 0001:0008cc3a       ??_G__non_rtti_object@std@@UAEPAXI@Z 0048dc3a f i LIBCMT:stdexcpt.obj
 0001:0008cc3a       ??_E__non_rtti_object@std@@UAEPAXI@Z 0048dc3a f i LIBCMT:stdexcpt.obj
 0001:0008cc5c       __initp_misc_invarg        0048dc5c f   LIBCMT:invarg.obj
 0001:0008cc66       __invoke_watson            0048dc66 f   LIBCMT:invarg.obj
 0001:0008cd62       __set_invalid_parameter_handler 0048dd62 f   LIBCMT:invarg.obj
 0001:0008cd84       __get_invalid_parameter_handler 0048dd84 f   LIBCMT:invarg.obj
 0001:0008cd91       ?_invoke_watson@@YAXPBG00II@Z 0048dd91 f   LIBCMT:invarg.obj
 0001:0008cd9a       __invalid_parameter        0048dd9a f   LIBCMT:invarg.obj
 0001:0008cdbe       __invalid_parameter_noinfo 0048ddbe f   LIBCMT:invarg.obj
 0001:0008cdce       ?_invalid_parameter@@YAXPBG00II@Z 0048ddce f   LIBCMT:invarg.obj
 0001:0008cdd7       __CxxThrowException@8      0048ddd7 f   LIBCMT:throw.obj
 0001:0008ce21       ?_JumpToContinuation@@YGXPAXPAUEHRegistrationNode@@@Z 0048de21 f   LIBCMT:trnsctrl.obj
 0001:0008ce51       ?_CallMemberFunction0@@YGXPAX0@Z 0048de51 f   LIBCMT:trnsctrl.obj
 0001:0008ce58       ?_CallMemberFunction1@@YGXPAX00@Z 0048de58 f   LIBCMT:trnsctrl.obj
 0001:0008ce5f       ?_CallMemberFunction2@@YGXPAX00H@Z 0048de5f f   LIBCMT:trnsctrl.obj
 0001:0008ce66       ?_UnwindNestedFrames@@YGXPAUEHRegistrationNode@@PAUEHExceptionRecord@@@Z 0048de66 f   LIBCMT:trnsctrl.obj
 0001:0008ceb8       ___CxxFrameHandler         0048deb8 f   LIBCMT:trnsctrl.obj
 0001:0008ceee       ___CxxFrameHandler3        0048deee f   LIBCMT:trnsctrl.obj
 0001:0008cf24       ___CxxFrameHandler2        0048df24 f   LIBCMT:trnsctrl.obj
 0001:0008cf5a       ___CxxLongjmpUnwind@4      0048df5a f   LIBCMT:trnsctrl.obj
 0001:0008cfa4       ?_CallSETranslator@@YAHPAUEHExceptionRecord@@PAUEHRegistrationNode@@PAX2PBU_s_FuncInfo@@H1@Z 0048dfa4 f   LIBCMT:trnsctrl.obj
 0001:0008d116       ?_GetRangeOfTrysToCheck@@YAPBU_s_TryBlockMapEntry@@PBU_s_FuncInfo@@HHPAI1@Z 0048e116 f   LIBCMT:trnsctrl.obj
 0001:0008d189       __CreateFrameInfo          0048e189 f   LIBCMT:trnsctrl.obj
 0001:0008d1b1       __IsExceptionObjectToBeDestroyed 0048e1b1 f   LIBCMT:trnsctrl.obj
 0001:0008d1d2       __FindAndUnlinkFrame       0048e1d2 f   LIBCMT:trnsctrl.obj
 0001:0008d21e       ?_CallCatchBlock2@@YAPAXPAUEHRegistrationNode@@PBU_s_FuncInfo@@PAXHK@Z 0048e21e f   LIBCMT:trnsctrl.obj
 0001:0008d280       _atan2                     0048e280 f   LIBCMT:87ctriga.obj
 0001:0008d28a       __CIatan2                  0048e28a f   LIBCMT:87ctriga.obj
 0001:0008d2a0       _fmod                      0048e2a0 f   LIBCMT:87fmod.obj
 0001:0008d2aa       __CIfmod                   0048e2aa f   LIBCMT:87fmod.obj
 0001:0008d2f0       _strchr                    0048e2f0 f   LIBCMT:strchr.obj
 0001:0008d2f6       ___from_strstr_to_strchr   0048e2f6     LIBCMT:strchr.obj
 0001:0008d3ae       _strncmp                   0048e3ae f   LIBCMT:strncmp.obj
 0001:0008d46c       __MarkAllocaS              0048e46c f i LIBCMT:strlwr.obj
 0001:0008d47e       __freea                    0048e47e f i LIBCMT:strlwr.obj
 0001:0008d499       ?_strlwr_s_l_stat@@YAHPADIPAUlocaleinfo_struct@@@Z 0048e499 f   LIBCMT:strlwr.obj
 0001:0008d61a       __strlwr_s_l               0048e61a f   LIBCMT:strlwr.obj
 0001:0008d64c       __strlwr_s                 0048e64c f   LIBCMT:strlwr.obj
 0001:0008d65f       __strlwr_l                 0048e65f f   LIBCMT:strlwr.obj
 0001:0008d676       __strlwr                   0048e676 f   LIBCMT:strlwr.obj
 0001:0008d676       _strlwr                    0048e676 f   LIBCMT:strlwr.obj
 0001:0008d6e0       _sin                       0048e6e0 f   LIBCMT:sin.obj
 0001:0008d720       __CIsin                    0048e720 f   LIBCMT:sin.obj
 0001:0008d75b       __CIsin_default            0048e75b f   LIBCMT:sin.obj
 0001:0008d76f       __sin_default              0048e76f     LIBCMT:sin.obj
 0001:0008d809       __amsg_exit                0048e809 f   LIBCMT:crt0dat.obj
 0001:0008d82d       ___crtCorExitProcess       0048e82d f   LIBCMT:crt0dat.obj
 0001:0008d853       ___crtExitProcess          0048e853 f   LIBCMT:crt0dat.obj
 0001:0008d868       __lockexit                 0048e868 f   LIBCMT:crt0dat.obj
 0001:0008d871       __unlockexit               0048e871 f   LIBCMT:crt0dat.obj
 0001:0008d892       __initterm_e               0048e892 f   LIBCMT:crt0dat.obj
 0001:0008d8b2       __get_osplatform           0048e8b2 f   LIBCMT:crt0dat.obj
 0001:0008d8e9       __get_osver                0048e8e9 f   LIBCMT:crt0dat.obj
 0001:0008d925       __get_winver               0048e925 f   LIBCMT:crt0dat.obj
 0001:0008d961       __get_winmajor             0048e961 f   LIBCMT:crt0dat.obj
 0001:0008d99d       __get_winminor             0048e99d f   LIBCMT:crt0dat.obj
 0001:0008d9d9       __get_wpgmptr              0048e9d9 f   LIBCMT:crt0dat.obj
 0001:0008da10       __get_pgmptr               0048ea10 f   LIBCMT:crt0dat.obj
 0001:0008da47       __cinit                    0048ea47 f   LIBCMT:crt0dat.obj
 0001:0008dbbb       _exit                      0048ebbb f   LIBCMT:crt0dat.obj
 0001:0008dbcc       __exit                     0048ebcc f   LIBCMT:crt0dat.obj
 0001:0008dbdd       __cexit                    0048ebdd f   LIBCMT:crt0dat.obj
 0001:0008dbec       __c_exit                   0048ebec f   LIBCMT:crt0dat.obj
 0001:0008dbfb       __init_pointers            0048ebfb f   LIBCMT:crt0dat.obj
 0001:0008dc47       _remove                    0048ec47 f   LIBCMT:unlink.obj
 0001:0008dc71       __unlink                   0048ec71 f   LIBCMT:unlink.obj
 0001:0008dc76       __snprintf                 0048ec76 f   LIBCMT:snprintf.obj
 0001:0008dd23       __snprintf_l               0048ed23 f   LIBCMT:snprintf.obj
 0001:0008dd40       _acos                      0048ed40 f   LIBCMT:acos.obj
 0001:0008dd80       __CIacos                   0048ed80 f   LIBCMT:acos.obj
 0001:0008ddbb       __CIacos_default           0048edbb f   LIBCMT:acos.obj
 0001:0008ddcf       __acos_default             0048edcf     LIBCMT:acos.obj
 0001:0008de90       _tan                       0048ee90 f   LIBCMT:tan.obj
 0001:0008ded0       __CItan                    0048eed0 f   LIBCMT:tan.obj
 0001:0008df0b       __CItan_default            0048ef0b f   LIBCMT:tan.obj
 0001:0008df1f       __tan_default              0048ef1f     LIBCMT:tan.obj
 0001:0008dfbd       __ftell_nolock             0048efbd f   LIBCMT:ftell.obj
 0001:0008e155       _ftell                     0048f155 f   LIBCMT:ftell.obj
 0001:0008e1c3       __fread_nolock_s           0048f1c3 f   LIBCMT:fread.obj
 0001:0008e3c9       __fread_nolock             0048f3c9 f   LIBCMT:fread.obj
 0001:0008e3e4       _fread_s                   0048f3e4 f   LIBCMT:fread.obj
 0001:0008e47a       _fread                     0048f47a f   LIBCMT:fread.obj
 0001:0008e495       __fseek_nolock             0048f495 f   LIBCMT:fseek.obj
 0001:0008e51c       _fseek                     0048f51c f   LIBCMT:fseek.obj
 0001:0008e5b0       _ceil                      0048f5b0 f   LIBCMT:ceil_pentium4.obj
 0001:0008e5f0       __ceil_pentium4            0048f5f0 f   LIBCMT:ceil_pentium4.obj
 0001:0008e6cd       ___iob_func                0048f6cd f   LIBCMT:_file.obj
 0001:0008e6d3       ___initstdio               0048f6d3 f   LIBCMT:_file.obj
 0001:0008e784       ___endstdio                0048f784 f   LIBCMT:_file.obj
 0001:0008e7a4       __lock_file                0048f7a4 f   LIBCMT:_file.obj
 0001:0008e7e0       __lock_file2               0048f7e0 f   LIBCMT:_file.obj
 0001:0008e80e       __unlock_file              0048f80e f   LIBCMT:_file.obj
 0001:0008e844       __unlock_file2             0048f844 f   LIBCMT:_file.obj
 0001:0008e86e       __invoke_watson_if_error   0048f86e f i LIBCMT:strerror.obj
 0001:0008e890       __get_sys_err_msg          0048f890 f i LIBCMT:strerror.obj
 0001:0008e8b3       _strerror                  0048f8b3 f   LIBCMT:strerror.obj
 0001:0008e91a       _strerror_s                0048f91a f   LIBCMT:strerror.obj
 0001:0008e979       __get_errno_from_oserr     0048f979 f   LIBCMT:dosmap.obj
 0001:0008e9b4       __errno                    0048f9b4 f   LIBCMT:dosmap.obj
 0001:0008e9c7       ___doserrno                0048f9c7 f   LIBCMT:dosmap.obj
 0001:0008e9da       __dosmaperr                0048f9da f   LIBCMT:dosmap.obj
 0001:0008e9f8       __set_errno                0048f9f8 f   LIBCMT:dosmap.obj
 0001:0008ea13       __get_errno                0048fa13 f   LIBCMT:dosmap.obj
 0001:0008ea3d       __set_doserrno             0048fa3d f   LIBCMT:dosmap.obj
 0001:0008ea58       __get_doserrno             0048fa58 f   LIBCMT:dosmap.obj
 0001:0008ea82       _fgetc                     0048fa82 f   LIBCMT:fgetc.obj
 0001:0008ebb9       _getc                      0048fbb9 f   LIBCMT:fgetc.obj
 0001:0008ecf0       __getc_nolock              0048fcf0 f   LIBCMT:fgetc.obj
 0001:0008ed0a       _fputc                     0048fd0a f   LIBCMT:fputc.obj
 0001:0008ee49       _putc                      0048fe49 f   LIBCMT:fputc.obj
 0001:0008ef88       __ungetc_nolock            0048ff88 f   LIBCMT:ungetc.obj
 0001:0008f0a6       _ungetc                    004900a6 f   LIBCMT:ungetc.obj
 0001:0008f118       __flush                    00490118 f   LIBCMT:fflush.obj
 0001:0008f17a       __fflush_nolock            0049017a f   LIBCMT:fflush.obj
 0001:0008f296       _fflush                    00490296 f   LIBCMT:fflush.obj
 0001:0008f2e9       __flushall                 004902e9 f   LIBCMT:fflush.obj
 0001:0008f2f2       _setvbuf                   004902f2 f   LIBCMT:setvbuf.obj
 0001:0008f3f0       _fgetpos                   004903f0 f   LIBCMT:fgetpos.obj
 0001:0008f45b       _fsetpos                   0049045b f   LIBCMT:fsetpos.obj
 0001:0008f4a0       _strstr                    004904a0 f   LIBCMT:strstr.obj
 0001:0008f5fc       __stat64i32                004905fc f   LIBCMT:stati32.obj
 0001:0008f92e       __initp_heap_handler       0049092e f   LIBCMT:handler.obj
 0001:0008f938       ?_set_new_handler@@YAP6AHI@ZP6AHI@Z@Z 00490938 f   LIBCMT:handler.obj
 0001:0008f969       ?_set_new_handler@@YAP6AHI@ZH@Z 00490969 f   LIBCMT:handler.obj
 0001:0008f972       ?_query_new_handler@@YAP6AHI@ZXZ 00490972 f   LIBCMT:handler.obj
 0001:0008f97f       __callnewh                 0049097f f   LIBCMT:handler.obj
 0001:0008f9a1       ?_set_new_mode@@YAHH@Z     004909a1 f   LIBCMT:new_mode.obj
 0001:0008f9db       ?_query_new_mode@@YAHXZ    004909db f   LIBCMT:new_mode.obj
 0001:0008f9e1       __validdrive               004909e1 f   LIBCMT:getcwd.obj
 0001:0008fa18       __getdcwd_nolock           00490a18 f   LIBCMT:getcwd.obj
 0001:0008fb4d       __getcwd                   00490b4d f   LIBCMT:getcwd.obj
 0001:0008fb96       __getdcwd                  00490b96 f   LIBCMT:getcwd.obj
 0001:0008fbe0       __mkdir                    00490be0 f   LIBCMT:mkdir.obj
 0001:0008fc0c       __findclose                00490c0c f   LIBCMT:findfile.obj
 0001:0008fc2c       ___timet_from_ft           00490c2c f   LIBCMT:findfile.obj
 0001:0008fc90       __findfirst32              00490c90 f   LIBCMT:findfile.obj
 0001:0008fdb7       __findnext32               00490db7 f   LIBCMT:findfile.obj
 0001:0008fedd       ___time64_t_from_ft        00490edd f   LIBCMT:findfi32.obj
 0001:0008ff43       __findfirst64i32           00490f43 f   LIBCMT:findfi32.obj
 0001:00090073       __findnext64i32            00491073 f   LIBCMT:findfi32.obj
 0001:000903b1       __putenv                   004913b1 f   LIBCMT:putenv.obj
 0001:000903f6       __putenv_s                 004913f6 f   LIBCMT:putenv.obj
 0001:0009046f       __spawnv                   0049146f f   LIBCMT:spawnv.obj
 0001:000904be       __access_s                 004914be f   LIBCMT:access.obj
 0001:00090545       __access                   00491545 f   LIBCMT:access.obj
 0001:00090559       __getenv_helper_nolock     00491559 f   LIBCMT:getenv.obj
 0001:0009070f       _getenv                    0049170f f   LIBCMT:getenv.obj
 0001:00090792       _getenv_s                  00491792 f   LIBCMT:getenv.obj
 0001:0009086a       __dupenv_s                 0049186a f   LIBCMT:getenv.obj
 0001:00090950       __chdir                    00491950 f   LIBCMT:chdir.obj
 0001:00090a73       __isalpha_l                00491a73 f i LIBCMT:_ctype.obj
 0001:00090ac7       _isalpha                   00491ac7 f i LIBCMT:_ctype.obj
 0001:00090af2       __isupper_l                00491af2 f i LIBCMT:_ctype.obj
 0001:00090b41       _isupper                   00491b41 f i LIBCMT:_ctype.obj
 0001:00090b6a       __islower_l                00491b6a f i LIBCMT:_ctype.obj
 0001:00090bb9       _islower                   00491bb9 f i LIBCMT:_ctype.obj
 0001:00090be2       __isdigit_l                00491be2 f i LIBCMT:_ctype.obj
 0001:00090c31       _isdigit                   00491c31 f i LIBCMT:_ctype.obj
 0001:00090c5a       __isxdigit_l               00491c5a f i LIBCMT:_ctype.obj
 0001:00090cae       _isxdigit                  00491cae f i LIBCMT:_ctype.obj
 0001:00090cd9       __isspace_l                00491cd9 f i LIBCMT:_ctype.obj
 0001:00090d28       _isspace                   00491d28 f i LIBCMT:_ctype.obj
 0001:00090d51       __ispunct_l                00491d51 f i LIBCMT:_ctype.obj
 0001:00090da0       _ispunct                   00491da0 f i LIBCMT:_ctype.obj
 0001:00090dc9       __isalnum_l                00491dc9 f i LIBCMT:_ctype.obj
 0001:00090e1d       _isalnum                   00491e1d f i LIBCMT:_ctype.obj
 0001:00090e48       __isprint_l                00491e48 f i LIBCMT:_ctype.obj
 0001:00090e9c       _isprint                   00491e9c f i LIBCMT:_ctype.obj
 0001:00090ec7       __isgraph_l                00491ec7 f i LIBCMT:_ctype.obj
 0001:00090f1b       _isgraph                   00491f1b f i LIBCMT:_ctype.obj
 0001:00090f46       __iscntrl_l                00491f46 f i LIBCMT:_ctype.obj
 0001:00090f95       _iscntrl                   00491f95 f i LIBCMT:_ctype.obj
 0001:00090fbe       ___isascii                 00491fbe f i LIBCMT:_ctype.obj
 0001:00090fcb       ___toascii                 00491fcb f i LIBCMT:_ctype.obj
 0001:00090fd3       __iscsymf_l                00491fd3 f i LIBCMT:_ctype.obj
 0001:00090ff2       ___iscsymf                 00491ff2 f i LIBCMT:_ctype.obj
 0001:0009100c       __iscsym_l                 0049200c f i LIBCMT:_ctype.obj
 0001:0009102b       ___iscsym                  0049202b f i LIBCMT:_ctype.obj
 0001:00091047       __set_osplatform           00492047 f i LIBCMT:crt0.obj
 0001:00091051       __set_osver                00492051 f i LIBCMT:crt0.obj
 0001:0009105b       __set_winver               0049205b f i LIBCMT:crt0.obj
 0001:00091065       __set_winmajor             00492065 f i LIBCMT:crt0.obj
 0001:0009106f       __set_winminor             0049206f f i LIBCMT:crt0.obj
 0001:00091294       _mainCRTStartup            00492294 f   LIBCMT:crt0.obj
 0001:0009129e       __tolower                  0049229e f   LIBCMT:tolower.obj
 0001:000912a6       __tolower_l                004922a6 f   LIBCMT:tolower.obj
 0001:000913bd       _tolower                   004923bd f   LIBCMT:tolower.obj
 0001:000913f0       _strncat                   004923f0 f   LIBCMT:strncat.obj
 0001:00091525       _wcsncpy                   00492525 f   LIBCMT:wcsncpy.obj
 0001:00091562       @__security_check_cookie@4 00492562 f   LIBCMT:secchk.obj
 0001:00091580       __allrem                   00492580 f   LIBCMT:llrem.obj
 0001:00091640       __alldiv                   00492640 f   LIBCMT:lldiv.obj
 0001:000916ea       __strtod_l                 004926ea f   LIBCMT:strtod.obj
 0001:00091805       _strtod                    00492805 f   LIBCMT:strtod.obj
 0001:00091a43       _strtol                    00492a43 f   LIBCMT:strtol.obj
 0001:00091a6c       __strtol_l                 00492a6c f   LIBCMT:strtol.obj
 0001:00091a87       _strtoul                   00492a87 f   LIBCMT:strtol.obj
 0001:00091ab1       __strtoul_l                00492ab1 f   LIBCMT:strtol.obj
 0001:00091acc       __vswprintf_l              00492acc f   LIBCMT:vswprint.obj
 0001:00091b63       __vswprintf                00492b63 f   LIBCMT:vswprint.obj
 0001:00091b7a       ___vswprintf_l             00492b7a f   LIBCMT:vswprint.obj
 0001:00091b7f       __vscwprintf_helper        00492b7f f   LIBCMT:vswprint.obj
 0001:00091bd4       __vscwprintf               00492bd4 f   LIBCMT:vswprint.obj
 0001:00091bec       __vscwprintf_l             00492bec f   LIBCMT:vswprint.obj
 0001:00091c06       __vscwprintf_p             00492c06 f   LIBCMT:vswprint.obj
 0001:00091c1e       __vscwprintf_p_l           00492c1e f   LIBCMT:vswprint.obj
 0001:00091c38       __wtol                     00492c38 f   LIBCMT:wtox.obj
 0001:00091c49       __wtol_l                   00492c49 f   LIBCMT:wtox.obj
 0001:00091c5e       __wtoi                     00492c5e f   LIBCMT:wtox.obj
 0001:00091c63       __wtoi_l                   00492c63 f   LIBCMT:wtox.obj
 0001:00091c68       __wtoi64                   00492c68 f   LIBCMT:wtox.obj
 0001:00091c79       __wtoi64_l                 00492c79 f   LIBCMT:wtox.obj
 0001:00091c8e       __toupper                  00492c8e f   LIBCMT:toupper.obj
 0001:00091c96       __toupper_l                00492c96 f   LIBCMT:toupper.obj
 0001:00091dae       _toupper                   00492dae f   LIBCMT:toupper.obj
 0001:00091de0       _asin                      00492de0 f   LIBCMT:asin.obj
 0001:00091e20       __CIasin                   00492e20 f   LIBCMT:asin.obj
 0001:00091e5b       __CIasin_default           00492e5b f   LIBCMT:asin.obj
 0001:00091e6f       __asin_default             00492e6f     LIBCMT:asin.obj
 0001:00091f30       _log                       00492f30 f   LIBCMT:log.obj
 0001:00091f70       __CIlog                    00492f70 f   LIBCMT:log.obj
 0001:00091fab       __CIlog_default            00492fab f   LIBCMT:log.obj
 0001:00091fbf       __log_default              00492fbf     LIBCMT:log.obj
 0001:00092080       _pow                       00493080 f   LIBCMT:pow.obj
 0001:000920c0       __CIpow                    004930c0 f   LIBCMT:pow.obj
 0001:000920fb       __CIpow_default            004930fb f   LIBCMT:pow.obj
 0001:00092114       __pow_default              00493114     LIBCMT:pow.obj
 0001:0009230a       __RTC_CheckEsp             0049330a f   LIBCMT:stack.obj
 0001:0009232d       @_RTC_CheckStackVars@8     0049332d f   LIBCMT:stack.obj
 0001:00092387       @_RTC_AllocaHelper@12      00493387 f   LIBCMT:stack.obj
 0001:000923b4       @_RTC_CheckStackVars2@12   004933b4 f   LIBCMT:stack.obj
 0001:00092467       __RTC_InitBase             00493467 f   LIBCMT:init.obj
 0001:0009248d       __RTC_Shutdown             0049348d f   LIBCMT:init.obj
 0001:000924a0       __allshr                   004934a0 f   LIBCMT:llshr.obj
 0001:000924d0       __ftol                     004934d0 f   LIBCMT:ftol.obj
 0001:0009257e       __VEC_memcpy               0049357e f   LIBCMT:p4_memcpy.obj
 0001:00092661       __sse2_mathfcns_init       00493661 f   LIBCMT:mathfcns.obj
 0001:00092675       __set_SSE2_enable          00493675 f   LIBCMT:mathfcns.obj
 0001:00092689       __forcdecpt_l              00493689 f   LIBCMT:cvt.obj
 0001:000926fa       __cropzeros_l              004936fa f   LIBCMT:cvt.obj
 0001:0009277a       __positive                 0049377a f   LIBCMT:cvt.obj
 0001:00092790       __fassign_l                00493790 f   LIBCMT:cvt.obj
 0001:000927d0       __fassign                  004937d0 f   LIBCMT:cvt.obj
 0001:00092804       __forcdecpt                00493804 f   LIBCMT:cvt.obj
 0001:00092812       __cropzeros                00493812 f   LIBCMT:cvt.obj
 0001:0009298d       __cftoe_l                  0049398d f   LIBCMT:cvt.obj
 0001:00092a5b       __cftoe                    00493a5b f   LIBCMT:cvt.obj
 0001:00092a79       __cftoa_l                  00493a79 f   LIBCMT:cvt.obj
 0001:00092dea       __cftoa                    00493dea f   LIBCMT:cvt.obj
 0001:00092efd       __cftof_l                  00493efd f   LIBCMT:cvt.obj
 0001:00092fb6       __cftof                    00493fb6 f   LIBCMT:cvt.obj
 0001:00092fd1       __cftog_l                  00493fd1 f   LIBCMT:cvt.obj
 0001:000930c9       __cftog                    004940c9 f   LIBCMT:cvt.obj
 0001:000930e7       __cfltcvt_l                004940e7 f   LIBCMT:cvt.obj
 0001:0009316d       __cfltcvt                  0049416d f   LIBCMT:cvt.obj
 0001:0009318e       __initp_misc_cfltcvt_tab   0049418e f   LIBCMT:cmiscdat.obj
 0001:000931ad       __setdefaultprecision      004941ad f   LIBCMT:fp8.obj
 0001:000931d6       __ms_p5_test_fdiv          004941d6 f   LIBCMT:testfdiv.obj
 0001:00093212       __ms_p5_mp_test_fdiv       00494212 f   LIBCMT:testfdiv.obj
 0001:00093292       __VEC_memzero              00494292 f   LIBCMT:p4_memset.obj
 0001:00093330       __trandisp1                00494330 f   LIBCMT:87disp.obj
 0001:00093397       __trandisp2                00494397 f   LIBCMT:87disp.obj
 0001:00093423       __rttospopde               00494423     LIBCMT:87disp.obj
 0001:00093428       __rttospop                 00494428     LIBCMT:87disp.obj
 0001:0009342a       __rtnospop                 0049442a     LIBCMT:87disp.obj
 0001:0009342c       __rttosnpop                0049442c     LIBCMT:87disp.obj
 0001:0009342d       __rtnospopde               0049442d     LIBCMT:87disp.obj
 0001:00093434       __rtzeropop                00494434     LIBCMT:87disp.obj
 0001:00093436       __rtzeronpop               00494436     LIBCMT:87disp.obj
 0001:0009343b       __rtonepop                 0049443b     LIBCMT:87disp.obj
 0001:0009343d       __rtonenpop                0049443d     LIBCMT:87disp.obj
 0001:00093442       __tosnan1                  00494442     LIBCMT:87disp.obj
 0001:0009346d       __nosnan2                  0049446d     LIBCMT:87disp.obj
 0001:0009346f       __tosnan2                  0049446f     LIBCMT:87disp.obj
 0001:00093497       __nan2                     00494497     LIBCMT:87disp.obj
 0001:000934d6       __rtindfpop                004944d6     LIBCMT:87disp.obj
 0001:000934d8       __rtindfnpop               004944d8     LIBCMT:87disp.obj
 0001:000934e9       __rttosnpopde              004944e9     LIBCMT:87disp.obj
 0001:000934f3       __rtchsifneg               004944f3     LIBCMT:87disp.obj
 0001:00093500       __startTwoArgErrorHandling 00494500 f   LIBCMT:genexcep.obj
 0001:00093517       __startOneArgErrorHandling 00494517 f   LIBCMT:genexcep.obj
 0001:00093560       __twoToTOS                 00494560 f   LIBCMT:common.obj
 0001:00093575       __load_CW                  00494575 f   LIBCMT:common.obj
 0001:0009358c       __convertTOStoQNaN         0049458c f   LIBCMT:common.obj
 0001:000935a5       __fload_withFB             004945a5 f   LIBCMT:common.obj
 0001:000935e8       __checkTOS_withFB          004945e8 f   LIBCMT:common.obj
 0001:000935fe       __fast_exit                004945fe f   LIBCMT:common.obj
 0001:0009360b       __math_exit                0049460b f   LIBCMT:common.obj
 0001:00093635       __check_overflow_exit      00494635 f   LIBCMT:common.obj
 0001:00093649       __check_range_exit         00494649 f   LIBCMT:common.obj
 0001:000936ec       __close_nolock             004946ec f   LIBCMT:close.obj
 0001:00093780       __close                    00494780 f   LIBCMT:close.obj
 0001:0009384d       __fileno                   0049484d f   LIBCMT:fileno.obj
 0001:0009387a       __freebuf                  0049487a f   LIBCMT:_freebuf.obj
 0001:000938a8       __SEH_prolog4              004948a8 f   LIBCMT:sehprolg4.obj
 0001:000938ed       __SEH_epilog4              004948ed f   LIBCMT:sehprolg4.obj
 0001:00093940       __except_handler4          00494940 f   LIBCMT:chandler4.obj
 0001:00093ad6       __stbuf                    00494ad6 f   LIBCMT:_sftbuf.obj
 0001:00093b6c       __ftbuf                    00494b6c f   LIBCMT:_sftbuf.obj
 0001:00093c3c       _get_int_arg               00494c3c f i LIBCMT:output.obj
 0001:00093c49       _get_int64_arg             00494c49 f i LIBCMT:output.obj
 0001:00093c59       _get_short_arg             00494c59 f i LIBCMT:output.obj
 0001:00093c67       __output_l                 00494c67 f   LIBCMT:output.obj
 0001:000945fb       __ioinit                   004955fb f   LIBCMT:ioinit.obj
 0001:0009483b       __ioterm                   0049583b f   LIBCMT:ioinit.obj
 0001:00094887       _vfprintf_helper           00495887 f   LIBCMT:vfprintf.obj
 0001:000949d5       __vfprintf_l               004959d5 f   LIBCMT:vfprintf.obj
 0001:000949f3       __vfprintf_s_l             004959f3 f   LIBCMT:vfprintf.obj
 0001:00094a11       __vfprintf_p_l             00495a11 f   LIBCMT:vfprintf.obj
 0001:00094a2f       _vfprintf                  00495a2f f   LIBCMT:vfprintf.obj
 0001:00094a4b       _vfprintf_s                00495a4b f   LIBCMT:vfprintf.obj
 0001:00094a67       __vfprintf_p               00495a67 f   LIBCMT:vfprintf.obj
 0001:00094a83       __openfile                 00495a83 f   LIBCMT:_open.obj
 0001:00094d23       __getstream                00495d23 f   LIBCMT:stream.obj
 0001:00094e54       __local_unwind4            00495e54 f   LIBCMT:exsup4.obj
 0001:00094f2a       __seh_longjmp_unwind4@4    00495f2a f   LIBCMT:exsup4.obj
 0001:00094f46       @_EH4_CallFilterFunc@8     00495f46 f   LIBCMT:exsup4.obj
 0001:00094f5d       @_EH4_TransferToHandler@8  00495f5d f   LIBCMT:exsup4.obj
 0001:00094f76       @_EH4_GlobalUnwind@4       00495f76 f   LIBCMT:exsup4.obj
 0001:00094f90       @_EH4_LocalUnwind@16       00495f90 f   LIBCMT:exsup4.obj
 0001:00094fa7       __flsbuf                   00495fa7 f   LIBCMT:_flsbuf.obj
 0001:00095107       __vsprintf_l               00496107 f   LIBCMT:vsprintf.obj
 0001:00095183       _vsprintf                  00496183 f   LIBCMT:vsprintf.obj
 0001:0009519a       __vscprintf_helper         0049619a f   LIBCMT:vsprintf.obj
 0001:000951ef       __vscprintf                004961ef f   LIBCMT:vsprintf.obj
 0001:00095207       __vscprintf_l              00496207 f   LIBCMT:vsprintf.obj
 0001:00095221       __vscprintf_p              00496221 f   LIBCMT:vsprintf.obj
 0001:00095239       __vscprintf_p_l            00496239 f   LIBCMT:vsprintf.obj
 0001:00095253       __vsnprintf_helper         00496253 f   LIBCMT:vsnprnc.obj
 0001:0009531d       __vsnprintf_c              0049631d f   LIBCMT:vsnprnc.obj
 0001:00095344       __vsnprintf_c_l            00496344 f   LIBCMT:vsnprnc.obj
 0001:0009536c       __vsprintf_s_l             0049636c f   LIBCMT:vsnprnc.obj
 0001:000953f2       _vsprintf_s                004963f2 f   LIBCMT:vsnprnc.obj
 0001:0009540d       __vsnprintf_s_l            0049640d f   LIBCMT:vsnprnc.obj
 0001:00095512       __vsnprintf_s              00496512 f   LIBCMT:vsnprnc.obj
 0001:00095530       __vsprintf_p               00496530 f   LIBCMT:vsnprnc.obj
 0001:00095557       __vsprintf_p_l             00496557 f   LIBCMT:vsnprnc.obj
 0001:00095580       _strlen                    00496580 f   LIBCMT:strlen.obj
 0001:0009565f       __INTRN_LOCALE_CONV        0049665f f i LIBCMT:input.obj
 0001:000956cc       __input_l                  004966cc f   LIBCMT:input.obj
 0001:000963cd       __input_s_l                004973cd f   LIBCMT:inputs.obj
 0001:00097164       __encode_pointer           00498164 f   LIBCMT:tidtable.obj
 0001:000971d2       __encoded_null             004981d2 f   LIBCMT:tidtable.obj
 0001:000971db       __decode_pointer           004981db f   LIBCMT:tidtable.obj
 0001:00097249       ___crtTlsAlloc@4           00498249 f   LIBCMT:tidtable.obj
 0001:00097252       ___fls_getvalue@4          00498252 f   LIBCMT:tidtable.obj
 0001:00097267       ___get_flsindex            00498267 f   LIBCMT:tidtable.obj
 0001:0009726d       ___set_flsgetvalue         0049826d f   LIBCMT:tidtable.obj
 0001:0009729f       ___fls_setvalue@8          0049829f f   LIBCMT:tidtable.obj
 0001:000972b8       __mtterm                   004982b8 f   LIBCMT:tidtable.obj
 0001:000972f5       __initptd                  004982f5 f   LIBCMT:tidtable.obj
 0001:000973b4       __getptd_noexit            004983b4 f   LIBCMT:tidtable.obj
 0001:0009742b       __getptd                   0049842b f   LIBCMT:tidtable.obj
 0001:00097443       __freefls@4                00498443 f   LIBCMT:tidtable.obj
 0001:00097564       __freeptd                  00498564 f   LIBCMT:tidtable.obj
 0001:000975cd       ___threadid                004985cd f   LIBCMT:tidtable.obj
 0001:000975d3       ___threadhandle            004985d3 f   LIBCMT:tidtable.obj
 0001:000975d9       __mtinit                   004985d9 f   LIBCMT:tidtable.obj
 0001:00097760       __CIcos_pentium4           00498760 f   LIBCMT:cos_pentium4.obj
 0001:00097778       __cos_pentium4             00498778     LIBCMT:cos_pentium4.obj
 0001:00097b1a       ___updatetmbcinfo          00498b1a f   LIBCMT:mbctype.obj
 0001:00097c38       __setmbcp_nolock           00498c38 f   LIBCMT:mbctype.obj
 0001:00097e11       __getmbcp                  00498e11 f   LIBCMT:mbctype.obj
 0001:00097e4d       __setmbcp                  00498e4d f   LIBCMT:mbctype.obj
 0001:00097fe7       ___initmbctable            00498fe7 f   LIBCMT:mbctype.obj
 0001:00098005       ____setlc_active_func      00499005 f   LIBCMT:setlocal.obj
 0001:0009800b       ____unguarded_readlc_active_add_func 0049900b f   LIBCMT:setlocal.obj
 0001:00098011       ___freetlocinfo            00499011 f   LIBCMT:setlocal.obj
 0001:00098151       ___addlocaleref            00499151 f   LIBCMT:setlocal.obj
 0001:000981d7       ___removelocaleref         004991d7 f   LIBCMT:setlocal.obj
 0001:000982c5       ___updatetlocinfo          004992c5 f   LIBCMT:setlocal.obj
 0001:0009833b       __configthreadlocale       0049933b f   LIBCMT:setlocal.obj
 0001:000983f4       __free_locale              004993f4 f   LIBCMT:setlocal.obj
 0001:0009848a       ___free_locale             0049948a f   LIBCMT:setlocal.obj
 0001:0009848f       __get_current_locale       0049948f f   LIBCMT:setlocal.obj
 0001:00098517       ___get_current_locale      00499517 f   LIBCMT:setlocal.obj
 0001:0009851c       ___init_dummy              0049951c f   LIBCMT:setlocal.obj
 0001:0009851f       __strcats                  0049951f f   LIBCMT:setlocal.obj
 0001:0009855d       ___lc_strtolc              0049955d f   LIBCMT:setlocal.obj
 0001:00098686       ___lc_lctostr              00499686 f   LIBCMT:setlocal.obj
 0001:00098862       __expandlocale             00499862 f   LIBCMT:setlocal.obj
 0001:00098efa       __create_locale            00499efa f   LIBCMT:setlocal.obj
 0001:00098fed       ___create_locale           00499fed f   LIBCMT:setlocal.obj
 0001:00098ff2       _setlocale                 00499ff2 f   LIBCMT:setlocal.obj
 0001:00099162       __fltin2                   0049a162 f   LIBCMT:cfin.obj
 0001:00099207       __isctype_l                0049a207 f   LIBCMT:isctype.obj
 0001:000992bd       __isctype                  0049a2bd f   LIBCMT:isctype.obj
 0001:000992ec       ___addl                    0049a2ec f i LIBCMT:strgtold.obj
 0001:0009930d       ___shl_12                  0049a30d f i LIBCMT:strgtold.obj
 0001:0009933b       ___shr_12                  0049a33b f i LIBCMT:strgtold.obj
 0001:00099368       ___ld12mul                 0049a368 f i LIBCMT:strgtold.obj
 0001:000995dc       ___multtenpow12            0049a5dc f i LIBCMT:strgtold.obj
 0001:000998e5       ___strgtold12_l            0049a8e5 f   LIBCMT:strgtold.obj
 0001:00099fa5       ___STRINGTOLD_L            0049afa5 f   LIBCMT:strgtold.obj
 0001:00099ffe       ?_Type_info_dtor@type_info@@CAXPAV1@@Z 0049affe f   LIBCMT:typname.obj
 0001:0009a06e       ?_Name_base@type_info@@CAPBDPBV1@PAU__type_info_node@@@Z 0049b06e f   LIBCMT:typname.obj
 0001:0009a163       ?_Type_info_dtor_internal@type_info@@CAXPAV1@@Z 0049b163 f   LIBCMT:typname.obj
 0001:0009a1d3       ___unDNameHelper           0049b1d3 f   LIBCMT:typname.obj
 0001:0009a204       ?_Name_base_internal@type_info@@CAPBDPBV1@PAU__type_info_node@@@Z 0049b204 f   LIBCMT:typname.obj
 0001:0009a2ef       ___clean_type_info_names_internal 0049b2ef f   LIBCMT:typname.obj
 0001:0009a350       _strcmp                    0049b350 f   LIBCMT:strcmp.obj
 0001:0009a3d8       _abort                     0049b3d8 f   LIBCMT:abort.obj
 0001:0009a4cb       __set_abort_behavior       0049b4cb f   LIBCMT:abort.obj
 0001:0009a4e9       __NMSG_WRITE               0049b4e9 f   LIBCMT:crt0msg.obj
 0001:0009a689       __GET_RTERRMSG             0049b689 f   LIBCMT:crt0msg.obj
 0001:0009a6a9       __FF_MSGBANNER             0049b6a9 f   LIBCMT:crt0msg.obj
 0001:0009a6e2       ___getlocaleinfo           0049b6e2 f   LIBCMT:inithelp.obj
 0001:0009a83c       __initp_misc_purevirt      0049b83c f   LIBCMT:inithelp.obj
 0001:0009a846       __write_nolock             0049b846 f   LIBCMT:write.obj
 0001:0009ae0c       __write                    0049be0c f   LIBCMT:write.obj
 0001:0009aee8       ___libm_setusermatherr     0049bee8 f   LIBCMT:libm_error.obj
 0001:0009af11       ___libm_error_support      0049bf11 f   LIBCMT:libm_error.obj
 0001:0009b1c1       __floor_default            0049c1c1 f   LIBCMT:floor.obj
 0001:0009b292       _vprintf_helper            0049c292 f   LIBCMT:vprintf.obj
 0001:0009b322       __vprintf_l                0049c322 f   LIBCMT:vprintf.obj
 0001:0009b33c       __vprintf_s_l              0049c33c f   LIBCMT:vprintf.obj
 0001:0009b356       __vprintf_p_l              0049c356 f   LIBCMT:vprintf.obj
 0001:0009b370       _vprintf                   0049c370 f   LIBCMT:vprintf.obj
 0001:0009b388       _vprintf_s                 0049c388 f   LIBCMT:vprintf.obj
 0001:0009b3a0       __vprintf_p                0049c3a0 f   LIBCMT:vprintf.obj
 0001:0009b64c       __strtoi64                 0049c64c f   LIBCMT:strtoq.obj
 0001:0009b675       __strtoi64_l               0049c675 f   LIBCMT:strtoq.obj
 0001:0009b690       __strtoui64                0049c690 f   LIBCMT:strtoq.obj
 0001:0009b6ba       __strtoui64_l              0049c6ba f   LIBCMT:strtoq.obj
 0001:0009b6d5       _strcpy_s                  0049c6d5 f   LIBCMT:strcpy_s.obj
 0001:0009b73a       __crt_debugger_hook        0049c73a f   LIBCMT:dbghook.obj
 0001:0009b742       ??0bad_exception@std@@QAE@PBD@Z 0049c742 f i LIBCMT:frame.obj
 0001:0009b75b       ??1bad_exception@std@@UAE@XZ 0049c75b f i LIBCMT:frame.obj
 0001:0009b766       ??_Ebad_exception@std@@UAEPAXI@Z 0049c766 f i LIBCMT:frame.obj
 0001:0009b766       ??_Gbad_exception@std@@UAEPAXI@Z 0049c766 f i LIBCMT:frame.obj
 0001:0009b788       ___TypeMatch               0049c788 f   LIBCMT:frame.obj
 0001:0009b7e4       ___FrameUnwindFilter       0049c7e4 f   LIBCMT:frame.obj
 0001:0009b828       ___FrameUnwindToState      0049c828 f   LIBCMT:frame.obj
 0001:0009b94e       ___DestructExceptionObject 0049c94e f   LIBCMT:frame.obj
 0001:0009b9a2       ___AdjustPointer           0049c9a2 f   LIBCMT:frame.obj
 0001:0009b9c7       ?__uncaught_exception@@YA_NXZ 0049c9c7 f   LIBCMT:frame.obj
 0001:0009b9da       ___CxxRegisterExceptionObject 0049c9da f   LIBCMT:frame.obj
 0001:0009ba8d       ___CxxDetectRethrow        0049ca8d f   LIBCMT:frame.obj
 0001:0009bad9       ___CxxUnregisterExceptionObject 0049cad9 f   LIBCMT:frame.obj
 0001:0009bc12       ___CxxQueryExceptionSize   0049cc12 f   LIBCMT:frame.obj
 0001:0009bc16       ___CxxCallUnwindDtor       0049cc16 f   LIBCMT:frame.obj
 0001:0009bc48       ___CxxCallUnwindDelDtor    0049cc48 f   LIBCMT:frame.obj
 0001:0009bc7b       ___CxxCallUnwindStdDelDtor 0049cc7b f   LIBCMT:frame.obj
 0001:0009bcad       ___CxxCallUnwindVecDtor    0049ccad f   LIBCMT:frame.obj
 0001:0009bdda       ?_is_exception_typeof@@YAHABVtype_info@@PAU_EXCEPTION_POINTERS@@@Z 0049cdda f   LIBCMT:frame.obj
 0001:0009bff8       ___BuildCatchObjectHelper  0049cff8 f   LIBCMT:frame.obj
 0001:0009c177       ___BuildCatchObject        0049d177 f   LIBCMT:frame.obj
 0001:0009c208       ___CxxExceptionFilter      0049d208 f   LIBCMT:frame.obj
 0001:0009c7ff       ??0bad_exception@std@@QAE@ABV01@@Z 0049d7ff f i LIBCMT:frame.obj
 0001:0009c817       ___InternalCxxFrameHandler 0049d817 f   LIBCMT:frame.obj
 0001:0009c8fb       ?terminate@@YAXXZ          0049d8fb f   LIBCMT:hooks.obj
 0001:0009c934       ?unexpected@@YAXXZ         0049d934 f   LIBCMT:hooks.obj
 0001:0009c947       ?_inconsistency@@YAXXZ     0049d947 f   LIBCMT:hooks.obj
 0001:0009c97e       __initp_eh_hooks           0049d97e f   LIBCMT:hooks.obj
 0001:0009c990       __CallSettingFrame@12      0049d990 f   LIBCMT:lowhelpr.obj
 0001:0009c9b7       __NLG_Return               0049d9b7     LIBCMT:lowhelpr.obj
 0001:0009c9fc       __fFATN2                   0049d9fc     LIBCMT:87triga.obj
 0001:0009ca4c       __rtpiby2                  0049da4c     LIBCMT:87triga.obj
 0001:0009ca90       __cintrindisp2             0049da90 f   LIBCMT:87cdisp.obj
 0001:0009cace       __cintrindisp1             0049dace f   LIBCMT:87cdisp.obj
 0001:0009cb0b       __ctrandisp2               0049db0b f   LIBCMT:87cdisp.obj
 0001:0009cca1       __ctrandisp1               0049dca1 f   LIBCMT:87cdisp.obj
 0001:0009ccd4       __fload                    0049dcd4 f   LIBCMT:87cdisp.obj
 0001:0009cd10       _fdiv_main_routine         0049dd10 f   LIBCMT:adj_fdiv.obj
 0001:0009ce27       __adj_fdiv_r               0049de27 f   LIBCMT:adj_fdiv.obj
 0001:0009d2c6       __fdivp_sti_st             0049e2c6 f   LIBCMT:adj_fdiv.obj
 0001:0009d2d9       __fdivrp_sti_st            0049e2d9 f   LIBCMT:adj_fdiv.obj
 0001:0009d2ec       __adj_fdiv_m32             0049e2ec f   LIBCMT:adj_fdiv.obj
 0001:0009d338       __adj_fdiv_m64             0049e338 f   LIBCMT:adj_fdiv.obj
 0001:0009d384       __adj_fdiv_m16i            0049e384 f   LIBCMT:adj_fdiv.obj
 0001:0009d3b8       __adj_fdiv_m32i            0049e3b8 f   LIBCMT:adj_fdiv.obj
 0001:0009d3ec       __adj_fdivr_m32            0049e3ec f   LIBCMT:adj_fdiv.obj
 0001:0009d438       __adj_fdivr_m64            0049e438 f   LIBCMT:adj_fdiv.obj
 0001:0009d484       __adj_fdivr_m16i           0049e484 f   LIBCMT:adj_fdiv.obj
 0001:0009d4b8       __adj_fdivr_m32i           0049e4b8 f   LIBCMT:adj_fdiv.obj
 0001:0009d4ec       __safe_fdiv                0049e4ec f   LIBCMT:adj_fdiv.obj
 0001:0009d501       __safe_fdivr               0049e501 f   LIBCMT:adj_fdiv.obj
 0001:0009d516       __fprem_common             0049e516 f   LIBCMT:adj_fdiv.obj
 0001:0009d71c       __adj_fprem                0049e71c f   LIBCMT:adj_fdiv.obj
 0001:0009d7ce       __fprem1_common            0049e7ce f   LIBCMT:adj_fdiv.obj
 0001:0009d9d4       __adj_fprem1               0049e9d4 f   LIBCMT:adj_fdiv.obj
 0001:0009da89       __safe_fprem               0049ea89 f   LIBCMT:adj_fdiv.obj
 0001:0009da8f       __safe_fprem1              0049ea8f f   LIBCMT:adj_fdiv.obj
 0001:0009da95       __adj_fpatan               0049ea95 f   LIBCMT:adj_fdiv.obj
 0001:0009da98       __adj_fptan                0049ea98 f   LIBCMT:adj_fdiv.obj
 0001:0009de57       ___crtLCMapStringA         0049ee57 f   LIBCMT:a_map.obj
 0001:0009de9a       _strnlen                   0049ee9a f   LIBCMT:strlen_s.obj
 0001:0009dec0       __CIsin_pentium4           0049eec0 f   LIBCMT:sin_pentium4.obj
 0001:0009ded8       __sin_pentium4             0049eed8     LIBCMT:sin_pentium4.obj
 0001:0009e088       __mtinitlocks              0049f088 f   LIBCMT:mlock.obj
 0001:0009e0d1       __mtdeletelocks            0049f0d1 f   LIBCMT:mlock.obj
 0001:0009e126       __unlock                   0049f126 f   LIBCMT:mlock.obj
 0001:0009e13b       __lockerr_exit             0049f13b f   LIBCMT:mlock.obj
 0001:0009e153       __mtinitlocknum            0049f153 f   LIBCMT:mlock.obj
 0001:0009e216       __lock                     0049f216 f   LIBCMT:mlock.obj
 0001:0009e247       __RTC_Initialize           0049f247 f   LIBCMT:initsect.obj
 0001:0009e26b       __RTC_Terminate            0049f26b f   LIBCMT:initsect.obj
 0001:0009e290       __ValidateImageBase        0049f290 f   LIBCMT:pesect.obj
 0001:0009e2c0       __FindPESection            0049f2c0 f   LIBCMT:pesect.obj
 0001:0009e310       __IsNonwritableInCurrentImage 0049f310 f   LIBCMT:pesect.obj
 0001:0009e3cb       __initp_misc_winxfltr      0049f3cb f   LIBCMT:winxfltr.obj
 0001:0009e3fe       __XcptFilter               0049f3fe f   LIBCMT:winxfltr.obj
 0001:0009e55c       ___CppXcptFilter           0049f55c f   LIBCMT:winxfltr.obj
 0001:0009e577       __initp_misc_winsig        0049f577 f   LIBCMT:winsig.obj
 0001:0009e65f       ___get_sigabrt             0049f65f f   LIBCMT:winsig.obj
 0001:0009e66c       ___fpecode                 0049f66c f   LIBCMT:winsig.obj
 0001:0009e675       ___pxcptinfoptrs           0049f675 f   LIBCMT:winsig.obj
 0001:0009e67e       _signal                    0049f67e f   LIBCMT:winsig.obj
 0001:0009e8bb       _raise                     0049f8bb f   LIBCMT:winsig.obj
 0001:0009ea6b       __initp_misc_rand_s        0049fa6b f   LIBCMT:rand_s.obj
 0001:0009ea75       _rand_s                    0049fa75 f   LIBCMT:rand_s.obj
 0001:0009eb79       __initp_misc_initcrit      0049fb79 f   LIBCMT:initcrit.obj
 0001:0009eb93       ___crtInitCritSecAndSpinCount 0049fb93 f   LIBCMT:initcrit.obj
 0001:0009ec60       __CIacos_pentium4          0049fc60 f   LIBCMT:acos_pentium4.obj
 0001:0009ec78       __acos_pentium4            0049fc78     LIBCMT:acos_pentium4.obj
 0001:0009f1c0       __CItan_pentium4           004a01c0 f   LIBCMT:tan_pentium4.obj
 0001:0009f1d8       __tan_pentium4             004a01d8     LIBCMT:tan_pentium4.obj
 0001:0009f420       __lseek_nolock             004a0420 f   LIBCMT:lseek.obj
 0001:0009f492       __lseek                    004a0492 f   LIBCMT:lseek.obj
 0001:0009f56e       __filbuf                   004a056e f   LIBCMT:_filbuf.obj
 0001:0009f68e       __read_nolock              004a068e f   LIBCMT:read.obj
 0001:0009fc4f       __read                     004a0c4f f   LIBCMT:read.obj
 0001:0009fd4c       __ceil_default             004a0d4c f   LIBCMT:ceil.obj
 0001:0009fe1d       __fcloseall                004a0e1d f   LIBCMT:closeall.obj
 0001:0009febc       ___sys_nerr                004a0ebc f   LIBCMT:syserr.obj
 0001:0009fec2       ___sys_errlist             004a0ec2 f   LIBCMT:syserr.obj
 0001:0009fec8       _strncpy_s                 004a0ec8 f   LIBCMT:strncpy_s.obj
 0001:0009ff7b       __getbuf                   004a0f7b f   LIBCMT:_getbuf.obj
 0001:0009ffbf       __commit                   004a0fbf f   LIBCMT:commit.obj
 0001:000a00a0       __ftelli64_nolock          004a10a0 f   LIBCMT:ftelli64.obj
 0001:000a037c       __ftelli64                 004a137c f   LIBCMT:ftelli64.obj
 0001:000a03c6       __fseeki64_nolock          004a13c6 f   LIBCMT:fseeki64.obj
 0001:000a045f       __fseeki64                 004a145f f   LIBCMT:fseeki64.obj
 0001:000a04ae       __fullpath                 004a14ae f   LIBCMT:fullpath.obj
 0001:000a05b6       ___dtoxmode                004a15b6 f   LIBCMT:stat.obj
 0001:000a0745       __stat32                   004a1745 f   LIBCMT:stat.obj
 0001:000a0a4e       ___loctotime64_t           004a1a4e f   LIBCMT:dtoxtm64.obj
 0001:000a0cb7       __getdrive                 004a1cb7 f   LIBCMT:drive.obj
 0001:000a0d7d       __chdrive                  004a1d7d f   LIBCMT:drive.obj
 0001:000a0e1e       __mbctolower_l             004a1e1e f   LIBCMT:mbtolwr.obj
 0001:000a0ec2       __mbctolower               004a1ec2 f   LIBCMT:mbtolwr.obj
 0001:000a0ed0       __mbspbrk_l                004a1ed0 f   LIBCMT:mbspbrk.obj
 0001:000a0f9a       __mbspbrk                  004a1f9a f   LIBCMT:mbspbrk.obj
 0001:000a0fad       ___loctotime32_t           004a1fad f   LIBCMT:dtoxtime.obj
 0001:000a125f       ___crtwsetenv              004a225f f   LIBCMT:wsetenv.obj
 0001:000a15c5       _wcslen                    004a25c5 f   LIBCMT:wcslen.obj
 0001:000a1685       ___crtsetenv               004a2685 f   LIBCMT:setenv.obj
 0001:000a18d1       __mbschr_l                 004a28d1 f   LIBCMT:mbschr.obj
 0001:000a198b       __mbschr                   004a298b f   LIBCMT:mbschr.obj
 0001:000a1a16       __spawnve                  004a2a16 f   LIBCMT:spawnve.obj
 0001:000a1c35       __mbsnbicoll_l             004a2c35 f   LIBCMT:mbsnbico.obj
 0001:000a1d21       __mbsnbicoll               004a2d21 f   LIBCMT:mbsnbico.obj
 0001:000a1d38       ___wtomb_environ           004a2d38 f   LIBCMT:wtombenv.obj
 0001:000a1dcd       __mbctoupper_l             004a2dcd f   LIBCMT:mbtoupr.obj
 0001:000a1e71       __mbctoupper               004a2e71 f   LIBCMT:mbtoupr.obj
 0001:000a1e7f       ?__CxxUnhandledExceptionFilter@@YGJPAU_EXCEPTION_POINTERS@@@Z 004a2e7f f   LIBCMT:unhandld.obj
 0001:000a1ebc       ___CxxSetUnhandledExceptionFilter 004a2ebc f   LIBCMT:unhandld.obj
 0001:000a1eca       __setenvp                  004a2eca f   LIBCMT:stdenvp.obj
 0001:000a1fa5       __set_pgmptr               004a2fa5 f i LIBCMT:stdargv.obj
 0001:000a2147       __setargv                  004a3147 f   LIBCMT:stdargv.obj
 0001:000a2200       ___crtGetEnvironmentStringsA 004a3200 f   LIBCMT:a_env.obj
 0001:000a2335       ___security_init_cookie    004a3335 f   LIBCMT:gs_support.obj
 0001:000a23c9       __isleadbyte_l             004a33c9 f i LIBCMT:_wctype.obj
 0001:000a23ff       _isleadbyte                004a33ff f i LIBCMT:_wctype.obj
 0001:000a240d       __iswalpha_l               004a340d f i LIBCMT:_wctype.obj
 0001:000a2423       _iswalpha                  004a3423 f i LIBCMT:_wctype.obj
 0001:000a2434       __iswupper_l               004a3434 f i LIBCMT:_wctype.obj
 0001:000a2447       _iswupper                  004a3447 f i LIBCMT:_wctype.obj
 0001:000a2455       __iswlower_l               004a3455 f i LIBCMT:_wctype.obj
 0001:000a2468       _iswlower                  004a3468 f i LIBCMT:_wctype.obj
 0001:000a2476       __iswdigit_l               004a3476 f i LIBCMT:_wctype.obj
 0001:000a2489       _iswdigit                  004a3489 f i LIBCMT:_wctype.obj
 0001:000a2497       __iswxdigit_l              004a3497 f i LIBCMT:_wctype.obj
 0001:000a24ad       _iswxdigit                 004a34ad f i LIBCMT:_wctype.obj
 0001:000a24be       __iswspace_l               004a34be f i LIBCMT:_wctype.obj
 0001:000a24d1       _iswspace                  004a34d1 f i LIBCMT:_wctype.obj
 0001:000a24df       __iswpunct_l               004a34df f i LIBCMT:_wctype.obj
 0001:000a24f2       _iswpunct                  004a34f2 f i LIBCMT:_wctype.obj
 0001:000a2500       __iswalnum_l               004a3500 f i LIBCMT:_wctype.obj
 0001:000a2516       _iswalnum                  004a3516 f i LIBCMT:_wctype.obj
 0001:000a2527       __iswprint_l               004a3527 f i LIBCMT:_wctype.obj
 0001:000a253d       _iswprint                  004a353d f i LIBCMT:_wctype.obj
 0001:000a254e       __iswgraph_l               004a354e f i LIBCMT:_wctype.obj
 0001:000a2564       _iswgraph                  004a3564 f i LIBCMT:_wctype.obj
 0001:000a2575       __iswcntrl_l               004a3575 f i LIBCMT:_wctype.obj
 0001:000a2588       _iswcntrl                  004a3588 f i LIBCMT:_wctype.obj
 0001:000a2596       _iswascii                  004a3596 f i LIBCMT:_wctype.obj
 0001:000a25a2       __iswcsym_l                004a35a2 f i LIBCMT:_wctype.obj
 0001:000a25c8       ___iswcsym                 004a35c8 f i LIBCMT:_wctype.obj
 0001:000a25e9       __iswcsymf_l               004a35e9 f i LIBCMT:_wctype.obj
 0001:000a260f       ___iswcsymf                004a360f f i LIBCMT:_wctype.obj
 0001:000a2630       ___report_gsfailure        004a3630 f   LIBCMT:gs_report.obj
 0001:000a27d9       __woutput_l                004a37d9 f   LIBCMT:woutput.obj
 0001:000a30e9       __validate_param_reuseW    004a40e9 f   LIBCMT:woutputp.obj
 0001:000a32d6       __woutput_p_l              004a42d6 f   LIBCMT:woutputp.obj
 0001:000a442d       _wcstol                    004a542d f   LIBCMT:wcstol.obj
 0001:000a4456       __wcstol_l                 004a5456 f   LIBCMT:wcstol.obj
 0001:000a4471       _wcstoul                   004a5471 f   LIBCMT:wcstol.obj
 0001:000a449b       __wcstoul_l                004a549b f   LIBCMT:wcstol.obj
 0001:000a4766       __wcstoi64                 004a5766 f   LIBCMT:wcstoq.obj
 0001:000a478f       __wcstoi64_l               004a578f f   LIBCMT:wcstoq.obj
 0001:000a47aa       __wcstoui64                004a57aa f   LIBCMT:wcstoq.obj
 0001:000a47d4       __wcstoui64_l              004a57d4 f   LIBCMT:wcstoq.obj
 0001:000a47f0       __CIasin_pentium4          004a57f0 f   LIBCMT:asin_pentium4.obj
 0001:000a4808       __asin_pentium4            004a5808     LIBCMT:asin_pentium4.obj
 0001:000a4d70       __CIlog_pentium4           004a5d70 f   LIBCMT:log_pentium4.obj
 0001:000a4d88       __log_pentium4             004a5d88     LIBCMT:log_pentium4.obj
 0001:000a4ff1       __fFEXP                    004a5ff1     LIBCMT:87tran.obj
 0001:000a5058       __rtinfpopse               004a6058     LIBCMT:87tran.obj
 0001:000a505a       __rtinfnpopse              004a605a     LIBCMT:87tran.obj
 0001:000a506a       __fFLN                     004a606a     LIBCMT:87tran.obj
 0001:000a511f       __rtinfpop                 004a611f     LIBCMT:87tran.obj
 0001:000a5121       __rtinfnpop                004a6121     LIBCMT:87tran.obj
 0001:000a513e       __ffexpm1                  004a613e     LIBCMT:87tran.obj
 0001:000a51f0       __CIpow_pentium4           004a61f0 f   LIBCMT:pow_pentium4.obj
 0001:000a5209       __pow_pentium4             004a6209     LIBCMT:pow_pentium4.obj
 0001:000a5d50       __d_inttype                004a6d50 f   LIBCMT:powhlp.obj
 0001:000a5db4       __powhlp                   004a6db4 f   LIBCMT:powhlp.obj
 0001:000a5fa4       _DebuggerKnownHandle       004a6fa4 f   LIBCMT:error.obj
 0001:000a619c       ?_RTC_Failure@@YAXPAXH@Z   004a719c f   LIBCMT:error.obj
 0001:000a61d4       ?_RTC_StackFailure@@YAXPAXPBD@Z 004a71d4 f   LIBCMT:error.obj
 0001:000a632a       ?_RTC_AllocaFailure@@YAXPAXPAU_RTC_ALLOCA_NODE@@H@Z 004a732a f   LIBCMT:error.obj
 0001:000a6447       __RTC_UninitUse            004a7447 f   LIBCMT:error.obj
 0001:000a6527       __RTC_NumErrors            004a7527 f   LIBCMT:userapi.obj
 0001:000a652b       __RTC_GetErrDesc           004a752b f   LIBCMT:userapi.obj
 0001:000a653f       __RTC_SetErrorType         004a753f f   LIBCMT:userapi.obj
 0001:000a655c       __RTC_SetErrorFunc         004a755c f   LIBCMT:userapi.obj
 0001:000a6573       __RTC_SetErrorFuncW        004a7573 f   LIBCMT:userapi.obj
 0001:000a658a       ?_RTC_GetErrorFunc@@YAP6AHHPBDH00ZZPBX@Z 004a758a f   LIBCMT:userapi.obj
 0001:000a6590       ?_RTC_GetErrorFuncW@@YAP6AHHPB_WH00ZZPBX@Z 004a7590 f   LIBCMT:userapi.obj
 0001:000a6596       __chkesp                   004a7596 f   LIBCMT:chkesp.obj
 0001:000a65ae       __CRT_RTC_INIT             004a75ae f   LIBCMT:chkesp.obj
 0001:000a65b1       __CRT_RTC_INITW            004a75b1 f   LIBCMT:chkesp.obj
 0001:000a6604       __get_sse2_info            004a7604 f   LIBCMT:cpu_disp.obj
 0001:000a6664       ___sse2_available_init     004a7664 f   LIBCMT:cpu_disp.obj
 0001:000a6671       __atodbl_l                 004a7671 f   LIBCMT:atodbl.obj
 0001:000a6717       __atodbl                   004a7717 f   LIBCMT:atodbl.obj
 0001:000a672a       __atoldbl_l                004a772a f   LIBCMT:atodbl.obj
 0001:000a67d1       __atoldbl                  004a77d1 f   LIBCMT:atodbl.obj
 0001:000a67e4       __atoflt_l                 004a77e4 f   LIBCMT:atodbl.obj
 0001:000a688a       __atoflt                   004a788a f   LIBCMT:atodbl.obj
 0001:000a689d       __set_output_format        004a789d f   LIBCMT:outputformat.obj
 0001:000a68d4       __get_output_format        004a78d4 f   LIBCMT:outputformat.obj
 0001:000a68da       __fptostr                  004a78da f   LIBCMT:_fptostr.obj
 0001:000a6997       ___dtold                   004a7997 f   LIBCMT:cfout.obj
 0001:000a6a52       __fltout2                  004a7a52 f   LIBCMT:cfout.obj
 0001:000a6ae0       __alldvrm                  004a7ae0 f   LIBCMT:lldvrm.obj
 0001:000a6bc0       __aullshr                  004a7bc0 f   LIBCMT:ullshr.obj
 0001:000a6bdf       __fptrap                   004a7bdf f   LIBCMT:crt0fp.obj
 0001:000a6be8       __controlfp_s              004a7be8 f   LIBCMT:contrlfp.obj
 0001:000a6c52       __87except                 004a7c52 f   LIBCMT:87except.obj
 0001:000a6d4e       __set_osfhnd               004a7d4e f   LIBCMT:osfinfo.obj
 0001:000a6dcb       __free_osfhnd              004a7dcb f   LIBCMT:osfinfo.obj
 0001:000a6e4c       __get_osfhandle            004a7e4c f   LIBCMT:osfinfo.obj
 0001:000a6ebd       ___lock_fhandle            004a7ebd f   LIBCMT:osfinfo.obj
 0001:000a6f5d       __unlock_fhandle           004a7f5d f   LIBCMT:osfinfo.obj
 0001:000a6f7f       __alloc_osfhnd             004a7f7f f   LIBCMT:osfinfo.obj
 0001:000a711e       __open_osfhandle           004a811e f   LIBCMT:osfinfo.obj
 0001:000a7233       __isatty                   004a8233 f   LIBCMT:isatty.obj
 0001:000a7291       __wctomb_s_l               004a8291 f   LIBCMT:wctomb.obj
 0001:000a73f0       _wctomb_s                  004a83f0 f   LIBCMT:wctomb.obj
 0001:000a740b       __wctomb_l                 004a840b f   LIBCMT:wctomb.obj
 0001:000a745a       _wctomb                    004a845a f   LIBCMT:wctomb.obj
 0001:000a7490       __aulldvrm                 004a8490 f   LIBCMT:ulldvrm.obj
 0001:000a75c6       __output_s_l               004a85c6 f   LIBCMT:outputs.obj
 0001:000a7f76       __validate_param_reuseA    004a8f76 f   LIBCMT:outputp.obj
 0001:000a8140       _get_crtdouble_arg         004a9140 f i LIBCMT:outputp.obj
 0001:000a8150       __output_p_l               004a9150 f   LIBCMT:outputp.obj
 0001:000a9831       __open                     004aa831 f   LIBCMT:open.obj
 0001:000a98e7       __sopen_helper             004aa8e7 f   LIBCMT:open.obj
 0001:000a99b3       __sopen                    004aa9b3 f   LIBCMT:open.obj
 0001:000a99e3       __sopen_s                  004aa9e3 f   LIBCMT:open.obj
 0001:000a9a01       __mbsicmp_l                004aaa01 f   LIBCMT:mbsicmp.obj
 0001:000a9c1b       __mbsicmp                  004aac1b f   LIBCMT:mbsicmp.obj
 0001:000a9c2e       __mbsnbcmp_l               004aac2e f   LIBCMT:mbsnbcmp.obj
 0001:000a9d97       __mbsnbcmp                 004aad97 f   LIBCMT:mbsnbcmp.obj
 0001:000a9db0       __global_unwind2           004aadb0 f   LIBCMT:exsup.obj
 0001:000a9e15       __local_unwind2            004aae15 f   LIBCMT:exsup.obj
 0001:000a9e99       __abnormal_termination     004aae99 f   LIBCMT:exsup.obj
 0001:000a9ebc       __NLG_Notify1              004aaebc f   LIBCMT:exsup.obj
 0001:000a9ec5       __NLG_Notify               004aaec5 f   LIBCMT:exsup.obj
 0001:000a9edc       __NLG_Dispatch             004aaedc     LIBCMT:exsup.obj
 0001:000a9edc       __NLG_Dispatch2            004aaedc     LIBCMT:exsup.obj
 0001:000a9ee4       __NLG_Call                 004aaee4 f   LIBCMT:exsup.obj
 0001:000a9ee6       __NLG_Return2              004aaee6     LIBCMT:exsup.obj
 0001:000a9ee7       __lseeki64_nolock          004aaee7 f   LIBCMT:lseeki64.obj
 0001:000a9f6a       __lseeki64                 004aaf6a f   LIBCMT:lseeki64.obj
 0001:000aa083       __mbtowc_l                 004ab083 f   LIBCMT:mbtowc.obj
 0001:000aa196       _mbtowc                    004ab196 f   LIBCMT:mbtowc.obj
 0001:000aa1b0       __allmul                   004ab1b0 f   LIBCMT:llmul.obj
 0001:000aa39c       ___crtGetStringTypeA       004ab39c f   LIBCMT:a_str.obj
 0001:000aa3dc       ___pwctype_func            004ab3dc f   LIBCMT:ctype.obj
 0001:000aa3e2       ___pctype_func             004ab3e2 f   LIBCMT:ctype.obj
 0001:000aa824       ___free_lc_time            004ab824 f   LIBCMT:inittime.obj
 0001:000aa9b4       ___init_time               004ab9b4 f   LIBCMT:inittime.obj
 0001:000aaa5a       ___free_lconv_num          004aba5a f   LIBCMT:initnum.obj
 0001:000aaa9a       ___init_numeric            004aba9a f   LIBCMT:initnum.obj
 0001:000aac95       ___free_lconv_mon          004abc95 f   LIBCMT:initmon.obj
 0001:000aad1e       ___init_monetary           004abd1e f   LIBCMT:initmon.obj
 0001:000aafe2       ___init_ctype              004abfe2 f   LIBCMT:initctyp.obj
 0001:000ab377       ____mb_cur_max_func        004ac377 f   LIBCMT:initctyp.obj
 0001:000ab3a0       ____mb_cur_max_l_func      004ac3a0 f   LIBCMT:initctyp.obj
 0001:000ab3b6       ____lc_codepage_func       004ac3b6 f   LIBCMT:initctyp.obj
 0001:000ab3dc       ____lc_collate_cp_func     004ac3dc f   LIBCMT:initctyp.obj
 0001:000ab402       ____lc_handle_func         004ac402 f   LIBCMT:initctyp.obj
 0001:000ab428       ___init_collate            004ac428 f   LIBCMT:initcoll.obj
 0001:000ab42b       __Getdays_l                004ac42b f   LIBCMT:strftime.obj
 0001:000ab529       __Getdays                  004ac529 f   LIBCMT:strftime.obj
 0001:000ab532       __Getmonths_l              004ac532 f   LIBCMT:strftime.obj
 0001:000ab630       __Getmonths                004ac630 f   LIBCMT:strftime.obj
 0001:000ab639       __Gettnames_l              004ac639 f   LIBCMT:strftime.obj
 0001:000ab98e       __Gettnames                004ac98e f   LIBCMT:strftime.obj
 0001:000ac2a9       __Strftime_l               004ad2a9 f   LIBCMT:strftime.obj
 0001:000ac458       __strftime_l               004ad458 f   LIBCMT:strftime.obj
 0001:000ac476       _strftime                  004ad476 f   LIBCMT:strftime.obj
 0001:000ac493       __Strftime                 004ad493 f   LIBCMT:strftime.obj
 0001:000ac4b1       _localeconv                004ad4b1 f   LIBCMT:lconv.obj
 0001:000ac4d7       _strcat_s                  004ad4d7 f   LIBCMT:strcat_s.obj
 0001:000ac550       _strcspn                   004ad550 f   LIBCMT:strcspn.obj
 0001:000acb50       ___get_qualified_locale    004adb50 f   LIBCMT:getqloc.obj
 0001:000ae2a5       _memcmp                    004af2a5 f   LIBCMT:memcmp.obj
 0001:000af930       _strpbrk                   004b0930 f   LIBCMT:strpbrk.obj
 0001:000af970       __ZeroTail                 004b0970 f i LIBCMT:intrncvt.obj
 0001:000af9b5       __IncMan                   004b09b5 f i LIBCMT:intrncvt.obj
 0001:000afa1f       __RoundMan                 004b0a1f f i LIBCMT:intrncvt.obj
 0001:000afb0d       __CopyMan                  004b0b0d f i LIBCMT:intrncvt.obj
 0001:000afb28       __FillZeroMan              004b0b28 f i LIBCMT:intrncvt.obj
 0001:000afb34       __IsZeroMan                004b0b34 f i LIBCMT:intrncvt.obj
 0001:000afb4d       __ShrMan                   004b0b4d f i LIBCMT:intrncvt.obj
 0001:000afbe5       __ld12cvt                  004b0be5 f i LIBCMT:intrncvt.obj
 0001:000b010e       __ld12tod                  004b110e f   LIBCMT:intrncvt.obj
 0001:000b0650       __ld12tof                  004b1650 f   LIBCMT:intrncvt.obj
 0001:000b0b92       __ld12told                 004b1b92 f   LIBCMT:intrncvt.obj
 0001:000b0c54       ___add_12                  004b1c54 f i LIBCMT:mantold.obj
 0001:000b0cc1       ___mtold12                 004b1cc1 f   LIBCMT:mantold.obj
 0001:000b0e8d       ??0Block@HeapManager@@QAE@XZ 004b1e8d f i LIBCMT:undname.obj
 0001:000b0e93       ?Constructor@HeapManager@@QAEXP6APAXI@ZP6AXPAX@Z@Z 004b1e93 f i LIBCMT:undname.obj
 0001:000b0eae       ?Destructor@HeapManager@@QAEXXZ 004b1eae f i LIBCMT:undname.obj
 0001:000b0ed4       ?getNumberOfDimensions@UnDecorator@@CAHXZ 004b1ed4 f   LIBCMT:undname.obj
 0001:000b0f37       ?getTypeEncoding@UnDecorator@@CAHXZ 004b1f37 f i LIBCMT:undname.obj
 0001:000b13ab       ?doUnderScore@UnDecorator@@SAHXZ 004b23ab f i LIBCMT:undname.obj
 0001:000b13b6       ?doMSKeywords@UnDecorator@@SAHXZ 004b23b6 f i LIBCMT:undname.obj
 0001:000b13c3       ?doPtr64@UnDecorator@@SAHXZ 004b23c3 f i LIBCMT:undname.obj
 0001:000b13d1       ?doFunctionReturns@UnDecorator@@SAHXZ 004b23d1 f i LIBCMT:undname.obj
 0001:000b13df       ?doAllocationModel@UnDecorator@@SAHXZ 004b23df f i LIBCMT:undname.obj
 0001:000b13ed       ?doAllocationLanguage@UnDecorator@@SAHXZ 004b23ed f i LIBCMT:undname.obj
 0001:000b13fb       ?doThisTypes@UnDecorator@@SAHXZ 004b23fb f i LIBCMT:undname.obj
 0001:000b140d       ?doAccessSpecifiers@UnDecorator@@SAHXZ 004b240d f i LIBCMT:undname.obj
 0001:000b141b       ?doThrowTypes@UnDecorator@@SAHXZ 004b241b f i LIBCMT:undname.obj
 0001:000b1429       ?doMemberTypes@UnDecorator@@SAHXZ 004b2429 f i LIBCMT:undname.obj
 0001:000b1437       ?doNameOnly@UnDecorator@@SAHXZ 004b2437 f i LIBCMT:undname.obj
 0001:000b1442       ?doTypeOnly@UnDecorator@@SAHXZ 004b2442 f i LIBCMT:undname.obj
 0001:000b144d       ?haveTemplateParameters@UnDecorator@@SAHXZ 004b244d f i LIBCMT:undname.obj
 0001:000b1458       ?doEcsu@UnDecorator@@SAHXZ 004b2458 f i LIBCMT:undname.obj
 0001:000b1466       ?doNoIdentCharCheck@UnDecorator@@SAHXZ 004b2466 f i LIBCMT:undname.obj
 0001:000b1471       ?doEllipsis@UnDecorator@@SAHXZ 004b2471 f i LIBCMT:undname.obj
 0001:000b147f       ?UScore@UnDecorator@@SAPBDW4Tokens@@@Z 004b247f f   LIBCMT:undname.obj
 0001:000b1498       ?getMemory@HeapManager@@QAEPAXIH@Z 004b2498 f   LIBCMT:undname.obj
 0001:000b151c       ??0DName@@QAE@XZ           004b251c f i LIBCMT:undname.obj
 0001:000b1529       ??0DName@@QAE@PAVDNameNode@@@Z 004b2529 f i LIBCMT:undname.obj
 0001:000b153b       ??0DName@@QAE@ABV0@@Z      004b253b f i LIBCMT:undname.obj
 0001:000b15d7       ?status@DName@@QBE?AW4DNameStatus@@XZ 004b25d7 f i LIBCMT:undname.obj
 0001:000b15e1       ?clearStatus@DName@@QAEXXZ 004b25e1 f i LIBCMT:undname.obj
 0001:000b15e6       ?setPtrRef@DName@@QAEAAV1@XZ 004b25e6 f i LIBCMT:undname.obj
 0001:000b15ed       ?isPtrRef@DName@@QBEHXZ    004b25ed f i LIBCMT:undname.obj
 0001:000b15f7       ?setIsArray@DName@@QAEXXZ  004b25f7 f i LIBCMT:undname.obj
 0001:000b15ff       ?isArray@DName@@QBEHXZ     004b25ff f i LIBCMT:undname.obj
 0001:000b1609       ?isNoTE@DName@@QBEHXZ      004b2609 f i LIBCMT:undname.obj
 0001:000b1613       ?setIsNoTE@DName@@QAEXXZ   004b2613 f i LIBCMT:undname.obj
 0001:000b161b       ?isPinPtr@DName@@QBEHXZ    004b261b f i LIBCMT:undname.obj
 0001:000b1625       ?setIsPinPtr@DName@@QAEXXZ 004b2625 f i LIBCMT:undname.obj
 0001:000b162d       ?isComArray@DName@@QBEHXZ  004b262d f i LIBCMT:undname.obj
 0001:000b1637       ?setIsComArray@DName@@QAEXXZ 004b2637 f i LIBCMT:undname.obj
 0001:000b163f       ?isVCallThunk@DName@@QBEHXZ 004b263f f i LIBCMT:undname.obj
 0001:000b1649       ?setIsVCallThunk@DName@@QAEXXZ 004b2649 f i LIBCMT:undname.obj
 0001:000b1651       ??4DName@@QAEAAV0@ABV0@@Z  004b2651 f   LIBCMT:undname.obj
 0001:000b16cc       ?isFull@Replicator@@QBEHXZ 004b26cc f i LIBCMT:undname.obj
 0001:000b16d5       ??AReplicator@@QBEABVDName@@H@Z 004b26d5 f   LIBCMT:undname.obj
 0001:000b16fa       ??0DNameNode@@IAE@XZ       004b26fa f   LIBCMT:undname.obj
 0001:000b1707       ?nextNode@DNameNode@@QBEPAV1@XZ 004b2707 f i LIBCMT:undname.obj
 0001:000b170b       ??YDNameNode@@QAEAAV0@PAV0@@Z 004b270b f   LIBCMT:undname.obj
 0001:000b1734       ??0charNode@@QAE@D@Z       004b2734 f   LIBCMT:undname.obj
 0001:000b174a       ?length@charNode@@UBEHXZ   004b274a f i LIBCMT:undname.obj
 0001:000b174e       ?getLastChar@charNode@@UBEDXZ 004b274e f i LIBCMT:undname.obj
 0001:000b1752       ?getString@charNode@@UBEPADPADH@Z 004b2752 f   LIBCMT:undname.obj
 0001:000b176d       ?length@pcharNode@@UBEHXZ  004b276d f i LIBCMT:undname.obj
 0001:000b1771       ??0pDNameNode@@QAE@PAVDName@@@Z 004b2771 f   LIBCMT:undname.obj
 0001:000b17a0       ??0DNameStatusNode@@QAE@W4DNameStatus@@@Z 004b27a0 f   LIBCMT:undname.obj
 0001:000b17c5       ?length@DNameStatusNode@@UBEHXZ 004b27c5 f i LIBCMT:undname.obj
 0001:000b17c9       ?getLastChar@DNameStatusNode@@UBEDXZ 004b27c9 f i LIBCMT:undname.obj
 0001:000b1829       ?getDataIndirectType@UnDecorator@@CA?AVDName@@XZ 004b2829 f i LIBCMT:undname.obj
 0001:000b185c       ?getThisType@UnDecorator@@CA?AVDName@@XZ 004b285c f i LIBCMT:undname.obj
 0001:000b1890       ??2@YAPAXIAAVHeapManager@@H@Z 004b2890 f i LIBCMT:undname.obj
 0001:000b18a3       ??0DName@@QAE@PAV0@@Z      004b28a3 f   LIBCMT:undname.obj
 0001:000b18f9       ??0DName@@QAE@W4DNameStatus@@@Z 004b28f9 f   LIBCMT:undname.obj
 0001:000b195a       ?isValid@DName@@QBEHXZ     004b295a f   LIBCMT:undname.obj
 0001:000b1971       ?isEmpty@DName@@QBEHXZ     004b2971 f   LIBCMT:undname.obj
 0001:000b1986       ?isUDC@DName@@QBEHXZ       004b2986 f i LIBCMT:undname.obj
 0001:000b199a       ?setIsUDC@DName@@QAEXXZ    004b299a f i LIBCMT:undname.obj
 0001:000b19a8       ?isUDTThunk@DName@@QBEHXZ  004b29a8 f i LIBCMT:undname.obj
 0001:000b19bc       ?length@DName@@QBEHXZ      004b29bc f   LIBCMT:undname.obj
 0001:000b19e1       ?getLastChar@DName@@QBEDXZ 004b29e1 f   LIBCMT:undname.obj
 0001:000b1a19       ?getString@DName@@QBEPADPADH@Z 004b2a19 f   LIBCMT:undname.obj
 0001:000b1aaa       ??_5DName@@QAEAAV0@ABV0@@Z 004b2aaa f   LIBCMT:undname.obj
 0001:000b1adf       ??4DName@@QAEAAV0@W4DNameStatus@@@Z 004b2adf f   LIBCMT:undname.obj
 0001:000b1b60       ??0Replicator@@QAE@XZ      004b2b60 f i LIBCMT:undname.obj
 0001:000b1b7e       ??YReplicator@@QAEAAV0@ABVDName@@@Z 004b2b7e f   LIBCMT:undname.obj
 0001:000b1bc5       ?clone@DNameNode@@QAEPAV1@XZ 004b2bc5 f   LIBCMT:undname.obj
 0001:000b1c0c       ??0pcharNode@@QAE@PBDH@Z   004b2c0c f   LIBCMT:undname.obj
 0001:000b1c71       ?getLastChar@pcharNode@@UBEDXZ 004b2c71 f i LIBCMT:undname.obj
 0001:000b1c83       ?getString@pcharNode@@UBEPADPADH@Z 004b2c83 f   LIBCMT:undname.obj
 0001:000b1cb4       ?length@pDNameNode@@UBEHXZ 004b2cb4 f i LIBCMT:undname.obj
 0001:000b1cc3       ?getLastChar@pDNameNode@@UBEDXZ 004b2cc3 f i LIBCMT:undname.obj
 0001:000b1cd2       ?getString@pDNameNode@@UBEPADPADH@Z 004b2cd2 f   LIBCMT:undname.obj
 0001:000b1cef       ?getString@DNameStatusNode@@UBEPADPADH@Z 004b2cef f   LIBCMT:undname.obj
 0001:000b1d22       ??0UnDecorator@@QAE@PADPBDHP6APADJ@ZK@Z 004b2d22 f i LIBCMT:undname.obj
 0001:000b1d95       ?getReturnType@UnDecorator@@CA?AVDName@@PAV2@@Z 004b2d95 f   LIBCMT:undname.obj
 0001:000b1dc4       ?getStorageConvention@UnDecorator@@CA?AVDName@@XZ 004b2dc4 f i LIBCMT:undname.obj
 0001:000b1dd3       ??YDName@@QAEAAV0@W4DNameStatus@@@Z 004b2dd3 f   LIBCMT:undname.obj
 0001:000b1e4c       ??4DName@@QAEAAV0@PAV0@@Z  004b2e4c f   LIBCMT:undname.obj
 0001:000b1eb4       ?doPchar@DName@@AAEXPBDH@Z 004b2eb4 f   LIBCMT:undname.obj
 0001:000b1f5a       ??0DName@@QAE@D@Z          004b2f5a f   LIBCMT:undname.obj
 0001:000b1f80       ??0DName@@QAE@PBD@Z        004b2f80 f   LIBCMT:undname.obj
 0001:000b1fb1       ??0DName@@QAE@AAPBDD@Z     004b2fb1 f   LIBCMT:undname.obj
 0001:000b2081       ??0DName@@QAE@_K@Z         004b3081 f   LIBCMT:undname.obj
 0001:000b20ea       ??0DName@@QAE@_J@Z         004b30ea f   LIBCMT:undname.obj
 0001:000b2180       ??HDName@@QBE?AV0@W4DNameStatus@@@Z 004b3180 f   LIBCMT:undname.obj
 0001:000b21ae       ??YDName@@QAEAAV0@ABV0@@Z  004b31ae f   LIBCMT:undname.obj
 0001:000b2210       ??YDName@@QAEAAV0@PAV0@@Z  004b3210 f   LIBCMT:undname.obj
 0001:000b229b       ??4DName@@QAEAAV0@D@Z      004b329b f   LIBCMT:undname.obj
 0001:000b22b7       ??4DName@@QAEAAV0@PBD@Z    004b32b7 f   LIBCMT:undname.obj
 0001:000b22e1       ?getCallingConvention@UnDecorator@@CA?AVDName@@XZ 004b32e1 f   LIBCMT:undname.obj
 0001:000b2387       ?getVCallThunkType@UnDecorator@@CA?AVDName@@XZ 004b3387 f i LIBCMT:undname.obj
 0001:000b23be       ??HDName@@QBE?AV0@ABV0@@Z  004b33be f   LIBCMT:undname.obj
 0001:000b240f       ??HDName@@QBE?AV0@PAV0@@Z  004b340f f   LIBCMT:undname.obj
 0001:000b243d       ??YDName@@QAEAAV0@D@Z      004b343d f   LIBCMT:undname.obj
 0001:000b24a7       ??YDName@@QAEAAV0@PBD@Z    004b34a7 f   LIBCMT:undname.obj
 0001:000b2513       ?getArgumentList@UnDecorator@@CA?AVDName@@XZ 004b3513 f   LIBCMT:undname.obj
 0001:000b25f3       ?getVdispMapType@UnDecorator@@CA?AVDName@@ABV2@@Z 004b35f3 f i LIBCMT:undname.obj
 0001:000b2642       ??H@YA?AVDName@@DABV0@@Z   004b3642 f i LIBCMT:undname.obj
 0001:000b2664       ??H@YA?AVDName@@W4DNameStatus@@ABV0@@Z 004b3664 f i LIBCMT:undname.obj
 0001:000b2686       ??H@YA?AVDName@@PBDABV0@@Z 004b3686 f i LIBCMT:undname.obj
 0001:000b26a8       ??HDName@@QBE?AV0@D@Z      004b36a8 f   LIBCMT:undname.obj
 0001:000b26d6       ??HDName@@QBE?AV0@PBD@Z    004b36d6 f   LIBCMT:undname.obj
 0001:000b2704       ?getDimension@UnDecorator@@CA?AVDName@@_N@Z 004b3704 f   LIBCMT:undname.obj
 0001:000b2845       ?getEnumType@UnDecorator@@CA?AVDName@@XZ 004b3845 f i LIBCMT:undname.obj
 0001:000b2919       ?getArgumentTypes@UnDecorator@@CA?AVDName@@XZ 004b3919 f   LIBCMT:undname.obj
 0001:000b29dd       ?getThrowTypes@UnDecorator@@CA?AVDName@@XZ 004b39dd f   LIBCMT:undname.obj
 0001:000b2a5b       ?getExtendedDataIndirectType@UnDecorator@@CA?AVDName@@AADAA_NH@Z 004b3a5b f   LIBCMT:undname.obj
 0001:000b2b80       ?getArrayType@UnDecorator@@CA?AVDName@@ABV2@@Z 004b3b80 f i LIBCMT:undname.obj
 0001:000b2cdf       ?getLexicalFrame@UnDecorator@@CA?AVDName@@XZ 004b3cdf f i LIBCMT:undname.obj
 0001:000b2d10       ?getDisplacement@UnDecorator@@CA?AVDName@@XZ 004b3d10 f i LIBCMT:undname.obj
 0001:000b2d22       ?getCallIndex@UnDecorator@@CA?AVDName@@XZ 004b3d22 f i LIBCMT:undname.obj
 0001:000b2d34       ?getGuardNumber@UnDecorator@@CA?AVDName@@XZ 004b3d34 f i LIBCMT:undname.obj
 0001:000b2d46       ?getVfTableType@UnDecorator@@CA?AVDName@@ABV2@@Z 004b3d46 f i LIBCMT:undname.obj
 0001:000b2e96       ?getStringEncoding@UnDecorator@@CA?AVDName@@PADH@Z 004b3e96 f   LIBCMT:undname.obj
 0001:000b2f36       ?getSignedDimension@UnDecorator@@CA?AVDName@@XZ 004b3f36 f   LIBCMT:undname.obj
 0001:000b2f86       ?getTemplateConstant@UnDecorator@@CA?AVDName@@XZ 004b3f86 f   LIBCMT:undname.obj
 0001:000b3241       ?getPtrRefDataType@UnDecorator@@CA?AVDName@@ABV2@H@Z 004b4241 f i LIBCMT:undname.obj
 0001:000b331a       ?getVbTableType@UnDecorator@@CA?AVDName@@ABV2@@Z 004b431a f i LIBCMT:undname.obj
 0001:000b332e       ?getTemplateArgumentList@UnDecorator@@CA?AVDName@@XZ 004b432e f   LIBCMT:undname.obj
 0001:000b34e6       ?getOperatorName@UnDecorator@@CA?AVDName@@_NPA_N@Z 004b44e6 f i LIBCMT:undname.obj
 0001:000b3a55       ?getTemplateName@UnDecorator@@CA?AVDName@@_N@Z 004b4a55 f   LIBCMT:undname.obj
 0001:000b3ba8       ?getZName@UnDecorator@@CA?AVDName@@_N@Z 004b4ba8 f   LIBCMT:undname.obj
 0001:000b3d92       ?getScopedName@UnDecorator@@CA?AVDName@@XZ 004b4d92 f   LIBCMT:undname.obj
 0001:000b3e76       ?getECSUName@UnDecorator@@CA?AVDName@@XZ 004b4e76 f i LIBCMT:undname.obj
 0001:000b3e85       ?getECSUDataType@UnDecorator@@CA?AVDName@@XZ 004b4e85 f   LIBCMT:undname.obj
 0001:000b3f85       ?getSymbolName@UnDecorator@@CA?AVDName@@XZ 004b4f85 f i LIBCMT:undname.obj
 0001:000b3fcb       ?getBasedType@UnDecorator@@CA?AVDName@@XZ 004b4fcb f   LIBCMT:undname.obj
 0001:000b405d       ?composeDeclaration@UnDecorator@@CA?AVDName@@ABV2@@Z 004b505d f i LIBCMT:undname.obj
 0001:000b4b9f       ?getDecoratedName@UnDecorator@@CA?AVDName@@XZ 004b5b9f f   LIBCMT:undname.obj
 0001:000b4db0       ?getScope@UnDecorator@@CA?AVDName@@XZ 004b5db0 f   LIBCMT:undname.obj
 0001:000b503b       ?getFunctionIndirectType@UnDecorator@@CA?AVDName@@ABV2@@Z 004b603b f   LIBCMT:undname.obj
 0001:000b537c       ?getDataIndirectType@UnDecorator@@CA?AVDName@@ABV2@D0H@Z 004b637c f   LIBCMT:undname.obj
 0001:000b5860       ??BUnDecorator@@QAEPADXZ   004b6860 f i LIBCMT:undname.obj
 0001:000b59ac       ?getPtrRefType@UnDecorator@@CA?AVDName@@ABV2@0D@Z 004b69ac f   LIBCMT:undname.obj
 0001:000b5ac2       ?getPointerType@UnDecorator@@CA?AVDName@@ABV2@0@Z 004b6ac2 f i LIBCMT:undname.obj
 0001:000b5add       ?getPointerTypeArray@UnDecorator@@CA?AVDName@@ABV2@0@Z 004b6add f i LIBCMT:undname.obj
 0001:000b5af8       ?getReferenceType@UnDecorator@@CA?AVDName@@ABV2@0@Z 004b6af8 f i LIBCMT:undname.obj
 0001:000b5b13       ___unDName                 004b6b13 f   LIBCMT:undname.obj
 0001:000b5bb6       ___unDNameEx               004b6bb6 f   LIBCMT:undname.obj
 0001:000b5c59       ?getBasicDataType@UnDecorator@@CA?AVDName@@ABV2@@Z 004b6c59 f   LIBCMT:undname.obj
 0001:000b5fe0       ?getPrimaryDataType@UnDecorator@@CA?AVDName@@ABV2@@Z 004b6fe0 f   LIBCMT:undname.obj
 0001:000b611e       ?getDataType@UnDecorator@@CA?AVDName@@PAV2@@Z 004b711e f   LIBCMT:undname.obj
 0001:000b61cf       ?getExternalDataType@UnDecorator@@CA?AVDName@@ABV2@@Z 004b71cf f i LIBCMT:undname.obj
 0001:000b6233       ___crtMessageBoxA          004b7233 f   LIBCMT:crtmbox.obj
 0001:000b63f0       __set_error_mode           004b73f0 f   LIBCMT:errmode.obj
 0001:000b6436       ___set_app_type            004b7436 f   LIBCMT:errmode.obj
 0001:000b6440       ___get_app_type            004b7440 f   LIBCMT:errmode.obj
 0001:000b6581       ___crtGetLocaleInfoW       004b7581 f   LIBCMT:w_loc.obj
 0001:000b66f9       ___crtGetLocaleInfoA       004b76f9 f   LIBCMT:a_loc.obj
 0001:000b6734       __putwch_nolock            004b7734 f   LIBCMT:putwch.obj
 0001:000b67f6       __cputws                   004b77f6 f   LIBCMT:putwch.obj
 0001:000b6891       __putwch                   004b7891 f   LIBCMT:putwch.obj
 0001:000b68d7       __matherr                  004b78d7 f   LIBCMT:matherr.obj
 0001:000b68da       __raise_exc_ex             004b78da f   LIBCMT:fpexcept.obj
 0001:000b6bb4       __raise_exc                004b7bb4 f   LIBCMT:fpexcept.obj
 0001:000b6bd5       __raise_excf               004b7bd5 f   LIBCMT:fpexcept.obj
 0001:000b6bf6       __handle_exc               004b7bf6 f   LIBCMT:fpexcept.obj
 0001:000b6dd7       __set_errno_from_matherr   004b7dd7 f   LIBCMT:fpexcept.obj
 0001:000b6e1f       __errcode                  004b7e1f f   LIBCMT:fpexcept.obj
 0001:000b6e4c       __umatherr                 004b7e4c f   LIBCMT:fpexcept.obj
 0001:000b6eea       __handle_qnan1             004b7eea f   LIBCMT:fpexcept.obj
 0001:000b6f3d       __handle_qnan2             004b7f3d f   LIBCMT:fpexcept.obj
 0001:000b6f9c       __except1                  004b7f9c f   LIBCMT:fpexcept.obj
 0001:000b7056       __except2                  004b8056 f   LIBCMT:fpexcept.obj
 0001:000b7122       __frnd                     004b8122 f   LIBCMT:frnd.obj
 0001:000b7133       __set_exp                  004b8133 f   LIBCMT:util.obj
 0001:000b715d       __get_exp                  004b815d f   LIBCMT:util.obj
 0001:000b7172       __add_exp                  004b8172 f   LIBCMT:util.obj
 0001:000b719c       __set_bexp                 004b819c f   LIBCMT:util.obj
 0001:000b71c1       __sptype                   004b81c1 f   LIBCMT:util.obj
 0001:000b721c       __decomp                   004b821c f   LIBCMT:util.obj
 0001:000b72cb       __statfp                   004b82cb f   LIBCMT:fpctrl.obj
 0001:000b72d6       __clrfp                    004b82d6 f   LIBCMT:fpctrl.obj
 0001:000b72e2       __ctrlfp                   004b82e2 f   LIBCMT:fpctrl.obj
 0001:000b7309       __set_statfp               004b8309 f   LIBCMT:fpctrl.obj
 0001:000b735f       ___get_fpsr_sse2           004b835f f   LIBCMT:fpctrl.obj
 0001:000b737b       ___set_fpsr_sse2           004b837b f   LIBCMT:fpctrl.obj
 0001:000b73ed       ___fclrf_sse2              004b83ed f   LIBCMT:fpctrl.obj
 0001:000b7405       ___statfp_sse2             004b8405 f   LIBCMT:fpctrl.obj
 0001:000b7418       ___clrfp_sse2              004b8418 f   LIBCMT:fpctrl.obj
 0001:000b7430       ___ctrlfp_sse2             004b8430 f   LIBCMT:fpctrl.obj
 0001:000b7464       ___set_statfp_sse2         004b8464 f   LIBCMT:fpctrl.obj
 0001:000b747a       __EH_prolog3               004b847a f   LIBCMT:ehprolg3.obj
 0001:000b74ad       __EH_prolog3_catch         004b84ad f   LIBCMT:ehprolg3.obj
 0001:000b74e3       __EH_prolog3_GS            004b84e3 f   LIBCMT:ehprolg3.obj
 0001:000b7519       __EH_prolog3_catch_GS      004b8519 f   LIBCMT:ehprolg3.obj
 0001:000b7552       __EH_epilog3               004b8552 f   LIBCMT:ehprolg3.obj
 0001:000b7566       __EH_epilog3_GS            004b8566 f   LIBCMT:ehprolg3.obj
 0001:000b7575       __EH_epilog3_catch_GS      004b8575 f   LIBCMT:ehprolg3.obj
 0001:000b7584       ?_ValidateRead@@YAHPBXI@Z  004b8584 f   LIBCMT:validate.obj
 0001:000b7591       ?_ValidateWrite@@YAHPAXI@Z 004b8591 f   LIBCMT:validate.obj
 0001:000b759e       ?_ValidateExecute@@YAHP6GHXZ@Z 004b859e f   LIBCMT:validate.obj
 0001:000b75ab       ___ansicp                  004b85ab f   LIBCMT:convrtcp.obj
 0001:000b75f2       ___convertcp               004b85f2 f   LIBCMT:convrtcp.obj
 0001:000b77a4       __mbsrchr_l                004b87a4 f   LIBCMT:mbsrchr.obj
 0001:000b7864       __mbsrchr                  004b8864 f   LIBCMT:mbsrchr.obj
 0001:000b7877       __set_daylight             004b8877 f i LIBCMT:tzset.obj
 0001:000b7883       __set_dstbias              004b8883 f i LIBCMT:tzset.obj
 0001:000b788f       __set_timezone             004b888f f i LIBCMT:tzset.obj
 0001:000b7f87       ___tzset                   004b8f87 f   LIBCMT:tzset.obj
 0001:000b7fd6       __tzset                    004b8fd6 f   LIBCMT:tzset.obj
 0001:000b800e       __isindst                  004b900e f   LIBCMT:tzset.obj
 0001:000b804f       __get_daylight             004b904f f   LIBCMT:timeset.obj
 0001:000b8083       __get_dstbias              004b9083 f   LIBCMT:timeset.obj
 0001:000b80b7       __get_timezone             004b90b7 f   LIBCMT:timeset.obj
 0001:000b80eb       __get_tzname               004b90eb f   LIBCMT:timeset.obj
 0001:000b818d       ___daylight                004b918d f   LIBCMT:timeset.obj
 0001:000b8193       ___dstbias                 004b9193 f   LIBCMT:timeset.obj
 0001:000b8199       ___timezone                004b9199 f   LIBCMT:timeset.obj
 0001:000b819f       ___tzname                  004b919f f   LIBCMT:timeset.obj
 0001:000b81a5       __wcsnicoll_l              004b91a5 f   LIBCMT:wcsnicol.obj
 0001:000b82e6       __wcsnicoll                004b92e6 f   LIBCMT:wcsnicol.obj
 0001:000b8388       _wcscpy_s                  004b9388 f   LIBCMT:wcscpy_s.obj
 0001:000b83f4       ___mbtow_environ           004b93f4 f   LIBCMT:mbtowenv.obj
 0001:000b8479       __wsetenvp                 004b9479 f   LIBCMT:wstdenvp.obj
 0001:000b8553       ___crtGetEnvironmentStringsW 004b9553 f   LIBCMT:w_env.obj
 0001:000b86b4       _wcschr                    004b96b4 f   LIBCMT:wcschr.obj
 0001:000b86d6       __dospawn                  004b96d6 f   LIBCMT:dospawn.obj
 0001:000b88e3       __invoke_watson_if_oneof   004b98e3 f i LIBCMT:cenvarg.obj
 0001:000b8914       __cenvarg                  004b9914 f   LIBCMT:cenvarg.obj
 0001:000b908e       ___crtCompareStringA       004ba08e f   LIBCMT:a_cmp.obj
 0001:000b90ce       __strnicoll_l              004ba0ce f   LIBCMT:strnicol.obj
 0001:000b91c6       __strnicoll                004ba1c6 f   LIBCMT:strnicol.obj
 0001:000b923e       __ismbbkalnum_l            004ba23e f   LIBCMT:ismbbyte.obj
 0001:000b9253       __ismbbkalnum              004ba253 f   LIBCMT:ismbbyte.obj
 0001:000b9266       __ismbbkprint_l            004ba266 f   LIBCMT:ismbbyte.obj
 0001:000b927b       __ismbbkprint              004ba27b f   LIBCMT:ismbbyte.obj
 0001:000b928e       __ismbbkpunct_l            004ba28e f   LIBCMT:ismbbyte.obj
 0001:000b92a3       __ismbbkpunct              004ba2a3 f   LIBCMT:ismbbyte.obj
 0001:000b92b6       __ismbbalnum_l             004ba2b6 f   LIBCMT:ismbbyte.obj
 0001:000b92ce       __ismbbalnum               004ba2ce f   LIBCMT:ismbbyte.obj
 0001:000b92e4       __ismbbalpha_l             004ba2e4 f   LIBCMT:ismbbyte.obj
 0001:000b92fc       __ismbbalpha               004ba2fc f   LIBCMT:ismbbyte.obj
 0001:000b9312       __ismbbgraph_l             004ba312 f   LIBCMT:ismbbyte.obj
 0001:000b932a       __ismbbgraph               004ba32a f   LIBCMT:ismbbyte.obj
 0001:000b9340       __ismbbprint_l             004ba340 f   LIBCMT:ismbbyte.obj
 0001:000b9358       __ismbbprint               004ba358 f   LIBCMT:ismbbyte.obj
 0001:000b936e       __ismbbpunct_l             004ba36e f   LIBCMT:ismbbyte.obj
 0001:000b9383       __ismbbpunct               004ba383 f   LIBCMT:ismbbyte.obj
 0001:000b9396       __ismbblead_l              004ba396 f   LIBCMT:ismbbyte.obj
 0001:000b93ab       __ismbblead                004ba3ab f   LIBCMT:ismbbyte.obj
 0001:000b93be       __ismbbtrail_l             004ba3be f   LIBCMT:ismbbyte.obj
 0001:000b93d3       __ismbbtrail               004ba3d3 f   LIBCMT:ismbbyte.obj
 0001:000b93e6       __ismbbkana_l              004ba3e6 f   LIBCMT:ismbbyte.obj
 0001:000b9439       __ismbbkana                004ba439 f   LIBCMT:ismbbyte.obj
 0001:000b9447       __iswctype_l               004ba447 f   LIBCMT:iswctype.obj
 0001:000b94c9       _iswctype                  004ba4c9 f   LIBCMT:iswctype.obj
 0001:000b9537       _is_wctype                 004ba537 f   LIBCMT:iswctype.obj
 0001:000b953c       __fputwc_nolock            004ba53c f   LIBCMT:fputwc.obj
 0001:000b971a       _fputwc                    004ba71a f   LIBCMT:fputwc.obj
 0001:000b9792       _putwc                     004ba792 f   LIBCMT:fputwc.obj
 0001:000b9797       __wchartodigit             004ba797 f   LIBCMT:wchtodig.obj
 0001:000b9919       __copysign                 004ba919 f   LIBCMT:ieeemisc.obj
 0001:000b993f       __chgsign                  004ba93f f   LIBCMT:ieeemisc.obj
 0001:000b996a       __scalb                    004ba96a f   LIBCMT:ieeemisc.obj
 0001:000b9980       __logb                     004ba980 f   LIBCMT:ieeemisc.obj
 0001:000b9a63       __nextafter                004baa63 f   LIBCMT:ieeemisc.obj
 0001:000b9cf8       __finite                   004bacf8 f   LIBCMT:ieeemisc.obj
 0001:000b9d0d       __isnan                    004bad0d f   LIBCMT:ieeemisc.obj
 0001:000b9d3b       __fpclass                  004bad3b f   LIBCMT:ieeemisc.obj
 0001:000b9f26       ?_RTC_GetSrcLine@@YAHPAEPA_WKPAH1K@Z 004baf26 f   LIBCMT:pdblkup.obj
 0001:000ba19c       _$I10_OUTPUT               004bb19c f   LIBCMT:x10fout.obj
 0001:000baa62       __set_controlfp            004bba62 f   LIBCMT:ieee87.obj
 0001:000badb8       __statusfp                 004bbdb8 f   LIBCMT:ieee87.obj
 0001:000bae48       __fpreset                  004bbe48 f   LIBCMT:ieee87.obj
 0001:000bb078       __statusfp2                004bc078 f   LIBCMT:ieee87.obj
 0001:000bb0d0       __clearfp                  004bc0d0 f   LIBCMT:ieee87.obj
 0001:000bb1a7       ___control87_2             004bc1a7 f   LIBCMT:ieee87.obj
 0001:000bb4b1       __control87                004bc4b1 f i LIBCMT:ieee87.obj
 0001:000bb7b4       __controlfp                004bc7b4 f   LIBCMT:ieee87.obj
 0001:000bbabd       __chsize_nolock            004bcabd f   LIBCMT:chsize.obj
 0001:000bbc71       __chsize_s                 004bcc71 f   LIBCMT:chsize.obj
 0001:000bbd5e       __chsize                   004bcd5e f   LIBCMT:chsize.obj
 0001:000bbd76       __setmode_nolock           004bcd76 f   LIBCMT:setmode.obj
 0001:000bbe32       __set_fmode                004bce32 f   LIBCMT:setmode.obj
 0001:000bbe78       __get_fmode                004bce78 f   LIBCMT:setmode.obj
 0001:000bbeac       __setmode                  004bceac f   LIBCMT:setmode.obj
 0001:000bbfa3       ___ascii_stricmp           004bcfa3 f   LIBCMT:stricmp.obj
 0001:000bbfd8       __stricmp_l                004bcfd8 f   LIBCMT:stricmp.obj
 0001:000bc0ab       __stricmp                  004bd0ab f   LIBCMT:stricmp.obj
 0001:000bc0ab       _stricmp                   004bd0ab f   LIBCMT:stricmp.obj
 0001:000bc0ab       _strcmpi                   004bd0ab f   LIBCMT:stricmp.obj
 0001:000bc0fb       __strnicmp_l               004bd0fb f   LIBCMT:strnicmp.obj
 0001:000bc1eb       __strnicmp                 004bd1eb f   LIBCMT:strnicmp.obj
 0001:000bc1eb       _strnicmp                  004bd1eb f   LIBCMT:strnicmp.obj
 0001:000bc322       __itoa_s                   004bd322 f   LIBCMT:xtoas.obj
 0001:000bc34a       __ltoa_s                   004bd34a f   LIBCMT:xtoas.obj
 0001:000bc36f       __ultoa_s                  004bd36f f   LIBCMT:xtoas.obj
 0001:000bc47d       __i64toa_s                 004bd47d f   LIBCMT:xtoas.obj
 0001:000bc4b0       __ui64toa_s                004bd4b0 f   LIBCMT:xtoas.obj
 0001:000bc4cd       ___initconin               004bd4cd f   LIBCMT:initcon.obj
 0001:000bc4ec       ___initconout              004bd4ec f   LIBCMT:initcon.obj
 0001:000bc50b       ___termcon                 004bd50b f   LIBCMT:initcon.obj
 0001:000bc7a4       ___crtCompareStringW       004bd7a4 f   LIBCMT:w_cmp.obj
 0001:000bc7e4       __mbsnicmp_l               004bd7e4 f   LIBCMT:mbsnicmp.obj
 0001:000bc9ad       __mbsnicmp                 004bd9ad f   LIBCMT:mbsnicmp.obj
 0001:000bcbe8       ___crtGetStringTypeW       004bdbe8 f   LIBCMT:w_str.obj
 0001:000bcc26       __flswbuf                  004bdc26 f   LIBCMT:_flswbuf.obj
 0001:000bcd96       _ldexp                     004bdd96 f   LIBCMT:ldexp.obj
 0001:000bcf50       ___ascii_strnicmp          004bdf50 f   LIBCMT:_strnicm.obj
 0001:000bcfb1       ??0invalid_argument@std@@QAE@ABV?$basic_string@DU?$char_traits@D@std@@V?$allocator@D@2@@1@@Z 004bdfb1 f i libcpmt:string.obj
 0001:000bcfc9       ??1invalid_argument@std@@UAE@XZ 004bdfc9 f i libcpmt:string.obj
 0001:000bcfd4       ??_Ginvalid_argument@std@@UAEPAXI@Z 004bdfd4 f i libcpmt:string.obj
 0001:000bcfd4       ??_Einvalid_argument@std@@UAEPAXI@Z 004bdfd4 f i libcpmt:string.obj
 0001:000bcff6       ??0out_of_range@std@@QAE@ABV?$basic_string@DU?$char_traits@D@std@@V?$allocator@D@2@@1@@Z 004bdff6 f i libcpmt:string.obj
 0001:000bd00e       ??1out_of_range@std@@UAE@XZ 004be00e f i libcpmt:string.obj
 0001:000bd019       ??_Eout_of_range@std@@UAEPAXI@Z 004be019 f i libcpmt:string.obj
 0001:000bd019       ??_Gout_of_range@std@@UAEPAXI@Z 004be019 f i libcpmt:string.obj
 0001:000bd03b       ?_Xlen@_String_base@std@@SAXXZ 004be03b f   libcpmt:string.obj
 0001:000bd07a       ?_Xran@_String_base@std@@SAXXZ 004be07a f   libcpmt:string.obj
 0001:000bd0b9       ??0out_of_range@std@@QAE@ABV01@@Z 004be0b9 f i libcpmt:string.obj
 0001:000bd0d1       ?_Xinvarg@_String_base@std@@SAXXZ 004be0d1 f   libcpmt:string.obj
 0001:000bd110       ??0invalid_argument@std@@QAE@ABV01@@Z 004be110 f i libcpmt:string.obj
 0001:000bd128       ??0_Init_locks@std@@QAE@XZ 004be128 f   libcpmt:xlock.obj
 0001:000bd157       ??1_Init_locks@std@@QAE@XZ 004be157 f   libcpmt:xlock.obj
 0001:000bd180       ?_Init_locks_ctor@_Init_locks@std@@CAXPAV12@@Z 004be180 f   libcpmt:xlock.obj
 0001:000bd1a9       ?_Init_locks_dtor@_Init_locks@std@@CAXPAV12@@Z 004be1a9 f   libcpmt:xlock.obj
 0001:000bd1d2       ??0_Lockit@std@@QAE@XZ     004be1d2 f   libcpmt:xlock.obj
 0001:000bd1e7       ??0_Lockit@std@@QAE@H@Z    004be1e7 f   libcpmt:xlock.obj
 0001:000bd208       ??1_Lockit@std@@QAE@XZ     004be208 f   libcpmt:xlock.obj
 0001:000bd21a       ?_Lockit_ctor@_Lockit@std@@CAXPAV12@@Z 004be21a f   libcpmt:xlock.obj
 0001:000bd226       ?_Lockit_ctor@_Lockit@std@@CAXPAV12@H@Z 004be226 f   libcpmt:xlock.obj
 0001:000bd243       ?_Lockit_dtor@_Lockit@std@@CAXPAV12@@Z 004be243 f   libcpmt:xlock.obj
 0001:000bd259       ?_Lockit_ctor@_Lockit@std@@SAXH@Z 004be259 f   libcpmt:xlock.obj
 0001:000bd270       ?_Lockit_dtor@_Lockit@std@@SAXH@Z 004be270 f   libcpmt:xlock.obj
 0001:000bd287       ?_Callfns@ios_base@std@@AAEXW4event@12@@Z 004be287 f i libcpmt:ios.obj
 0001:000bd2a9       ?_Tidy@ios_base@std@@AAAXXZ 004be2a9 f i libcpmt:ios.obj
 0001:000bd2ef       ?_Fpz_func@std@@YAAA_JXZ   004be2ef f   libcpmt:ios.obj
 0001:000bd2f5       ?_BADOFF_func@std@@YAABJXZ 004be2f5 f   libcpmt:ios.obj
 0001:000bd2fb       ?_Index_func@ios_base@std@@CAAAHXZ 004be2fb f   libcpmt:ios.obj
 0001:000bd301       ?_Sync_func@ios_base@std@@CAAA_NXZ 004be301 f   libcpmt:ios.obj
 0001:000bd307       ?_Addstd@ios_base@std@@SAXPAV12@@Z 004be307 f   libcpmt:ios.obj
 0001:000bd357       ?_Ios_base_dtor@ios_base@std@@CAXPAV12@@Z 004be357 f   libcpmt:ios.obj
 0001:000bd395       ??0_Mutex@std@@QAE@XZ      004be395 f   libcpmt:xmutex.obj
 0001:000bd3ad       ??1_Mutex@std@@QAE@XZ      004be3ad f   libcpmt:xmutex.obj
 0001:000bd3c2       ?_Lock@_Mutex@std@@QAEXXZ  004be3c2 f   libcpmt:xmutex.obj
 0001:000bd3cb       ?_Unlock@_Mutex@std@@QAEXXZ 004be3cb f   libcpmt:xmutex.obj
 0001:000bd3d4       ?_Mutex_ctor@_Mutex@std@@CAXPAV12@@Z 004be3d4 f   libcpmt:xmutex.obj
 0001:000bd3ea       ?_Mutex_dtor@_Mutex@std@@CAXPAV12@@Z 004be3ea f   libcpmt:xmutex.obj
 0001:000bd401       ?_Mutex_Lock@_Mutex@std@@CAXPAV12@@Z 004be401 f   libcpmt:xmutex.obj
 0001:000bd40e       ?_Mutex_Unlock@_Mutex@std@@CAXPAV12@@Z 004be40e f   libcpmt:xmutex.obj
 0001:000bd41b       ??0locale@std@@QAE@W4_Uninitialized@1@@Z 004be41b f i libcpmt:locale0.obj
 0001:000bd420       ??0locale@std@@AAE@PAV_Locimp@01@@Z 004be420 f i libcpmt:locale0.obj
 0001:000bd42b       ??0_Fac_node@std@@QAE@PAU01@PAVfacet@locale@1@@Z 004be42b f i libcpmt:locale0.obj
 0001:000bd43d       ??1_Fac_node@std@@QAE@XZ   004be43d f i libcpmt:locale0.obj
 0001:000bd452       ??_G_Fac_node@std@@QAEPAXI@Z 004be452 f i libcpmt:locale0.obj
 0001:000bd46e       __Deletegloballocale       004be46e f   libcpmt:locale0.obj
 0001:000bd4b4       ?_Getgloballocale@locale@std@@CAPAV_Locimp@12@XZ 004be4b4 f   libcpmt:locale0.obj
 0001:000bd4ba       ?_Setgloballocale@locale@std@@CAXPAX@Z 004be4ba f   libcpmt:locale0.obj
 0001:000bd4df       ?_Clocptr_func@_Locimp@locale@std@@CAAAPAV123@XZ 004be4df f   libcpmt:locale0.obj
 0001:000bd4e5       ?_Id_cnt_func@id@locale@std@@CAAAHXZ 004be4e5 f   libcpmt:locale0.obj
 0001:000bd4eb       ?_Id_func@?$ctype@D@std@@SAAAVid@locale@2@XZ 004be4eb f   libcpmt:locale0.obj
 0001:000bd4f1       ?_Id_func@?$ctype@_W@std@@SAAAVid@locale@2@XZ 004be4f1 f   libcpmt:locale0.obj
 0001:000bd4f7       ?_Id_func@?$codecvt@_WDH@std@@SAAAVid@locale@2@XZ 004be4f7 f   libcpmt:locale0.obj
 0001:000bd4fd       ?_Id_func@?$ctype@G@std@@SAAAVid@locale@2@XZ 004be4fd f   libcpmt:locale0.obj
 0001:000bd503       ?_Id_func@?$codecvt@GDH@std@@SAAAVid@locale@2@XZ 004be503 f   libcpmt:locale0.obj
 0001:000bd509       ?_Locimp_dtor@_Locimp@locale@std@@CAXPAV123@@Z 004be509 f   libcpmt:locale0.obj
 0001:000bd569       __Fac_tidy                 004be569 f   libcpmt:locale0.obj
 0001:000bd5ac       ?facet_Register@facet@locale@std@@CAXPAV123@@Z 004be5ac f   libcpmt:locale0.obj
 0001:000bd5e5       ?_Locinfo_dtor@_Locinfo@std@@SAXPAV12@@Z 004be5e5 f   libcpmt:locale0.obj
 0001:000bd608       ??4?$basic_string@DU?$char_traits@D@std@@V?$allocator@D@2@@std@@QAEAAV01@PBD@Z 004be608 f i libcpmt:locale0.obj
 0001:000bd60d       ??0_Locimp@locale@std@@AAE@_N@Z 004be60d f i libcpmt:locale0.obj
 0001:000bd656       ??1_Locimp@locale@std@@MAE@XZ 004be656 f i libcpmt:locale0.obj
 0001:000bd693       ??_G_Locimp@locale@std@@MAEPAXI@Z 004be693 f i libcpmt:locale0.obj
 0001:000bd693       ??_E_Locimp@locale@std@@MAEPAXI@Z 004be693 f i libcpmt:locale0.obj
 0001:000bd6af       ?_Init@locale@std@@CAPAV_Locimp@12@XZ 004be6af f   libcpmt:locale0.obj
 0001:000bd749       ?_Locinfo_ctor@_Locinfo@std@@SAXPAV12@PBD@Z 004be749 f   libcpmt:locale0.obj
 0001:000bd793       ?classic@locale@std@@SAABV12@XZ 004be793 f   libcpmt:locale0.obj
 0001:000bd79e       ?empty@locale@std@@SA?AV12@XZ 004be79e f   libcpmt:locale0.obj
 0001:000bd7e0       __Tolower                  004be7e0 f   libcpmt:_tolower.obj
 0001:000bd8ef       __Getctype                 004be8ef f   libcpmt:_tolower.obj
 0001:000bd94a       __Toupper                  004be94a f   libcpmt:_toupper.obj
 0001:000bda5e       ?_Xfsopen@std@@YAPAU_iobuf@@PB_W0H@Z 004bea5e f   libcpmt:fiopen.obj
 0001:000bdb13       ?_Fiopen@std@@YAPAU_iobuf@@PB_WHH@Z 004beb13 f   libcpmt:fiopen.obj
 0001:000bdbc8       ?_Fiopen@std@@YAPAU_iobuf@@PBGHH@Z 004bebc8 f   libcpmt:fiopen.obj
 0001:000bdbcd       ?_Fiopen@std@@YAPAU_iobuf@@PBDHH@Z 004bebcd f   libcpmt:fiopen.obj
 0001:000bdc28       __Once                     004bec28 f   libcpmt:xmtx.obj
 0001:000bdc5f       __Mtxinit                  004bec5f f   libcpmt:xmtx.obj
 0001:000bdc6a       __Mtxdst                   004bec6a f   libcpmt:xmtx.obj
 0001:000bdc75       __Mtxlock                  004bec75 f   libcpmt:xmtx.obj
 0001:000bdc80       __Mtxunlock                004bec80 f   libcpmt:xmtx.obj
 0001:000bdc8b       ?_Atexit@@YAXP6AXXZ@Z      004bec8b f   libcpmt:iosptrs.obj
 0001:000bdcab       ??1_Init_atexit@@QAE@XZ    004becab f i libcpmt:iosptrs.obj
 0001:000bdcd0       _MultiByteToWideChar@24    004becd0 f   kernel32:KERNEL32.dll
 0001:000bdcd6       _WideCharToMultiByte@32    004becd6 f   kernel32:KERNEL32.dll
 0001:000bdcdc       _DeleteCriticalSection@4   004becdc f   kernel32:KERNEL32.dll
 0001:000bdce2       _GetProcAddress@8          004bece2 f   kernel32:KERNEL32.dll
 0001:000bdce8       _LoadLibraryA@4            004bece8 f   kernel32:KERNEL32.dll
 0001:000bdcee       _FreeLibrary@4             004becee f   kernel32:KERNEL32.dll
 0001:000bdcf4       _UnhandledExceptionFilter@4 004becf4 f   kernel32:KERNEL32.dll
 0001:000bdcfa       _IsDebuggerPresent@0       004becfa f   kernel32:KERNEL32.dll
 0001:000bdd00       _RaiseException@16         004bed00 f   kernel32:KERNEL32.dll
 0001:000bdd06       _RtlUnwind@16              004bed06 f   kernel32:KERNEL32.dll
 0001:000bdd0c       _ExitProcess@4             004bed0c f   kernel32:KERNEL32.dll
 0001:000bdd12       _GetLastError@0            004bed12 f   kernel32:KERNEL32.dll
 0001:000bdd18       _DeleteFileA@4             004bed18 f   kernel32:KERNEL32.dll
 0001:000bdd1e       _FindClose@4               004bed1e f   kernel32:KERNEL32.dll
 0001:000bdd24       _FileTimeToSystemTime@8    004bed24 f   kernel32:KERNEL32.dll
 0001:000bdd2a       _FileTimeToLocalFileTime@8 004bed2a f   kernel32:KERNEL32.dll
 0001:000bdd30       _GetDriveTypeA@4           004bed30 f   kernel32:KERNEL32.dll
 0001:000bdd36       _FindFirstFileA@8          004bed36 f   kernel32:KERNEL32.dll
 0001:000bdd3c       _GetFullPathNameA@16       004bed3c f   kernel32:KERNEL32.dll
 0001:000bdd42       _CreateDirectoryA@8        004bed42 f   kernel32:KERNEL32.dll
 0001:000bdd48       _FindNextFileA@8           004bed48 f   kernel32:KERNEL32.dll
 0001:000bdd4e       _GetFileAttributesA@4      004bed4e f   kernel32:KERNEL32.dll
 0001:000bdd54       _SetEnvironmentVariableA@8 004bed54 f   kernel32:KERNEL32.dll
 0001:000bdd5a       _GetCurrentDirectoryA@8    004bed5a f   kernel32:KERNEL32.dll
 0001:000bdd60       _SetCurrentDirectoryA@4    004bed60 f   kernel32:KERNEL32.dll
 0001:000bdd66       _GetCommandLineA@0         004bed66 f   kernel32:KERNEL32.dll
 0001:000bdd6c       _HeapFree@12               004bed6c f   kernel32:KERNEL32.dll
 0001:000bdd72       _GetVersionExA@4           004bed72 f   kernel32:KERNEL32.dll
 0001:000bdd78       _SetHandleCount@4          004bed78 f   kernel32:KERNEL32.dll
 0001:000bdd7e       _GetFileType@4             004bed7e f   kernel32:KERNEL32.dll
 0001:000bdd84       _GetStartupInfoA@4         004bed84 f   kernel32:KERNEL32.dll
 0001:000bdd8a       _TlsGetValue@4             004bed8a f   kernel32:KERNEL32.dll
 0001:000bdd90       _TlsAlloc@0                004bed90 f   kernel32:KERNEL32.dll
 0001:000bdd96       _TlsSetValue@8             004bed96 f   kernel32:KERNEL32.dll
 0001:000bdd9c       _TlsFree@4                 004bed9c f   kernel32:KERNEL32.dll
 0001:000bdda2       _InterlockedIncrement@4    004beda2 f   kernel32:KERNEL32.dll
 0001:000bdda8       _SetLastError@4            004beda8 f   kernel32:KERNEL32.dll
 0001:000bddae       _GetCurrentThreadId@0      004bedae f   kernel32:KERNEL32.dll
 0001:000bddb4       _InterlockedDecrement@4    004bedb4 f   kernel32:KERNEL32.dll
 0001:000bddba       _GetCurrentThread@0        004bedba f   kernel32:KERNEL32.dll
 0001:000bddc0       _GetCPInfo@8               004bedc0 f   kernel32:KERNEL32.dll
 0001:000bddc6       _GetACP@0                  004bedc6 f   kernel32:KERNEL32.dll
 0001:000bddcc       _GetOEMCP@0                004bedcc f   kernel32:KERNEL32.dll
 0001:000bddd2       _IsValidCodePage@4         004bedd2 f   kernel32:KERNEL32.dll
 0001:000bddd8       _WriteFile@20              004bedd8 f   kernel32:KERNEL32.dll
 0001:000bddde       _GetConsoleCP@0            004bedde f   kernel32:KERNEL32.dll
 0001:000bdde4       _GetConsoleMode@8          004bede4 f   kernel32:KERNEL32.dll
 0001:000bddea       _LCMapStringA@24           004bedea f   kernel32:KERNEL32.dll
 0001:000bddf0       _LCMapStringW@24           004bedf0 f   kernel32:KERNEL32.dll
 0001:000bddf6       _FatalAppExitA@8           004bedf6 f   kernel32:KERNEL32.dll
 0001:000bddfc       _SetConsoleCtrlHandler@8   004bedfc f   kernel32:KERNEL32.dll
 0001:000bde02       _InterlockedExchange@8     004bee02 f   kernel32:KERNEL32.dll
 0001:000bde08       _SetFilePointer@16         004bee08 f   kernel32:KERNEL32.dll
 0001:000bde0e       _ReadFile@20               004bee0e f   kernel32:KERNEL32.dll
 0001:000bde14       _FlushFileBuffers@4        004bee14 f   kernel32:KERNEL32.dll
 0001:000bde1a       _SetEnvironmentVariableW@8 004bee1a f   kernel32:KERNEL32.dll
 0001:000bde20       _FreeEnvironmentStringsA@4 004bee20 f   kernel32:KERNEL32.dll
 0001:000bde26       _GetEnvironmentStrings@0   004bee26 f   kernel32:KERNEL32.dll
 0001:000bde2c       _FreeEnvironmentStringsW@4 004bee2c f   kernel32:KERNEL32.dll
 0001:000bde32       _GetEnvironmentStringsW@0  004bee32 f   kernel32:KERNEL32.dll
 0001:000bde38       _QueryPerformanceCounter@4 004bee38 f   kernel32:KERNEL32.dll
 0001:000bde3e       _GetTickCount@0            004bee3e f   kernel32:KERNEL32.dll
 0001:000bde44       _GetCurrentProcessId@0     004bee44 f   kernel32:KERNEL32.dll
 0001:000bde4a       _GetSystemTimeAsFileTime@4 004bee4a f   kernel32:KERNEL32.dll
 0001:000bde50       _DebugBreak@0              004bee50 f   kernel32:KERNEL32.dll
 0001:000bde56       _lstrlenA@4                004bee56 f   kernel32:KERNEL32.dll
 0001:000bde5c       _SetStdHandle@8            004bee5c f   kernel32:KERNEL32.dll
 0001:000bde62       _CreateFileA@28            004bee62 f   kernel32:KERNEL32.dll
 0001:000bde68       _GetStringTypeA@20         004bee68 f   kernel32:KERNEL32.dll
 0001:000bde6e       _GetStringTypeW@16         004bee6e f   kernel32:KERNEL32.dll
 0001:000bde74       _GetTimeFormatA@24         004bee74 f   kernel32:KERNEL32.dll
 0001:000bde7a       _GetDateFormatA@24         004bee7a f   kernel32:KERNEL32.dll
 0001:000bde80       _GetUserDefaultLCID@0      004bee80 f   kernel32:KERNEL32.dll
 0001:000bde86       _GetLocaleInfoA@16         004bee86 f   kernel32:KERNEL32.dll
 0001:000bde8c       _EnumSystemLocalesA@8      004bee8c f   kernel32:KERNEL32.dll
 0001:000bde92       _IsValidLocale@8           004bee92 f   kernel32:KERNEL32.dll
 0001:000bde98       _GetLocaleInfoW@16         004bee98 f   kernel32:KERNEL32.dll
 0001:000bde9e       _WriteConsoleA@20          004bee9e f   kernel32:KERNEL32.dll
 0001:000bdea4       _GetConsoleOutputCP@0      004beea4 f   kernel32:KERNEL32.dll
 0001:000bdeaa       _WriteConsoleW@20          004beeaa f   kernel32:KERNEL32.dll
 0001:000bdeb0       _GetTimeZoneInformation@4  004beeb0 f   kernel32:KERNEL32.dll
 0001:000bdeb6       _GetExitCodeProcess@8      004beeb6 f   kernel32:KERNEL32.dll
 0001:000bdebc       _WaitForSingleObject@8     004beebc f   kernel32:KERNEL32.dll
 0001:000bdec2       _CreateProcessA@40         004beec2 f   kernel32:KERNEL32.dll
 0001:000bdec8       _CompareStringA@24         004beec8 f   kernel32:KERNEL32.dll
 0001:000bdece       _CompareStringW@24         004beece f   kernel32:KERNEL32.dll
 0001:000bded4       _GetModuleFileNameW@12     004beed4 f   kernel32:KERNEL32.dll
 0001:000bdeda       _SetEndOfFile@4            004beeda f   kernel32:KERNEL32.dll
 0001:000bdee0       ?ImageFormatInfo@ImageLoader@@YAABUImageFormatInfo_t@@W4ImageFormat@@@Z 004beee0 f   bitmap:imageformat.obj
 0001:000bdf00       ?GetMipMapLevelDimensions@ImageLoader@@YAXPAH0H@Z 004bef00 f   bitmap:imageformat.obj
 0001:000bdf50       ?GetNumMipMapLevels@ImageLoader@@YAHHHH@Z 004bef50 f   bitmap:imageformat.obj
 0001:000bdfc0       ?GetMemRequired@ImageLoader@@YAHHHHW4ImageFormat@@_N@Z 004befc0 f   bitmap:imageformat.obj
 0001:000be0c0       ?GetMipMapLevelByteOffset@ImageLoader@@YAHHHW4ImageFormat@@H@Z 004bf0c0 f   bitmap:imageformat.obj
 0001:000be130       ??4BGRA8888_t@@QAEAAU0@ABU0@@Z 004bf130 f i bitmap:colorconversion.obj
 0001:000be140       ??4RGBA8888_t@@QAEAAU0@ABUBGRA8888_t@@@Z 004bf140 f i bitmap:colorconversion.obj
 0001:000be170       ??4RGB888_t@@QAEAAU0@ABUBGRA8888_t@@@Z 004bf170 f i bitmap:colorconversion.obj
 0001:000be190       ??4BGR888_t@@QAEAAU0@ABUBGRA8888_t@@@Z 004bf190 f i bitmap:colorconversion.obj
 0001:000be1b0       ??4BGR565_t@@QAEAAU0@ABUBGRA8888_t@@@Z 004bf1b0 f i bitmap:colorconversion.obj
 0001:000be210       ??4BGRA5551_t@@QAEAAU0@ABUBGRA8888_t@@@Z 004bf210 f i bitmap:colorconversion.obj
 0001:000be290       ??4BGRA4444_t@@QAEAAU0@ABUBGRA8888_t@@@Z 004bf290 f i bitmap:colorconversion.obj
 0001:000be310       ?IsNaN@float16@@KA_NTfloat16bits@1@@Z 004bf310 f i bitmap:colorconversion.obj
 0001:000be340       ?IsInfinity@float16@@KA_NTfloat16bits@1@@Z 004bf340 f i bitmap:colorconversion.obj
 0001:000be370       ?ConvertFloatTo16bits@float16@@KAGM@Z 004bf370 f i bitmap:colorconversion.obj
 0001:000be4b0       ?Convert16bitFloatTo32bits@float16@@KAMG@Z 004bf4b0 f i bitmap:colorconversion.obj
 0001:000be790       ?ConvertToDXT@ImageLoader@@YA_NPAEW4ImageFormat@@01HHHH@Z 004bf790 f   bitmap:colorconversion.obj
 0001:000be970       ?ConvertImageFormat_RGBA16161616_To_RGB323232F@ImageLoader@@YAXPAGPAMHH@Z 004bf970 f   bitmap:colorconversion.obj
 0001:000bead0       ?ConvertImageFormat_RGB323232F_To_RGBA16161616@ImageLoader@@YAXPAMPAGHH@Z 004bfad0 f   bitmap:colorconversion.obj
 0001:000bebe0       ?ConvertIA88ImageToNormalMapRGBA8888@ImageLoader@@YAXPAEHH0M@Z 004bfbe0 f   bitmap:colorconversion.obj
 0001:000bee00       ?ConvertNormalMapRGBA8888ToDUDVMapUVWQ8888@ImageLoader@@YAXPAEHH0@Z 004bfe00 f   bitmap:colorconversion.obj
 0001:000bee60       ?ConvertNormalMapRGBA8888ToDUDVMapUVLX8888@ImageLoader@@YAXPAEHH0@Z 004bfe60 f   bitmap:colorconversion.obj
 0001:000beeb0       ?ConvertNormalMapRGBA8888ToDUDVMapUV88@ImageLoader@@YAXPAEHH0@Z 004bfeb0 f   bitmap:colorconversion.obj
 0001:000beef0       ?NormalizeNormalMapRGBA8888@ImageLoader@@YAXPAEH@Z 004bfef0 f   bitmap:colorconversion.obj
 0001:000bf020       ?RotateImageLeft@ImageLoader@@YA_NPAE0HW4ImageFormat@@@Z 004c0020 f   bitmap:colorconversion.obj
 0001:000bf1f0       ?RotateImage180@ImageLoader@@YA_NPAE0HW4ImageFormat@@@Z 004c01f0 f   bitmap:colorconversion.obj
 0001:000bf230       ?FlipImageVertically@ImageLoader@@YA_NPAX0HHW4ImageFormat@@H@Z 004c0230 f   bitmap:colorconversion.obj
 0001:000bf320       ?FlipImageHorizontally@ImageLoader@@YA_NPAX0HHW4ImageFormat@@H@Z 004c0320 f   bitmap:colorconversion.obj
 0001:000bf490       ?SwapAxes@ImageLoader@@YA_NPAEHW4ImageFormat@@@Z 004c0490 f   bitmap:colorconversion.obj
 0001:000c1570       ?GetFloat@float16@@QBEMXZ  004c2570 f i bitmap:colorconversion.obj
 0001:000c1580       ?SetFloat@float16@@QAEXM@Z 004c2580 f i bitmap:colorconversion.obj
 0001:000c1790       ?ConvertImageFormat_RGBA16161616F_To_RGB323232F@ImageLoader@@YAXPAVfloat16@@PAMHH@Z 004c2790 f   bitmap:colorconversion.obj
 0001:000c17f0       ?ConvertImageFormat_RGB323232F_To_RGBA16161616F@ImageLoader@@YAXPAMPAVfloat16@@HH@Z 004c27f0 f   bitmap:colorconversion.obj
 0001:000c1850       ?ConvertImageFormat_RGBA16161616_To_RGBA16161616F@ImageLoader@@YAXPAGPAMHH@Z 004c2850 f   bitmap:colorconversion.obj
 0001:000c1930       ?ConvertImageFormat_RGBA16161616F_To_RGBA16161616@ImageLoader@@YAXPAVfloat16@@PAGHH@Z 004c2930 f   bitmap:colorconversion.obj
 0001:000c2e30       ?ConvertImageFormat@ImageLoader@@YA_NPAEW4ImageFormat@@01HHHH@Z 004c3e30 f   bitmap:colorconversion.obj
 0001:000c3540       ?ConstructGammaTable@ImageLoader@@YAXPAEMM@Z 004c4540 f   bitmap:resample.obj
 0001:000c35d0       ?GammaCorrectRGBA8888@ImageLoader@@YAXPAE0HHH0@Z 004c45d0 f   bitmap:resample.obj
 0001:000c36b0       ?GammaCorrectRGBA8888@ImageLoader@@YAXPAE0HHHMM@Z 004c46b0 f   bitmap:resample.obj
 0001:000c3bf0       ?IsPowerOfTwo@ImageLoader@@YA_NH@Z 004c4bf0 f i bitmap:resample.obj
 0001:000c3c10       ?ResampleRGBA8888@ImageLoader@@YA_NABUResampleInfo_t@1@@Z 004c4c10 f   bitmap:resample.obj
 0001:000c3fe0       ?ResampleRGBA16161616@ImageLoader@@YA_NABUResampleInfo_t@1@@Z 004c4fe0 f   bitmap:resample.obj
 0001:000c41c0       ?ResampleRGB323232F@ImageLoader@@YA_NABUResampleInfo_t@1@@Z 004c51c0 f   bitmap:resample.obj
 0001:000c4400       ?ActualX@?$CKernelWrapper@$0A@$0A@@ImageLoader@@SAHHABUResampleInfo_t@2@@Z 004c5400 f i bitmap:resample.obj
 0001:000c4430       ?ActualY@?$CKernelWrapper@$0A@$0A@@ImageLoader@@SAHHABUResampleInfo_t@2@@Z 004c5430 f i bitmap:resample.obj
 0001:000c4460       ?ActualZ@?$CKernelWrapper@$0A@$0A@@ImageLoader@@SAHHABUResampleInfo_t@2@@Z 004c5460 f i bitmap:resample.obj
 0001:000c4490       ?ActualX@?$CKernelWrapper@$00$0A@@ImageLoader@@SAHHABUResampleInfo_t@2@@Z 004c5490 f i bitmap:resample.obj
 0001:000c44c0       ?ActualY@?$CKernelWrapper@$00$0A@@ImageLoader@@SAHHABUResampleInfo_t@2@@Z 004c54c0 f i bitmap:resample.obj
 0001:000c44f0       ?ActualZ@?$CKernelWrapper@$00$0A@@ImageLoader@@SAHHABUResampleInfo_t@2@@Z 004c54f0 f i bitmap:resample.obj
 0001:000c4520       ?ActualX@?$CKernelWrapper@$01$0A@@ImageLoader@@SAHHABUResampleInfo_t@2@@Z 004c5520 f i bitmap:resample.obj
 0001:000c4550       ?ActualY@?$CKernelWrapper@$01$0A@@ImageLoader@@SAHHABUResampleInfo_t@2@@Z 004c5550 f i bitmap:resample.obj
 0001:000c4580       ?ActualZ@?$CKernelWrapper@$01$0A@@ImageLoader@@SAHHABUResampleInfo_t@2@@Z 004c5580 f i bitmap:resample.obj
 0001:000c45b0       ?ActualX@?$CKernelWrapper@$0A@$00@ImageLoader@@SAHHABUResampleInfo_t@2@@Z 004c55b0 f i bitmap:resample.obj
 0001:000c45e0       ?ActualY@?$CKernelWrapper@$0A@$00@ImageLoader@@SAHHABUResampleInfo_t@2@@Z 004c55e0 f i bitmap:resample.obj
 0001:000c4610       ?ActualZ@?$CKernelWrapper@$0A@$00@ImageLoader@@SAHHABUResampleInfo_t@2@@Z 004c5610 f i bitmap:resample.obj
 0001:000c4640       ?ActualX@?$CKernelWrapper@$00$00@ImageLoader@@SAHHABUResampleInfo_t@2@@Z 004c5640 f i bitmap:resample.obj
 0001:000c4670       ?ActualY@?$CKernelWrapper@$00$00@ImageLoader@@SAHHABUResampleInfo_t@2@@Z 004c5670 f i bitmap:resample.obj
 0001:000c46a0       ?ActualZ@?$CKernelWrapper@$00$00@ImageLoader@@SAHHABUResampleInfo_t@2@@Z 004c56a0 f i bitmap:resample.obj
 0001:000c46d0       ?ActualX@?$CKernelWrapper@$01$00@ImageLoader@@SAHHABUResampleInfo_t@2@@Z 004c56d0 f i bitmap:resample.obj
 0001:000c4700       ?ActualY@?$CKernelWrapper@$01$00@ImageLoader@@SAHHABUResampleInfo_t@2@@Z 004c5700 f i bitmap:resample.obj
 0001:000c4730       ?ActualZ@?$CKernelWrapper@$01$00@ImageLoader@@SAHHABUResampleInfo_t@2@@Z 004c5730 f i bitmap:resample.obj
 0001:000c4760       ?ComputeAveragedColor@?$CKernelWrapper@$0A@$0A@@ImageLoader@@SAXABUKernelInfo_t@2@ABUResampleInfo_t@2@HHHPAM2@Z 004c5760 f i bitmap:resample.obj
 0001:000c4940       ?AddAlphaToAlphaResult@?$CKernelWrapper@$0A@$0A@@ImageLoader@@SAXABUKernelInfo_t@2@ABUResampleInfo_t@2@HHHMPAM@Z 004c5940 f i bitmap:resample.obj
 0001:000c4a80       ?AdjustAlphaChannel@?$CKernelWrapper@$0A@$0A@@ImageLoader@@SAXABUKernelInfo_t@2@ABUResampleInfo_t@2@HHHPAM@Z 004c5a80 f i bitmap:resample.obj
 0001:000c4f30       ?ComputeAveragedColor@?$CKernelWrapper@$00$0A@@ImageLoader@@SAXABUKernelInfo_t@2@ABUResampleInfo_t@2@HHHPAM2@Z 004c5f30 f i bitmap:resample.obj
 0001:000c5110       ?AddAlphaToAlphaResult@?$CKernelWrapper@$00$0A@@ImageLoader@@SAXABUKernelInfo_t@2@ABUResampleInfo_t@2@HHHMPAM@Z 004c6110 f i bitmap:resample.obj
 0001:000c5250       ?AdjustAlphaChannel@?$CKernelWrapper@$00$0A@@ImageLoader@@SAXABUKernelInfo_t@2@ABUResampleInfo_t@2@HHHPAM@Z 004c6250 f i bitmap:resample.obj
 0001:000c5700       ?ComputeAveragedColor@?$CKernelWrapper@$01$0A@@ImageLoader@@SAXABUKernelInfo_t@2@ABUResampleInfo_t@2@HHHPAM2@Z 004c6700 f i bitmap:resample.obj
 0001:000c58c0       ?AddAlphaToAlphaResult@?$CKernelWrapper@$01$0A@@ImageLoader@@SAXABUKernelInfo_t@2@ABUResampleInfo_t@2@HHHMPAM@Z 004c68c0 f i bitmap:resample.obj
 0001:000c5a00       ?AdjustAlphaChannel@?$CKernelWrapper@$01$0A@@ImageLoader@@SAXABUKernelInfo_t@2@ABUResampleInfo_t@2@HHHPAM@Z 004c6a00 f i bitmap:resample.obj
 0001:000c5eb0       ?ComputeAveragedColor@?$CKernelWrapper@$0A@$00@ImageLoader@@SAXABUKernelInfo_t@2@ABUResampleInfo_t@2@HHHPAM2@Z 004c6eb0 f i bitmap:resample.obj
 0001:000c60a0       ?AddAlphaToAlphaResult@?$CKernelWrapper@$0A@$00@ImageLoader@@SAXABUKernelInfo_t@2@ABUResampleInfo_t@2@HHHMPAM@Z 004c70a0 f i bitmap:resample.obj
 0001:000c6220       ?AdjustAlphaChannel@?$CKernelWrapper@$0A@$00@ImageLoader@@SAXABUKernelInfo_t@2@ABUResampleInfo_t@2@HHHPAM@Z 004c7220 f i bitmap:resample.obj
 0001:000c66d0       ?ComputeAveragedColor@?$CKernelWrapper@$00$00@ImageLoader@@SAXABUKernelInfo_t@2@ABUResampleInfo_t@2@HHHPAM2@Z 004c76d0 f i bitmap:resample.obj
 0001:000c68c0       ?AddAlphaToAlphaResult@?$CKernelWrapper@$00$00@ImageLoader@@SAXABUKernelInfo_t@2@ABUResampleInfo_t@2@HHHMPAM@Z 004c78c0 f i bitmap:resample.obj
 0001:000c6a40       ?AdjustAlphaChannel@?$CKernelWrapper@$00$00@ImageLoader@@SAXABUKernelInfo_t@2@ABUResampleInfo_t@2@HHHPAM@Z 004c7a40 f i bitmap:resample.obj
 0001:000c6ef0       ?ComputeAveragedColor@?$CKernelWrapper@$01$00@ImageLoader@@SAXABUKernelInfo_t@2@ABUResampleInfo_t@2@HHHPAM2@Z 004c7ef0 f i bitmap:resample.obj
 0001:000c70e0       ?AddAlphaToAlphaResult@?$CKernelWrapper@$01$00@ImageLoader@@SAXABUKernelInfo_t@2@ABUResampleInfo_t@2@HHHMPAM@Z 004c80e0 f i bitmap:resample.obj
 0001:000c7260       ?AdjustAlphaChannel@?$CKernelWrapper@$01$00@ImageLoader@@SAXABUKernelInfo_t@2@ABUResampleInfo_t@2@HHHPAM@Z 004c8260 f i bitmap:resample.obj
 0001:000c7710       ?ApplyKernel@?$CKernelWrapper@$0A@$0A@@ImageLoader@@SAXABUKernelInfo_t@2@ABUResampleInfo_t@2@HHHPAM2@Z 004c8710 f i bitmap:resample.obj
 0001:000c79b0       ?ApplyKernel@?$CKernelWrapper@$00$0A@@ImageLoader@@SAXABUKernelInfo_t@2@ABUResampleInfo_t@2@HHHPAM2@Z 004c89b0 f i bitmap:resample.obj
 0001:000c7b90       ?ApplyKernel@?$CKernelWrapper@$01$0A@@ImageLoader@@SAXABUKernelInfo_t@2@ABUResampleInfo_t@2@HHHPAM2@Z 004c8b90 f i bitmap:resample.obj
 0001:000c7ec0       ?ApplyKernel@?$CKernelWrapper@$0A@$00@ImageLoader@@SAXABUKernelInfo_t@2@ABUResampleInfo_t@2@HHHPAM2@Z 004c8ec0 f i bitmap:resample.obj
 0001:000c8160       ?ApplyKernel@?$CKernelWrapper@$00$00@ImageLoader@@SAXABUKernelInfo_t@2@ABUResampleInfo_t@2@HHHPAM2@Z 004c9160 f i bitmap:resample.obj
 0001:000c8340       ?ApplyKernel@?$CKernelWrapper@$01$00@ImageLoader@@SAXABUKernelInfo_t@2@ABUResampleInfo_t@2@HHHPAM2@Z 004c9340 f i bitmap:resample.obj
 0001:000c8670       ?GenerateMipmapLevels@ImageLoader@@YAXPAE0HHHW4ImageFormat@@MMH@Z 004c9670 f   bitmap:resample.obj
 0001:000c8864       __itoa                     004c9864 f   LIBCMT:xtoa.obj
 0001:000c8864       _itoa                      004c9864 f   LIBCMT:xtoa.obj
 0001:000c888c       __ltoa                     004c988c f   LIBCMT:xtoa.obj
 0001:000c88b1       __ultoa                    004c98b1 f   LIBCMT:xtoa.obj
 0001:000c8936       __i64toa                   004c9936 f   LIBCMT:xtoa.obj
 0001:000c8967       __ui64toa                  004c9967 f   LIBCMT:xtoa.obj
 0001:000c8982       __ungetch_nolock           004c9982 f   LIBCMT:getch.obj
 0001:000c89a3       __getextendedkeycode       004c99a3 f   LIBCMT:getch.obj
 0001:000c8a50       __getch_nolock             004c9a50 f   LIBCMT:getch.obj
 0001:000c8b13       __getche_nolock            004c9b13 f   LIBCMT:getch.obj
 0001:000c8b4a       __kbhit_nolock             004c9b4a f   LIBCMT:getch.obj
 0001:000c8c72       __ungetch                  004c9c72 f   LIBCMT:getch.obj
 0001:000c8cb6       __getch                    004c9cb6 f   LIBCMT:getch.obj
 0001:000c8cb6       _getch                     004c9cb6 f   LIBCMT:getch.obj
 0001:000c8cf4       __getche                   004c9cf4 f   LIBCMT:getch.obj
 0001:000c8d32       __kbhit                    004c9d32 f   LIBCMT:getch.obj
 0001:000c8eec       __strupr_s_l               004c9eec f   LIBCMT:strupr.obj
 0001:000c8f1f       __strupr_s                 004c9f1f f   LIBCMT:strupr.obj
 0001:000c8f32       __strupr_l                 004c9f32 f   LIBCMT:strupr.obj
 0001:000c8f49       _strupr                    004c9f49 f   LIBCMT:strupr.obj
 0001:000c8f49       __strupr                   004c9f49 f   LIBCMT:strupr.obj
 0001:000c8fda       __wcstombs_l_helper        004c9fda f   LIBCMT:wcstombs.obj
 0001:000c9220       __wcstombs_l               004ca220 f   LIBCMT:wcstombs.obj
 0001:000c9225       _wcstombs                  004ca225 f   LIBCMT:wcstombs.obj
 0001:000c923c       __wcstombs_s_l             004ca23c f   LIBCMT:wcstombs.obj
 0001:000c92ed       _wcstombs_s                004ca2ed f   LIBCMT:wcstombs.obj
 0001:000c930b       __wfsopen                  004ca30b f   LIBCMT:wfopen.obj
 0001:000c93d1       __wfopen                   004ca3d1 f   LIBCMT:wfopen.obj
 0001:000c93e4       __wfopen_s                 004ca3e4 f   LIBCMT:wfopen.obj
 0001:000c9434       __mbstowcs_l_helper        004ca434 f   LIBCMT:mbstowcs.obj
 0001:000c95bc       __mbstowcs_l               004ca5bc f   LIBCMT:mbstowcs.obj
 0001:000c95c1       _mbstowcs                  004ca5c1 f   LIBCMT:mbstowcs.obj
 0001:000c95e9       __mbstowcs_s_l             004ca5e9 f   LIBCMT:mbstowcs.obj
 0001:000c96df       _mbstowcs_s                004ca6df f   LIBCMT:mbstowcs.obj
 0001:000c96fd       __putch_nolock             004ca6fd f   LIBCMT:putch.obj
 0001:000c9775       __putch                    004ca775 f   LIBCMT:putch.obj
 0001:000c97b7       __wopenfile                004ca7b7 f   LIBCMT:_wopen.obj
 0001:000ca19d       __wopen                    004cb19d f   LIBCMT:wopen.obj
 0001:000ca253       __wsopen_helper            004cb253 f   LIBCMT:wopen.obj
 0001:000ca31f       __wsopen                   004cb31f f   LIBCMT:wopen.obj
 0001:000ca34f       __wsopen_s                 004cb34f f   LIBCMT:wopen.obj
 0001:000ca36d       __wcsicmp_l                004cb36d f   LIBCMT:wcsicmp.obj
 0001:000ca47c       __wcsicmp                  004cb47c f   LIBCMT:wcsicmp.obj
 0001:000ca50d       _wcsncmp                   004cb50d f   LIBCMT:wcsncmp.obj
 0001:000ca542       __towlower_l               004cb542 f   LIBCMT:towlower.obj
 0001:000ca5ef       _towlower                  004cb5ef f   LIBCMT:towlower.obj
 0001:000ca87a       ___crtLCMapStringW         004cb87a f   LIBCMT:w_map.obj
 0001:000ca8ba       _ReadConsoleInputA@16      004cb8ba f   kernel32:KERNEL32.dll
 0001:000ca8c0       _SetConsoleMode@8          004cb8c0 f   kernel32:KERNEL32.dll
 0001:000ca8c6       _PeekConsoleInputA@16      004cb8c6 f   kernel32:KERNEL32.dll
 0001:000ca8cc       _GetNumberOfConsoleInputEvents@8 004cb8cc f   kernel32:KERNEL32.dll
 0001:000ca8d2       _CreateFileW@28            004cb8d2 f   kernel32:KERNEL32.dll
 0002:00000000       __imp__RegQueryValueExA@24 004ce000     advapi32:ADVAPI32.dll
 0002:00000004       __imp__RegCloseKey@4       004ce004     advapi32:ADVAPI32.dll
 0002:00000008       __imp__RegOpenKeyExA@20    004ce008     advapi32:ADVAPI32.dll
 0002:0000000c       \177ADVAPI32_NULL_THUNK_DATA 004ce00c     advapi32:ADVAPI32.dll
 0002:00000010       __imp__Sleep@4             004ce010     kernel32:KERNEL32.dll
 0002:00000014       __imp__GetConsoleScreenBufferInfo@8 004ce014     kernel32:KERNEL32.dll
 0002:00000018       __imp__GetStdHandle@4      004ce018     kernel32:KERNEL32.dll
 0002:0000001c       __imp__SetConsoleTextAttribute@8 004ce01c     kernel32:KERNEL32.dll
 0002:00000020       __imp__TerminateProcess@8  004ce020     kernel32:KERNEL32.dll
 0002:00000024       __imp__GetCurrentProcess@0 004ce024     kernel32:KERNEL32.dll
 0002:00000028       __imp__LeaveCriticalSection@4 004ce028     kernel32:KERNEL32.dll
 0002:0000002c       __imp__OutputDebugStringA@4 004ce02c     kernel32:KERNEL32.dll
 0002:00000030       __imp__EnterCriticalSection@4 004ce030     kernel32:KERNEL32.dll
 0002:00000034       __imp__GetProcessHeap@0    004ce034     kernel32:KERNEL32.dll
 0002:00000038       __imp__GetEnvironmentVariableA@12 004ce038     kernel32:KERNEL32.dll
 0002:0000003c       __imp__GetModuleHandleA@4  004ce03c     kernel32:KERNEL32.dll
 0002:00000040       __imp__SetPriorityClass@8  004ce040     kernel32:KERNEL32.dll
 0002:00000044       __imp__GetSystemInfo@4     004ce044     kernel32:KERNEL32.dll
 0002:00000048       __imp__SetThreadPriority@8 004ce048     kernel32:KERNEL32.dll
 0002:0000004c       __imp__CreateThread@24     004ce04c     kernel32:KERNEL32.dll
 0002:00000050       __imp__CloseHandle@4       004ce050     kernel32:KERNEL32.dll
 0002:00000054       __imp__WaitForMultipleObjects@16 004ce054     kernel32:KERNEL32.dll
 0002:00000058       __imp__SetUnhandledExceptionFilter@4 004ce058     kernel32:KERNEL32.dll
 0002:0000005c       __imp__HeapAlloc@12        004ce05c     kernel32:KERNEL32.dll
 0002:00000060       __imp__VirtualQuery@12     004ce060     kernel32:KERNEL32.dll
 0002:00000064       __imp__InitializeCriticalSection@4 004ce064     kernel32:KERNEL32.dll
 0002:00000068       __imp__GetModuleFileNameA@12 004ce068     kernel32:KERNEL32.dll
 0002:0000006c       __imp__GetNumberOfConsoleInputEvents@8 004ce06c     kernel32:KERNEL32.dll
 0002:00000070       __imp__PeekConsoleInputA@16 004ce070     kernel32:KERNEL32.dll
 0002:00000074       __imp__SetConsoleMode@8    004ce074     kernel32:KERNEL32.dll
 0002:00000078       __imp__ReadConsoleInputA@16 004ce078     kernel32:KERNEL32.dll
 0002:0000007c       __imp__SetEndOfFile@4      004ce07c     kernel32:KERNEL32.dll
 0002:00000080       __imp__GetModuleFileNameW@12 004ce080     kernel32:KERNEL32.dll
 0002:00000084       __imp__CompareStringW@24   004ce084     kernel32:KERNEL32.dll
 0002:00000088       __imp__CompareStringA@24   004ce088     kernel32:KERNEL32.dll
 0002:0000008c       __imp__CreateProcessA@40   004ce08c     kernel32:KERNEL32.dll
 0002:00000090       __imp__WaitForSingleObject@8 004ce090     kernel32:KERNEL32.dll
 0002:00000094       __imp__GetExitCodeProcess@8 004ce094     kernel32:KERNEL32.dll
 0002:00000098       __imp__GetTimeZoneInformation@4 004ce098     kernel32:KERNEL32.dll
 0002:0000009c       __imp__WriteConsoleW@20    004ce09c     kernel32:KERNEL32.dll
 0002:000000a0       __imp__GetConsoleOutputCP@0 004ce0a0     kernel32:KERNEL32.dll
 0002:000000a4       __imp__WriteConsoleA@20    004ce0a4     kernel32:KERNEL32.dll
 0002:000000a8       __imp__GetLocaleInfoW@16   004ce0a8     kernel32:KERNEL32.dll
 0002:000000ac       __imp__IsValidLocale@8     004ce0ac     kernel32:KERNEL32.dll
 0002:000000b0       __imp__EnumSystemLocalesA@8 004ce0b0     kernel32:KERNEL32.dll
 0002:000000b4       __imp__GetLocaleInfoA@16   004ce0b4     kernel32:KERNEL32.dll
 0002:000000b8       __imp__GetUserDefaultLCID@0 004ce0b8     kernel32:KERNEL32.dll
 0002:000000bc       __imp__GetDateFormatA@24   004ce0bc     kernel32:KERNEL32.dll
 0002:000000c0       __imp__GetTimeFormatA@24   004ce0c0     kernel32:KERNEL32.dll
 0002:000000c4       __imp__GetStringTypeW@16   004ce0c4     kernel32:KERNEL32.dll
 0002:000000c8       __imp__GetStringTypeA@20   004ce0c8     kernel32:KERNEL32.dll
 0002:000000cc       __imp__CreateFileA@28      004ce0cc     kernel32:KERNEL32.dll
 0002:000000d0       __imp__SetStdHandle@8      004ce0d0     kernel32:KERNEL32.dll
 0002:000000d4       __imp__lstrlenA@4          004ce0d4     kernel32:KERNEL32.dll
 0002:000000d8       __imp__DebugBreak@0        004ce0d8     kernel32:KERNEL32.dll
 0002:000000dc       __imp__GetSystemTimeAsFileTime@4 004ce0dc     kernel32:KERNEL32.dll
 0002:000000e0       __imp__GetCurrentProcessId@0 004ce0e0     kernel32:KERNEL32.dll
 0002:000000e4       __imp__MultiByteToWideChar@24 004ce0e4     kernel32:KERNEL32.dll
 0002:000000e8       __imp__WideCharToMultiByte@32 004ce0e8     kernel32:KERNEL32.dll
 0002:000000ec       __imp__DeleteCriticalSection@4 004ce0ec     kernel32:KERNEL32.dll
 0002:000000f0       __imp__GetProcAddress@8    004ce0f0     kernel32:KERNEL32.dll
 0002:000000f4       __imp__LoadLibraryA@4      004ce0f4     kernel32:KERNEL32.dll
 0002:000000f8       __imp__FreeLibrary@4       004ce0f8     kernel32:KERNEL32.dll
 0002:000000fc       __imp__UnhandledExceptionFilter@4 004ce0fc     kernel32:KERNEL32.dll
 0002:00000100       __imp__IsDebuggerPresent@0 004ce100     kernel32:KERNEL32.dll
 0002:00000104       __imp__RaiseException@16   004ce104     kernel32:KERNEL32.dll
 0002:00000108       __imp__RtlUnwind@16        004ce108     kernel32:KERNEL32.dll
 0002:0000010c       __imp__ExitProcess@4       004ce10c     kernel32:KERNEL32.dll
 0002:00000110       __imp__GetLastError@0      004ce110     kernel32:KERNEL32.dll
 0002:00000114       __imp__DeleteFileA@4       004ce114     kernel32:KERNEL32.dll
 0002:00000118       __imp__FindClose@4         004ce118     kernel32:KERNEL32.dll
 0002:0000011c       __imp__FileTimeToSystemTime@8 004ce11c     kernel32:KERNEL32.dll
 0002:00000120       __imp__FileTimeToLocalFileTime@8 004ce120     kernel32:KERNEL32.dll
 0002:00000124       __imp__GetDriveTypeA@4     004ce124     kernel32:KERNEL32.dll
 0002:00000128       __imp__FindFirstFileA@8    004ce128     kernel32:KERNEL32.dll
 0002:0000012c       __imp__GetFullPathNameA@16 004ce12c     kernel32:KERNEL32.dll
 0002:00000130       __imp__CreateDirectoryA@8  004ce130     kernel32:KERNEL32.dll
 0002:00000134       __imp__FindNextFileA@8     004ce134     kernel32:KERNEL32.dll
 0002:00000138       __imp__GetFileAttributesA@4 004ce138     kernel32:KERNEL32.dll
 0002:0000013c       __imp__SetEnvironmentVariableA@8 004ce13c     kernel32:KERNEL32.dll
 0002:00000140       __imp__GetCurrentDirectoryA@8 004ce140     kernel32:KERNEL32.dll
 0002:00000144       __imp__SetCurrentDirectoryA@4 004ce144     kernel32:KERNEL32.dll
 0002:00000148       __imp__GetCommandLineA@0   004ce148     kernel32:KERNEL32.dll
 0002:0000014c       __imp__HeapFree@12         004ce14c     kernel32:KERNEL32.dll
 0002:00000150       __imp__GetVersionExA@4     004ce150     kernel32:KERNEL32.dll
 0002:00000154       __imp__SetHandleCount@4    004ce154     kernel32:KERNEL32.dll
 0002:00000158       __imp__GetFileType@4       004ce158     kernel32:KERNEL32.dll
 0002:0000015c       __imp__GetStartupInfoA@4   004ce15c     kernel32:KERNEL32.dll
 0002:00000160       __imp__TlsGetValue@4       004ce160     kernel32:KERNEL32.dll
 0002:00000164       __imp__TlsAlloc@0          004ce164     kernel32:KERNEL32.dll
 0002:00000168       __imp__TlsSetValue@8       004ce168     kernel32:KERNEL32.dll
 0002:0000016c       __imp__TlsFree@4           004ce16c     kernel32:KERNEL32.dll
 0002:00000170       __imp__InterlockedIncrement@4 004ce170     kernel32:KERNEL32.dll
 0002:00000174       __imp__SetLastError@4      004ce174     kernel32:KERNEL32.dll
 0002:00000178       __imp__GetCurrentThreadId@0 004ce178     kernel32:KERNEL32.dll
 0002:0000017c       __imp__InterlockedDecrement@4 004ce17c     kernel32:KERNEL32.dll
 0002:00000180       __imp__GetCurrentThread@0  004ce180     kernel32:KERNEL32.dll
 0002:00000184       __imp__GetCPInfo@8         004ce184     kernel32:KERNEL32.dll
 0002:00000188       __imp__GetACP@0            004ce188     kernel32:KERNEL32.dll
 0002:0000018c       __imp__GetOEMCP@0          004ce18c     kernel32:KERNEL32.dll
 0002:00000190       __imp__IsValidCodePage@4   004ce190     kernel32:KERNEL32.dll
 0002:00000194       __imp__WriteFile@20        004ce194     kernel32:KERNEL32.dll
 0002:00000198       __imp__GetConsoleCP@0      004ce198     kernel32:KERNEL32.dll
 0002:0000019c       __imp__GetConsoleMode@8    004ce19c     kernel32:KERNEL32.dll
 0002:000001a0       __imp__LCMapStringA@24     004ce1a0     kernel32:KERNEL32.dll
 0002:000001a4       __imp__LCMapStringW@24     004ce1a4     kernel32:KERNEL32.dll
 0002:000001a8       __imp__FatalAppExitA@8     004ce1a8     kernel32:KERNEL32.dll
 0002:000001ac       __imp__SetConsoleCtrlHandler@8 004ce1ac     kernel32:KERNEL32.dll
 0002:000001b0       __imp__InterlockedExchange@8 004ce1b0     kernel32:KERNEL32.dll
 0002:000001b4       __imp__SetFilePointer@16   004ce1b4     kernel32:KERNEL32.dll
 0002:000001b8       __imp__ReadFile@20         004ce1b8     kernel32:KERNEL32.dll
 0002:000001bc       __imp__FlushFileBuffers@4  004ce1bc     kernel32:KERNEL32.dll
 0002:000001c0       __imp__SetEnvironmentVariableW@8 004ce1c0     kernel32:KERNEL32.dll
 0002:000001c4       __imp__FreeEnvironmentStringsA@4 004ce1c4     kernel32:KERNEL32.dll
 0002:000001c8       __imp__GetEnvironmentStrings@0 004ce1c8     kernel32:KERNEL32.dll
 0002:000001cc       __imp__FreeEnvironmentStringsW@4 004ce1cc     kernel32:KERNEL32.dll
 0002:000001d0       __imp__GetEnvironmentStringsW@0 004ce1d0     kernel32:KERNEL32.dll
 0002:000001d4       __imp__QueryPerformanceCounter@4 004ce1d4     kernel32:KERNEL32.dll
 0002:000001d8       __imp__GetTickCount@0      004ce1d8     kernel32:KERNEL32.dll
 0002:000001dc       __imp__CreateFileW@28      004ce1dc     kernel32:KERNEL32.dll
 0002:000001e0       \177KERNEL32_NULL_THUNK_DATA 004ce1e0     kernel32:KERNEL32.dll
 0002:000001e4       __imp__MemFreeScratch      004ce1e4     vtf:tier0.dll
 0002:000001e8       __imp___SpewInfo           004ce1e8     vtf:tier0.dll
 0002:000001ec       __imp___SpewMessage        004ce1ec     vtf:tier0.dll
 0002:000001f0       __imp__ShouldUseNewAssertDialog 004ce1f0     vtf:tier0.dll
 0002:000001f4       __imp__DoNewAssertDialog   004ce1f4     vtf:tier0.dll
 0002:000001f8       __imp___ExitOnFatalAssert  004ce1f8     vtf:tier0.dll
 0002:000001fc       __imp__Msg                 004ce1fc     tier0:tier0.dll
 0002:00000200       __imp__Error               004ce200     tier0:tier0.dll
 0002:00000204       __imp__g_pMemAlloc         004ce204     tier0:tier0.dll
 0002:00000208       __imp__Warning             004ce208     tier0:tier0.dll
 0002:0000020c       __imp__Plat_FloatTime      004ce20c     tier0:tier0.dll
 0002:00000210       __imp__GetCPUInformation   004ce210     tier0:tier0.dll
 0002:00000214       __imp_?DevMsg@@YAXPBDZZ    004ce214     tier0:tier0.dll
 0002:00000218       __imp__DevMsg              004ce218     tier0:tier0.dll
 0002:0000021c       __imp_?Lock@CThreadMutex@@QAEXXZ 004ce21c     tier0:tier0.dll
 0002:00000220       __imp_?Lock@CThreadMutex@@QBEXXZ 004ce220     tier0:tier0.dll
 0002:00000224       __imp___AssertValidReadPtr 004ce224     tier0:tier0.dll
 0002:00000228       __imp___AssertValidWritePtr 004ce228     tier0:tier0.dll
 0002:0000022c       __imp__AssertValidStringPtr 004ce22c     tier0:tier0.dll
 0002:00000230       __imp__WriteMiniDumpUsingExceptionInfo 004ce230     tier0:tier0.dll
 0002:00000234       __imp__SpewOutputFunc      004ce234     tier0:tier0.dll
 0002:00000238       __imp__CommandLine_Tier0   004ce238     tier0:tier0.dll
 0002:0000023c       __imp__SpewActivate        004ce23c     tier0:tier0.dll
 0002:00000240       __imp__MemAllocScratch     004ce240     vtf:tier0.dll
 0002:00000244       \177tier0_NULL_THUNK_DATA  004ce244     tier0:tier0.dll
 0002:00000248       __imp__KeyValuesSystem     004ce248     vstdlib:vstdlib.dll
 0002:0000024c       __imp__GetCVarIF           004ce24c     vstdlib:vstdlib.dll
 0002:00000250       __imp__RandomSeed          004ce250     vstdlib:vstdlib.dll
 0002:00000254       __imp__RandomGaussianFloat 004ce254     vstdlib:vstdlib.dll
 0002:00000258       \177vstdlib_NULL_THUNK_DATA 004ce258     vstdlib:vstdlib.dll
 0002:0000025c       ___xc_a                    004ce25c     LIBCMT:crt0init.obj
 0002:00000374       ___xc_z                    004ce374     LIBCMT:crt0init.obj
 0002:00000378       ___xi_a                    004ce378     LIBCMT:crt0init.obj
 0002:00000394       ___xi_z                    004ce394     LIBCMT:crt0init.obj
 0002:00000398       ___xp_a                    004ce398     LIBCMT:crt0init.obj
 0002:000003a4       ___xp_z                    004ce3a4     LIBCMT:crt0init.obj
 0002:000003a8       ___xt_a                    004ce3a8     LIBCMT:crt0init.obj
 0002:000003ac       ___xt_z                    004ce3ac     LIBCMT:crt0init.obj
 0002:000003cc       __real@00000000            004ce3cc     brushbsp.obj
 0002:000003d0       ??_C@_05IOINKCAA@here?6?$AA@ 004ce3d0     brushbsp.obj
 0002:000003d8       ??_C@_01NOFIACDB@w?$AA@    004ce3d8     brushbsp.obj
 0002:000003dc       ??_C@_0M@JKCPKPL@writing?5?$CFs?6?$AA@ 004ce3dc     brushbsp.obj
 0002:000003e8       ??_C@_01EEMJAFIK@?6?$AA@   004ce3e8     brushbsp.obj
 0002:000003ec       ??_C@_0L@BDBMPCDN@brush?3?5?$CFp?6?$AA@ 004ce3ec     brushbsp.obj
 0002:000003f8       __real@4008000000000000    004ce3f8     brushbsp.obj
 0002:00000400       __real@3f50624dd2f1a9fc    004ce400     brushbsp.obj
 0002:00000408       ??_C@_0N@OCBJIIGD@bad?5planenum?$AA@ 004ce408     brushbsp.obj
 0002:00000418       __real@bf800000            004ce418     brushbsp.obj
 0002:0000041c       __real@3f800000            004ce41c     brushbsp.obj
 0002:00000420       __real@bfb999999999999a    004ce420     brushbsp.obj
 0002:00000428       __real@3fb999999999999a    004ce428     brushbsp.obj
 0002:00000430       __real@3fc999999999999a    004ce430     brushbsp.obj
 0002:00000438       __real@46800000            004ce438     brushbsp.obj
 0002:0000043c       __real@c6800000            004ce43c     brushbsp.obj
 0002:00000440       ??_C@_0N@LMFHMMBE@Tried?5parent?$AA@ 004ce440     brushbsp.obj
 0002:00000450       ??_C@_0BJ@MIBLAJDN@split?5not?5on?5both?5sides?6?$AA@ 004ce450     brushbsp.obj
 0002:0000046c       ??_C@_0BF@HEKJJEMO@split?5removed?5brush?6?$AA@ 004ce46c     brushbsp.obj
 0002:00000484       ??_C@_0BI@PNMADFKF@bogus?5brush?5after?5clip?6?$AA@ 004ce484     brushbsp.obj
 0002:0000049c       ??_C@_0BH@FEMFMIHD@WARNING?3?5huge?5winding?6?$AA@ 004ce49c     brushbsp.obj
 0002:000004b8       __real@bfe0000000000000    004ce4b8     brushbsp.obj
 0002:000004c0       ??_C@_0BJ@OFPPOJGD@PSIDE_FACING?5with?5splits?$AA@ 004ce4c0     brushbsp.obj
 0002:000004dc       ??_C@_0L@OGLHABIK@?$CF5i?5leafs?6?$AA@ 004ce4dc     brushbsp.obj
 0002:000004e8       ??_C@_0BC@MKFJDBDJ@?$CF5i?5nonvis?5nodes?6?$AA@ 004ce4e8     brushbsp.obj
 0002:000004fc       ??_C@_0BD@NJLKNHAJ@?$CF5i?5visible?5nodes?6?$AA@ 004ce4fc     brushbsp.obj
 0002:00000510       ??_C@_0BG@KLEEPBIP@?$CF5i?5nonvisible?5faces?6?$AA@ 004ce510     brushbsp.obj
 0002:00000528       ??_C@_0BD@GCHPCEAO@?$CF5i?5visible?5faces?6?$AA@ 004ce528     brushbsp.obj
 0002:0000053c       ??_C@_0N@BAHABBPA@?$CF5i?5brushes?6?$AA@ 004ce53c     brushbsp.obj
 0002:0000054c       ??_C@_0BP@JDOEDEKN@Brush?5?$CFi?3?5WARNING?0?5microbrush?6?$AA@ 004ce54c     brushbsp.obj
 0002:0000056c       ??_C@_0BC@FBAFDPHA@?9?9?9?5BrushBSP?5?9?9?9?6?$AA@ 004ce56c     brushbsp.obj
 0002:00000580       __real@3a83126f            004ce580     CollisionUtils.obj
 0002:00000588       __real@3ff0000000000000    004ce588     CollisionUtils.obj
 0002:00000590       __real@3eb0c6f7a0b5ed8d    004ce590     CollisionUtils.obj
 0002:00000598       __real@0000000000000000    004ce598     CollisionUtils.obj
 0002:000005a0       __real@3fe0000000000000    004ce5a0     CollisionUtils.obj
 0002:000005a8       __real@4010000000000000    004ce5a8     CollisionUtils.obj
 0002:000005b0       __real@3e45798ee2308c3a    004ce5b0     CollisionUtils.obj
 0002:000005b8       __real@7f7fffff            004ce5b8     CollisionUtils.obj
 0002:000005bc       __real@ff7fffff            004ce5bc     CollisionUtils.obj
 0002:000005c0       __real@40000000            004ce5c0     CollisionUtils.obj
 0002:000005c8       __real@3ee4f8b588e368f1    004ce5c8     CollisionUtils.obj
 0002:000005d0       __real@c0f869f000000000    004ce5d0     CollisionUtils.obj
 0002:000005d8       __real@bff0000000000000    004ce5d8     CollisionUtils.obj
 0002:000005e0       __real@3f000000            004ce5e0     CollisionUtils.obj
 0002:000005e8       __real@4000000000000000    004ce5e8     CollisionUtils.obj
 0002:000005f0       __real@4024000000000000    004ce5f0     CollisionUtils.obj
 0002:000005f8       __real@c7c34f80            004ce5f8     CollisionUtils.obj
 0002:00000600       __real@3fefae1480000000    004ce600     CollisionUtils.obj
 0002:00000608       ??_C@_0BB@GFLDGGJL@CONTENTS_HITBOX?5?$AA@ 004ce608     csg.obj
 0002:0000061c       ??_C@_0BB@DMKKLEIP@CONTENTS_LADDER?5?$AA@ 004ce61c     csg.obj
 0002:00000630       ??_C@_0BG@GBNDOMKC@CONTENTS_TRANSLUCENT?5?$AA@ 004ce630     csg.obj
 0002:00000648       ??_C@_0BB@IMFIDHAA@CONTENTS_DETAIL?5?$AA@ 004ce648     csg.obj
 0002:0000065c       ??_C@_0BB@GJONNPJJ@CONTENTS_DEBRIS?5?$AA@ 004ce65c     csg.obj
 0002:00000670       ??_C@_0BC@JHNGBGJB@CONTENTS_MONSTER?5?$AA@ 004ce670     csg.obj
 0002:00000684       ??_C@_0BB@EAMHLJJN@CONTENTS_ORIGIN?5?$AA@ 004ce684     csg.obj
 0002:00000698       ??_C@_0BH@MCAJFAKC@CONTENTS_CURRENT_DOWN?5?$AA@ 004ce698     csg.obj
 0002:000006b0       ??_C@_0BF@BKFOCONM@CONTENTS_CURRENT_UP?5?$AA@ 004ce6b0     csg.obj
 0002:000006c8       ??_C@_0BG@ILDOCDOE@CONTENTS_CURRENT_270?5?$AA@ 004ce6c8     csg.obj
 0002:000006e0       ??_C@_0BG@JEPNEJGC@CONTENTS_CURRENT_180?5?$AA@ 004ce6e0     csg.obj
 0002:000006f8       ??_C@_0BF@CDHJKNEH@CONTENTS_CURRENT_90?5?$AA@ 004ce6f8     csg.obj
 0002:00000710       ??_C@_0BE@NOLHPBOB@CONTENTS_CURRENT_0?5?$AA@ 004ce710     csg.obj
 0002:00000724       ??_C@_0BG@KIBJOIGE@CONTENTS_MONSTERCLIP?5?$AA@ 004ce724     csg.obj
 0002:0000073c       ??_C@_0BF@HJINIOEE@CONTENTS_PLAYERCLIP?5?$AA@ 004ce73c     csg.obj
 0002:00000754       ??_C@_0BF@HGIDDNMO@CONTENTS_AREAPORTAL?5?$AA@ 004ce754     csg.obj
 0002:0000076c       ??_C@_0BD@KGKKLEFD@CONTENTS_MOVEABLE?5?$AA@ 004ce76c     csg.obj
 0002:00000780       ??_C@_0BI@HIDMIENL@CONTENTS_TESTFOGVOLUME?5?$AA@ 004ce780     csg.obj
 0002:00000798       ??_C@_0BB@MCDBEPDN@CONTENTS_OPAQUE?5?$AA@ 004ce798     csg.obj
 0002:000007ac       ??_C@_0P@FLNLIMME@CONTENTS_MIST?5?$AA@ 004ce7ac     csg.obj
 0002:000007bc       ??_C@_0BA@CLNLOILO@CONTENTS_WATER?5?$AA@ 004ce7bc     csg.obj
 0002:000007cc       ??_C@_0BA@CHKHBBFK@CONTENTS_SLIME?5?$AA@ 004ce7cc     csg.obj
 0002:000007dc       ??_C@_0BA@JAILJJLI@CONTENTS_GRATE?5?$AA@ 004ce7dc     csg.obj
 0002:000007ec       ??_C@_0O@KGHFKPEC@CONTENTS_AUX?5?$AA@ 004ce7ec     csg.obj
 0002:000007fc       ??_C@_0BB@OGHJNGHM@CONTENTS_WINDOW?5?$AA@ 004ce7fc     csg.obj
 0002:00000810       ??_C@_0BA@OHHDBBOE@CONTENTS_SOLID?5?$AA@ 004ce810     csg.obj
 0002:00000820       ??_C@_02DKCKIIND@?$CFs?$AA@ 004ce820     csg.obj
 0002:00000824       ??_C@_0BE@HPDKFHIA@output?5brushes?3?5?$CFi?6?$AA@ 004ce824     csg.obj
 0002:00000838       ??_C@_0BG@FLNBNMPG@original?5brushes?3?5?$CFi?6?$AA@ 004ce838     csg.obj
 0002:00000850       ??_C@_0BH@CNPBDCHJ@?9?9?9?9?5ChopBrushes?5?9?9?9?9?6?$AA@ 004ce850     csg.obj
 0002:00000868       ??_C@_0CA@FMJIPOPP@Found?5no?5matching?5plane?5for?5?$CFs?6?$AA@ 004ce868     csg.obj
 0002:00000888       ??_C@_02KGHIDFGE@?$HN?6?$AA@ 004ce888     csg.obj
 0002:0000088c       ??_C@_0O@IEAGEIDG@?$CFs?50?50?50?51?51?6?$AA@ 004ce88c     csg.obj
 0002:0000089c       ??_C@_0O@IOEHJOAM@?$CI?5?$CFi?5?$CFi?5?$CFi?5?$CJ?5?$AA@ 004ce89c     csg.obj
 0002:000008ac       ??_C@_02KCPFEJNG@?$HL?6?$AA@ 004ce8ac     csg.obj
 0002:000008b0       ??_C@_0BM@HFNKBGGH@?$HL?6?$CCclassname?$CC?5?$CCworldspawn?$CC?6?$AA@ 004ce8b0     csg.obj
 0002:000008cc       ??_C@_0BA@EKJFECAL@Can?8t?5write?5?$CFs?$AI?$AA@ 004ce8cc     csg.obj
 0002:000008dc       ??_C@_00CNPNBAHC@?$AA@     004ce8dc     cubemap.obj
 0002:000008e0       ??_C@_0BC@KFGKDDMG@$fallbackmaterial?$AA@ 004ce8e0     cubemap.obj
 0002:000008f4       ??_C@_0P@OHFFMJJM@$crackmaterial?$AA@ 004ce8f4     cubemap.obj
 0002:00000904       ??_C@_0BA@OOJNCPMH@$bottommaterial?$AA@ 004ce904     cubemap.obj
 0002:00000914       ??_C@_07OAIDGMCI@skyname?$AA@ 004ce914     cubemap.obj
 0002:0000091c       ??_C@_0L@BIFLFHPF@worldspawn?$AA@ 004ce91c     cubemap.obj
 0002:00000928       ??_C@_09CNJINBGN@classname?$AA@ 004ce928     cubemap.obj
 0002:00000938       ??_C@_0EI@KOELCBDO@Material?5?$CFs?5is?5depending?5on?5itse@ 004ce938     cubemap.obj
 0002:00000980       ??_C@_08DJCCKPNK@?4hdr?4vtf?$AA@ 004ce980     cubemap.obj
 0002:0000098c       ??_C@_04GJCHGKGK@?4vtf?$AA@ 004ce98c     cubemap.obj
 0002:00000994       ??_C@_0DB@HEFICILM@Generated?5env_cubemap?5patch?5name@ 004ce994     cubemap.obj
 0002:000009c8       ??_C@_0BF@KEBGBCLN@maps?1?$CFs?1?$CFs?$CFs?$CFd_?$CFd_?$CFd?$AA@ 004ce9c8     cubemap.obj
 0002:000009e0       ??_C@_01IDAFKMJL@_?$AA@    004ce9e0     cubemap.obj
 0002:000009e4       ??_C@_07NFGFKDAC@$envmap?$AA@ 004ce9e4     cubemap.obj
 0002:000009ec       ??_C@_0M@DLHJBNEJ@env_cubemap?$AA@ 004ce9ec     cubemap.obj
 0002:000009f8       ??_C@_0GD@NNAGIMAC@?$CK?$CK?$CK?5Error?3?5Skybox?5vtf?5files?5for?5@ 004ce9f8     cubemap.obj
 0002:00000a5c       ??_C@_0CM@BJEKPFON@?$CK?$CK?$CK?5Error?5unserializing?5skybox?5t@ 004cea5c     cubemap.obj
 0002:00000a88       ??_C@_0BB@NIFPAOKF@materials?1?$CFs?4vtf?$AA@ 004cea88     cubemap.obj
 0002:00000a9c       ??_C@_0N@NEFMJPPI@$basetexture?$AA@ 004cea9c     cubemap.obj
 0002:00000aac       ??_C@_0BA@EFDEMECP@$hdrbasetexture?$AA@ 004ceaac     cubemap.obj
 0002:00000abc       ??_C@_06BMKANHHL@skybox?$AA@ 004ceabc     cubemap.obj
 0002:00000ac4       ??_C@_04HDOCAJNK@?$CFs?$CFs?$AA@ 004ceac4     cubemap.obj
 0002:00000acc       ??_C@_02LEBOADDI@dn?$AA@   004ceacc     cubemap.obj
 0002:00000ad0       ??_C@_02HNLLPFKA@up?$AA@   004cead0     cubemap.obj
 0002:00000ad4       ??_C@_02HLHCNIN@ft?$AA@    004cead4     cubemap.obj
 0002:00000ad8       ??_C@_02MNOEILMP@bk?$AA@   004cead8     cubemap.obj
 0002:00000adc       ??_C@_02HCNENIII@lf?$AA@   004ceadc     cubemap.obj
 0002:00000ae0       ??_C@_02BMJICGCB@rt?$AA@   004ceae0     cubemap.obj
 0002:00000ae4       ??_C@_0CJ@LJOMCNEC@materials?1maps?1?$CFs?1cubemapdefault@ 004ceae4     cubemap.obj
 0002:00000b10       ??_C@_0CG@CBMBGIFJ@Error?5serializing?5default?5cubema@ 004ceb10     cubemap.obj
 0002:00000b38       ??_C@_0CF@HMPEADGK@materials?1maps?1?$CFs?1cubemapdefault@ 004ceb38     cubemap.obj
 0002:00000b60       ??_C@_0IM@JFHNDFMM@Creating?5default?5?$CFscubemaps?5for?5@ 004ceb60     cubemap.obj
 0002:00000bec       ??_C@_04LPJEAKHM@HDR?5?$AA@ 004cebec     cubemap.obj
 0002:00000bf4       ??_C@_0DJ@OHDMOOPJ@Can?8t?5load?5skybox?5file?5?$CFs?5to?5bui@ 004cebf4     cubemap.obj
 0002:00000c30       ??_C@_09ICMOGGML@skybox?1?$CFs?$AA@ 004cec30     cubemap.obj
 0002:00000c3c       ??_C@_01PAPGNFGE@c?$AA@    004cec3c     cubemap.obj
 0002:00000c40       ??_C@_09IKJKMKOL@_?$CFd_?$CFd_?$CFd?$AA@ 004cec40     cubemap.obj
 0002:00000c4c       ??_C@_0DC@KJOJLAEN@Multiple?5references?5for?5cubemap?5@ 004cec4c     cubemap.obj
 0002:00000c80       ??_C@_0DN@PGKDBHHE@env_cubemap?5pointing?5at?5deleted?5@ 004cec80     cubemap.obj
 0002:00000cc0       ??_C@_0DD@COIAGLNI@fixing?5up?5env_cubemap?5materials?5@ 004cecc0     cubemap.obj
 0002:00000cf4       ??_C@_02DPKJAMEF@?$CFd?$AA@ 004cecf4     cubemap.obj
 0002:00000cf8       ??_C@_01CLKCMJKC@?5?$AA@   004cecf8     cubemap.obj
 0002:00000cfc       ??_C@_0BL@EODFEKPD@?6Merged?5?$CFd?5detail?5faces?4?4?4?$AA@ 004cecfc     detail.obj
 0002:00000d18       ??_C@_0BK@ENPICNGK@Split?5face?5in?5merge?5list?$CB?$AA@ 004ced18     detail.obj
 0002:00000d34       ??_C@_0BH@BFHFPFDM@Bad?5detail?5brush?5side?6?$AA@ 004ced34     detail.obj
 0002:00000d4c       ??_C@_0BD@PAPALJBM@Merging?5details?4?4?4?$AA@ 004ced4c     detail.obj
 0002:00000d60       ??_C@_0BN@KHGACLOP@Find?5Visible?5Detail?5Sides?4?4?4?$AA@ 004ced60     detail.obj
 0002:00000d80       ??_C@_0L@MGHOLLP@done?5?$CI?$CFd?$CJ?6?$AA@ 004ced80     detail.obj
 0002:00000d8c       ??_C@_0BA@KHMLJCAD@Chop?5Details?4?4?4?$AA@ 004ced8c     detail.obj
 0002:00000d9c       ??_C@_0L@NJIBFGO@detailvbsp?$AA@ 004ced9c     detailObjects.obj
 0002:00000da8       ??_C@_0M@BKGGJIMH@detail?4vbsp?$AA@ 004ceda8     detailObjects.obj
 0002:00000db8       __real@40dfffc000000000    004cedb8     detailObjects.obj
 0002:00000dc0       ??_C@_0DD@FJLLHANE@Error?$CB?5Too?5many?5detail?5props?5emi@ 004cedc0     detailObjects.obj
 0002:00000df4       ??_C@_0CC@EGCFEIGF@Error?5loading?5studio?5model?5?$CC?$CFs?$CC?$CB@ 004cedf4     detailObjects.obj
 0002:00000e18       ??_C@_0M@BAHNLOII@detail_prop?$AA@ 004cee18     detailObjects.obj
 0002:00000e28       __real@bf50624dd2f1a9fc    004cee28     detailObjects.obj
 0002:00000e30       __real@4076800000000000    004cee30     detailObjects.obj
 0002:00000e38       __real@406fe00000000000    004cee38     detailObjects.obj
 0002:00000e40       ??_C@_0BC@IGEEGACB@detailOrientation?$AA@ 004cee40     detailObjects.obj
 0002:00000e58       __real@4066800000000000    004cee58     detailObjects.obj
 0002:00000e60       __real@400921fb54442d18    004cee60     detailObjects.obj
 0002:00000e68       ??_C@_08GKKMMBDC@maxAngle?$AA@ 004cee68     detailObjects.obj
 0002:00000e74       ??_C@_08LNEHHDHD@minAngle?$AA@ 004cee74     detailObjects.obj
 0002:00000e80       __real@43340000            004cee80     detailObjects.obj
 0002:00000e84       ??_C@_07OLKLDPGP@upright?$AA@ 004cee84     detailObjects.obj
 0002:00000e8c       ??_C@_06LFKBJBLO@amount?$AA@ 004cee8c     detailObjects.obj
 0002:00000e94       ??_C@_0L@ELCGLDIA@shape_size?$AA@ 004cee94     detailObjects.obj
 0002:00000ea0       ??_C@_0M@KEOFPBDM@shape_angle?$AA@ 004ceea0     detailObjects.obj
 0002:00000eac       ??_C@_04MGKPGJHA@sway?$AA@ 004ceeac     detailObjects.obj
 0002:00000eb4       ??_C@_0BC@KOPCEEPG@spriterandomscale?$AA@ 004ceeb4     detailObjects.obj
 0002:00000ec8       ??_C@_0M@ONLGMOD@?$CFf?5?$CFf?5?$CFf?5?$CFf?$AA@ 004ceec8     detailObjects.obj
 0002:00000ed4       __real@41200000            004ceed4     detailObjects.obj
 0002:00000ed8       __real@41a00000            004ceed8     detailObjects.obj
 0002:00000edc       __real@c1200000            004ceedc     detailObjects.obj
 0002:00000ee0       ??_C@_0L@ONKOJFJJ@spritesize?$AA@ 004ceee0     detailObjects.obj
 0002:00000eec       ??_C@_0CP@DHGHPAJH@Invalid?5arguments?5to?5?$CCsprite?$CC?5in@ 004ceeec     detailObjects.obj
 0002:00000f1c       ??_C@_0P@NOPOKGBE@?$CFf?5?$CFf?5?$CFf?5?$CFf?5?$CFf?$AA@ 004cef1c     detailObjects.obj
 0002:00000f2c       __real@44000000            004cef2c     detailObjects.obj
 0002:00000f30       __real@42800000            004cef30     detailObjects.obj
 0002:00000f34       ??_C@_03NJKMHLPI@tri?$AA@  004cef34     detailObjects.obj
 0002:00000f38       ??_C@_05HCKPILGO@cross?$AA@ 004cef38     detailObjects.obj
 0002:00000f40       ??_C@_0N@FDIPGNCE@sprite_shape?$AA@ 004cef40     detailObjects.obj
 0002:00000f50       ??_C@_06DKHPLDLO@sprite?$AA@ 004cef50     detailObjects.obj
 0002:00000f58       ??_C@_05NCCFOPHA@model?$AA@ 004cef58     detailObjects.obj
 0002:00000f60       ??_C@_05IAEKHIAN@alpha?$AA@ 004cef60     detailObjects.obj
 0002:00000f68       ??_C@_0P@NFANEIDG@tex_total_size?$AA@ 004cef68     detailObjects.obj
 0002:00000f78       ??_C@_08LHFNKDML@tex_size?$AA@ 004cef78     detailObjects.obj
 0002:00000f84       ??_C@_06ODDDHALK@tex_ul?$AA@ 004cef84     detailObjects.obj
 0002:00000f8c       ??_C@_0M@KIMMAHMF@position_lr?$AA@ 004cef8c     detailObjects.obj
 0002:00000f98       ??_C@_0M@GPHKKAOF@position_ul?$AA@ 004cef98     detailObjects.obj
 0002:00000fa4       ??_C@_06GNEAMJOC@angles?$AA@ 004cefa4     detailObjects.obj
 0002:00000fac       ??_C@_06NHCMNMEH@origin?$AA@ 004cefac     detailObjects.obj
 0002:00000fb4       ??_C@_0BD@FCGBCNFD@prop_detail_sprite?$AA@ 004cefb4     detailObjects.obj
 0002:00000fc8       ??_C@_0M@HMCBNKGG@prop_detail?$AA@ 004cefc8     detailObjects.obj
 0002:00000fd4       ??_C@_0DB@BJBIMCHI@Material?5?$CFs?5uses?5unknown?5detail?5@ 004cefd4     detailObjects.obj
 0002:00001008       ??_C@_0M@FFHDBFLG@?$CFdetailtype?$AA@ 004cf008     detailObjects.obj
 0002:00001014       ??_C@_0BI@JJLHFIKC@Placing?5detail?5props?5?3?5?$AA@ 004cf014     detailObjects.obj
 0002:00001030       ??_C@_0EA@HKIIMBGB@Error?$CB?5Too?5many?5detail?5props?5on?5@ 004cf030     detailObjects.obj
 0002:00001070       ??_C@_07HAFFKDBK@density?$AA@ 004cf070     detailObjects.obj
 0002:00001078       __real@e753c21c            004cf078     disp_common.obj
 0002:0000107c       __real@6753c21c            004cf07c     disp_common.obj
 0002:00001080       __real@3c23d70a            004cf080     disp_common.obj
 0002:00001084       ??_C@_0DK@GOGDGCAF@Found?5a?5displacement?5edge?5abutti@ 004cf084     disp_common.obj
 0002:000010c0       ??_C@_0EM@MEODGKKJ@Warning?3?5invalid?5neighbor?5connec@ 004cf0c0     disp_common.obj
 0002:0000110c       ??_C@_0DL@OBKBOEFP@Warning?3?5overflowed?5?$CFd?5displacem@ 004cf10c     disp_common.obj
 0002:00001148       __real@3f30000000000000    004cf148     disp_ivp.obj
 0002:00001150       __real@3f20000000000000    004cf150     disp_ivp.obj
 0002:00001158       __real@40d0000000000000    004cf158     disp_ivp.obj
 0002:00001160       ??_C@_0N@KPONPEDB@surfaceprop2?$AA@ 004cf160     disp_ivp.obj
 0002:00001170       __real@43bf4000            004cf170     disp_ivp.obj
 0002:00001174       ??_C@_0CL@NICGHANN@Trying?5to?5create?5a?5non?9quad?5disp@ 004cf174     disp_vbsp.obj
 0002:000011a0       ??_C@_0DN@KDBLGJBC@Error?3?5displacement?5found?5on?5a?$CIn@ 004cf1a0     disp_vbsp.obj
 0002:000011e0       __real@406ffcccc0000000    004cf1e0     disp_vbsp.obj
 0002:000011e8       ??_C@_0BG@HIJIAFNE@Displacement?5Alpha?5?3?5?$AA@ 004cf1e8     disp_vbsp.obj
 0002:00001200       ??_C@_0CG@HOOPHLIA@Finding?5lightmap?5sample?5position@ 004cf200     disp_vbsp.obj
 0002:00001228       ??_C@_0CD@BOCMJHJK@Finding?5displacement?5neighbors?4?4@ 004cf228     disp_vbsp.obj
 0002:0000124c       ??_C@_0CD@HHIGMIOB@HashVec?3?5point?5outside?5valid?5ran@ 004cf24c     faces.obj
 0002:00001270       ??_C@_0BN@GFCCECCF@numvertexes?5?$DN?$DN?5MAX_MAP_VERTS?$AA@ 004cf270     faces.obj
 0002:00001290       __real@3f847ae147ae147b    004cf290     faces.obj
 0002:00001298       ??_C@_0P@BHOODCMG@MAX_SUPERVERTS?$AA@ 004cf298     faces.obj
 0002:000012a8       __real@3e800000            004cf2a8     faces.obj
 0002:000012b0       ??_C@_0HC@KJIMBKCJ@Exceeded?5max?5water?5verts?4?6Increa@ 004cf2b0     faces.obj
 0002:00001328       __real@3f847ae147ae147c    004cf328     faces.obj
 0002:00001330       ??_C@_0O@JKNIMOGB@MAX_MAP_VERTS?$AA@ 004cf330     faces.obj
 0002:00001340       ??_C@_0CI@MMDKAFBP@SubdivideFace?3?5didn?8t?5split?5the?5@ 004cf340     faces.obj
 0002:00001368       __real@3dcccccd            004cf368     faces.obj
 0002:0000136c       __real@c97423f0            004cf36c     faces.obj
 0002:00001370       __real@497423f0            004cf370     faces.obj
 0002:00001374       ??_C@_0DD@FLIEHJFO@error?3?5material?5?$CFs?5doesn?8t?5have?5@ 004cf374     faces.obj
 0002:000013a8       ??_C@_09JCAKHELD@toolsskip?$AA@ 004cf3a8     faces.obj
 0002:000013b4       ??_C@_06MEFHFNAK@nodraw?$AA@ 004cf3b4     faces.obj
 0002:000013bc       ??_C@_0BA@KCFHMCIO@?$CF5i?5subdivided?6?$AA@ 004cf3bc     faces.obj
 0002:000013cc       ??_C@_0M@LENHICMH@?$CF5i?5merged?6?$AA@ 004cf3cc     faces.obj
 0002:000013d8       ??_C@_0P@JLOIMJEC@?$CF5i?5makefaces?6?$AA@ 004cf3d8     faces.obj
 0002:000013e8       ??_C@_0BD@EJBJJFIN@?9?9?9?5MakeFaces?5?9?9?9?6?$AA@ 004cf3e8     faces.obj
 0002:000013fc       ??_C@_0CB@CJCECKCN@Too?5many?5t?9junctions?5to?5fix?5up?$CB?6@ 004cf3fc     faces.obj
 0002:00001420       ??_C@_0BF@KDMEAIOC@?$CF5i?5bad?5start?5verts?6?$AA@ 004cf420     faces.obj
 0002:00001438       ??_C@_0BP@FJGOMCCN@?$CF5i?5faces?5added?5by?5tjunctions?6?$AA@ 004cf438     faces.obj
 0002:00001458       ??_C@_0BP@NMMOJFFM@?$CF5i?5edges?5added?5by?5tjunctions?6?$AA@ 004cf458     faces.obj
 0002:00001478       ??_C@_0BH@MLJGLOGH@?$CF5i?5faces?5degenerated?6?$AA@ 004cf478     faces.obj
 0002:00001490       ??_C@_0BH@PPDCHOOG@?$CF5i?5edges?5degenerated?6?$AA@ 004cf490     faces.obj
 0002:000014a8       ??_C@_0BD@HCGCCAKA@?$CFi?5unique?5from?5?$CFi?6?$AA@ 004cf4a8     faces.obj
 0002:000014bc       ??_C@_0BB@DDDNOAPE@?9?9?9?9?5tjunc?5?9?9?9?9?6?$AA@ 004cf4bc     faces.obj
 0002:000014d0       ??_C@_0BG@DMMDOHDA@?9?9?9?9?5snap?5verts?5?9?9?9?9?6?$AA@ 004cf4d0     faces.obj
 0002:000014e8       ??_C@_0BK@LJEFOOFF@numedges?5?$DN?$DN?5MAX_MAP_EDGES?$AA@ 004cf4e8     faces.obj
 0002:00001508       ??_C@_0EL@NPCOFIPF@Exceeded?5max?5water?5primitives?4?6I@ 004cf508     faces.obj
 0002:00001558       ??_C@_0EJ@BDBKLNIC@Exceeded?5max?5water?5indicies?4?6Inc@ 004cf558     faces.obj
 0002:000015a8       __real@3fecccccc0000000    004cf5a8     faces.obj
 0002:000015b0       ??_C@_0BJ@MCNAKENF@Using?5subdivision?5on?5?$CFs?6?$AA@ 004cf5b0     faces.obj
 0002:000015cc       ??_C@_0M@LEGMBDEC@$subdivsize?$AA@ 004cf5cc     faces.obj
 0002:000015d8       ??_C@_0CF@MHKAGILO@?$CF6?43f?5?$CF6?43f?5?$CF6?43f?5?$CF6?43f?5?$CF6?43f?5?$CF6@ 004cf5d8     glfile.obj
 0002:00001600       ??_C@_03PELOGHMK@?$CFi?6?$AA@ 004cf600     glfile.obj
 0002:00001604       ??_C@_0P@EGNPLIPA@?$CF5i?5c_glfaces?6?$AA@ 004cf604     glfile.obj
 0002:00001614       ??_C@_0BB@MAHHKGJO@Couldn?8t?5open?5?$CFs?$AA@ 004cf614     glfile.obj
 0002:00001628       ??_C@_0M@BBJDCBAD@Writing?5?$CFs?6?$AA@ 004cf628     glfile.obj
 0002:00001634       ??_C@_07NLOFKJIL@?$CFs?$CFs?4gl?$AA@ 004cf634     glfile.obj
 0002:00001640       ??_C@_0BJ@GLFIAOHK@?$CF6?43f?5?$CF6?43f?5?$CF6?43f?50?50?51?6?$AA@ 004cf640     ivp.obj
 0002:0000165c       ??_C@_0BJ@FHPKENPN@?$CF6?43f?5?$CF6?43f?5?$CF6?43f?50?51?50?6?$AA@ 004cf65c     ivp.obj
 0002:00001678       ??_C@_0BJ@MMONGPPJ@?$CF6?43f?5?$CF6?43f?5?$CF6?43f?51?50?50?6?$AA@ 004cf678     ivp.obj
 0002:00001694       ??_C@_02NMHMJFKO@3?6?$AA@  004cf694     ivp.obj
 0002:00001698       ??_C@_0P@FLEPLLPM@Writing?5?$CFs?4?4?4?6?$AA@ 004cf698     ivp.obj
 0002:000016ac       ??_7CPhysCollisionEntry@@6B@ 004cf6ac     ivp.obj
 0002:000016b8       ??_7CPhysCollisionEntrySolid@@6B@ 004cf6b8     ivp.obj
 0002:000016c4       ??_7CPhysCollisionEntryStaticSolid@@6B@ 004cf6c4     ivp.obj
 0002:000016d0       ??_7CPhysCollisionEntryStaticMesh@@6B@ 004cf6d0     ivp.obj
 0002:000016dc       ??_7CPhysCollisionEntryFluid@@6B@ 004cf6dc     ivp.obj
 0002:000016e4       ??_C@_0BE@PBEHMONM@maps?1?$CFs?1?$CFs_depth_?$CFi?$AA@ 004cf6e4     ivp.obj
 0002:000016f8       ??_C@_0M@GPMGDIOD@$waterdepth?$AA@ 004cf6f8     ivp.obj
 0002:00001704       ??_C@_02IKAHHCAI@?$CFi?$AA@ 004cf704     ivp.obj
 0002:00001708       ??_C@_02GMLFBBN@wb?$AA@    004cf708     ivp.obj
 0002:0000170c       ??_C@_0L@LCJFBGLL@?$CFs?$CF03d?4txt?$AA@ 004cf70c     ivp.obj
 0002:00001718       ??_C@_0L@JEHPFMNB@?$CFs?$CF03d?4phy?$AA@ 004cf718     ivp.obj
 0002:00001724       ??_C@_07ILMJKKDI@collide?$AA@ 004cf724     ivp.obj
 0002:0000172c       ??_C@_0L@CACCOGME@static?$CF02d?$AA@ 004cf72c     ivp.obj
 0002:00001738       ??_C@_08MKICKDHE@mesh?$CF02d?$AA@ 004cf738     ivp.obj
 0002:00001744       ??_C@_09CLPCALOF@water?$CF02d?$AA@ 004cf744     ivp.obj
 0002:00001750       ??_C@_05ELAABIKM@water?$AA@ 004cf750     ivp.obj
 0002:00001758       __real@3ef12ede60000000    004cf758     ivp.obj
 0002:00001760       ??_C@_07DLHCIBDH@default?$AA@ 004cf760     ivp.obj
 0002:00001768       ??_C@_0L@GIBLANCP@?$CC?$CFs?$CC?5?$CC?$CFd?$CC?6?$AA@ 004cf768     ivp.obj
 0002:00001774       ??_C@_0CB@EAKJLKK@Error?5writing?5collision?5data?5?$CFs?6@ 004cf774     ivp.obj
 0002:00001798       ??_C@_0L@MCBCMFKE@?$CC?$CFs?$CC?5?$CC?$CFf?$CC?6?$AA@ 004cf798     ivp.obj
 0002:000017a4       ??_C@_02MBJIFMOJ@?$CC?6?$AA@ 004cf7a4     ivp.obj
 0002:000017a8       ??_C@_03JAIJOMNP@?$CFf?5?$AA@ 004cf7a8     ivp.obj
 0002:000017ac       ??_C@_06EGGGGBNL@?$CC?$CFs?$CC?5?$CC?$AA@ 004cf7ac     ivp.obj
 0002:000017b4       ??_C@_01BJJEKLCA@?$CC?$AA@ 004cf7b4     ivp.obj
 0002:000017b8       ??_C@_01LOCGONAA@?$AA?$AA@ 004cf7b8     ivp.obj
 0002:000017bc       ??_C@_08ODCIAOPM@contents?$AA@ 004cf7bc     ivp.obj
 0002:000017c8       ??_C@_05FKHKFDID@index?$AA@ 004cf7c8     ivp.obj
 0002:000017d0       ??_C@_0P@OEGNPKIB@staticsolid?5?$HL?6?$AA@ 004cf7d0     ivp.obj
 0002:000017e0       ??_C@_0BG@MIFABPEL@done?5?$CI?$CFd?$CJ?5?$CI?$CFd?5bytes?$CJ?6?$AA@ 004cf7e0     ivp.obj
 0002:000017f8       ??_C@_0BB@PAFEBCLK@materialtable?5?$HL?6?$AA@ 004cf7f8     ivp.obj
 0002:0000180c       ??_C@_0BD@BFDMGGNB@virtualterrain?5?$HL?$HN?6?$AA@ 004cf80c     ivp.obj
 0002:00001820       ??_C@_0CE@ILLOBNPM@Building?5Physics?5collision?5data?4@ 004cf820     ivp.obj
 0002:00001844       ??_C@_0CK@PKCCIPMA@?$CB?$CB?$CB?5WARNING?3?5Can?8t?5build?5collisi@ 004cf844     ivp.obj
 0002:00001870       ??_C@_0BF@PLKAEACL@VPhysicsCollision007?$AA@ 004cf870     ivp.obj
 0002:00001888       ??_C@_06EMCPHFGM@volume?$AA@ 004cf888     ivp.obj
 0002:00001890       ??_C@_0M@CPDICMCJ@surfaceprop?$AA@ 004cf890     ivp.obj
 0002:0000189c       ??_C@_04IJEANHEE@mass?$AA@ 004cf89c     ivp.obj
 0002:000018a4       ??_C@_08NEDFMPNN@solid?5?$HL?6?$AA@ 004cf8a4     ivp.obj
 0002:000018b0       ??_C@_0BA@DBPBOMKC@currentvelocity?$AA@ 004cf8b0     ivp.obj
 0002:000018c0       ??_C@_0N@HDKAOPAI@surfaceplane?$AA@ 004cf8c0     ivp.obj
 0002:000018d0       ??_C@_07IANOJGAO@damping?$AA@ 004cf8d0     ivp.obj
 0002:000018d8       ??_C@_08EOKLBGBN@fluid?5?$HL?6?$AA@ 004cf8d8     ivp.obj
 0002:000018e4       ??_C@_0CE@INBCPILM@Entity?5?$CFs?5?$CI?$CF?42f?5?$CF?42f?5?$CF?42f?$CJ?5leake@ 004cf8e4     leakfile.obj
 0002:00001908       ??_C@_0BE@ONJNDCHC@?$CF5i?5point?5linefile?6?$AA@ 004cf908     leakfile.obj
 0002:0000191c       ??_C@_09MALOBAAJ@?$CFf?5?$CFf?5?$CFf?6?$AA@ 004cf91c     leakfile.obj
 0002:00001928       ??_C@_0BC@ONJICBGP@Couldn?8t?5open?5?$CFs?6?$AA@ 004cf928     leakfile.obj
 0002:0000193c       ??_C@_06MBNJCGIN@?$CFs?4lin?$AA@ 004cf93c     leakfile.obj
 0002:00001944       ??_C@_0BC@LPEHNNEG@?9?9?9?5LeakFile?5?9?9?9?6?$AA@ 004cf944     leakfile.obj
 0002:00001958       ??_C@_09CKEIHHKG@Wrote?5?$CFs?6?$AA@ 004cf958     leakfile.obj
 0002:00001964       ??_C@_0BI@GJGMGOAA@Command?5Line?5found?3?5?$CFs?6?$AA@ 004cf964     loadcmdline.obj
 0002:0000197c       ??_C@_0BH@FPHGKPHF@?$CFs?1cfg?1commandline?4cfg?$AA@ 004cf97c     loadcmdline.obj
 0002:00001994       ??_C@_0M@FMINHJIF@CommandLine?$AA@ 004cf994     loadcmdline.obj
 0002:000019a0       ??_C@_0M@HDOHEMLJ@?$CFs_l_?$CFd?4lmp?$AA@ 004cf9a0     lumpfiles.obj
 0002:000019ac       ??_C@_0P@GHFPNOJB@bad?5allocation?$AA@ 004cf9ac     map.obj
 0002:000019bc       ?collate@?$_Locbase@H@std@@2HB 004cf9bc     map.obj
 0002:000019c0       ?ctype@?$_Locbase@H@std@@2HB 004cf9c0     map.obj
 0002:000019c4       ?monetary@?$_Locbase@H@std@@2HB 004cf9c4     map.obj
 0002:000019c8       ?numeric@?$_Locbase@H@std@@2HB 004cf9c8     map.obj
 0002:000019cc       ?time@?$_Locbase@H@std@@2HB 004cf9cc     map.obj
 0002:000019d0       ?messages@?$_Locbase@H@std@@2HB 004cf9d0     map.obj
 0002:000019d4       ?all@?$_Locbase@H@std@@2HB 004cf9d4     map.obj
 0002:000019d8       ?none@?$_Locbase@H@std@@2HB 004cf9d8     map.obj
 0002:000019dc       ?table_size@?$ctype@D@std@@2IB 004cf9dc     map.obj
 0002:000019e0       ?skipws@?$_Iosb@H@std@@2W4_Fmtflags@12@B 004cf9e0     map.obj
 0002:000019e4       ?unitbuf@?$_Iosb@H@std@@2W4_Fmtflags@12@B 004cf9e4     map.obj
 0002:000019e8       ?uppercase@?$_Iosb@H@std@@2W4_Fmtflags@12@B 004cf9e8     map.obj
 0002:000019ec       ?showbase@?$_Iosb@H@std@@2W4_Fmtflags@12@B 004cf9ec     map.obj
 0002:000019f0       ?showpoint@?$_Iosb@H@std@@2W4_Fmtflags@12@B 004cf9f0     map.obj
 0002:000019f4       ?showpos@?$_Iosb@H@std@@2W4_Fmtflags@12@B 004cf9f4     map.obj
 0002:000019f8       ?left@?$_Iosb@H@std@@2W4_Fmtflags@12@B 004cf9f8     map.obj
 0002:000019fc       ?right@?$_Iosb@H@std@@2W4_Fmtflags@12@B 004cf9fc     map.obj
 0002:00001a00       ?internal@?$_Iosb@H@std@@2W4_Fmtflags@12@B 004cfa00     map.obj
 0002:00001a04       ?dec@?$_Iosb@H@std@@2W4_Fmtflags@12@B 004cfa04     map.obj
 0002:00001a08       ?oct@?$_Iosb@H@std@@2W4_Fmtflags@12@B 004cfa08     map.obj
 0002:00001a0c       ?hex@?$_Iosb@H@std@@2W4_Fmtflags@12@B 004cfa0c     map.obj
 0002:00001a10       ?scientific@?$_Iosb@H@std@@2W4_Fmtflags@12@B 004cfa10     map.obj
 0002:00001a14       ?fixed@?$_Iosb@H@std@@2W4_Fmtflags@12@B 004cfa14     map.obj
 0002:00001a18       ?boolalpha@?$_Iosb@H@std@@2W4_Fmtflags@12@B 004cfa18     map.obj
 0002:00001a1c       ?_Stdio@?$_Iosb@H@std@@2W4_Fmtflags@12@B 004cfa1c     map.obj
 0002:00001a20       ?adjustfield@?$_Iosb@H@std@@2W4_Fmtflags@12@B 004cfa20     map.obj
 0002:00001a24       ?basefield@?$_Iosb@H@std@@2W4_Fmtflags@12@B 004cfa24     map.obj
 0002:00001a28       ?floatfield@?$_Iosb@H@std@@2W4_Fmtflags@12@B 004cfa28     map.obj
 0002:00001a2c       ?goodbit@?$_Iosb@H@std@@2W4_Iostate@12@B 004cfa2c     map.obj
 0002:00001a30       ?eofbit@?$_Iosb@H@std@@2W4_Iostate@12@B 004cfa30     map.obj
 0002:00001a34       ?failbit@?$_Iosb@H@std@@2W4_Iostate@12@B 004cfa34     map.obj
 0002:00001a38       ?badbit@?$_Iosb@H@std@@2W4_Iostate@12@B 004cfa38     map.obj
 0002:00001a3c       ?_Hardfail@?$_Iosb@H@std@@2W4_Iostate@12@B 004cfa3c     map.obj
 0002:00001a40       ?in@?$_Iosb@H@std@@2W4_Openmode@12@B 004cfa40     map.obj
 0002:00001a44       ?out@?$_Iosb@H@std@@2W4_Openmode@12@B 004cfa44     map.obj
 0002:00001a48       ?ate@?$_Iosb@H@std@@2W4_Openmode@12@B 004cfa48     map.obj
 0002:00001a4c       ?app@?$_Iosb@H@std@@2W4_Openmode@12@B 004cfa4c     map.obj
 0002:00001a50       ?trunc@?$_Iosb@H@std@@2W4_Openmode@12@B 004cfa50     map.obj
 0002:00001a54       ?_Nocreate@?$_Iosb@H@std@@2W4_Openmode@12@B 004cfa54     map.obj
 0002:00001a58       ?_Noreplace@?$_Iosb@H@std@@2W4_Openmode@12@B 004cfa58     map.obj
 0002:00001a5c       ?binary@?$_Iosb@H@std@@2W4_Openmode@12@B 004cfa5c     map.obj
 0002:00001a60       ?beg@?$_Iosb@H@std@@2W4_Seekdir@12@B 004cfa60     map.obj
 0002:00001a64       ?cur@?$_Iosb@H@std@@2W4_Seekdir@12@B 004cfa64     map.obj
 0002:00001a68       ?end@?$_Iosb@H@std@@2W4_Seekdir@12@B 004cfa68     map.obj
 0002:00001a6c       ??_C@_0BD@JBACICKJ@Not?5a?5Parse?5error?$CB?$AA@ 004cfa6c     map.obj
 0002:00001a80       ??_C@_0CC@NMNJEPNA@Brush?5?$CFi?3?5?$CFs?6Side?5?$CFi?6Texture?3?5?$CFs@ 004cfa80     map.obj
 0002:00001aa4       ??_C@_0BH@MAFNOPPO@Brush?5?$CFi?0?5Side?5?$CFi?3?5?$CFs?6?$AA@ 004cfaa4     map.obj
 0002:00001ac0       __real@3fd5555560000000    004cfac0     map.obj
 0002:00001ac8       ??_C@_0BA@GNFEIJEF@func_areaportal?$AA@ 004cfac8     map.obj
 0002:00001ad8       ??_C@_0CF@HOACDEG@Brush?5?$CFi?3?5no?5visible?5sides?5on?5br@ 004cfad8     map.obj
 0002:00001b00       ??_C@_0BP@MBAIJKBK@Brush?5?$CFi?3?5bounds?5out?5of?5range?6?$AA@ 004cfb00     map.obj
 0002:00001b20       ??_C@_03DMHICLNI@row?$AA@  004cfb20     map.obj
 0002:00001b24       ??_C@_06INICNAFJ@smooth?$AA@ 004cfb24     map.obj
 0002:00001b2c       ??_C@_07KPOMEPOC@mintess?$AA@ 004cfb2c     map.obj
 0002:00001b34       ??_C@_05GECEPKB@flags?$AA@ 004cfb34     map.obj
 0002:00001b3c       ??_C@_0O@NBIGDJFH@startposition?$AA@ 004cfb3c     map.obj
 0002:00001b4c       ??_C@_05NKILLMJE@vaxis?$AA@ 004cfb4c     map.obj
 0002:00001b54       ??_C@_05FMBPMODK@uaxis?$AA@ 004cfb54     map.obj
 0002:00001b5c       ??_C@_05PLIADJJL@power?$AA@ 004cfb5c     map.obj
 0002:00001b64       ??_C@_06BMHBIPLB@maxs?4z?$AA@ 004cfb64     map.obj
 0002:00001b6c       ??_C@_06DHFMNMHC@maxs?4y?$AA@ 004cfb6c     map.obj
 0002:00001b74       ??_C@_06COEHONDD@maxs?4x?$AA@ 004cfb74     map.obj
 0002:00001b7c       ??_C@_06BPICGPPO@mins?4z?$AA@ 004cfb7c     map.obj
 0002:00001b84       ??_C@_06DEKPDMDN@mins?4y?$AA@ 004cfb84     map.obj
 0002:00001b8c       ??_C@_06CNLEANHM@mins?4x?$AA@ 004cfb8c     map.obj
 0002:00001b94       ??_C@_05JGBIAEON@?$CF2?42f?$AA@ 004cfb94     map.obj
 0002:00001b9c       ??_C@_0L@FEPNPAJD@targetname?$AA@ 004cfb9c     map.obj
 0002:00001ba8       ??_C@_0BB@FIHILHEL@BackgroundBModel?$AA@ 004cfba8     map.obj
 0002:00001bbc       ??_C@_06JJLAMBGK@target?$AA@ 004cfbbc     map.obj
 0002:00001bc4       ??_C@_0BB@OGPBFIKB@smoothing_groups?$AA@ 004cfbc4     map.obj
 0002:00001bd8       ??_C@_02EGCJHIOB@id?$AA@   004cfbd8     map.obj
 0002:00001bdc       ??_C@_0BA@DFPKDOLK@luxel?5size?5of?50?$AA@ 004cfbdc     map.obj
 0002:00001bec       ??_C@_0O@JMIJMGFN@lightmapscale?$AA@ 004cfbec     map.obj
 0002:00001bfc       ??_C@_0BK@EDNAAFKG@parsing?5V?5axis?5definition?$AA@ 004cfbfc     map.obj
 0002:00001c18       ??_C@_0BK@KJFGNIME@parsing?5U?5axis?5definition?$AA@ 004cfc18     map.obj
 0002:00001c34       ??_C@_0BB@LHCKFDFE@?$FL?$CFf?5?$CFf?5?$CFf?5?$CFf?$FN?5?$CFf?$AA@ 004cfc34     map.obj
 0002:00001c48       ??_C@_08KNOEMJMM@material?$AA@ 004cfc48     map.obj
 0002:00001c54       ??_C@_0BJ@MKMLNGKE@parsing?5plane?5definition?$AA@ 004cfc54     map.obj
 0002:00001c70       ??_C@_0CB@BIIACPHF@?$CI?$CFf?5?$CFf?5?$CFf?$CJ?5?$CI?$CFf?5?$CFf?5?$CFf?$CJ?5?$CI?$CFf?5?$CFf?5?$CFf?$CJ@ 004cfc70     map.obj
 0002:00001c94       ??_C@_05MAIECAHP@plane?$AA@ 004cfc94     map.obj
 0002:00001c9c       ??_C@_0CH@IPLGAKEG@ParseDispInfoChunk?3?5Illegal?5Chun@ 004cfc9c     map.obj
 0002:00001cc4       ??_C@_01CELHOKLL@?$HN?$AA@ 004cfcc4     map.obj
 0002:00001cc8       ??_C@_0CH@BKDCCOOE@ParseDispInfoChunk?3?5Illegal?5Chun@ 004cfcc8     map.obj
 0002:00001cf0       ??_C@_01LBDDMOBJ@?$FN?$AA@ 004cfcf0     map.obj
 0002:00001cf4       ??_C@_0CH@EMGIIJGC@ParseDispInfoChunk?3?5Illegal?5Chun@ 004cfcf4     map.obj
 0002:00001d1c       ??_C@_01OHGJGJJP@?$FL?$AA@ 004cfd1c     map.obj
 0002:00001d20       ??_C@_0CH@NJOMKNMA@ParseDispInfoChunk?3?5Illegal?5Chun@ 004cfd20     map.obj
 0002:00001d48       ??_C@_01HCONENDN@?$HL?$AA@ 004cfd48     map.obj
 0002:00001d4c       ??_C@_0DG@GPKBCONA@ParseDispInfoChunk?3?5nummapdispin@ 004cfd4c     map.obj
 0002:00001d84       ??_C@_0P@OPCJGGAO@MAX_MAP_PLANES?$AA@ 004cfd84     map.obj
 0002:00001d94       ??_C@_0BH@HHAHLGNM@FloatPlane?3?5bad?5normal?$AA@ 004cfd94     map.obj
 0002:00001dac       __real@3727c5ac            004cfdac     map.obj
 0002:00001db0       ??_C@_0O@LBPCPJAL@triangle_tags?$AA@ 004cfdb0     map.obj
 0002:00001dc0       ??_C@_06HKCDBMPA@alphas?$AA@ 004cfdc0     map.obj
 0002:00001dc8       ??_C@_07EALNHAIO@offsets?$AA@ 004cfdc8     map.obj
 0002:00001dd0       ??_C@_09IIHGAIPH@distances?$AA@ 004cfdd0     map.obj
 0002:00001ddc       ??_C@_07MDEPDJDC@normals?$AA@ 004cfddc     map.obj
 0002:00001de4       ??_C@_0BF@IIALCAPD@plane?5with?5no?5normal?$AA@ 004cfde4     map.obj
 0002:00001dfc       ??_C@_0P@JEIPHHHE@mirrored?5plane?$AA@ 004cfdfc     map.obj
 0002:00001e0c       ??_C@_0BA@IDGBHDDK@duplicate?5plane?$AA@ 004cfe0c     map.obj
 0002:00001e1c       ??_C@_08OAJLBCOI@dispinfo?$AA@ 004cfe1c     map.obj
 0002:00001e28       ??_C@_0BD@MGJMIOFL@MAX_MAP_BRUSHSIDES?$AA@ 004cfe28     map.obj
 0002:00001e3c       ??_C@_0CG@CEPOEEJD@can?8t?5proceed?5after?5expanding?5br@ 004cfe3c     map.obj
 0002:00001e64       ??_C@_0CK@BIMBNPCN@?$CFs?5?$FL?50?50?51?5?9512?5?$FN?5?$FL?50?5?91?50?5?9256?5@ 004cfe64     map.obj
 0002:00001e90       __real@4030000000000000    004cfe90     map.obj
 0002:00001e98       ??_C@_0IP@BCKCJLE@?$CCmapversion?$CC?5?$CC220?$CC?6?$CCsounds?$CC?5?$CC1?$CC?6@ 004cfe98     map.obj
 0002:00001f28       ??_C@_0N@FKGKKGKE@expanded?4map?$AA@ 004cff28     map.obj
 0002:00001f38       ??_C@_05KJODHHKF@sides?$AA@ 004cff38     map.obj
 0002:00001f40       ??_C@_03CGENABJP@uv3?$AA@  004cff40     map.obj
 0002:00001f44       ??_C@_03DPFGDANO@uv2?$AA@  004cff44     map.obj
 0002:00001f48       ??_C@_03BEHLGDBN@uv1?$AA@  004cff48     map.obj
 0002:00001f4c       ??_C@_03NGAFCFM@uv0?$AA@   004cff4c     map.obj
 0002:00001f50       ??_C@_0M@CBNMGMHG@BasisNormal?$AA@ 004cff50     map.obj
 0002:00001f5c       ??_C@_06DAKFJGGD@BasisV?$AA@ 004cff5c     map.obj
 0002:00001f64       ??_C@_06BLIIMFKA@BasisU?$AA@ 004cff64     map.obj
 0002:00001f6c       ??_C@_0M@HMELADEK@BasisOrigin?$AA@ 004cff6c     map.obj
 0002:00001f78       ??_C@_04NBAIMGMF@EndV?$AA@ 004cff78     map.obj
 0002:00001f80       ??_C@_06DKGAJAMI@StartV?$AA@ 004cff80     map.obj
 0002:00001f88       ??_C@_04PKCFJFAG@EndU?$AA@ 004cff88     map.obj
 0002:00001f90       ??_C@_06BBENMDAL@StartU?$AA@ 004cff90     map.obj
 0002:00001f98       ??_C@_0CL@HJFEOBAA@Overlay?5Material?5Name?5?$DO?5OVERLAY_@ 004cff98     map.obj
 0002:00001fc4       ??_C@_0M@GHHOADBD@overlaydata?$AA@ 004cffc4     map.obj
 0002:00001fd0       ??_C@_08DIEBNEND@?$CFi?5?$CFi?5?$CFi?$AA@ 004cffd0     map.obj
 0002:00001fdc       ??_C@_0CO@GOILIMJA@Brush?5?$CFi?3?5origin?5brushes?5not?5all@ 004cffdc     map.obj
 0002:0000200c       ??_C@_04JGNFNGGK@side?$AA@ 004d000c     map.obj
 0002:00002014       ??_C@_0CB@FJNNNLDI@nummapbrushes?5?$DN?$DN?5MAX_MAP_BRUSHES@ 004d0014     map.obj
 0002:00002038       ??_C@_0N@KGPHONEC@portalnumber?$AA@ 004d0038     map.obj
 0002:00002048       ??_C@_0DG@LEHLNDPI@Entity?5?$CFi?3?5func_areaportal?5can?5o@ 004d0048     map.obj
 0002:00002080       ??_C@_0BH@NALGDPIA@info_no_dynamic_shadow?$AA@ 004d0080     map.obj
 0002:00002098       ??_C@_0BI@OMCMPAEO@info_overlay_transition?$AA@ 004d0098     map.obj
 0002:000020b0       ??_C@_0N@BGKIAKKP@info_overlay?$AA@ 004d00b0     map.obj
 0002:000020c0       ??_C@_0O@LNCJIGDK@test_sidelist?$AA@ 004d00c0     map.obj
 0002:000020d0       ??_C@_0M@EDMIMGHH@cubemapsize?$AA@ 004d00d0     map.obj
 0002:000020dc       ??_C@_0M@OEALFABH@info_ladder?$AA@ 004d00dc     map.obj
 0002:000020e8       ??_C@_0M@OOKLDPAJ@func_ladder?$AA@ 004d00e8     map.obj
 0002:000020f4       ??_C@_0M@MMLAJCHD@func_detail?$AA@ 004d00f4     map.obj
 0002:00002100       ??_C@_0L@BGKEEOJO@maxdxlevel?$AA@ 004d0100     map.obj
 0002:0000210c       ??_C@_0L@NKKJDFJB@mindxlevel?$AA@ 004d010c     map.obj
 0002:00002118       ??_C@_0BC@FJHAELML@overlaytransition?$AA@ 004d0118     map.obj
 0002:0000212c       ??_C@_0M@EAJPACGF@connections?$AA@ 004d012c     map.obj
 0002:00002138       ??_C@_05OPIONHBI@solid?$AA@ 004d0138     map.obj
 0002:00002140       ??_C@_0CB@GIFGAPCN@num_entities?5?$DN?$DN?5MAX_MAP_ENTITIES@ 004d0140     map.obj
 0002:00002164       ??_C@_0CO@GHCPCDGG@size?3?5?$CF5?40f?0?$CF5?40f?0?$CF5?40f?5to?5?$CF5?40f@ 004d0164     map.obj
 0002:00002194       ??_C@_0BB@PBBAPMMD@?$CF5i?5areaportals?6?$AA@ 004d0194     map.obj
 0002:000021a8       ??_C@_0M@FHMKEEFP@?$CF5i?5planes?6?$AA@ 004d01a8     map.obj
 0002:000021b4       ??_C@_0O@HPNIHHPI@?$CF5i?5entities?6?$AA@ 004d01b4     map.obj
 0002:000021c4       ??_C@_0BA@HPIFLHBK@?$CF5i?5edgebevels?6?$AA@ 004d01c4     map.obj
 0002:000021d4       ??_C@_0P@FECCOIAO@?$CF5i?5boxbevels?6?$AA@ 004d01d4     map.obj
 0002:000021e4       ??_C@_0BB@LDGJKFDM@?$CF5i?5total?5sides?6?$AA@ 004d01e4     map.obj
 0002:000021f8       ??_C@_0BB@HLCBGCLL@?$CF5i?5clipbrushes?6?$AA@ 004d01f8     map.obj
 0002:0000220c       ??_C@_0BH@GDLKMEGB@Error?5opening?5?$CFs?3?5?$CFs?4?6?$AA@ 004d020c     map.obj
 0002:00002224       ??_C@_06GOJKNBFM@entity?$AA@ 004d0224     map.obj
 0002:0000222c       ??_C@_05MCBCHHEJ@world?$AA@ 004d022c     map.obj
 0002:00002234       ??_C@_0M@LGGMODLI@Loading?5?$CFs?6?$AA@ 004d0234     map.obj
 0002:00002240       ??_C@_0CD@CLEPENAJ@Infinite?5recursion?5in?5patch?5file@ 004d0240     materialpatch.obj
 0002:00002264       ??_C@_07CLEHDIEJ@replace?$AA@ 004d0264     materialpatch.obj
 0002:0000226c       ??_C@_06OAOPNKHP@insert?$AA@ 004d026c     materialpatch.obj
 0002:00002274       ??_C@_03JLLDDLCC@vmt?$AA@  004d0274     materialpatch.obj
 0002:00002278       ??_C@_07FHOHOHLG@include?$AA@ 004d0278     materialpatch.obj
 0002:00002280       ??_C@_05OCKFKOHN@patch?$AA@ 004d0280     materialpatch.obj
 0002:00002288       ??_C@_0BB@LDFMOGIJ@materials?1?$CFs?4vmt?$AA@ 004d0288     materialpatch.obj
 0002:0000229c       ??_C@_04EPOOCEMM@blah?$AA@ 004d029c     materialpatch.obj
 0002:000022a4       ??_C@_0CG@LIACKKOF@Couldn?8t?5allocate?5KeyValues?5for?5@ 004d02a4     materialpatch.obj
 0002:000022cc       ??_C@_07DPNAEFKO@AllMaps?$AA@ 004d02cc     materialsub.obj
 0002:000022d4       ??_C@_0CA@HOILNHCB@Failed?5to?5load?5KeyValues?5file?$CB?6?$AA@ 004d02d4     materialsub.obj
 0002:000022f4       ??_C@_0O@DMIKEJDC@File?5path?3?5?$CFs?$AA@ 004d02f4     materialsub.obj
 0002:00002304       ??_C@_0BF@HKOHJKOO@MaterialReplacements?$AA@ 004d0304     materialsub.obj
 0002:0000231c       ??_C@_0BG@MMHIEDBE@?$CFscfg?2materialsub?4cfg?$AA@ 004d031c     materialsub.obj
 0002:00002334       ??_C@_0BK@GFEEBONO@Loading?5Replacement?5Keys?6?$AA@ 004d0334     materialsub.obj
 0002:00002350       ?ProcessDetach@NativeDll@<CrtImplementationDetails>@@0IB 004d0350     memoverride.obj
 0002:00002354       ?ProcessAttach@NativeDll@<CrtImplementationDetails>@@0IB 004d0354     memoverride.obj
 0002:00002358       ?ThreadAttach@NativeDll@<CrtImplementationDetails>@@0IB 004d0358     memoverride.obj
 0002:0000235c       ?ThreadDetach@NativeDll@<CrtImplementationDetails>@@0IB 004d035c     memoverride.obj
 0002:00002360       ?ProcessVerifier@NativeDll@<CrtImplementationDetails>@@0IB 004d0360     memoverride.obj
 0002:00002364       ??_C@_0BD@NADBKHMH@C?9runtime?5internal?$AA@ 004d0364     memoverride.obj
 0002:0000237c       ??_7bad_alloc@std@@6B@     004d037c     mstristrip.obj
 0002:00002388       ??_7logic_error@std@@6B@   004d0388     mstristrip.obj
 0002:00002394       ??_7length_error@std@@6B@  004d0394     mstristrip.obj
 0002:0000239c       ??_C@_0BD@OLBABOEK@vector?$DMT?$DO?5too?5long?$AA@ 004d039c     mstristrip.obj
 0002:000023b0       ??_C@_0BB@MOGOBHAF@list?$DMT?$DO?5too?5long?$AA@ 004d03b0     mstristrip.obj
 0002:000023c4       ??_C@_0CI@IOFNFKAF@g_numvertnormals?5?$DN?$DN?5MAX_MAP_VERT@ 004d03c4     normals.obj
 0002:000023ec       ??_C@_0DE@NADELJPI@g_numvertnormalindices?5?$DN?$DN?5MAX_MA@ 004d03ec     normals.obj
 0002:00002420       ??_C@_0CK@ILCAJLFI@Face?5List?5Count?5?$DO?$DN?5OVERLAY_BSP_F@ 004d0420     overlay.obj
 0002:0000244c       ??_C@_0CE@IMBNFMEA@g_nOverlayCount?5?$DO?$DN?5MAX_MAP_OVERL@ 004d044c     overlay.obj
 0002:00002470       ??_C@_0DF@BMIBMKFD@Water?5Face?5List?5Count?5?$DO?$DN?5WATEROV@ 004d0470     overlay.obj
 0002:000024a8       ??_C@_0CO@KJFABJLH@g_nWaterOverlayCount?5?$DO?$DN?5MAX_MAP_@ 004d04a8     overlay.obj
 0002:000024d8       ??_C@_0DE@IIFEELHN@Overlay?5at?5?$CFf?5?$CFf?5?$CFf?5has?5invalid?5@ 004d04d8     overlay.obj
 0002:0000250c       ??_C@_0M@MCPJDFDC@RenderOrder?$AA@ 004d050c     overlay.obj
 0002:00002518       ??_C@_0N@IBCKMFJP@VPHYSICS?4DLL?$AA@ 004d0518     physdll.obj
 0002:00002528       ??_C@_0BP@LIHEBGBH@Portal_EntityFlood?3?5not?5a?5leaf?$AA@ 004d0528     portals.obj
 0002:00002548       ??_C@_0CD@JFIEIEKB@AddPortalToNode?3?5allready?5includ@ 004d0548     portals.obj
 0002:0000256c       ??_C@_0CP@CAKEOEAK@RemovePortalFromNode?3?5portal?5not@ 004d056c     portals.obj
 0002:0000259c       ??_C@_0CJ@IIKHMOPG@RemovePortalFromNode?3?5portal?5not@ 004d059c     portals.obj
 0002:000025c8       ??_C@_0BF@NKDBCNID@?$CI?$CF5?40f?0?$CF5?40f?0?$CF5?40f?$CJ?6?$AA@ 004d05c8     portals.obj
 0002:000025e0       ??_C@_0CL@GHKIMALJ@entity?5reached?5from?5outside?5?9?9?5n@ 004d05e0     portals.obj
 0002:0000260c       ??_C@_0CD@DNPJGLB@no?5entities?5in?5open?5?9?9?5no?5fillin@ 004d060c     portals.obj
 0002:00002630       ??_C@_0BC@IHPKIKNE@info_player_start?$AA@ 004d0630     portals.obj
 0002:00002644       ??_C@_0BH@HLBIBACP@?9?9?9?5FloodEntities?5?9?9?9?6?$AA@ 004d0644     portals.obj
 0002:0000265c       ??_C@_0DM@NNFAMLGB@WARNING?3?5areaportal?5entity?5?$CFi?5?$CIb@ 004d065c     portals.obj
 0002:00002698       ??_C@_0DF@LBOOPFLN@?6Brush?5?$CFi?3?5areaportal?5brush?5does@ 004d0698     portals.obj
 0002:000026d0       __real@401921fb60000000    004d06d0     portals.obj
 0002:000026d8       __real@401921fb54442d18    004d06d8     portals.obj
 0002:000026e0       ??_C@_0DK@BCHHFABC@FindUniquePoints?3?5overflowed?5uni@ 004d06e0     portals.obj
 0002:00002720       __real@3fb99999a0000000    004d0720     portals.obj
 0002:00002728       __real@459c4000            004d0728     portals.obj
 0002:0000272c       ??_C@_0L@PBOEMMBA@?$CF5i?5areas?6?$AA@ 004d072c     portals.obj
 0002:00002738       ??_C@_0BE@NMCFKNEG@Processing?5areas?4?4?4?$AA@ 004d0738     portals.obj
 0002:0000274c       ??_C@_0BE@PLEMBIKP@?9?9?9?5FloodAreas?5?9?9?9?6?$AA@ 004d074c     portals.obj
 0002:00002760       ??_C@_0BC@BLMODMPJ@?$CF5i?5inside?5leafs?6?$AA@ 004d0760     portals.obj
 0002:00002774       ??_C@_0BC@DDIBNNOE@?$CF5i?5leafs?5filled?6?$AA@ 004d0774     portals.obj
 0002:00002788       ??_C@_0BB@EOCBGIME@?$CF5i?5solid?5leafs?6?$AA@ 004d0788     portals.obj
 0002:0000279c       ??_C@_0BF@HAKMMJNB@?9?9?9?5FillOutside?5?9?9?9?6?$AA@ 004d079c     portals.obj
 0002:000027b4       ??_C@_0CD@BKLIBDI@CutNodePortals_r?3?5mislinked?5port@ 004d07b4     portals.obj
 0002:000027d8       __real@4020000000000000    004d07d8     portals.obj
 0002:000027e0       ??_C@_0CF@KNIPLLJO@WARNING?3?5node?5with?5unbounded?5vol@ 004d07e0     portals.obj
 0002:00002808       __real@46801000            004d0808     portals.obj
 0002:0000280c       __real@c6801000            004d080c     portals.obj
 0002:00002810       ??_C@_0CA@LKBBLMDG@WARNING?3?5node?5without?5a?5volume?6?$AA@ 004d0810     portals.obj
 0002:00002830       ??_C@_0BE@OHKNIBCL@MAX_MAP_PORTALVERTS?$AA@ 004d0830     portals.obj
 0002:00002844       ??_C@_0DJ@GJPMBHMF@Warning?3?5area?5portal?5has?5?$CFd?5vert@ 004d0844     portals.obj
 0002:00002880       ??_C@_0BE@IDCALIKK@?$CF5i?5numareaportals?6?$AA@ 004d0880     portals.obj
 0002:00002894       ??_C@_0O@GFHNKNIP@?$CF5i?5numareas?6?$AA@ 004d0894     portals.obj
 0002:000028a4       ??_C@_0O@IBOILJGN@MAX_MAP_AREAS?$AA@ 004d08a4     portals.obj
 0002:000028b4       ??_C@_02PHMGELLB@?6?6?$AA@ 004d08b4     portals.obj
 0002:000028b8       ??_C@_0L@MOODCIAB@Brush?5?$CFd?3?5?$AA@ 004d08b8     portals.obj
 0002:000028c4       ??_C@_0BG@GECLGKNP@Candidate?5brush?5IDs?3?5?$AA@ 004d08c4     portals.obj
 0002:000028e0       ??_C@_0EN@FHDPIEOF@Check?5for?5a?5huge?5brush?5enclosing@ 004d08e0     portals.obj
 0002:00002930       ??_C@_0FD@FPKNDADB@This?5means?5that?5none?5of?5the?5brus@ 004d0930     portals.obj
 0002:00002984       ??_C@_0DF@BEFAKAHB@viscontents?5?$CInode?50?5contents?5?$FO?5n@ 004d0984     portals.obj
 0002:000029bc       ??_C@_0BF@IKJGHNIN@Leaf?51?5contents?3?5?$CFs?6?$AA@ 004d09bc     portals.obj
 0002:000029d4       ??_C@_0BF@CEPOOMBM@Leaf?50?5contents?3?5?$CFs?6?$AA@ 004d09d4     portals.obj
 0002:000029f0       ??_C@_0GL@JHNBNCNN@?6FindPortalSide?3?5Couldn?8t?5find?5a@ 004d09f0     portals.obj
 0002:00002a5c       ??_C@_0DH@NFIHIFFG@?$CK?$CK?$CK?5Suppressing?5further?5FindPort@ 004d0a5c     portals.obj
 0002:00002a94       ??_C@_0CE@DFFGJHBH@WARNING?3?5side?5not?5found?5for?5port@ 004d0a94     portals.obj
 0002:00002ab8       __real@49742400            004d0ab8     portals.obj
 0002:00002abc       ??_C@_0BK@GOPFEKFA@?9?9?9?5MarkVisibleSides?5?9?9?9?6?$AA@ 004d0abc     portals.obj
 0002:00002ad8       ??_C@_03JLNFKLOC@?$CFi?5?$AA@ 004d0ad8     prtfile.obj
 0002:00002adc       ??_C@_0BG@NGANDMJK@Too?5many?5portal?5verts?$AA@ 004d0adc     prtfile.obj
 0002:00002af4       ??_C@_0BC@FKOIAPP@Too?5many?5portals?6?$AA@ 004d0af4     prtfile.obj
 0002:00002b08       ??_C@_02KCKGHPCA@?$CJ?5?$AA@ 004d0b08     prtfile.obj
 0002:00002b0c       ??_C@_01ODHLEDKK@?$CI?$AA@ 004d0b0c     prtfile.obj
 0002:00002b10       ??_C@_09IKGGOGBI@?$CFi?5?$CFi?5?$CFi?5?$AA@ 004d0b10     prtfile.obj
 0002:00002b20       __real@3fefae147ae147ae    004d0b20     prtfile.obj
 0002:00002b28       ??_C@_0CE@PPGFFIAP@numclusterportals?5?$CB?$DN?5numportals?5@ 004d0b28     prtfile.obj
 0002:00002b4c       ??_C@_0BA@IGLBFDOH@?$CF5i?5visportals?6?$AA@ 004d0b4c     prtfile.obj
 0002:00002b5c       ??_C@_0BB@EDOGNKFI@?$CF5i?5visclusters?6?$AA@ 004d0b5c     prtfile.obj
 0002:00002b70       ??_C@_03OFAPEBGM@?$CFs?6?$AA@ 004d0b70     prtfile.obj
 0002:00002b74       ??_C@_04MNCCIBNO@PRT1?$AA@ 004d0b74     prtfile.obj
 0002:00002b7c       ??_C@_0BB@KKAAPNA@Error?5opening?5?$CFs?$AA@ 004d0b7c     prtfile.obj
 0002:00002b90       ??_C@_0O@LMKEHAHJ@writing?5?$CFs?4?4?4?$AA@ 004d0b90     prtfile.obj
 0002:00002ba0       ??_C@_06HLEIHIOA@?$CFs?4prt?$AA@ 004d0ba0     prtfile.obj
 0002:00002ba8       ??_C@_0BJ@PPHGGLDL@?9?9?9?5WritePortalFile?5?9?9?9?6?$AA@ 004d0ba8     prtfile.obj
 0002:00002bcc       ??_7IScratchPad3D@@6B@     004d0bcc     ScratchPad3D.obj
 0002:00002c14       __real@40400000            004d0c14     ScratchPad3D.obj
 0002:00002c1c       ??_7CBaseCommand@CScratchPad3D@@6B@ 004d0c1c     ScratchPad3D.obj
 0002:00002c24       ??_C@_0P@PAEMGLHD@VFileSystem017?$AA@ 004d0c24     ScratchPad3D.obj
 0002:00002c34       ??_C@_0BB@DHLFOMEN@filesystem_stdio?$AA@ 004d0c34     ScratchPad3D.obj
 0002:00002c4c       ??_7CCommand_Point@CScratchPad3D@@6B@ 004d0c4c     ScratchPad3D.obj
 0002:00002c58       ??_7CCommand_Line@CScratchPad3D@@6B@ 004d0c58     ScratchPad3D.obj
 0002:00002c64       ??_7CCommand_Matrix@CScratchPad3D@@6B@ 004d0c64     ScratchPad3D.obj
 0002:00002c70       ??_7CCommand_RenderState@CScratchPad3D@@6B@ 004d0c70     ScratchPad3D.obj
 0002:00002c78       ??_C@_03GAACFCKC@ab?$CL?$AA@ 004d0c78     ScratchPad3D.obj
 0002:00002c80       ??_7CCommand_Polygon@CScratchPad3D@@6B@ 004d0c80     ScratchPad3D.obj
 0002:00002c8c       ??_7CScratchPad3D@@6B@     004d0c8c     ScratchPad3D.obj
 0002:00002cd8       ??_7CCommand_Text@CScratchPad3D@@6B@ 004d0cd8     ScratchPad3D.obj
 0002:00002ce0       ??_C@_02JDPG@rb?$AA@       004d0ce0     ScratchPad3D.obj
 0002:00002ce8       __real@3f50624de0000000    004d0ce8     ScratchPad3D.obj
 0002:00002cf0       __real@3f1a36e2e0000000    004d0cf0     ScratchPad3D.obj
 0002:00002cf8       __real@406fe33340000000    004d0cf8     ScratchPad3D.obj
 0002:00002d00       __real@42c80000            004d0d00     ScratchPad3D.obj
 0002:00002d04       __real@c2c80000            004d0d04     ScratchPad3D.obj
 0002:00002d08       ??_C@_0M@IMMFCAIH@scratch?4pad?$AA@ 004d0d08     scratchpad_helpers.obj
 0002:00002d1c       ??_C@_0M@IHGNALJG@allowstatic?$AA@ 004d0d1c     StaticProp.obj
 0002:00002d28       ??_C@_09OMCEPKNN@prop_data?$AA@ 004d0d28     StaticProp.obj
 0002:00002d34       ??_C@_0CP@JIJCKMIO@Error?5Vertex?5File?5?$CFs?5checksum?5?$CFd@ 004d0d34     StaticProp.obj
 0002:00002d64       ??_C@_0CO@EPFJDMKK@Error?5Vertex?5File?5?$CFs?5version?5?$CFd?5@ 004d0d64     StaticProp.obj
 0002:00002d94       ??_C@_0CJ@LHDPNPII@Error?5Vertex?5File?5?$CFs?5id?5?$CFd?5shoul@ 004d0d94     StaticProp.obj
 0002:00002dc0       ??_C@_0BP@FEBLCPLO@Bad?5size?5for?5vertex?5data?5?$CC?$CFs?$CC?6?$AA@ 004d0dc0     StaticProp.obj
 0002:00002de0       ??_C@_0CB@HKBKLBIF@Unable?5to?5load?5vertex?5data?5?$CC?$CFs?$CC?6@ 004d0de0     StaticProp.obj
 0002:00002e04       ??_C@_04FIJFNMIG@?4vvd?$AA@ 004d0e04     StaticProp.obj
 0002:00002e0c       ??_C@_07FLCBLKFO@models?1?$AA@ 004d0e0c     StaticProp.obj
 0002:00002e18       ??_C@_0GC@BHCCOAEK@Error?$CB?5?$CFs?5using?5model?5?$CC?$CFs?$CC?0?5whic@ 004d0e18     StaticProp.obj
 0002:00002e80       ??_C@_0EP@HKFHEIGH@Error?$CB?5To?5use?5model?5?$CC?$CFs?$CC?6?5?5?5?5?5?5w@ 004d0e80     StaticProp.obj
 0002:00002ed0       ??_C@_04LGCIMDIF@IDAG?$AA@ 004d0ed0     StaticProp.obj
 0002:00002ed8       ??_C@_04MIGFPFAJ@IDST?$AA@ 004d0ed8     StaticProp.obj
 0002:00002ee0       ??_C@_0BD@IMPDAIMD@staticprop?$CF03d?4txt?$AA@ 004d0ee0     StaticProp.obj
 0002:00002ef4       ??_C@_0BH@KOMFDDOL@Bad?5geometry?5on?5?$CC?$CFs?$CC?$CB?6?$AA@ 004d0ef4     StaticProp.obj
 0002:00002f0c       ??_C@_0M@FOINAKII@prop_static?$AA@ 004d0f0c     StaticProp.obj
 0002:00002f18       ??_C@_0DD@EDIJEFGC@Static?5prop?5?$CFs?5outside?5the?5map?5?$CI@ 004d0f18     StaticProp.obj
 0002:00002f4c       ??_C@_0M@EMKBAIOI@fademindist?$AA@ 004d0f4c     StaticProp.obj
 0002:00002f58       ??_C@_0P@MIILKHBP@lightingorigin?$AA@ 004d0f58     StaticProp.obj
 0002:00002f68       ??_C@_09IPECPEGI@fadescale?$AA@ 004d0f68     StaticProp.obj
 0002:00002f74       ??_C@_0BA@MNGAFPDH@screenspacefade?$AA@ 004d0f74     StaticProp.obj
 0002:00002f84       ??_C@_0BF@JGIMAFIJ@disableselfshadowing?$AA@ 004d0f84     StaticProp.obj
 0002:00002f9c       ??_C@_0BG@ODLFPOKJ@disablevertexlighting?$AA@ 004d0f9c     StaticProp.obj
 0002:00002fb4       ??_C@_0P@KAMOLJAG@disableshadows?$AA@ 004d0fb4     StaticProp.obj
 0002:00002fc4       ??_C@_0M@KKMBKHAJ@fademaxdist?$AA@ 004d0fc4     StaticProp.obj
 0002:00002fd0       ??_C@_04NHPAFEHJ@skin?$AA@ 004d0fd0     StaticProp.obj
 0002:00002fd8       ??_C@_0M@NGBNJMIL@static_prop?$AA@ 004d0fd8     StaticProp.obj
 0002:00002fe4       ??_C@_0O@EJEKIFNM@info_lighting?$AA@ 004d0fe4     StaticProp.obj
 0002:00002ff4       ??_C@_01HIHLOKLC@1?$AA@    004d0ff4     textures.obj
 0002:00002ff8       ??_C@_04LOAJBDKD@true?$AA@ 004d0ff8     textures.obj
 0002:00003000       ??_C@_0O@IFAMPFIH@?$CFcompileSlime?$AA@ 004d1000     textures.obj
 0002:00003010       ??_C@_0N@KOCEKFOI@UnlitGeneric?$AA@ 004d1010     textures.obj
 0002:00003020       ??_C@_0BC@CEHNDAAO@?$CFcompileKeepLight?$AA@ 004d1020     textures.obj
 0002:00003034       ??_C@_0P@OENLNILK@?$CFcompileDetail?$AA@ 004d1034     textures.obj
 0002:00003044       ??_C@_0BB@NGKLKFOF@?$CFcompileNonsolid?$AA@ 004d1044     textures.obj
 0002:00003058       ??_C@_0BC@DEINFPLN@?$CFcompileInvisible?$AA@ 004d1058     textures.obj
 0002:0000306c       ??_C@_0P@KFJIHOEH@?$CFcompileNoDraw?$AA@ 004d106c     textures.obj
 0002:0000307c       ??_C@_0BE@PDMIKGIN@?$CFcompilePassBullets?$AA@ 004d107c     textures.obj
 0002:00003090       ??_C@_0M@IPEBHBNH@?$CFcompileWet?$AA@ 004d1090     textures.obj
 0002:0000309c       ??_C@_0P@MGMAHFMA@?$CFcompileLadder?$AA@ 004d109c     textures.obj
 0002:000030ac       ??_C@_0BK@FLIBLOFO@?$CFcompilePlayerControlClip?$AA@ 004d10ac     textures.obj
 0002:000030c8       ??_C@_0O@EPOOCJEM@?$CFcompileWater?$AA@ 004d10c8     textures.obj
 0002:000030d8       ??_C@_0BA@GKDMGPNA@?$CFcompileNoLight?$AA@ 004d10d8     textures.obj
 0002:000030e8       ??_C@_0BA@DHJNKBAM@?$CFcompileTrigger?$AA@ 004d10e8     textures.obj
 0002:000030f8       ??_C@_0P@GNMDKOGB@?$CFcompileNoChop?$AA@ 004d10f8     textures.obj
 0002:00003108       ??_C@_0BA@DEIOCLID@?$CFcompileNpcClip?$AA@ 004d1108     textures.obj
 0002:00003118       ??_C@_0M@FALIBANK@?$CFplayerClip?$AA@ 004d1118     textures.obj
 0002:00003124       ??_C@_0N@MLJBDBBL@?$CFcompileClip?$AA@ 004d1124     textures.obj
 0002:00003134       ??_C@_0P@HHCCNAAO@?$CFcompileOrigin?$AA@ 004d1134     textures.obj
 0002:00003144       ??_C@_0N@DGKGJOCA@?$CFcompileSkip?$AA@ 004d1144     textures.obj
 0002:00003154       ??_C@_0N@OKLMCDLJ@?$CFcompileHint?$AA@ 004d1154     textures.obj
 0002:00003164       ??_C@_0M@LPBDLFMH@?$CFcompileSky?$AA@ 004d1164     textures.obj
 0002:00003170       ??_C@_0BJ@FGKNAKCJ@Material?5not?5found?$CB?3?5?$CFs?6?$AA@ 004d1170     textures.obj
 0002:0000318c       ??_C@_0BB@BHGBAFFG@MAX_MAP_TEXTURES?$AA@ 004d118c     textures.obj
 0002:000031a0       ??_C@_0DK@FPPKOMPC@Can?8t?5find?5surfaceprop?5?$CFs?5for?5ma@ 004d11a0     textures.obj
 0002:000031dc       ??_C@_0N@CIFOINKH@$surfaceprop?$AA@ 004d11dc     textures.obj
 0002:000031ec       ??_C@_0DP@BKEKMNEN@Can?8t?5find?5surfacepropblend?5?$CFs?5f@ 004d11ec     textures.obj
 0002:0000322c       ??_C@_0O@KFOKDMLH@$surfaceprop2?$AA@ 004d122c     textures.obj
 0002:0000323c       ??_C@_0CD@GMKDFIIB@WARNING?3?5material?5not?5found?3?5?$CC?$CFs@ 004d123c     textures.obj
 0002:00003260       ??_C@_0BA@PLKDPLCM@MAX_MAP_TEXDATA?$AA@ 004d1260     textures.obj
 0002:00003270       ??_C@_04DAMGJPCA@file?$AA@ 004d1270     textures.obj
 0002:00003278       ??_C@_04FOKBGDA@GAME?$AA@  004d1278     textures.obj
 0002:00003280       ??_C@_0CH@KEKFIONI@scripts?1surfaceproperties_manife@ 004d1280     textures.obj
 0002:000032a8       ??_C@_0BI@ENHKJIPO@VPhysicsSurfaceProps001?$AA@ 004d12a8     textures.obj
 0002:000032c0       ??_C@_0EN@NJBAHDJN@FindOrCreateTexInfo?3?5?5Tried?5to?5c@ 004d12c0     textures.obj
 0002:00003310       __real@3fb0000000000000    004d1310     textures.obj
 0002:00003318       __real@43870000            004d1318     textures.obj
 0002:0000331c       __real@42b40000            004d131c     textures.obj
 0002:00003320       __real@3d800000            004d1320     textures.obj
 0002:00003324       ??_C@_05NJDBAOFA@NULL?6?$AA@ 004d1324     tree.obj
 0002:0000332c       ??_C@_0BP@LEIEIAKP@?$CD?$CFi?5?$CI?$CF5?42f?5?$CF5?42f?5?$CF5?42f?$CJ?3?$CF5?42f?6?$AA@ 004d132c     tree.obj
 0002:0000334c       ??_C@_02KNHHEEKP@?5?5?$AA@ 004d134c     tree.obj
 0002:00003350       ??_C@_0BM@PHNCGPMA@PruneNodes?3?5node?9?$DObrushlist?$AA@ 004d1350     tree.obj
 0002:0000336c       ??_C@_0BL@NPACBAIG@?$CBnode?9?$DOfaces?5with?5children?$AA@ 004d136c     tree.obj
 0002:00003388       ??_C@_0CG@LNPBEHAO@node?9?$DOfaces?5seperating?5CONTENTS_@ 004d1388     tree.obj
 0002:000033b0       ??_C@_0BC@CPHJDNDL@?$CF5i?5pruned?5nodes?6?$AA@ 004d13b0     tree.obj
 0002:000033c4       ??_C@_0BE@MHMEFPNF@?9?9?9?5PruneNodes?5?9?9?9?6?$AA@ 004d13c4     tree.obj
 0002:000033d8       __real@c8800000            004d13d8     utilmatlib.obj
 0002:000033dc       __real@bf000000            004d13dc     utilmatlib.obj
 0002:000033e0       __real@400ccccd            004d13e0     utilmatlib.obj
 0002:000033e4       ??_C@_0DH@PCDCEHLE@Could?5not?5start?5the?5empty?5shader@ 004d13e4     utilmatlib.obj
 0002:0000341c       ??_C@_0BD@PBEAPLLE@shaderapiempty?4dll?$AA@ 004d141c     utilmatlib.obj
 0002:00003430       ??_C@_0DP@FFDBPPE@Could?5not?5find?5factory?5interface@ 004d1430     utilmatlib.obj
 0002:00003470       ??_C@_0FP@CECICCJC@Could?5not?5get?5the?5material?5syste@ 004d1470     utilmatlib.obj
 0002:000034d0       ??_C@_0BD@BPOHNDAN@VMaterialSystem076?$AA@ 004d14d0     utilmatlib.obj
 0002:000034e4       ??_C@_0BP@LKELEPKN@Can?8t?5load?5MaterialSystem?4dll?6?$AA@ 004d14e4     utilmatlib.obj
 0002:00003504       ??_C@_0BD@PEHNKAML@materialsystem?4dll?$AA@ 004d1504     utilmatlib.obj
 0002:00003518       ??_C@_0P@IIPEELKE@Other?5textures?$AA@ 004d1518     utilmatlib.obj
 0002:00003528       ??_C@_0O@BJKHNGF@$reflectivity?$AA@ 004d1528     utilmatlib.obj
 0002:00003538       ??_C@_0CP@HJMGEEJC@?$CD?$CD?$CD?$CD?$CD?$CD?$CD?$CD?$CD?$CD?$CD?$CD?$CD?$CD?$CD?5block?5?$CF2i?0?$CF2i?5?$CD?$CD@ 004d1538     vbsp.obj
 0002:00003568       ??_C@_0DJ@FOPOCIBH@bmodel?5?$CFd?5has?5no?5head?5node?5?$CIclas@ 004d1568     vbsp.obj
 0002:000035a4       ??_C@_0O@HDHPHCPK@func_occluder?$AA@ 004d15a4     vbsp.obj
 0002:000035b4       ??_C@_0P@NMEBHKDB@occludernumber?$AA@ 004d15b4     vbsp.obj
 0002:000035c4       ??_C@_0N@FNMJMILG@vphysics?4dll?$AA@ 004d15c4     vbsp.obj
 0002:000035d4       ??_C@_05NKLPODEL@?$CC?$CFs?$CC?5?$AA@ 004d15d4     vbsp.obj
 0002:000035dc       ??_C@_0P@IFCDDMDK@Command?5line?3?5?$AA@ 004d15dc     vbsp.obj
 0002:000035ec       ??_C@_0DK@CNKOIEOA@Occluder?5?$CC?$CFs?$CC?5straddles?5multiple@ 004d15ec     vbsp.obj
 0002:00003628       ??_C@_09GMFECJDN@?$DMno?5name?$DO?$AA@ 004d1628     vbsp.obj
 0002:00003634       ??_C@_0BE@MFAIICKC@?9?9?9?5MAP?5LEAKED?5?9?9?9?6?$AA@ 004d1634     vbsp.obj
 0002:00003648       ??_C@_0N@NOHCKMO@WriteBSP?4?4?4?6?$AA@ 004d1648     vbsp.obj
 0002:00003658       ??_C@_0P@BPJPCEDL@PruneNodes?4?4?4?6?$AA@ 004d1658     vbsp.obj
 0002:00003668       ??_C@_0O@IMCAPANA@FixTjuncs?4?4?4?6?$AA@ 004d1668     vbsp.obj
 0002:00003678       ??_C@_0BC@CLHFLLOE@Building?5Faces?4?4?4?$AA@ 004d1678     vbsp.obj
 0002:0000368c       ??_C@_0BC@DGHLLCEI@?$CK?$CK?$CK?$CK?5leaked?5?$CK?$CK?$CK?$CK?6?$AA@ 004d168c     vbsp.obj
 0002:000036a0       ??_C@_06KMNNMBLO@?$CF?920s?5?$AA@ 004d16a0     vbsp.obj
 0002:000036a8       ??_C@_0BF@PDAKPJJC@ProcessBlock_Thread?3?$AA@ 004d16a8     vbsp.obj
 0002:000036c0       ??_C@_0CO@IHAFINE@?9?9?9?9?9?9?9?9?9?9?9?9?9?9?9?9?9?9?9?9?9?9?9?9?9?9?9?9?9?9?9?9@ 004d16c0     vbsp.obj
 0002:000036f0       __real@3f50000000000000    004d16f0     vbsp.obj
 0002:000036f8       ??_C@_0CK@FBCLDLJF@?$CD?$CD?$CD?$CD?$CD?$CD?$CD?$CD?$CD?$CD?$CD?$CD?$CD?$CD?$CD?5model?5?$CFi?5?$CD?$CD?$CD?$CD?$CD?$CD?$CD@ 004d16f8     vbsp.obj
 0002:00003724       ??_C@_0M@JMMNIPIN@?$CFs?5elapsed?6?$AA@ 004d1724     vbsp.obj
 0002:00003730       ??_C@_09CPDHAACC@stale?4txt?$AA@ 004d1730     vbsp.obj
 0002:0000373c       ??_C@_05BFAEFKPM@stale?$AA@ 004d173c     vbsp.obj
 0002:00003744       ??_C@_04HKNAPCJF@?4vmf?$AA@ 004d1744     vbsp.obj
 0002:0000374c       ??_C@_0BC@FEKMMIHD@materialPath?3?5?$CFs?6?$AA@ 004d174c     vbsp.obj
 0002:00003760       ??_C@_0M@OJGAHGGE@?$CFsmaterials?$AA@ 004d1760     vbsp.obj
 0002:0000376c       ??_C@_06BEJGOBHG@?$CFs?4log?$AA@ 004d176c     vbsp.obj
 0002:00003774       __real@40800000            004d1774     vbsp.obj
 0002:00003778       ??_C@_0JJL@KJLCCMDO@Other?5options?5?5?3?6?5?5?9novconfig?5?5?5@ 004d1778     vbsp.obj
 0002:00004118       ??_C@_0DLF@GKGIKNMN@usage?5?5?3?5vbsp?5?$FLoptions?4?4?4?$FN?5mapfi@ 004d2118     vbsp.obj
 0002:000044d0       ??_C@_0BM@FHMHAFJB@VBSP?3?5Unknown?5option?5?$CC?$CFs?$CC?6?6?$AA@ 004d24d0     vbsp.obj
 0002:000044ec       ??_C@_0BA@CJFLDFHJ@verbose?5?$DN?5true?6?$AA@ 004d24ec     vbsp.obj
 0002:000044fc       ??_C@_0P@EOOCKJDE@?9FullMinidumps?$AA@ 004d24fc     vbsp.obj
 0002:0000450c       ??_C@_0BA@MHKJJLPK@?9nodrawtriggers?$AA@ 004d250c     vbsp.obj
 0002:0000451c       ??_C@_0BC@ECNPNNFD@?9replacematerials?$AA@ 004d251c     vbsp.obj
 0002:00004530       ??_C@_0P@KNLBLKHC@?9novirtualmesh?$AA@ 004d2530     vbsp.obj
 0002:00004540       ??_C@_0BD@JFEPMFFD@?9allowdetailcracks?$AA@ 004d2540     vbsp.obj
 0002:00004554       ??_C@_05JOPKDNB@?9xbox?$AA@ 004d2554     vbsp.obj
 0002:0000455c       ??_C@_0O@FEHBJGCK@?9keepstalezip?$AA@ 004d255c     vbsp.obj
 0002:0000456c       ??_C@_05FACLEBO@?9game?$AA@ 004d256c     vbsp.obj
 0002:00004574       ??_C@_09NFNCOJPN@?9vproject?$AA@ 004d2574     vbsp.obj
 0002:00004580       ??_C@_06NIKDPCHB@?9steam?$AA@ 004d2580     vbsp.obj
 0002:00004588       ??_C@_0M@OJHILNKA@?9allowdebug?$AA@ 004d2588     vbsp.obj
 0002:00004594       ??_C@_0L@JACELBLD@?9NoVConfig?$AA@ 004d2594     vbsp.obj
 0002:000045a0       ??_C@_0BA@HBAANLBK@?9lightifmissing?$AA@ 004d25a0     vbsp.obj
 0002:000045b0       ??_C@_04FCIJMIMA@?9low?$AA@ 004d25b0     vbsp.obj
 0002:000045b8       ??_C@_08HBKMCN@?9bumpall?$AA@ 004d25b8     vbsp.obj
 0002:000045c4       ??_C@_0O@MPJAIIJE@DXLevel?5?$DN?5?$CFd?6?$AA@ 004d25c4     vbsp.obj
 0002:000045d4       ??_C@_08GIKFLJE@?9dxlevel?$AA@ 004d25d4     vbsp.obj
 0002:000045e0       ??_C@_0P@HDPEMMMK@?9minluxelscale?$AA@ 004d25e0     vbsp.obj
 0002:000045f0       ??_C@_0M@FOIFAPBE@?9luxelscale?$AA@ 004d25f0     vbsp.obj
 0002:000045fc       ??_C@_04PBCBKGHJ@?1tmp?$AA@ 004d25fc     vbsp.obj
 0002:00004604       ??_C@_07NHBNKOHO@?9tmpout?$AA@ 004d2604     vbsp.obj
 0002:0000460c       ??_C@_0CL@HKKFBLKO@Dumping?5static?5props?5to?5staticpr@ 004d260c     vbsp.obj
 0002:00004638       ??_C@_0BA@PJFEFJJO@?9dumpstaticprop?$AA@ 004d2638     vbsp.obj
 0002:00004648       ??_C@_0CM@LBENMKOK@Dumping?5collision?5models?5to?5coll@ 004d2648     vbsp.obj
 0002:00004674       ??_C@_0N@GFFGPNIL@?9dumpcollide?$AA@ 004d2674     vbsp.obj
 0002:00004684       ??_C@_0BI@GPFNOONF@blocks?3?5?$CFi?0?$CFi?5to?5?$CFi?0?$CFi?6?$AA@ 004d2684     vbsp.obj
 0002:0000469c       ??_C@_07OJNAHDHJ@?9blocks?$AA@ 004d269c     vbsp.obj
 0002:000046a4       ??_C@_0O@LDGKLHEB@block?3?5?$CFi?0?$CFi?6?$AA@ 004d26a4     vbsp.obj
 0002:000046b4       ??_C@_06HKNKGMIA@?9block?$AA@ 004d26b4     vbsp.obj
 0002:000046bc       ??_C@_0BD@BFABFADB@snap?5axial?5?$DN?5true?6?$AA@ 004d26bc     vbsp.obj
 0002:000046d0       ??_C@_0L@GMPPNCKE@?9snapaxial?$AA@ 004d26d0     vbsp.obj
 0002:000046dc       ??_C@_0BI@HFJEOMHB@verboseentities?5?$DN?5true?6?$AA@ 004d26dc     vbsp.obj
 0002:000046f4       ??_C@_0BB@HMBOKPMN@?9verboseentities?$AA@ 004d26f4     vbsp.obj
 0002:00004708       ??_C@_0BB@FBDMOHFN@leaktest?5?$DN?5true?6?$AA@ 004d2708     vbsp.obj
 0002:0000471c       ??_C@_09NGDGFAIL@?9leaktest?$AA@ 004d271c     vbsp.obj
 0002:00004728       ??_C@_0BC@FCFCFNJN@microvolume?5?$DN?5?$CFf?6?$AA@ 004d2728     vbsp.obj
 0002:0000473c       ??_C@_06HADCOCNO@?9micro?$AA@ 004d273c     vbsp.obj
 0002:00004744       ??_C@_0BC@HELGDFAB@onlyprops?5?$DN?5true?6?$AA@ 004d2744     vbsp.obj
 0002:00004758       ??_C@_0L@CIBPLCFK@?9onlyprops?$AA@ 004d2758     vbsp.obj
 0002:00004764       ??_C@_0BB@PAELMIAC@onlyents?5?$DN?5true?6?$AA@ 004d2764     vbsp.obj
 0002:00004778       ??_C@_09FNJHALDJ@?9onlyents?$AA@ 004d2778     vbsp.obj
 0002:00004784       ??_C@_0BD@MHFIDIPG@fulldetail?5?$DN?5true?6?$AA@ 004d2784     vbsp.obj
 0002:00004798       ??_C@_0M@LBOAMCBH@?9fulldetail?$AA@ 004d2798     vbsp.obj
 0002:000047a4       ??_C@_0BB@PCIJEAJB@nodetail?5?$DN?5true?6?$AA@ 004d27a4     vbsp.obj
 0002:000047b8       ??_C@_09BNPKADLK@?9nodetail?$AA@ 004d27b8     vbsp.obj
 0002:000047c4       ??_C@_0BB@PHJFPDJO@nosubdiv?5?$DN?5true?6?$AA@ 004d27c4     vbsp.obj
 0002:000047d8       ??_C@_09NEAGMLKK@?9nosubdiv?$AA@ 004d27d8     vbsp.obj
 0002:000047e4       ??_C@_0BF@HBKNCEF@nomergewater?5?$DN?5true?6?$AA@ 004d27e4     vbsp.obj
 0002:000047fc       ??_C@_0O@IOEPNIGE@?9nomergewater?$AA@ 004d27fc     vbsp.obj
 0002:0000480c       ??_C@_0BA@BKKNDMCH@nomerge?5?$DN?5true?6?$AA@ 004d280c     vbsp.obj
 0002:0000481c       ??_C@_08KDELMOMJ@?9nomerge?$AA@ 004d281c     vbsp.obj
 0002:00004828       ??_C@_0BA@NEEAHJI@noprune?5?$DN?5true?6?$AA@ 004d2828     vbsp.obj
 0002:00004838       ??_C@_08FMMFJHCI@?9noprune?$AA@ 004d2838     vbsp.obj
 0002:00004844       ??_C@_0O@LDPAGHJG@noopt?5?$DN?5true?6?$AA@ 004d2844     vbsp.obj
 0002:00004854       ??_C@_06JJICMFJM@?9noopt?$AA@ 004d2854     vbsp.obj
 0002:0000485c       ??_C@_0BA@BMLCDGPG@nowater?5?$DN?5true?6?$AA@ 004d285c     vbsp.obj
 0002:0000486c       ??_C@_08NHOKEGNA@?9nowater?$AA@ 004d286c     vbsp.obj
 0002:00004878       ??_C@_0BA@PHPCINHD@notjunc?5?$DN?5true?6?$AA@ 004d2878     vbsp.obj
 0002:00004888       ??_C@_08MBJOKOPL@?9notjunc?$AA@ 004d2888     vbsp.obj
 0002:00004894       ??_C@_0BA@FEIPGCDA@noshare?5?$DN?5true?6?$AA@ 004d2894     vbsp.obj
 0002:000048a4       ??_C@_08DKEGPAHJ@?9noshare?$AA@ 004d28a4     vbsp.obj
 0002:000048b0       ??_C@_0O@ODIBHGPN@nocsg?5?$DN?5true?6?$AA@ 004d28b0     vbsp.obj
 0002:000048c0       ??_C@_06LAPNIFOP@?9nocsg?$AA@ 004d28c0     vbsp.obj
 0002:000048c8       ??_C@_0P@KLOLGE@noweld?5?$DN?5true?6?$AA@ 004d28c8     vbsp.obj
 0002:000048d8       ??_C@_07NNNDHKCP@?9noweld?$AA@ 004d28d8     vbsp.obj
 0002:000048e0       ??_C@_08FBJJFDKJ@?9verbose?$AA@ 004d28e0     vbsp.obj
 0002:000048ec       ??_C@_02EJEOCNCO@?9v?$AA@  004d28ec     vbsp.obj
 0002:000048f0       ??_C@_07NHFHKBEH@?9glview?$AA@ 004d28f0     vbsp.obj
 0002:000048f8       ??_C@_08CFGFJOBF@?9threads?$AA@ 004d28f8     vbsp.obj
 0002:00004904       ??_C@_0CA@CKNGMBPO@Valve?5Software?5?9?5vbsp?4exe?5?$CI?$CFs?$CJ?6?$AA@ 004d2904     vbsp.obj
 0002:00004924       ??_C@_0M@ODKLKCLD@Sep?521?52024?$AA@ 004d2924     vbsp.obj
 0002:00004930       ??_C@_04KHOIINPK@vbsp?$AA@ 004d2930     vbsp.obj
 0002:00004938       ??_C@_09DNECJBKD@developer?$AA@ 004d2938     vbsp.obj
 0002:00004948       __real@3f91df46a0000000    004d2948     vmatrix.obj
 0002:00004950       __real@404ca5dc00000000    004d2950     vmatrix.obj
 0002:00004958       __real@3f91df46a2529d39    004d2958     vmatrix.obj
 0002:00004960       __real@c000000000000000    004d2960     vmatrix.obj
 0002:00004968       ??_C@_0BC@CLIHOANB@MAX_MAP_LEAFFACES?$AA@ 004d2968     writebsp.obj
 0002:0000497c       ??_C@_0N@CHDONEPJ@Bad?5leafface?$AA@ 004d297c     writebsp.obj
 0002:0000498c       ??_C@_0BE@LAKFKHIO@MAX_MAP_LEAFBRUSHES?$AA@ 004d298c     writebsp.obj
 0002:000049a0       ??_C@_0O@GFJLGAPD@MAX_MAP_LEAFS?$AA@ 004d29a0     writebsp.obj
 0002:000049b0       ??_C@_0CC@HAFEIPND@numsurfedges?5?$DN?$DN?5MAX_MAP_SURFEDGE@ 004d29b0     writebsp.obj
 0002:000049d4       ??_C@_0BO@KMJLIGFG@numorigfaces?5?$DN?$DN?5MAX_MAP_FACES?$AA@ 004d29d4     writebsp.obj
 0002:000049f4       ??_C@_03JLINDLFM@?$CK?$CFi?$AA@ 004d29f4     writebsp.obj
 0002:000049f8       ??_C@_0N@ODLHJNBO@defaultstyle?$AA@ 004d29f8     writebsp.obj
 0002:00004a08       ??_C@_05IAKJCFIM@style?$AA@ 004d2a08     writebsp.obj
 0002:00004a10       ??_C@_0CA@ECDIBODL@stylenum?5?$DN?$DN?5MAX_SWITCHED_LIGHTS?$AA@ 004d2a10     writebsp.obj
 0002:00004a30       ??_C@_0O@JOPJPNEO@light_dynamic?$AA@ 004d2a30     writebsp.obj
 0002:00004a40       ??_C@_05OEPGNJB@light?$AA@ 004d2a40     writebsp.obj
 0002:00004a48       ??_C@_0BG@FCCCHMGD@cheapwaterenddistance?$AA@ 004d2a48     writebsp.obj
 0002:00004a60       ??_C@_04OJDKMIMG@2000?$AA@ 004d2a60     writebsp.obj
 0002:00004a68       ??_C@_0BI@IJDCAKBF@cheapwaterstartdistance?$AA@ 004d2a68     writebsp.obj
 0002:00004a80       ??_C@_04KOJKLCBG@1000?$AA@ 004d2a80     writebsp.obj
 0002:00004a88       ??_C@_0EH@ILOLGID@Water?5found?5with?5no?5water_lod_co@ 004d2a88     writebsp.obj
 0002:00004ad0       ??_C@_0BC@NGKELJID@water_lod_control?$AA@ 004d2ad0     writebsp.obj
 0002:00004ae4       ??_C@_0P@HPIENKFA@MAX_MAP_MODELS?$AA@ 004d2ae4     writebsp.obj
 0002:00004af4       ??_C@_0BK@FHMGEOJK@numfaces?5?$DN?$DN?5MAX_MAP_FACES?$AA@ 004d2af4     writebsp.obj
 0002:00004b10       ??_C@_0BM@EIABJHKK@NODRAW?5on?5terrain?5surface?$CB?6?$AA@ 004d2b10     writebsp.obj
 0002:00004b2c       ??_C@_0BP@NGOCBDLI@WriteDrawNodes_r?3?5odd?5planenum?$AA@ 004d2b2c     writebsp.obj
 0002:00004b4c       ??_C@_0O@FHHLJHDC@MAX_MAP_NODES?$AA@ 004d2b4c     writebsp.obj
 0002:00004b5c       ??_C@_0BE@CMKAOOGK@?$CF5i?5original?5faces?6?$AA@ 004d2b5c     writebsp.obj
 0002:00004b70       ??_C@_0L@LBCDOAFM@?$CF5i?5faces?6?$AA@ 004d2b70     writebsp.obj
 0002:00004b7c       ??_C@_0BJ@PODJOBCA@?$CF5i?5nodes?5without?5faces?6?$AA@ 004d2b7c     writebsp.obj
 0002:00004b98       ??_C@_0BG@JBDJMDA@?$CF5i?5nodes?5with?5faces?6?$AA@ 004d2b98     writebsp.obj
 0002:00004bb0       ??_C@_0BC@GGMDFDDP@?9?9?9?5WriteBSP?5?9?9?9?6?$AA@ 004d2bb0     writebsp.obj
 0002:00004bc4       ??_C@_0CL@CIPPIOPB@Error?$CB?5Entity?5sky_camera?5in?5soli@ 004d2bc4     writebsp.obj
 0002:00004bf0       ??_C@_0L@DFIGMJBA@sky_camera?$AA@ 004d2bf0     writebsp.obj
 0002:00004bfc       ??_C@_0L@EHFOKKK@world_maxs?$AA@ 004d2bfc     writebsp.obj
 0002:00004c08       ??_C@_0L@NJGKBNIH@world_mins?$AA@ 004d2c08     writebsp.obj
 0002:00004c14       ??_C@_0CM@KJJLEJKL@Reduced?5?$CFd?5texdatas?5to?5?$CFd?5?$CI?$CFd?5by@ 004d2c14     writebsp.obj
 0002:00004c40       ??_C@_0BL@HFNBAJOH@Reduced?5?$CFd?5texinfos?5to?5?$CFd?6?$AA@ 004d2c40     writebsp.obj
 0002:00004c5c       ??_C@_0CH@MNJGFCJ@Compacting?5texture?1material?5tabl@ 004d2c5c     writebsp.obj
 0002:00004c84       ??_C@_0BO@MHMPJPKO@?9?9?5DiscoverMacroTextures?3?5?$CFs?6?$AA@ 004d2c84     writebsp.obj
 0002:00004ca4       ??_C@_0P@LPPLJJCF@$macro_texture?$AA@ 004d2ca4     writebsp.obj
 0002:00004cb8       ??_7IWriteStream@@6B@      004d2cb8     zip_utils.obj
 0002:00004cc4       ??_7CFileStream@@6B@       004d2cc4     zip_utils.obj
 0002:00004cd0       ??_7IZip@@6B@              004d2cd0     zip_utils.obj
 0002:00004d0c       ??_7CBufferStream@@6B@     004d2d0c     zip_utils.obj
 0002:00004d1c       ??_7CZip@@6B@              004d2d1c     zip_utils.obj
 0002:00004d58       ??_C@_0CE@COMABEJA@warning?3?5Vis?5decompression?5overr@ 004d2d58     bsplib.obj
 0002:00004d7c       ??_C@_0BI@BDJEEEMN@DecompressVis?3?50?5repeat?$AA@ 004d2d7c     bsplib.obj
 0002:00004d94       ??_C@_0CN@LPCILHPA@LoadBSPFile?3?5old?5version?5for?5lum@ 004d2d94     bsplib.obj
 0002:00004dc4       ??_C@_0CC@LELHICID@LoadBSPFile?3?5odd?5size?5for?5lump?5?$CF@ 004d2dc4     bsplib.obj
 0002:00004de8       ??_C@_0BO@MIKDLCPP@LoadBSPFile?3?5old?5version?5map?$CB?$AA@ 004d2de8     bsplib.obj
 0002:00004e08       ??_C@_0BL@BEKBEENK@LoadBSPFile?3?5odd?5lump?5size?$AA@ 004d2e08     bsplib.obj
 0002:00004e24       ??_C@_0CF@BMEFMFJB@Reading?5unknown?5lump?5?$CD?$CFd?5?$CI?$CFd?5byt@ 004d2e24     bsplib.obj
 0002:00004e4c       ??_C@_0BJ@EBHLPGFH@?$CFs?5is?5version?5?$CFi?0?5not?5?$CFi?$AA@ 004d2e4c     bsplib.obj
 0002:00004e68       ??_C@_0BG@HLMOFCME@?$CFs?5is?5not?5a?5IBSP?5file?$AA@ 004d2e68     bsplib.obj
 0002:00004e80       ??_C@_0BK@BFEBHMPM@zip?5file?5is?5zero?5length?$CB?6?$AA@ 004d2e80     bsplib.obj
 0002:00004e9c       ??_C@_0P@MNCIOHOD@can?8t?5open?5?$CFs?6?$AA@ 004d2e9c     bsplib.obj
 0002:00004eac       ??_C@_0CM@NMKLEGFP@Error?5opening?5?$CFs?$CB?5?$CICheck?5for?5wri@ 004d2eac     bsplib.obj
 0002:00004ed8       ??_C@_0DA@CEKAKOFP@Failed?5to?5find?5valid?5lump?5filena@ 004d2ed8     bsplib.obj
 0002:00004f08       ??_C@_0BC@NGDGCNAP@SIZE?5OVERFLOW?$CB?$CB?$CB?6?$AA@ 004d2f08     bsplib.obj
 0002:00004f20       __real@4058f9999999999a    004d2f20     bsplib.obj
 0002:00004f28       ??_C@_0O@CDGPIHOI@SIZE?5DANGER?$CB?6?$AA@ 004d2f28     bsplib.obj
 0002:00004f38       __real@42be0000            004d2f38     bsplib.obj
 0002:00004f3c       ??_C@_0M@JOCMPPEI@VERY?5FULL?$CB?6?$AA@ 004d2f3c     bsplib.obj
 0002:00004f48       __real@42a00000            004d2f48     bsplib.obj
 0002:00004f4c       ??_C@_0CG@GIAMFAD@?$CF?917?417s?5?$CF8i?1?$CF?98i?5?$CF8i?1?$CF?98i?5?$CI?$CF4?41@ 004d2f4c     bsplib.obj
 0002:00004f78       __real@4059000000000000    004d2f78     bsplib.obj
 0002:00004f80       ??_C@_0CP@IAHEFLFI@?$CF?917?417s?5?5?5?5?5?$FLvariable?$FN?5?5?5?5?$CF8i?1?$CF@ 004d2f80     bsplib.obj
 0002:00004fb0       ??_C@_0BK@IGGDCDAB@ParseEpar?3?5token?5too?5long?$AA@ 004d2fb0     bsplib.obj
 0002:00004fcc       ??_C@_0CH@DFFBFKCE@ParseEntity?3?5EOF?5without?5closing@ 004d2fcc     bsplib.obj
 0002:00004ff4       ??_C@_0BJ@FJKNDMCD@ParseEntity?3?5?$HL?5not?5found?$AA@ 004d2ff4     bsplib.obj
 0002:00005010       ??_C@_08HOGDNJKK@?$CFs?5?$DN?5?$CFs?6?$AA@ 004d3010     bsplib.obj
 0002:0000501c       ??_C@_0BL@PEHEGNJC@?9?9?9?9?9?9?9?5entity?5?$CFp?5?9?9?9?9?9?9?9?6?$AA@ 004d301c     bsplib.obj
 0002:00005038       ??_C@_0M@HBEEPJK@?$CFlf?5?$CFlf?5?$CFlf?$AA@ 004d3038     bsplib.obj
 0002:00005044       ??_C@_07JNLHAIBP@?$CFlf?5?$CFlf?$AA@ 004d3044     bsplib.obj
 0002:00005050       __real@3fa0000000000000    004d3050     bsplib.obj
 0002:00005058       __real@bfa0000000000000    004d3058     bsplib.obj
 0002:00005060       __real@3d000000            004d3060     bsplib.obj
 0002:00005064       __real@bd000000            004d3064     bsplib.obj
 0002:0000506c       ??_7ISpatialQuery@@6B@     004d306c     bsplib.obj
 0002:00005080       ??_C@_04KPILAJPA@?4bsp?$AA@ 004d3080     bsplib.obj
 0002:00005088       ??_C@_0CF@KAOEHNKC@Writing?5unknown?5lump?5?$CD?$CFd?5?$CI?$CFd?5byt@ 004d3088     bsplib.obj
 0002:000050b4       ??_7CToolBSPTree@@6B@      004d30b4     bsplib.obj
 0002:000050c8       ??_C@_0BK@FMCFBMBH@Total?5triangle?5count?3?5?$CFd?6?$AA@ 004d30c8     bsplib.obj
 0002:000050e4       ??_C@_0DK@LKHFKNBG@?$DN?$DN?$DN?$DN?5Total?5Win32?5BSP?5file?5data?5s@ 004d30e4     bsplib.obj
 0002:00005120       ??_C@_07BECGJCFH@physics?$AA@ 004d3120     bsplib.obj
 0002:00005128       ??_C@_0BH@IIKCOLFO@?6Win32?5Specific?5Data?3?6?$AA@ 004d3128     bsplib.obj
 0002:00005140       ??_C@_0BD@KJOFLPKK@?6Level?5flags?5?$DN?5?$CFx?6?$AA@ 004d3140     bsplib.obj
 0002:00005154       ??_C@_07HAGEJOAM@pakfile?$AA@ 004d3154     bsplib.obj
 0002:0000515c       ??_C@_0N@GEIOMNMD@static?5props?$AA@ 004d315c     bsplib.obj
 0002:0000516c       ??_C@_0BB@GCFBENPL@HDR?5dtl?5prp?5lght?$AA@ 004d316c     bsplib.obj
 0002:00005180       ??_C@_0N@OKIEHKI@dtl?5prp?5lght?$AA@ 004d3180     bsplib.obj
 0002:00005190       ??_C@_0N@PNEBPMFL@detail?5props?$AA@ 004d3190     bsplib.obj
 0002:000051a0       ??_C@_0BC@HDMIFODJ@occluder?5vert?5ind?$AA@ 004d31a0     bsplib.obj
 0002:000051b4       ??_C@_0BC@NAFGJACF@occluder?5polygons?$AA@ 004d31b4     bsplib.obj
 0002:000051c8       ??_C@_09CDMHCIBJ@occluders?$AA@ 004d31c8     bsplib.obj
 0002:000051d4       ??_C@_0BK@IJPLGGMB@HDR?5leaf?5ambient?5lighting?$AA@ 004d31d4     bsplib.obj
 0002:000051f0       ??_C@_0BK@KDGPPABP@LDR?5leaf?5ambient?5lighting?$AA@ 004d31f0     bsplib.obj
 0002:0000520c       ??_C@_07IJNKCNKH@entdata?$AA@ 004d320c     bsplib.obj
 0002:00005214       ??_C@_07KDEMBFFJ@visdata?$AA@ 004d3214     bsplib.obj
 0002:0000521c       ??_C@_0O@HOKFDDPB@HDR?5lightdata?$AA@ 004d321c     bsplib.obj
 0002:0000522c       ??_C@_0O@GHAJLMOK@LDR?5lightdata?$AA@ 004d322c     bsplib.obj
 0002:0000523c       ??_C@_08OPBNIBHL@overlays?$AA@ 004d323c     bsplib.obj
 0002:00005248       ??_C@_0P@OHGDELCP@cubemapsamples?$AA@ 004d3248     bsplib.obj
 0002:00005258       ??_C@_0N@FDGMEJJL@waterindices?$AA@ 004d3258     bsplib.obj
 0002:00005268       ??_C@_0L@CJICAPGG@waterverts?$AA@ 004d3268     bsplib.obj
 0002:00005274       ??_C@_0M@JKGNKDNF@waterstrips?$AA@ 004d3274     bsplib.obj
 0002:00005280       ??_C@_0BA@BFIGOCBO@HDR?5worldlights?$AA@ 004d3280     bsplib.obj
 0002:00005290       ??_C@_0BA@MBLHKOJJ@LDR?5worldlights?$AA@ 004d3290     bsplib.obj
 0002:000052a0       ??_C@_05JGEJPNHM@edges?$AA@ 004d32a0     bsplib.obj
 0002:000052a8       ??_C@_09GFFIGDJK@surfedges?$AA@ 004d32a8     bsplib.obj
 0002:000052b4       ??_C@_05EPHILNBP@areas?$AA@ 004d32b4     bsplib.obj
 0002:000052bc       ??_C@_0M@CBJFCJLI@leafbrushes?$AA@ 004d32bc     bsplib.obj
 0002:000052c8       ??_C@_09CMBPKHMP@leaffaces?$AA@ 004d32c8     bsplib.obj
 0002:000052d4       ??_C@_06NGLEBKLK@leaves?$AA@ 004d32d4     bsplib.obj
 0002:000052dc       ??_C@_09HKBLCDHF@origfaces?$AA@ 004d32dc     bsplib.obj
 0002:000052e8       ??_C@_09OHGAGFHN@hdr?5faces?$AA@ 004d32e8     bsplib.obj
 0002:000052f4       ??_C@_05FHFPJHPF@faces?$AA@ 004d32f4     bsplib.obj
 0002:000052fc       ??_C@_0P@BFHINAIM@disp_lmsamples?$AA@ 004d32fc     bsplib.obj
 0002:0000530c       ??_C@_09IJKGAMIE@disp_tris?$AA@ 004d330c     bsplib.obj
 0002:00005318       ??_C@_0L@PDBBOHIC@disp_verts?$AA@ 004d3318     bsplib.obj
 0002:00005324       ??_C@_09KKCDNLGN@dispinfos?$AA@ 004d3324     bsplib.obj
 0002:00005330       ??_C@_07EMAOIIJD@texdata?$AA@ 004d3330     bsplib.obj
 0002:00005338       ??_C@_08KDBINAFC@texinfos?$AA@ 004d3338     bsplib.obj
 0002:00005344       ??_C@_05JJOLJDEA@nodes?$AA@ 004d3344     bsplib.obj
 0002:0000534c       ??_C@_08FMFHCCLE@vertexes?$AA@ 004d334c     bsplib.obj
 0002:00005358       ??_C@_06MEGIMCLI@planes?$AA@ 004d3358     bsplib.obj
 0002:00005360       ??_C@_0L@KJBAAPNN@brushsides?$AA@ 004d3360     bsplib.obj
 0002:0000536c       ??_C@_07CCOFLMCN@brushes?$AA@ 004d336c     bsplib.obj
 0002:00005374       ??_C@_06FEMFHOOG@models?$AA@ 004d3374     bsplib.obj
 0002:0000537c       ??_C@_0N@KMPENJN@?9?9?9?9?9?9?9?9?9?9?9?9?$AA@ 004d337c     bsplib.obj
 0002:0000538c       ??_C@_0BA@PJCADNHP@?9?9?9?9?9?9?9?9?9?9?9?9?9?9?9?$AA@ 004d338c     bsplib.obj
 0002:0000539c       ??_C@_08GGNFKEJM@?9?9?9?9?9?9?9?9?$AA@ 004d339c     bsplib.obj
 0002:000053a8       ??_C@_0BG@JCNLNGNG@?$CF?917s?5?$CF16s?5?$CF16s?5?$CF9s?5?6?$AA@ 004d33a8     bsplib.obj
 0002:000053c0       ??_C@_0N@LMANCJJM@Object?5names?$AA@ 004d33c0     bsplib.obj
 0002:000053d0       ??_C@_0BA@PGGIKFJB@Objects?1Maxobjs?$AA@ 004d33d0     bsplib.obj
 0002:000053e0       ??_C@_0BA@IJMFAECG@Memory?5?1?5Maxmem?$AA@ 004d33e0     bsplib.obj
 0002:000053f0       ??_C@_08BLLBNFLJ@Fullness?$AA@ 004d33f0     bsplib.obj
 0002:00005400       ??_C@_0IA@GAOHBJHI@Bad?5surface?5extents?5?9?5surface?5is@ 004d3400     bsplib.obj
 0002:00005480       ??_C@_0CF@NFIIJEKN@Bad?5surface?5extents?5point?3?5?$CFf?5?$CFf@ 004d3480     bsplib.obj
 0002:000054a8       ??_C@_0BK@CAOLELCJ@CUtlLinkedList?5overflow?$CB?6?$AA@ 004d34a8     bsplib.obj
 0002:000054c4       ??_C@_0CB@HNEIEEGN@Unknown?5occlusion?5lump?5version?$CB?6@ 004d34c4     bsplib.obj
 0002:000054e8       ??_C@_0BJ@JDOEEAFA@odd?5size?5for?5LUMP_LEAFS?6?$AA@ 004d34e8     bsplib.obj
 0002:00005504       ??_C@_0BM@KBEAGEDM@Unknown?5LUMP_LEAFS?5version?6?$AA@ 004d3504     bsplib.obj
 0002:00005520       ??_C@_0DJ@MFKFBFPP@Map?5has?5too?5many?5texinfos?5?$CIhas?5?$CF@ 004d3520     bsplib.obj
 0002:0000555c       ??_C@_0L@KFNFGCAJ@?$CC?$CFs?$CC?5?$CC?$CFs?$CC?6?$AA@ 004d355c     bsplib.obj
 0002:00005568       __real@4e6e6b28            004d3568     builddisp.obj
 0002:0000556c       __real@47c34f80            004d356c     builddisp.obj
 0002:00005574       ??_7CDispUtilsHelper@@6B@  004d3574     builddisp.obj
 0002:00005588       ??_7CCoreDispInfo@@6B@     004d3588     builddisp.obj
 0002:00005598       __real@00800000            004d3598     builddisp.obj
 0002:000055a0       __real@3ff0000a7c5ac000    004d35a0     builddisp.obj
 0002:000055a8       __real@3ff0000100000000    004d35a8     builddisp.obj
 0002:000055b4       ??_7ios_base@std@@6B@      004d35b4     ChunkFile.obj
 0002:000055b8       ??_C@_08HPBFPDOD@error?5?$CFd?$AA@ 004d35b8     ChunkFile.obj
 0002:000055c4       ??_C@_0CH@BEKFMMLP@unterminated?5string?5or?5string?5to@ 004d35c4     ChunkFile.obj
 0002:000055ec       ??_C@_0BH@IIAFKHHE@unexpected?5symbol?5?8?$CFs?8?$AA@ 004d35ec     ChunkFile.obj
 0002:00005604       ??_C@_0BH@CFIIDOJD@unexpected?5end?5of?5file?$AA@ 004d3604     ChunkFile.obj
 0002:0000561c       ??_C@_08OOHKHLPO@?$CFd?5?$CFd?5?$CFd?$AA@ 004d361c     ChunkFile.obj
 0002:00005628       ??_C@_0L@MKEFNAGA@?$CI?$CFf?5?$CFf?5?$CFf?$CJ?$AA@ 004d3628     ChunkFile.obj
 0002:00005634       ??_C@_07MENLNBPJ@?$FL?$CFf?5?$CFf?$FN?$AA@ 004d3634     ChunkFile.obj
 0002:0000563c       ??_C@_0L@OGNGFIGA@?$FL?$CFf?5?$CFf?5?$CFf?$FN?$AA@ 004d363c     ChunkFile.obj
 0002:00005648       ??_C@_0O@IAOEIEIC@?$FL?$CFf?5?$CFf?5?$CFf?5?$CFf?$FN?$AA@ 004d3648     ChunkFile.obj
 0002:00005658       ??_C@_02PCIJFNDE@?$AN?6?$AA@ 004d3658     ChunkFile.obj
 0002:00005660       ??_7?$basic_ios@DU?$char_traits@D@std@@@std@@6B@ 004d3660     ChunkFile.obj
 0002:00005668       ??_7?$basic_istream@DU?$char_traits@D@std@@@std@@6B@ 004d3668     ChunkFile.obj
 0002:0000566c       ??_C@_07NHFKEFF@?$CFs?$AN?6?$CFs?$HL?$AA@ 004d366c     ChunkFile.obj
 0002:00005674       ??_C@_09DPACILDJ@?$CC?$CFs?$CC?5?$CC?$CFs?$CC?$AA@ 004d3674     ChunkFile.obj
 0002:00005680       ??_C@_09CGGLDOMM@?$CC?$CFs?$CC?5?$CC?$CFd?$CC?$AA@ 004d3680     ChunkFile.obj
 0002:0000568c       ??_C@_09CECNIAJF@?$CC?$CFs?$CC?5?$CC?$CFg?$CC?$AA@ 004d368c     ChunkFile.obj
 0002:00005698       ??_C@_0BA@FKFIJLKG@?$CC?$CFs?$CC?5?$CC?$CFd?5?$CFd?5?$CFd?$CC?$AA@ 004d3698     ChunkFile.obj
 0002:000056a8       ??_C@_0BC@ENDJGPCC@?$CC?$CFs?$CC?5?$CC?$CI?$CFg?5?$CFg?5?$CFg?$CJ?$CC?$AA@ 004d36a8     ChunkFile.obj
 0002:000056bc       ??_C@_0P@BLICDMHM@?$CC?$CFs?$CC?5?$CC?$FL?$CFg?5?$CFg?$FN?$CC?$AA@ 004d36bc     ChunkFile.obj
 0002:000056cc       ??_C@_0BC@ENBFPMKK@?$CC?$CFs?$CC?5?$CC?$FL?$CFg?5?$CFg?5?$CFg?$FN?$CC?$AA@ 004d36cc     ChunkFile.obj
 0002:000056e0       ??_C@_0BF@GBIAGENH@?$CC?$CFs?$CC?5?$CC?$FL?$CFg?5?$CFg?5?$CFg?5?$CFg?$FN?$CC?$AA@ 004d36e0     ChunkFile.obj
 0002:000056fc       ??_7?$basic_streambuf@DU?$char_traits@D@std@@@std@@6B@ 004d36fc     ChunkFile.obj
 0002:00005734       ?_Stz@?$fpos@H@std@@0HB    004d3734     ChunkFile.obj
 0002:00005738       ?npos@?$basic_string@DU?$char_traits@D@std@@V?$allocator@D@2@@std@@2IB 004d3738     ChunkFile.obj
 0002:00005740       ??_7?$basic_filebuf@DU?$char_traits@D@std@@@std@@6B@ 004d3740     ChunkFile.obj
 0002:0000577c       ??_7facet@locale@std@@6B@  004d377c     ChunkFile.obj
 0002:00005784       ??_7codecvt_base@std@@6B@  004d3784     ChunkFile.obj
 0002:00005798       ??_7runtime_error@std@@6B@ 004d3798     ChunkFile.obj
 0002:000057a0       ??_C@_0BA@ELKIONDK@bad?5locale?5name?$AA@ 004d37a0     ChunkFile.obj
 0002:000057b0       ??_C@_01GFHCPBMG@C?$AA@    004d37b0     ChunkFile.obj
 0002:000057b8       ??_7?$codecvt@DDH@std@@6B@ 004d37b8     ChunkFile.obj
 0002:000057dc       ??_7?$basic_ifstream@DU?$char_traits@D@std@@@std@@6B@ 004d37dc     ChunkFile.obj
 0002:000057e0       ??_C@_08EPJLHIJG@bad?5cast?$AA@ 004d37e0     ChunkFile.obj
 0002:000057ec       ??_C@_0BJ@HHDOALOL@?6Press?5any?5key?5to?5quit?4?6?$AA@ 004d37ec     cmdlib.obj
 0002:00005808       ??_C@_0CE@CLJFPNFI@Error?5trying?5to?5allocate?5?$CFd?5byte@ 004d3808     cmdlib.obj
 0002:0000582c       ??_C@_01KICIPPFI@?2?$AA@   004d382c     cmdlib.obj
 0002:00005830       ??_C@_0M@BBODMOGM@?$CFd?5second?$CFs?$AA@ 004d3830     cmdlib.obj
 0002:0000583c       ??_C@_0BJ@KMIJFNCM@?$CFd?5minute?$CFs?0?5?$CFd?5second?$CFs?$AA@ 004d383c     cmdlib.obj
 0002:00005858       ??_C@_0CE@PALCMKJH@?$CFd?5hour?$CFs?0?5?$CFd?5minute?$CFs?0?5?$CFd?5secon@ 004d3858     cmdlib.obj
 0002:0000587c       ??_C@_01LKDEMHDF@s?$AA@    004d387c     cmdlib.obj
 0002:00005880       ??_C@_0BB@FNNPMPAB@mkdir?5failed?5?$CFs?6?$AA@ 004d3880     cmdlib.obj
 0002:00005894       ??_C@_0BO@EENJAGHE@CmdLib_InitFileSystem?5failed?4?$AA@ 004d3894     cmdlib.obj
 0002:000058b4       ??_C@_0BC@HMDGJKFB@Error?5opening?5?$CFs?6?$AA@ 004d38b4     cmdlib.obj
 0002:000058c8       ??_C@_0BC@OGGEBGDM@File?5read?5failure?$AA@ 004d38c8     cmdlib.obj
 0002:000058dc       ??_C@_0BD@IHJMODLC@File?5write?5failure?$AA@ 004d38dc     cmdlib.obj
 0002:000058f0       ??_C@_0BD@LNHMOJAN@Bad?5hex?5number?3?5?$CFs?$AA@ 004d38f0     cmdlib.obj
 0002:00005904       ??_C@_01OGPIMHDM@?$DP?$AA@ 004d3904     cmdlib.obj
 0002:00005908       ??_C@_01NBENCBCI@?$CK?$AA@ 004d3908     cmdlib.obj
 0002:0000590c       ??_C@_0CP@DAHDEIHG@CmdLib_FPrintf?3?5can?8t?5allocate?5s@ 004d390c     cmdlib.obj
 0002:0000593c       ??_C@_03EGHOKNNL@?6?6?6?$AA@ 004d393c     cmdlib.obj
 0002:00005940       ??_C@_0BL@BBEKHHIC@Can?8t?5create?5LogFile?3?$CC?$CFs?$CC?6?$AA@ 004d3940     cmdlib.obj
 0002:0000595c       ??_C@_01MCMALHOG@a?$AA@    004d395c     cmdlib.obj
 0002:00005960       ??_C@_06PGALACC@?$HL?$HN?$CI?$CJ?8?3?$AA@ 004d3960     filesystem_helpers.obj
 0002:00005968       ??_C@_05KGEFMPPL@?$HL?$HN?$CI?$CJ?8?$AA@ 004d3968     filesystem_helpers.obj
 0002:00005970       ??_C@_05JPPLNOIE@?$CFs?$DN?$CFs?$AA@ 004d3970     filesystem_init.obj
 0002:00005978       ??_C@_03HFAIOBFI@?$CFs?$DN?$AA@ 004d3978     filesystem_init.obj
 0002:0000597c       ??_C@_0BI@HONGKJJH@?$CFs?$CFclocalization?$CFc?$CFs_?$CFs?$AA@ 004d397c     filesystem_init.obj
 0002:00005994       ??_C@_06KGBLPGBA@?2game?2?$AA@ 004d3994     filesystem_init.obj
 0002:0000599c       ??_C@_05ONEOBAM@?$CFs_?$CFs?$AA@ 004d399c     filesystem_init.obj
 0002:000059a4       ??_C@_07FIIABPFG@GAMEBIN?$AA@ 004d39a4     filesystem_init.obj
 0002:000059ac       ??_C@_07FCGPJGAE@?$CFs?$CFcbin?$AA@ 004d39ac     filesystem_init.obj
 0002:000059b4       ??_C@_04OJGJKDCG@?2bin?$AA@ 004d39b4     filesystem_init.obj
 0002:000059bc       ??_C@_03PDOMKJON@bin?$AA@  004d39bc     filesystem_init.obj
 0002:000059c0       ??_C@_0M@BPBMEHMA@vconfig?4exe?$AA@ 004d39c0     filesystem_init.obj
 0002:000059cc       ??_C@_0N@GOJIOGBD@User?5Token?53?$AA@ 004d39cc     filesystem_init.obj
 0002:000059dc       ??_C@_0N@HHIDNHFC@User?5Token?52?$AA@ 004d39dc     filesystem_init.obj
 0002:000059ec       ??_C@_0BP@EFOCGGID@Software?2Valve?2Source?2Settings?$AA@ 004d39ec     filesystem_init.obj
 0002:00005a10       ??_C@_0OI@HCHEELJO@Unable?5to?5find?5?$CFs?4?5Solutions?3?6?61@ 004d3a10     filesystem_init.obj
 0002:00005af8       ??_C@_01LFCBOECM@?4?$AA@   004d3af8     filesystem_init.obj
 0002:00005b00       ??_C@_0EA@HIENCNPL@Warning?3?5falling?5back?5to?5auto?5de@ 004d3b00     filesystem_init.obj
 0002:00005b40       ??_C@_08BBHFPNLA@VProject?$AA@ 004d3b40     filesystem_init.obj
 0002:00005b4c       ??_C@_0BI@LAFGBJN@?$CFs?5doesn?8t?5exist?5in?5?$CFs?4?$AA@ 004d3b4c     filesystem_init.obj
 0002:00005b64       ??_C@_0N@DDAKDDIF@gameinfo?4txt?$AA@ 004d3b64     filesystem_init.obj
 0002:00005b74       ??_C@_0DB@DMFGMLBG@bOnlyUseDirectoryName?$DN1?5and?5pDir@ 004d3b74     filesystem_init.obj
 0002:00005ba8       ??_C@_05LKJAIBFI@?$CFs?$DL?$CFs?$AA@ 004d3ba8     filesystem_init.obj
 0002:00005bb0       ??_C@_0DG@DHDKLFGP@Can?8t?5find?5steam?4dll?5relative?5to@ 004d3bb0     filesystem_init.obj
 0002:00005be8       ??_C@_0N@KIPMNOMO@steamapp?4cfg?$AA@ 004d3be8     filesystem_init.obj
 0002:00005bf8       ??_C@_09OPNECJBP@steam?4dll?$AA@ 004d3bf8     filesystem_init.obj
 0002:00005c04       ??_C@_0CE@ICDPACDF@FileSystem_GetExecutableDir?5fail@ 004d3c04     filesystem_init.obj
 0002:00005c28       ??_C@_0DJ@KOOEJNI@SetSteamInstallPath?3?5FileSystem_@ 004d3c28     filesystem_init.obj
 0002:00005c64       ??_C@_09JMGAENLL@steam?4cfg?$AA@ 004d3c64     filesystem_init.obj
 0002:00005c70       ??_C@_0BE@MHMPCCEN@SteamUserPassphrase?$AA@ 004d3c70     filesystem_init.obj
 0002:00005c84       ??_C@_0BN@ILMJFDLH@Missing?5SteamAppId?5in?5?$CFs?2?$CFs?4?$AA@ 004d3c84     filesystem_init.obj
 0002:00005ca4       ??_C@_0L@ECGBBIEJ@SteamAppId?$AA@ 004d3ca4     filesystem_init.obj
 0002:00005cb0       ??_C@_0BA@PDPKJDAD@EXECUTABLE_PATH?$AA@ 004d3cb0     filesystem_init.obj
 0002:00005cc0       ??_C@_0BJ@EDPLIIJG@?$CFs?$CFcfilesystem_steam?4dll?$AA@ 004d3cc0     filesystem_init.obj
 0002:00005cdc       ??_C@_0M@LHJIEJJB@?9steamlocal?$AA@ 004d3cdc     filesystem_init.obj
 0002:00005ce8       ??_C@_0BJ@PBHGGHGE@?$CFs?$CFcfilesystem_stdio?4dll?$AA@ 004d3ce8     filesystem_init.obj
 0002:00005d04       ??_C@_08FONOGHLN@PLATFORM?$AA@ 004d3d04     filesystem_init.obj
 0002:00005d10       ??_C@_0N@MHLNGBBM@?1?4?4?1platform?$AA@ 004d3d10     filesystem_init.obj
 0002:00005d20       ??_C@_08CBHCFJJK@platform?$AA@ 004d3d20     filesystem_init.obj
 0002:00005d2c       ??_C@_04LNEJFJGI@path?$AA@ 004d3d2c     filesystem_init.obj
 0002:00005d34       ??_C@_0N@JBMCJGB@SteamAppUser?$AA@ 004d3d34     filesystem_init.obj
 0002:00005d44       ??_C@_0M@OGFGHLLN@SearchPaths?$AA@ 004d3d44     filesystem_init.obj
 0002:00005d50       ??_C@_0BK@LENANHBB@?$CFs?5is?5not?5a?5valid?5format?4?$AA@ 004d3d50     filesystem_init.obj
 0002:00005d6c       ??_C@_0L@FPFLHALM@FileSystem?$AA@ 004d3d6c     filesystem_init.obj
 0002:00005d78       ??_C@_0P@BAICOJOC@?$CFs?5is?5missing?4?$AA@ 004d3d78     filesystem_init.obj
 0002:00005d88       ??_C@_0DK@HDHHNFK@FileSystem_LoadSearchPaths?3?5Inva@ 004d3d88     filesystem_init.obj
 0002:00005dc4       ??_C@_0BD@BIHGFCAJ@DEFAULT_WRITE_PATH?$AA@ 004d3dc4     filesystem_init.obj
 0002:00005dd8       ??_C@_03FFONCNID@mod?$AA@  004d3dd8     filesystem_init.obj
 0002:00005ddc       ??_C@_07KFNNKDNC@gamebin?$AA@ 004d3ddc     filesystem_init.obj
 0002:00005de4       ??_C@_0BA@LLOKIJCD@executable_path?$AA@ 004d3de4     filesystem_init.obj
 0002:00005df4       ??_C@_03FIBGOAPP@MOD?$AA@  004d3df4     filesystem_init.obj
 0002:00005df8       ??_C@_0P@OBDLCKKL@?$CFs_tempcontent?$AA@ 004d3df8     filesystem_init.obj
 0002:00005e08       ??_C@_0N@MOHILAIK@?9tempcontent?$AA@ 004d3e08     filesystem_init.obj
 0002:00005e18       ??_C@_05MOIKDAG@?$CFs_lv?$AA@ 004d3e18     filesystem_init.obj
 0002:00005e20       ??_C@_04MJNAPEEI@game?$AA@ 004d3e20     filesystem_init.obj
 0002:00005e28       ??_C@_0BO@DKGHAMPB@FileSystem_GetBaseDir?5failed?4?$AA@ 004d3e28     filesystem_init.obj
 0002:00005e48       ??_C@_0BA@MDDINGGJ@?$HMgameinfo_path?$HM?$AA@ 004d3e48     filesystem_init.obj
 0002:00005e58       ??_C@_0CA@LJBFCIPK@Can?8t?5find?5steam?5app?5user?5info?4?$AA@ 004d3e58     filesystem_init.obj
 0002:00005e78       ??_C@_0O@JKIHLNMO@AutoLoginUser?$AA@ 004d3e78     filesystem_init.obj
 0002:00005e88       ??_C@_0BI@FPAAOPPO@config?2SteamAppData?4vdf?$AA@ 004d3e88     filesystem_init.obj
 0002:00005ea0       ??_C@_0O@GIMNLJAG@steaminfo?4txt?$AA@ 004d3ea0     filesystem_init.obj
 0002:00005eb0       ??_C@_0L@INNOAPAJ@ToolsAppId?$AA@ 004d3eb0     filesystem_init.obj
 0002:00005ebc       ??_C@_0BN@OJPKFLKO@?$CFs?5IFileSystem?3?3Init?5failed?4?$AA@ 004d3ebc     filesystem_init.obj
 0002:00005edc       ??_C@_0CA@KIDODKHJ@?$CFs?5IFileSystem?3?3Connect?5failed?4?$AA@ 004d3edc     filesystem_init.obj
 0002:00005efc       ??_C@_0P@HNMHCAOM@Can?8t?5load?5?$CFs?4?$AA@ 004d3efc     filesystem_init.obj
 0002:00005f0c       ??_C@_0DB@IJEHBEGI@Unable?5to?5mount?5Steam?5content?5in@ 004d3f0c     filesystem_init.obj
 0002:00005f40       ??_C@_0M@CHBCHPDB@?4?4?1platform?$AA@ 004d3f40     filesystem_tools.obj
 0002:00005f4c       ??_C@_0L@HEEMIGIK@mapversion?$AA@ 004d3f4c     map_shared.obj
 0002:00005f58       ??_C@_0L@CGBMHOHE@func_water?$AA@ 004d3f58     map_shared.obj
 0002:00005f64       ??_C@_0DE@OJGHMBLP@Error?5in?5LoadEntsFromMapFile?5?$CIin@ 004d3f64     map_shared.obj
 0002:00005f98       __real@4044000000000000    004d3f98     pacifier.obj
 0002:00005fa0       ??_C@_0BH@LNMPEGNH@?$CI?$CF5?41f?0?5?$CF5?41f?0?5?$CF5?41f?$CJ?6?$AA@ 004d3fa0     polylib.obj
 0002:00005fb8       ??_C@_0CD@BOFJFDD@FreeWinding?3?5freed?5a?5freed?5windi@ 004d3fb8     polylib.obj
 0002:00005fe0       __real@3feff7ced916872b    004d3fe0     polylib.obj
 0002:00005fe8       __real@40f0000000000000    004d3fe8     polylib.obj
 0002:00005ff0       ??_C@_0CD@BHBKGNIF@BaseWindingForPlane?3?5no?5axis?5fou@ 004d3ff0     polylib.obj
 0002:00006014       ??_C@_0CD@PEDPMDOJ@ClipWinding?3?5MAX_POINTS_ON_WINDI@ 004d4014     polylib.obj
 0002:00006038       ??_C@_0CG@OLJCNKCC@ClipWinding?3?5points?5exceeded?5est@ 004d4038     polylib.obj
 0002:00006060       ??_C@_0BJ@OGJJAGOO@CheckWinding?3?5non?9convex?$AA@ 004d4060     polylib.obj
 0002:0000607c       ??_C@_0BO@BKAOIPNM@CheckWinding?3?5degenerate?5edge?$AA@ 004d407c     polylib.obj
 0002:0000609c       ??_C@_0BO@IFHIHAOC@CheckWinding?3?5point?5off?5plane?$AA@ 004d409c     polylib.obj
 0002:000060bc       ??_C@_0BM@IHEBDBEB@CheckFace?3?5out?5of?5range?3?5?$CFf?$AA@ 004d40bc     polylib.obj
 0002:000060d8       ??_C@_0BG@EFPIHBAE@CheckWinding?3?5?$CFf?5area?$AA@ 004d40d8     polylib.obj
 0002:000060f0       ??_C@_0BI@CIEPJPFG@CheckWinding?3?5?$CFi?5points?$AA@ 004d40f0     polylib.obj
 0002:00006108       ??_C@_0CC@KGOJGFKG@script?5file?5exceeded?5MAX_INCLUDE@ 004d4108     scriplib.obj
 0002:0000612c       ??_C@_0BH@GPEKOEFF@Macro?5buffer?5overflow?6?$AA@ 004d412c     scriplib.obj
 0002:00006144       ??_C@_0BM@NCGMJOHK@Token?5too?5large?5on?5line?5?$CFi?6?$AA@ 004d4144     scriplib.obj
 0002:00006160       ??_C@_0BH@EBCLMMIF@Macro?5expand?5overflow?6?$AA@ 004d4160     scriplib.obj
 0002:00006178       ??_C@_0CA@JGLJFGLA@unknown?5macro?5token?5?$CC?$CFs?$CC?5in?5?$CFs?6?$AA@ 004d4178     scriplib.obj
 0002:00006198       ??_C@_0O@DIEIKEFB@memory?5buffer?$AA@ 004d4198     scriplib.obj
 0002:000061a8       ??_C@_0BH@IMFFIBJN@Line?5?$CFi?5is?5incomplete?6?$AA@ 004d41a8     scriplib.obj
 0002:000061c0       ??_C@_0N@DFPGLGNC@$definemacro?$AA@ 004d41c0     scriplib.obj
 0002:000061d0       ??_C@_08LNBPPNO@$include?$AA@ 004d41d0     scriplib.obj
 0002:000061dc       ??_C@_0M@FBLNEIAD@?$CFi?5threads?6?$AA@ 004d41dc     threads.obj
 0002:000061e8       ??_C@_0BG@BEEOCMHK@Recursive?5ThreadLock?6?$AA@ 004d41e8     threads.obj
 0002:00006200       ??_C@_0BL@HADBLPO@ThreadUnlock?5without?5lock?6?$AA@ 004d4200     threads.obj
 0002:0000621c       ??_C@_06MEKNBDFO@?5?$CI?$CFi?$CJ?6?$AA@ 004d421c     threads.obj
 0002:00006228       __real@4050400000000000    004d4228     tier1:strtools.obj
 0002:00006230       __real@4058400000000000    004d4230     tier1:strtools.obj
 0002:00006238       __real@4048000000000000    004d4238     tier1:strtools.obj
 0002:00006240       ??_C@_0CH@DNILKGJA@V_AppendSlash?3?5ran?5out?5of?5space?5@ 004d4240     tier1:strtools.obj
 0002:00006268       ??_C@_08BIBOIFBG@?$CF?$CF?4?$CFif?$CFs?$AA@ 004d4268     tier1:strtools.obj
 0002:00006274       ??_C@_04EMEGLOCB@?$CFi?$CFs?$AA@ 004d4274     tier1:strtools.obj
 0002:0000627c       ??_C@_06LCIDCBMH@?5bytes?$AA@ 004d427c     tier1:strtools.obj
 0002:00006284       ??_C@_03MAAJMAHL@?5KB?$AA@ 004d4284     tier1:strtools.obj
 0002:00006288       ??_C@_03MEIELMMJ@?5MB?$AA@ 004d4288     tier1:strtools.obj
 0002:0000628c       __real@447a0000            004d428c     tier1:strtools.obj
 0002:00006290       __real@44800000            004d4290     tier1:strtools.obj
 0002:00006294       ??_C@_04OHGLKFFN@?$CF03d?$AA@ 004d4294     tier1:strtools.obj
 0002:0000629c       ??_C@_05CMAMCNEC@?$CF03d?0?$AA@ 004d429c     tier1:strtools.obj
 0002:000062a4       ??_C@_03DPLIHHLN@?$CFd?0?$AA@ 004d42a4     tier1:strtools.obj
 0002:000062a8       ??_C@_01JOAMLHOP@?9?$AA@   004d42a8     tier1:strtools.obj
 0002:000062ac       ??_C@_04NOJCDH@?$CF02x?$AA@ 004d42ac     tier1:strtools.obj
 0002:000062b4       ??_C@_03OOAAEEIB@?4?$CFc?$AA@ 004d42b4     tier1:strtools.obj
 0002:000062b8       ??_C@_02CEGDFPFP@?4?2?$AA@ 004d42b8     tier1:strtools.obj
 0002:000062bc       ??_C@_02CAHBHFGK@?4?1?$AA@ 004d42bc     tier1:strtools.obj
 0002:000062c0       ??_C@_0DB@FOILCOJM@V_MakeAbsolutePath?3?5tried?5to?5?$CC?4?4@ 004d42c0     tier1:strtools.obj
 0002:000062f4       ??_C@_0CE@INIPJBEP@V_MakeAbsolutePath?3?5_getcwd?5fail@ 004d42f4     tier1:strtools.obj
 0002:00006318       ??_C@_01GEODFPGF@?8?$AA@   004d4318     tier1:utlbuffer.obj
 0002:0000631c       ??_C@_01INIBCBCB@f?$AA@    004d431c     tier1:utlbuffer.obj
 0002:00006320       ??_C@_01KDCPPGHE@r?$AA@    004d4320     tier1:utlbuffer.obj
 0002:00006324       ??_C@_01OJONOECF@b?$AA@    004d4324     tier1:utlbuffer.obj
 0002:00006328       ??_C@_01MHEDDDHA@v?$AA@    004d4328     tier1:utlbuffer.obj
 0002:0000632c       ??_C@_01PFHFFBPC@t?$AA@    004d432c     tier1:utlbuffer.obj
 0002:00006330       ??_C@_01EFFIKLCJ@n?$AA@    004d4330     tier1:utlbuffer.obj
 0002:00006338       ??_7CUtlCharConversion@@6B@ 004d4338     tier1:utlbuffer.obj
 0002:00006340       ??_7CUtlNoEscConversion@@6B@ 004d4340     tier1:utlbuffer.obj
 0002:00006348       ??_7CUtlCStringConversion@@6B@ 004d4348     tier1:utlbuffer.obj
 0002:0000634c       ??_C@_02HAOIJKIC@?$CFc?$AA@ 004d434c     tier1:utlbuffer.obj
 0002:00006350       ??_C@_07CIFAGBMG@unknown?$AA@ 004d4350     tier1:KeyValues.obj
 0002:00006358       ??_C@_04HIBGFPH@NULL?$AA@  004d4358     tier1:KeyValues.obj
 0002:00006360       ??_C@_08KKMCJABH@?$CI?$CK?$CFs?$CK?$CJ?0?5?$AA@ 004d4360     tier1:KeyValues.obj
 0002:0000636c       ??_C@_04ONKFDMMC@?$CFs?0?5?$AA@ 004d436c     tier1:KeyValues.obj
 0002:00006374       ??_C@_0CA@NDDGCEEP@KeyValues?5Error?3?5?$CFs?5in?5file?5?$CFs?6?$AA@ 004d4374     tier1:KeyValues.obj
 0002:00006394       ??_C@_0BE@CCEENLEF@?5ReadToken?5overflow?$AA@ 004d4394     tier1:KeyValues.obj
 0002:000063a8       ??_C@_01GPOEFGEJ@?7?$AA@   004d43a8     tier1:KeyValues.obj
 0002:000063b0       ??_C@_0EE@MCLHPPL@KeyValues?3?3RecursiveSaveToFile?3?5@ 004d43b0     tier1:KeyValues.obj
 0002:000063f4       ??_C@_02NJPGOMH@?$CFf?$AA@ 004d43f4     tier1:KeyValues.obj
 0002:000063f8       ??_C@_04FHLHEGKD@?$CC?7?7?$CC?$AA@ 004d43f8     tier1:KeyValues.obj
 0002:00006400       ??_C@_11LOCGONAA@?$AA?$AA@ 004d4400     tier1:KeyValues.obj
 0002:00006404       ??_C@_02GMHACPFF@?$CFu?$AA@ 004d4404     tier1:KeyValues.obj
 0002:00006408       ??_C@_0DO@LBPKGNFO@KeyValues?3?3SaveToFile?3?5couldn?8t?5@ 004d4408     tier1:KeyValues.obj
 0002:00006448       ??_C@_05OKCMKDO@?$CFI64i?$AA@ 004d4448     tier1:KeyValues.obj
 0002:00006450       ??_C@_1M@PMHABONK@?$AA?$CF?$AAI?$AA6?$AA4?$AAi?$AA?$AA@ 004d4450     tier1:KeyValues.obj
 0002:0000645c       ??_C@_15KNBIKKIN@?$AA?$CF?$AAd?$AA?$AA@ 004d445c     tier1:KeyValues.obj
 0002:00006464       ??_C@_15HBBGCAG@?$AA?$CF?$AAf?$AA?$AA@ 004d4464     tier1:KeyValues.obj
 0002:0000646c       ??_C@_0CH@FAEPDIPE@RecursiveLoadFromBuffer?3?5?5got?5?$HN?5@ 004d446c     tier1:KeyValues.obj
 0002:00006494       ??_C@_0CH@HEKCOJBB@RecursiveLoadFromBuffer?3?5?5got?5NU@ 004d4494     tier1:KeyValues.obj
 0002:000064bc       ??_C@_0CM@EGPGDPNF@RecursiveLoadFromBuffer?3?5?5got?5em@ 004d44bc     tier1:KeyValues.obj
 0002:000064e8       ??_C@_0DF@BNKODCEE@RecursiveLoadFromBuffer?3?5?5got?5EO@ 004d44e8     tier1:KeyValues.obj
 0002:00006520       ??_C@_0EH@OAIGODPC@KeyValues?3?3ParseIncludedKeys?3?5Co@ 004d4520     tier1:KeyValues.obj
 0002:00006568       ??_C@_0BK@NIPBBFNB@LoadFromBuffer?3?5missing?5?$HL?$AA@ 004d4568     tier1:KeyValues.obj
 0002:00006584       ??_C@_0BC@NGELGJPP@?$CDinclude?5is?5NULL?5?$AA@ 004d4584     tier1:KeyValues.obj
 0002:00006598       ??_C@_08GPLAJCBH@?$CDinclude?$AA@ 004d4598     tier1:KeyValues.obj
 0002:000065a4       ??_C@_08PNLNEKOB@kernel32?$AA@ 004d45a4     tier1:interface.obj
 0002:000065b0       ??_C@_0BC@KNBMEBEO@IsDebuggerPresent?$AA@ 004d45b0     tier1:interface.obj
 0002:000065c4       ??_C@_04HLONOPDM@?4dll?$AA@ 004d45c4     tier1:interface.obj
 0002:000065cc       ??_C@_0BM@OIEJAJOK@Module?5?$CFs?5is?5a?5debug?5build?6?$AA@ 004d45cc     tier1:interface.obj
 0002:000065e8       ??_C@_0L@EJCNAOMG@BuiltDebug?$AA@ 004d45e8     tier1:interface.obj
 0002:000065f4       ??_C@_09ILGMALND@?$CFs?1bin?1?$CFs?$AA@ 004d45f4     tier1:interface.obj
 0002:00006600       ??_C@_0BA@OBHPCBFP@CreateInterface?$AA@ 004d4600     tier1:interface.obj
 0002:00006a14       ??_7ctype_base@std@@6B@    004d4a14     tier1:tokenreader.obj
 0002:00006a18       ??_C@_0BD@DDNAMMCP@File?5?$CFs?0?5line?5?$CFd?3?5?$AA@ 004d4a18     tier1:tokenreader.obj
 0002:00006a30       ??_7failure@ios_base@std@@6B@ 004d4a30     tier1:tokenreader.obj
 0002:00006a3c       ??_7?$ctype@D@std@@6B@     004d4a3c     tier1:tokenreader.obj
 0002:00006a68       ??_C@_0BF@OOHOMBOF@ios_base?3?3eofbit?5set?$AA@ 004d4a68     tier1:tokenreader.obj
 0002:00006a80       ??_C@_0BG@FMKFHCIL@ios_base?3?3failbit?5set?$AA@ 004d4a80     tier1:tokenreader.obj
 0002:00006a98       ??_C@_0BF@PHHKMMFD@ios_base?3?3badbit?5set?$AA@ 004d4a98     tier1:tokenreader.obj
 0002:00006ab0       ??_8?$basic_istream@DU?$char_traits@D@std@@@std@@7B@ 004d4ab0     tier1:tokenreader.obj
 0002:00006ab8       ??_8?$basic_ifstream@DU?$char_traits@D@std@@@std@@7B@ 004d4ab8     tier1:tokenreader.obj
 0002:00006ac4       ??_7TokenReader@@6B@       004d4ac4     tier1:tokenreader.obj
 0002:00006ac8       ??_8TokenReader@@7B@       004d4ac8     tier1:tokenreader.obj
 0002:00006ad0       ??_C@_0BL@GAOLCFOF@?6?$CFd?5total?5counted?5strings?4?$AA@ 004d4ad0     tier1:stringpool.obj
 0002:00006aec       ??_C@_0BF@DGGELFMM@String?5?$CFd?3?5ref?3?$CFd?5?$CFs?$AA@ 004d4aec     tier1:stringpool.obj
 0002:00006b04       ??_C@_0BP@GEHMENEB@EMPTY?5?9?5ok?5for?5slot?5zero?5only?$CB?$AA@ 004d4b04     tier1:stringpool.obj
 0002:00006b28       ??_7CCountedStringPool@@6B@ 004d4b28     tier1:stringpool.obj
 0002:00006b2c       ??_C@_0BD@NJPHOFNA@dumpcountedstrings?$AA@ 004d4b2c     tier1:stringpool.obj
 0002:00006b40       ??_C@_0BM@JCEHEHBG@Tests?5the?5class?5CStringPool?$AA@ 004d4b40     tier1:stringpool.obj
 0002:00006b5c       ??_C@_0BG@FHJDLLKG@FCVAR_NEVER_AS_STRING?$AA@ 004d4b5c     tier1:convar.obj
 0002:00006b78       ??_7ConCommandBase@@6B@    004d4b78     tier1:convar.obj
 0002:00006ba4       ??_7ConVar@@6B@            004d4ba4     tier1:convar.obj
 0002:00006bf0       ??_7ConCommand@@6B@        004d4bf0     tier1:convar.obj
 0002:00006c30       ?nanmask@@3HB              004d4c30     mathlib:mathlib_base.obj
 0002:00006cf8       __real@3f76800000000000    004d4cf8     mathlib:mathlib_base.obj
 0002:00006d00       __real@4066c16c20000000    004d4d00     mathlib:mathlib_base.obj
 0002:00006d08       __real@3e80000000000000    004d4d08     mathlib:mathlib_base.obj
 0002:00006d10       __real@3f70000000000000    004d4d10     mathlib:mathlib_base.obj
 0002:00006d18       __real@358637bd            004d4d18     mathlib:mathlib_base.obj
 0002:00006d20       __real@40019999a0000000    004d4d20     mathlib:mathlib_base.obj
 0002:00006d28       __real@3fdd1745c0000000    004d4d28     mathlib:mathlib_base.obj
 0002:00006d30       __real@3fee666660000000    004d4d30     mathlib:mathlib_base.obj
 0002:00006d38       __real@408ff80000000000    004d4d38     mathlib:mathlib_base.obj
 0002:00006d40       __real@bff7154ca0000000    004d4d40     mathlib:mathlib_base.obj
 0002:00006d48       __real@3ff921fb54442d18    004d4d48     mathlib:mathlib_base.obj
 0002:00006d50       __real@3eb0c6f7a0000000    004d4d50     mathlib:mathlib_base.obj
 0002:00006d58       __real@c014000000000000    004d4d58     mathlib:mathlib_base.obj
 0002:00006d60       __real@c008000000000000    004d4d60     mathlib:mathlib_base.obj
 0002:00006d68       __real@4018000000000000    004d4d68     mathlib:mathlib_base.obj
 0002:00006d70       __real@3fe5555560000000    004d4d70     mathlib:mathlib_base.obj
 0002:00006d78       __real@c018000000000000    004d4d78     mathlib:mathlib_base.obj
 0002:00006d80       __real@3fc5555560000000    004d4d80     mathlib:mathlib_base.obj
 0002:00006d88       __real@3ff4000000000000    004d4d88     mathlib:mathlib_base.obj
 0002:00006d90       __real@3fe8000000000000    004d4d90     mathlib:mathlib_base.obj
 0002:00006d98       __real@3f400000            004d4d98     mathlib:mathlib_base.obj
 0002:00006d9c       __real@c3340000            004d4d9c     mathlib:mathlib_base.obj
 0002:00006da0       __real@405fc00000000000    004d4da0     mathlib:mathlib_base.obj
 0002:00006da8       __real@3f800001            004d4da8     mathlib:mathlib_base.obj
 0002:00006db0       __real@3fec000000000000    004d4db0     mathlib:mathlib_base.obj
 0002:00006db8       __real@3fc0000000000000    004d4db8     mathlib:mathlib_base.obj
 0002:00006dc0       __real@3fb3333333333333    004d4dc0     mathlib:mathlib_base.obj
 0002:00006dc8       __real@3d4ccccd            004d4dc8     mathlib:mathlib_base.obj
 0002:00006dcc       __real@3e000000            004d4dcc     mathlib:mathlib_base.obj
 0002:00006dd0       __real@3fa999999999999a    004d4dd0     mathlib:mathlib_base.obj
 0002:00006dd8       __real@437f0000            004d4dd8     mathlib:mathlib_base.obj
 0002:00006ddc       ??_C@_0BK@BIOKFMO@COLORCORRECTION_VERSION_1?$AA@ 004d4ddc     tier2:tier2.obj
 0002:00006df8       ??_C@_0BE@PCBACOML@DebugTextureInfo001?$AA@ 004d4df8     tier2:tier2.obj
 0002:00006e0c       ??_C@_0CA@CMOGODCE@MaterialSystemHardwareConfig012?$AA@ 004d4e0c     tier2:tier2.obj
 0002:00006e2c       ??_C@_0BI@OFANKHPJ@NetworkSystemVersion001?$AA@ 004d4e2c     tier2:tier2.obj
 0002:00006e44       ??_C@_0BG@BKNMCPPE@InputSystemVersion001?$AA@ 004d4e44     tier2:tier2.obj
 0002:00006e60       ??_C@_0FL@COHEOLJD@Assertion?5Failed?3?5?$CBg_pFullFileSy@ 004d4e60     tier2:tier2.obj
 0002:00006ebc       ??_C@_0CD@OALFMJOC@d?3?2dev?2rel?2hl2?2src?2tier2?2tier2?4c@ 004d4ebc     tier2:tier2.obj
 0002:00006ee0       ??_C@_0BM@CIMBBINP@Assertion?5Failed?3?5IsValid?$CI?$CJ?$AA@ 004d4ee0     tier2:tier2.obj
 0002:00006efc       ??_C@_0CF@CEPAHEME@d?3?2dev?2rel?2hl2?2src?2public?2vector@ 004d4efc     tier2:tier2.obj
 0002:00006f28       ??_7IVTFTexture@@6B@       004d4f28     vtf:vtf.obj
 0002:00006fe8       ??_C@_0CG@GEBAGNFL@Image?5dimensions?5must?5be?5power?5o@ 004d4fe8     vtf:vtf.obj
 0002:00007010       ??_C@_0BP@KGAAMOBJ@Depth?5must?5be?51?5for?5cubemaps?$CB?6?$AA@ 004d5010     vtf:vtf.obj
 0002:00007030       ??_C@_0CO@IPADFNJN@Height?5and?5width?5must?5be?5equal?5f@ 004d5030     vtf:vtf.obj
 0002:00007060       ??_C@_0DO@GBPJBKJC@Warning?$CB?5Encountered?5old?5format?5@ 004d5060     vtf:vtf.obj
 0002:000070a0       ??_C@_0DD@PIDBFMOO@?$CK?$CK?$CK?5Encountered?5VTF?5file?5with?5an@ 004d50a0     vtf:vtf.obj
 0002:000070d4       ??_C@_0DB@LAMDBMNJ@?$CK?$CK?$CK?5Tried?5to?5load?5a?5non?9VTF?5file@ 004d50d4     vtf:vtf.obj
 0002:00007108       ??_C@_03PNELBOHC@VTF?$AA@  004d5108     vtf:vtf.obj
 0002:0000710c       ??_C@_0DI@LLDOCADD@?$CK?$CK?$CK?5Error?5unserializing?5VTF?5file@ 004d510c     vtf:vtf.obj
 0002:00007144       __real@c0000000            004d5144     vtf:vtf.obj
 0002:00007148       __real@3fd0000000000000    004d5148     vtf:vtf.obj
 0002:00007150       ??_C@_0DF@GPPDIPDC@BlendCubeMapFaceEdges?3?5unsupport@ 004d5150     vtf:vtf.obj
 0002:00007188       ??_C@_0DA@JGJBJOIC@?$CK?$CK?$CK?5Unable?5to?5serialize?4?4?4?5have?5@ 004d5188     vtf:vtf.obj
 0002:000071b8       ??_C@_0CL@EOJJNAIP@?$CK?$CK?$CK?5Encountered?5VTF?5invalid?5text@ 004d51b8     vtf:vtf.obj
 0002:000071e4       ??_C@_0CN@NDAFOEKI@?$CK?$CK?$CK?5Encountered?5VTF?5volume?5textu@ 004d51e4     vtf:vtf.obj
 0002:00007214       ??_C@_0CJ@MFDAKNAJ@?$CK?$CK?$CK?5Encountered?5VTF?5non?9square?5c@ 004d5214     vtf:vtf.obj
 0002:00007240       ??_7CVTFTexture@@6B@       004d5240     vtf:vtf.obj
 0002:00007308       __real@3f70101010101010    004d5308     vtf:S3_intrf.obj
 0002:00007310       __real@41700000            004d5310     vtf:S3_intrf.obj
 0002:00007314       __real@3d888889            004d5314     vtf:S3_intrf.obj
 0002:00007328       __real@3f40000000000000    004d5328     vtf:S3_quant.obj
 0002:00007330       __real@400c000000000000    004d5330     vtf:S3_quant.obj
 0002:00007338       __real@4014000000000000    004d5338     vtf:S3_quant.obj
 0002:00007340       __real@4058000000000000    004d5340     vtf:S3_quant.obj
 0002:00007348       __FPinit                   004d5348     LIBCMT:fpinit.obj
 0002:0000734c       __FPmtinit                 004d534c     LIBCMT:fpinit.obj
 0002:00007350       __FPmtterm                 004d5350     LIBCMT:fpinit.obj
 0002:00007358       ??_7type_info@@6B@         004d5358     LIBCMT:typinfo.obj
 0002:000073b4       ??_7exception@std@@6B@     004d53b4     LIBCMT:stdexcpt.obj
 0002:000073bc       ??_C@_0BC@EOODALEL@Unknown?5exception?$AA@ 004d53bc     LIBCMT:stdexcpt.obj
 0002:000073d4       ??_7bad_cast@std@@6B@      004d53d4     LIBCMT:stdexcpt.obj
 0002:000073e0       ??_7bad_typeid@std@@6B@    004d53e0     LIBCMT:stdexcpt.obj
 0002:000073ec       ??_7__non_rtti_object@std@@6B@ 004d53ec     LIBCMT:stdexcpt.obj
 0002:00007414       ??_C@_0P@MIGLKIOC@CorExitProcess?$AA@ 004d5414     LIBCMT:crt0dat.obj
 0002:00007424       ??_C@_0M@MBOPBNBK@mscoree?4dll?$AA@ 004d5424     LIBCMT:crt0dat.obj
 0002:00007478       ??_C@_0EA@FCLIIPNN@Visual?5C?$CL?$CL?5CRT?3?5Not?5enough?5memor@ 004d5478     LIBCMT:strerror.obj
 0002:000074b8       ??_C@_03LLEJOLGL@?4?1?2?$AA@ 004d54b8     LIBCMT:stati32.obj
 0002:000074bc       ??_C@_02EAOCEIGI@?$DP?$CK?$AA@ 004d54bc     LIBCMT:stati32.obj
 0002:000074c0       ??_C@_05KLBDPFGC@e?$CL000?$AA@ 004d54c0     LIBCMT:cvt.obj
 0002:000074c8       __real@4150017ec0000000    004d54c8     LIBCMT:testfdiv.obj
 0002:000074d0       __real@4147ffff80000000    004d54d0     LIBCMT:testfdiv.obj
 0002:000074d8       ??_C@_0BK@NHEOCAHP@IsProcessorFeaturePresent?$AA@ 004d54d8     LIBCMT:testfdiv.obj
 0002:000074f4       ??_C@_08CPNIBGIE@KERNEL32?$AA@ 004d54f4     LIBCMT:testfdiv.obj
 0002:00007508       __DEFAULT_CW_in_mem        004d5508     LIBCMT:common.obj
 0002:0000750a       __pi_by_2_to_61            004d550a     LIBCMT:common.obj
 0002:00007544       ??_C@_1O@CEDCILHN@?$AA?$CI?$AAn?$AAu?$AAl?$AAl?$AA?$CJ?$AA?$AA@ 004d5544     LIBCMT:output.obj
 0002:00007554       ??_C@_06OJHGLDPL@?$CInull?$CJ?$AA@ 004d5554     LIBCMT:output.obj
 0002:00007560       ___lookuptable             004d5560     LIBCMT:output.obj
 0002:000075e0       ??_C@_07EPKMNAGK@?4mixcrt?$AA@ 004d55e0     LIBCMT:tidtable.obj
 0002:000075e8       ??_C@_0O@NLDKAIKN@EncodePointer?$AA@ 004d55e8     LIBCMT:tidtable.obj
 0002:000075f8       ??_C@_0N@NHGLKGEC@KERNEL32?4DLL?$AA@ 004d55f8     LIBCMT:tidtable.obj
 0002:00007608       ??_C@_0O@KBPMFGHI@DecodePointer?$AA@ 004d5608     LIBCMT:tidtable.obj
 0002:00007618       ??_C@_07PEJMOBNF@FlsFree?$AA@ 004d5618     LIBCMT:tidtable.obj
 0002:00007620       ??_C@_0M@JCPCPOEF@FlsSetValue?$AA@ 004d5620     LIBCMT:tidtable.obj
 0002:0000762c       ??_C@_0M@GDNOONDI@FlsGetValue?$AA@ 004d562c     LIBCMT:tidtable.obj
 0002:00007638       ??_C@_08KNHFBNJ@FlsAlloc?$AA@ 004d5638     LIBCMT:tidtable.obj
 0002:00007f00       ??_C@_07LCBHPJJN@LC_TIME?$AA@ 004d5f00     LIBCMT:setlocal.obj
 0002:00007f08       ??_C@_0L@DLHIECNL@LC_NUMERIC?$AA@ 004d5f08     LIBCMT:setlocal.obj
 0002:00007f14       ??_C@_0M@MIENIKLA@LC_MONETARY?$AA@ 004d5f14     LIBCMT:setlocal.obj
 0002:00007f20       ??_C@_08EADHIDAD@LC_CTYPE?$AA@ 004d5f20     LIBCMT:setlocal.obj
 0002:00007f2c       ??_C@_0L@KFJHEKIK@LC_COLLATE?$AA@ 004d5f2c     LIBCMT:setlocal.obj
 0002:00007f38       ??_C@_06NEFDFEKB@LC_ALL?$AA@ 004d5f38     LIBCMT:setlocal.obj
 0002:00007f40       ___lc_category             004d5f40     LIBCMT:setlocal.obj
 0002:00008008       ??_C@_03EGDHDPFD@_?4?0?$AA@ 004d6008     LIBCMT:setlocal.obj
 0002:0000800c       ??_C@_01ICJEACDI@?$DL?$AA@ 004d600c     LIBCMT:setlocal.obj
 0002:00008010       ??_C@_01NEMOKFLO@?$DN?$AA@ 004d6010     LIBCMT:setlocal.obj
 0002:00008014       ??_C@_02BALPLPBG@?$DN?$DL?$AA@ 004d6014     LIBCMT:setlocal.obj
 0002:00008018       ??_C@_0P@GGKDKEEG@runtime?5error?5?$AA@ 004d6018     LIBCMT:crt0msg.obj
 0002:00008028       ??_C@_0O@MJNIPGOH@TLOSS?5error?$AN?6?$AA@ 004d6028     LIBCMT:crt0msg.obj
 0002:00008038       ??_C@_0N@BONNPDHF@SING?5error?$AN?6?$AA@ 004d6038     LIBCMT:crt0msg.obj
 0002:00008048       ??_C@_0P@MBDAJNE@DOMAIN?5error?$AN?6?$AA@ 004d6048     LIBCMT:crt0msg.obj
 0002:00008058       ??_C@_0JL@DFDOOABL@R6034?$AN?6An?5application?5has?5made?5a@ 004d6058     LIBCMT:crt0msg.obj
 0002:000080f8       ??_C@_0PH@EPAFIJ@R6033?$AN?6?9?5Attempt?5to?5use?5MSIL?5cod@ 004d60f8     LIBCMT:crt0msg.obj
 0002:000081f0       ??_C@_0DD@BKEEABMM@R6032?$AN?6?9?5not?5enough?5space?5for?5lo@ 004d61f0     LIBCMT:crt0msg.obj
 0002:00008228       ??_C@_0GD@OFKILIED@R6031?$AN?6?9?5Attempt?5to?5initialize?5t@ 004d6228     LIBCMT:crt0msg.obj
 0002:0000828c       ??_C@_0BP@LPMHJOKI@R6030?$AN?6?9?5CRT?5not?5initialized?$AN?6?$AA@ 004d628c     LIBCMT:crt0msg.obj
 0002:000082ac       ??_C@_0CF@KJDAIALP@R6028?$AN?6?9?5unable?5to?5initialize?5he@ 004d62ac     LIBCMT:crt0msg.obj
 0002:000082d4       ??_C@_0DF@GAKBPDFP@R6027?$AN?6?9?5not?5enough?5space?5for?5lo@ 004d62d4     LIBCMT:crt0msg.obj
 0002:0000830c       ??_C@_0DF@IBLNNAIG@R6026?$AN?6?9?5not?5enough?5space?5for?5st@ 004d630c     LIBCMT:crt0msg.obj
 0002:00008344       ??_C@_0CG@IOHKGFNJ@R6025?$AN?6?9?5pure?5virtual?5function?5c@ 004d6344     LIBCMT:crt0msg.obj
 0002:0000836c       ??_C@_0DF@JIJJFJDC@R6024?$AN?6?9?5not?5enough?5space?5for?5_o@ 004d636c     LIBCMT:crt0msg.obj
 0002:000083a4       ??_C@_0CJ@EGEJHFME@R6019?$AN?6?9?5unable?5to?5open?5console?5@ 004d63a4     LIBCMT:crt0msg.obj
 0002:000083d0       ??_C@_0CB@GNHNIELH@R6018?$AN?6?9?5unexpected?5heap?5error?$AN?6@ 004d63d0     LIBCMT:crt0msg.obj
 0002:000083f4       ??_C@_0CN@FOLDKNG@R6017?$AN?6?9?5unexpected?5multithread?5@ 004d63f4     LIBCMT:crt0msg.obj
 0002:00008424       ??_C@_0CM@FAHFJNHO@R6016?$AN?6?9?5not?5enough?5space?5for?5th@ 004d6424     LIBCMT:crt0msg.obj
 0002:00008450       ??_C@_0JG@LBKMGKLD@?$AN?6This?5application?5has?5requested@ 004d6450     LIBCMT:crt0msg.obj
 0002:000084e8       ??_C@_0CM@FLCNIPKK@R6009?$AN?6?9?5not?5enough?5space?5for?5en@ 004d64e8     LIBCMT:crt0msg.obj
 0002:00008514       ??_C@_0CK@KMMJOAPP@R6008?$AN?6?9?5not?5enough?5space?5for?5ar@ 004d6514     LIBCMT:crt0msg.obj
 0002:00008540       ??_C@_0CN@LEKKICBM@R6002?$AN?6?9?5floating?5point?5support?5@ 004d6540     LIBCMT:crt0msg.obj
 0002:00008570       ??_C@_0CF@GOGNBNAK@Microsoft?5Visual?5C?$CL?$CL?5Runtime?5Lib@ 004d6570     LIBCMT:crt0msg.obj
 0002:00008598       ??_C@_03KHICJKCI@?4?4?4?$AA@ 004d6598     LIBCMT:crt0msg.obj
 0002:0000859c       ??_C@_0BH@DNAGHKFM@?$DMprogram?5name?5unknown?$DO?$AA@ 004d659c     LIBCMT:crt0msg.obj
 0002:000085b4       ??_C@_0BK@OFGJDLJJ@Runtime?5Error?$CB?6?6Program?3?5?$AA@ 004d65b4     LIBCMT:crt0msg.obj
 0002:00008638       ??_C@_03IIINPABG@tan?$AA@  004d6638     LIBCMT:libm_error.obj
 0002:0000863c       ??_C@_03LALBNOCG@cos?$AA@  004d663c     LIBCMT:libm_error.obj
 0002:00008640       ??_C@_03BLEJJJBH@sin?$AA@  004d6640     LIBCMT:libm_error.obj
 0002:00008644       ??_C@_04EHEDPDJG@modf?$AA@ 004d6644     LIBCMT:libm_error.obj
 0002:0000864c       ??_C@_05PBJFFIGL@floor?$AA@ 004d664c     LIBCMT:libm_error.obj
 0002:00008654       ??_C@_04GFPJNGEK@ceil?$AA@ 004d6654     LIBCMT:libm_error.obj
 0002:0000865c       ??_C@_04MLLJIGOK@atan?$AA@ 004d665c     LIBCMT:libm_error.obj
 0002:00008664       ??_C@_05EOHGHCHD@exp10?$AA@ 004d6664     LIBCMT:libm_error.obj
 0002:0000866c       ??_C@_04PDIFKINK@acos?$AA@ 004d666c     LIBCMT:libm_error.obj
 0002:00008674       ??_C@_04FIHNOPOL@asin?$AA@ 004d6674     LIBCMT:libm_error.obj
 0002:0000867c       ??_C@_03MGHMBJCF@log?$AA@  004d667c     LIBCMT:libm_error.obj
 0002:00008680       ??_C@_05HGHHAHAP@log10?$AA@ 004d6680     LIBCMT:libm_error.obj
 0002:00008688       ??_C@_03KHJOGHMM@exp?$AA@  004d6688     LIBCMT:libm_error.obj
 0002:0000868c       ??_C@_03JGHBODFD@pow?$AA@  004d668c     LIBCMT:libm_error.obj
 0002:00008690       __pDestructExceptionObject 004d6690     LIBCMT:frame.obj
 0002:00008698       ??_7bad_exception@std@@6B@ 004d6698     LIBCMT:frame.obj
 0002:000086a0       ??_C@_0O@DPKOEFFH@bad?5exception?$AA@ 004d66a0     LIBCMT:frame.obj
 0002:000086e0       ??_C@_13NOLLCAOD@?$AA?$AA?$AA?$AA@ 004d66e0     LIBCMT:a_map.obj
 0002:00008f90       ??_C@_0BC@JEAENNKH@SystemFunction036?$AA@ 004d6f90     LIBCMT:rand_s.obj
 0002:00008fa4       ??_C@_0N@JJPEKNFO@ADVAPI32?4DLL?$AA@ 004d6fa4     LIBCMT:rand_s.obj
 0002:00008fb4       ??_C@_0CG@PKBDLMEO@InitializeCriticalSectionAndSpin@ 004d6fb4     LIBCMT:initcrit.obj
 0002:00008fdc       ??_C@_0N@MDJJJHMB@kernel32?4dll?$AA@ 004d6fdc     LIBCMT:initcrit.obj
 0002:0000beb0       ??_C@_0BG@KLEAJEFJ@Illegal?5byte?5sequence?$AA@ 004d9eb0     LIBCMT:syserr.obj
 0002:0000bec8       ??_C@_0BE@ICMCHPHH@Directory?5not?5empty?$AA@ 004d9ec8     LIBCMT:syserr.obj
 0002:0000bedc       ??_C@_0BJ@IHEHINLI@Function?5not?5implemented?$AA@ 004d9edc     LIBCMT:syserr.obj
 0002:0000bef8       ??_C@_0BD@CLHBCGPB@No?5locks?5available?$AA@ 004d9ef8     LIBCMT:syserr.obj
 0002:0000bf0c       ??_C@_0BC@BEDIHIDK@Filename?5too?5long?$AA@ 004d9f0c     LIBCMT:syserr.obj
 0002:0000bf20       ??_C@_0BK@JAEBMJJM@Resource?5deadlock?5avoided?$AA@ 004d9f20     LIBCMT:syserr.obj
 0002:0000bf3c       ??_C@_0BB@FCBJFCAJ@Result?5too?5large?$AA@ 004d9f3c     LIBCMT:syserr.obj
 0002:0000bf50       ??_C@_0N@MMJPGLJK@Domain?5error?$AA@ 004d9f50     LIBCMT:syserr.obj
 0002:0000bf60       ??_C@_0M@LHEPIIOM@Broken?5pipe?$AA@ 004d9f60     LIBCMT:syserr.obj
 0002:0000bf6c       ??_C@_0P@PKCJJLLM@Too?5many?5links?$AA@ 004d9f6c     LIBCMT:syserr.obj
 0002:0000bf7c       ??_C@_0BG@DDBFNKBH@Read?9only?5file?5system?$AA@ 004d9f7c     LIBCMT:syserr.obj
 0002:0000bf94       ??_C@_0N@FEHLOILP@Invalid?5seek?$AA@ 004d9f94     LIBCMT:syserr.obj
 0002:0000bfa4       ??_C@_0BI@FEALHKLD@No?5space?5left?5on?5device?$AA@ 004d9fa4     LIBCMT:syserr.obj
 0002:0000bfbc       ??_C@_0P@LFMMIPAE@File?5too?5large?$AA@ 004d9fbc     LIBCMT:syserr.obj
 0002:0000bfcc       ??_C@_0CE@ONOKNLPF@Inappropriate?5I?1O?5control?5operat@ 004d9fcc     LIBCMT:syserr.obj
 0002:0000bff0       ??_C@_0BE@INBJMKGG@Too?5many?5open?5files?$AA@ 004d9ff0     LIBCMT:syserr.obj
 0002:0000c004       ??_C@_0BO@IIFBODJE@Too?5many?5open?5files?5in?5system?$AA@ 004da004     LIBCMT:syserr.obj
 0002:0000c024       ??_C@_0BB@HMGGCEBG@Invalid?5argument?$AA@ 004da024     LIBCMT:syserr.obj
 0002:0000c038       ??_C@_0P@NDHGCGKE@Is?5a?5directory?$AA@ 004da038     LIBCMT:syserr.obj
 0002:0000c048       ??_C@_0BA@CJBACOOL@Not?5a?5directory?$AA@ 004da048     LIBCMT:syserr.obj
 0002:0000c058       ??_C@_0P@NLEIANHE@No?5such?5device?$AA@ 004da058     LIBCMT:syserr.obj
 0002:0000c068       ??_C@_0O@OAMDNOCP@Improper?5link?$AA@ 004da068     LIBCMT:syserr.obj
 0002:0000c078       ??_C@_0M@NAAJNNGH@File?5exists?$AA@ 004da078     LIBCMT:syserr.obj
 0002:0000c084       ??_C@_0BA@BIBLIOEK@Resource?5device?$AA@ 004da084     LIBCMT:syserr.obj
 0002:0000c094       ??_C@_0O@NIPGCINC@Unknown?5error?$AA@ 004da094     LIBCMT:syserr.obj
 0002:0000c0a4       ??_C@_0M@LOEHLCJD@Bad?5address?$AA@ 004da0a4     LIBCMT:syserr.obj
 0002:0000c0b0       ??_C@_0BC@HFNFNKAI@Permission?5denied?$AA@ 004da0b0     LIBCMT:syserr.obj
 0002:0000c0c4       ??_C@_0BB@IMDKMPFB@Not?5enough?5space?$AA@ 004da0c4     LIBCMT:syserr.obj
 0002:0000c0d8       ??_C@_0CB@EPFKGNAK@Resource?5temporarily?5unavailable@ 004da0d8     LIBCMT:syserr.obj
 0002:0000c0fc       ??_C@_0BD@LOHELEP@No?5child?5processes?$AA@ 004da0fc     LIBCMT:syserr.obj
 0002:0000c110       ??_C@_0BE@NFGDDCEF@Bad?5file?5descriptor?$AA@ 004da110     LIBCMT:syserr.obj
 0002:0000c124       ??_C@_0BC@HKPNECK@Exec?5format?5error?$AA@ 004da124     LIBCMT:syserr.obj
 0002:0000c138       ??_C@_0BC@MFFGCDFL@Arg?5list?5too?5long?$AA@ 004da138     LIBCMT:syserr.obj
 0002:0000c14c       ??_C@_0BK@DPKMCKJ@No?5such?5device?5or?5address?$AA@ 004da14c     LIBCMT:syserr.obj
 0002:0000c168       ??_C@_0BD@KKNFOBBD@Input?1output?5error?$AA@ 004da168     LIBCMT:syserr.obj
 0002:0000c17c       ??_C@_0BK@FJBOAFDK@Interrupted?5function?5call?$AA@ 004da17c     LIBCMT:syserr.obj
 0002:0000c198       ??_C@_0BA@FKIAIBGA@No?5such?5process?$AA@ 004da198     LIBCMT:syserr.obj
 0002:0000c1a8       ??_C@_0BK@FMDHKPNF@No?5such?5file?5or?5directory?$AA@ 004da1a8     LIBCMT:syserr.obj
 0002:0000c1c4       ??_C@_0BI@BJFCGOHL@Operation?5not?5permitted?$AA@ 004da1c4     LIBCMT:syserr.obj
 0002:0000c1dc       ??_C@_08INEPGKHH@No?5error?$AA@ 004da1dc     LIBCMT:syserr.obj
 0002:0000c1e8       ??_C@_04PNGHFIJN@?4com?$AA@ 004da1e8     LIBCMT:stat.obj
 0002:0000c1f0       ??_C@_04NEEFLLOK@?4bat?$AA@ 004da1f0     LIBCMT:stat.obj
 0002:0000c1f8       ??_C@_04CPCBDHLK@?4cmd?$AA@ 004da1f8     LIBCMT:stat.obj
 0002:0000c200       ??_C@_04JLMDILM@?4exe?$AA@ 004da200     LIBCMT:stat.obj
 0002:00011c30       ??_C@_0BO@GNIAFIKK@Unknown?5Runtime?5Check?5Error?6?$AN?$AA@ 004dfc30     LIBCMT:error.obj
 0002:00011c50       ??_C@_0CM@NGINOKPC@Stack?5memory?5around?5_alloca?5was?5@ 004dfc50     LIBCMT:error.obj
 0002:00011c7c       ??_C@_0DG@HKJMLLLP@A?5local?5variable?5was?5used?5before@ 004dfc7c     LIBCMT:error.obj
 0002:00011cb4       ??_C@_0BN@FFOINMNJ@Stack?5memory?5was?5corrupted?6?$AN?$AA@ 004dfcb4     LIBCMT:error.obj
 0002:00011cd8       ??_C@_0BBN@GPMLNJCF@A?5cast?5to?5a?5smaller?5data?5type?5ha@ 004dfcd8     LIBCMT:error.obj
 0002:00011df8       ??_C@_0NN@NGPKDKPD@The?5value?5of?5ESP?5was?5not?5properl@ 004dfdf8     LIBCMT:error.obj
 0002:00011f5c       ??_C@_0CA@IODNCDPG@Run?9Time?5Check?5Failure?5?$CD?$CFd?5?9?5?$CFs?$AA@ 004dff5c     LIBCMT:error.obj
 0002:00011f7c       ??_C@_0BE@GNBOBNCK@Unknown?5Module?5Name?$AA@ 004dff7c     LIBCMT:error.obj
 0002:00011f90       ??_C@_0BB@PFFGGCJP@Unknown?5Filename?$AA@ 004dff90     LIBCMT:error.obj
 0002:00011fa8       ??_C@_1EA@NFKNIFJP@?$AAR?$AAu?$AAn?$AA?9?$AAT?$AAi?$AAm?$AAe?$AA?5?$AAC?$AAh?$AAe?$AAc?$AAk?$AA?5?$AAF?$AAa?$AAi?$AAl?$AAu?$AAr?$AAe?$AA?5?$AA?$CD?$AA?$CF?$AAd?$AA?5?$AA?9?$AA?5?$AA?$CF?$AAs?$AA?$AA@ 004dffa8     LIBCMT:error.obj
 0002:00011fe8       ??_C@_1GM@OLMCBDMB@?$AAR?$AAu?$AAn?$AAt?$AAi?$AAm?$AAe?$AA?5?$AAC?$AAh?$AAe?$AAc?$AAk?$AA?5?$AAE?$AAr?$AAr?$AAo?$AAr?$AA?4?$AA?6?$AA?$AN?$AA?5?$AAU?$AAn?$AAa?$AAb?$AAl?$AAe?$AA?5?$AAt?$AAo@ 004dffe8     LIBCMT:error.obj
 0002:00012054       ??_C@_0CG@IAFNJNEE@Stack?5corrupted?5near?5unknown?5var@ 004e0054     LIBCMT:error.obj
 0002:0001207c       ??_C@_05MKKEDADM@?$CF?42X?5?$AA@ 004e007c     LIBCMT:error.obj
 0002:00012088       ??_C@_0EJ@LJKNEOLN@Stack?5area?5around?5_alloca?5memory@ 004e0088     LIBCMT:error.obj
 0002:000120d4       ??_C@_08KJEDNCKC@?$CFs?$CFs?$CFs?$CFs?$AA@ 004e00d4     LIBCMT:error.obj
 0002:000120e0       ??_C@_02LLMPMKNF@?$DO?5?$AA@ 004e00e0     LIBCMT:error.obj
 0002:000120e4       ??_C@_0BC@KIBAILCI@?$CFs?$CFs?$CFp?$CFs?$CFld?$CFs?$CFd?$CFs?$AA@ 004e00e4     LIBCMT:error.obj
 0002:000120f8       ??_C@_0EI@CLEPFNGI@Stack?5area?5around?5_alloca?5memory@ 004e00f8     LIBCMT:error.obj
 0002:00012140       ??_C@_0N@MHFFIMFG@?6Address?3?50x?$AA@ 004e0140     LIBCMT:error.obj
 0002:00012150       ??_C@_07DFDJCKFN@?6Size?3?5?$AA@ 004e0150     LIBCMT:error.obj
 0002:00012158       ??_C@_0CK@DKGBICFE@?6Allocation?5number?5within?5this?5f@ 004e0158     LIBCMT:error.obj
 0002:00012184       ??_C@_08OMAHNMHJ@?6Data?3?5?$DM?$AA@ 004e0184     LIBCMT:error.obj
 0002:00012190       ??_C@_09FOPFMPEJ@wsprintfA?$AA@ 004e0190     LIBCMT:error.obj
 0002:0001219c       ??_C@_0L@GMPLCCII@user32?4dll?$AA@ 004e019c     LIBCMT:error.obj
 0002:000121a8       ??_C@_0DE@OHJBPMBP@A?5variable?5is?5being?5used?5without@ 004e01a8     LIBCMT:error.obj
 0002:000121dc       ??_C@_0BP@OGBCLIBO@Stack?5around?5_alloca?5corrupted?$AA@ 004e01dc     LIBCMT:userapi.obj
 0002:000121fc       ??_C@_0CK@CNLNOEPB@Local?5variable?5used?5before?5initi@ 004e01fc     LIBCMT:userapi.obj
 0002:00012228       ??_C@_0BI@CIGMDCBH@Stack?5memory?5corruption?$AA@ 004e0228     LIBCMT:userapi.obj
 0002:00012240       ??_C@_0CK@FEGOIOPB@Cast?5to?5smaller?5type?5causing?5los@ 004e0240     LIBCMT:userapi.obj
 0002:0001226c       ??_C@_0BJ@HEGAHDFO@Stack?5pointer?5corruption?$AA@ 004e026c     LIBCMT:userapi.obj
 0002:000122a0       ___lookuptable_s           004e02a0     LIBCMT:outputs.obj
 0002:00012300       ___newctype                004e0300     LIBCMT:ctype.obj
 0002:00012600       __wctype                   004e0600     LIBCMT:ctype.obj
 0002:00012808       ___newclmap                004e0808     LIBCMT:ctype.obj
 0002:00012988       ___newcumap                004e0988     LIBCMT:ctype.obj
 0002:00012b08       ??_C@_08JCCMCCIL@HH?3mm?3ss?$AA@ 004e0b08     LIBCMT:strftime.obj
 0002:00012b14       ??_C@_0BE@CKGJFCPC@dddd?0?5MMMM?5dd?0?5yyyy?$AA@ 004e0b14     LIBCMT:strftime.obj
 0002:00012b28       ??_C@_08BPBNCDIB@MM?1dd?1yy?$AA@ 004e0b28     LIBCMT:strftime.obj
 0002:00012b34       ??_C@_02CJNFDJBF@PM?$AA@   004e0b34     LIBCMT:strftime.obj
 0002:00012b38       ??_C@_02DEDBPAFC@AM?$AA@   004e0b38     LIBCMT:strftime.obj
 0002:00012b3c       ??_C@_08EDHMEBNP@December?$AA@ 004e0b3c     LIBCMT:strftime.obj
 0002:00012b48       ??_C@_08HCHEGEOA@November?$AA@ 004e0b48     LIBCMT:strftime.obj
 0002:00012b54       ??_C@_07JJNFCEND@October?$AA@ 004e0b54     LIBCMT:strftime.obj
 0002:00012b5c       ??_C@_09BHHEALKD@September?$AA@ 004e0b5c     LIBCMT:strftime.obj
 0002:00012b68       ??_C@_06LBBHFDDG@August?$AA@ 004e0b68     LIBCMT:strftime.obj
 0002:00012b70       ??_C@_04MIEPOIFP@July?$AA@ 004e0b70     LIBCMT:strftime.obj
 0002:00012b78       ??_C@_04CNLMGBGM@June?$AA@ 004e0b78     LIBCMT:strftime.obj
 0002:00012b80       ??_C@_05DMJDNLEJ@April?$AA@ 004e0b80     LIBCMT:strftime.obj
 0002:00012b88       ??_C@_05HPCKOFNC@March?$AA@ 004e0b88     LIBCMT:strftime.obj
 0002:00012b90       ??_C@_08GNJGEPFN@February?$AA@ 004e0b90     LIBCMT:strftime.obj
 0002:00012b9c       ??_C@_07CGJPFGJA@January?$AA@ 004e0b9c     LIBCMT:strftime.obj
 0002:00012ba4       ??_C@_03MKABNOCG@Dec?$AA@  004e0ba4     LIBCMT:strftime.obj
 0002:00012ba8       ??_C@_03JPJOFNIA@Nov?$AA@  004e0ba8     LIBCMT:strftime.obj
 0002:00012bac       ??_C@_03BMAOKBAD@Oct?$AA@  004e0bac     LIBCMT:strftime.obj
 0002:00012bb0       ??_C@_03GGCAPAJC@Sep?$AA@  004e0bb0     LIBCMT:strftime.obj
 0002:00012bb4       ??_C@_03IFJFEIGA@Aug?$AA@  004e0bb4     LIBCMT:strftime.obj
 0002:00012bb8       ??_C@_03LBGABGKK@Jul?$AA@  004e0bb8     LIBCMT:strftime.obj
 0002:00012bbc       ??_C@_03IDFGHECI@Jun?$AA@  004e0bbc     LIBCMT:strftime.obj
 0002:00012bc0       ??_C@_03CNMDKL@May?$AA@    004e0bc0     LIBCMT:strftime.obj
 0002:00012bc4       ??_C@_03LEOLGMJP@Apr?$AA@  004e0bc4     LIBCMT:strftime.obj
 0002:00012bc8       ??_C@_03ODNJBKGA@Mar?$AA@  004e0bc8     LIBCMT:strftime.obj
 0002:00012bcc       ??_C@_03HJBDCHOM@Feb?$AA@  004e0bcc     LIBCMT:strftime.obj
 0002:00012bd0       ??_C@_03JIHJHPIE@Jan?$AA@  004e0bd0     LIBCMT:strftime.obj
 0002:00012bd4       ??_C@_08INBOOONO@Saturday?$AA@ 004e0bd4     LIBCMT:strftime.obj
 0002:00012be0       ??_C@_06JECMNKMI@Friday?$AA@ 004e0be0     LIBCMT:strftime.obj
 0002:00012be8       ??_C@_08HACCIKIA@Thursday?$AA@ 004e0be8     LIBCMT:strftime.obj
 0002:00012bf4       ??_C@_09DLIGFAKA@Wednesday?$AA@ 004e0bf4     LIBCMT:strftime.obj
 0002:00012c00       ??_C@_07BAAGCFCM@Tuesday?$AA@ 004e0c00     LIBCMT:strftime.obj
 0002:00012c08       ??_C@_06JLEDEDGH@Monday?$AA@ 004e0c08     LIBCMT:strftime.obj
 0002:00012c10       ??_C@_06OOPIFAJ@Sunday?$AA@ 004e0c10     LIBCMT:strftime.obj
 0002:00012c18       ??_C@_03FEFJNEK@Sat?$AA@   004e0c18     LIBCMT:strftime.obj
 0002:00012c1c       ??_C@_03IDIOELNC@Fri?$AA@  004e0c1c     LIBCMT:strftime.obj
 0002:00012c20       ??_C@_03IOFIKPDN@Thu?$AA@  004e0c20     LIBCMT:strftime.obj
 0002:00012c24       ??_C@_03MHOMLAJA@Wed?$AA@  004e0c24     LIBCMT:strftime.obj
 0002:00012c28       ??_C@_03NAGEINEP@Tue?$AA@  004e0c28     LIBCMT:strftime.obj
 0002:00012c2c       ??_C@_03PDAGKDH@Mon?$AA@   004e0c2c     LIBCMT:strftime.obj
 0002:00012c30       ??_C@_03KOEHGMDN@Sun?$AA@  004e0c30     LIBCMT:strftime.obj
 0002:00012c34       ??_C@_03EBAPMIKO@a?1p?$AA@ 004e0c34     LIBCMT:strftime.obj
 0002:00012c38       ??_C@_05JAMEPDIN@am?1pm?$AA@ 004e0c38     LIBCMT:strftime.obj
 0002:00012c40       ??_C@_0O@FMJNFNKE@united?9states?$AA@ 004e0c40     LIBCMT:getqloc.obj
 0002:00012c50       ??_C@_0P@NDHFFKCA@united?9kingdom?$AA@ 004e0c50     LIBCMT:getqloc.obj
 0002:00012c60       ??_C@_0BC@HHDADLGF@trinidad?5?$CG?5tobago?$AA@ 004e0c60     LIBCMT:getqloc.obj
 0002:00012c74       ??_C@_0M@IOAEBDAC@south?9korea?$AA@ 004e0c74     LIBCMT:getqloc.obj
 0002:00012c80       ??_C@_0N@FIELFKIJ@south?9africa?$AA@ 004e0c80     LIBCMT:getqloc.obj
 0002:00012c90       ??_C@_0M@OPNDHCMC@south?5korea?$AA@ 004e0c90     LIBCMT:getqloc.obj
 0002:00012c9c       ??_C@_0N@MDEOEPFI@south?5africa?$AA@ 004e0c9c     LIBCMT:getqloc.obj
 0002:00012cac       ??_C@_06FKAPCJLB@slovak?$AA@ 004e0cac     LIBCMT:getqloc.obj
 0002:00012cb4       ??_C@_0M@EFJANOAL@puerto?9rico?$AA@ 004e0cb4     LIBCMT:getqloc.obj
 0002:00012cc0       ??_C@_08PGOJKDAI@pr?9china?$AA@ 004e0cc0     LIBCMT:getqloc.obj
 0002:00012ccc       ??_C@_08JHDOMCMI@pr?5china?$AA@ 004e0ccc     LIBCMT:getqloc.obj
 0002:00012cd8       ??_C@_02JHCHFBLL@nz?$AA@   004e0cd8     LIBCMT:getqloc.obj
 0002:00012cdc       ??_C@_0M@LINHDHKP@new?9zealand?$AA@ 004e0cdc     LIBCMT:getqloc.obj
 0002:00012ce8       ??_C@_09IIIPPBDB@hong?9kong?$AA@ 004e0ce8     LIBCMT:getqloc.obj
 0002:00012cf4       ??_C@_07HJLCKBG@holland?$AA@ 004e0cf4     LIBCMT:getqloc.obj
 0002:00012cfc       ??_C@_0O@LEHGMHAG@great?5britain?$AA@ 004e0cfc     LIBCMT:getqloc.obj
 0002:00012d0c       ??_C@_07FACOMELA@england?$AA@ 004e0d0c     LIBCMT:getqloc.obj
 0002:00012d14       ??_C@_05JIHCEICB@czech?$AA@ 004e0d14     LIBCMT:getqloc.obj
 0002:00012d1c       ??_C@_05BBJOBLGB@china?$AA@ 004e0d1c     LIBCMT:getqloc.obj
 0002:00012d24       ??_C@_07GPKPHICP@britain?$AA@ 004e0d24     LIBCMT:getqloc.obj
 0002:00012d2c       ??_C@_07MHIPBHMG@america?$AA@ 004e0d2c     LIBCMT:getqloc.obj
 0002:00012d34       ??_C@_03KIALPMKC@usa?$AA@  004e0d34     LIBCMT:getqloc.obj
 0002:00012d38       ??_C@_02FGJGKGGD@us?$AA@   004e0d38     LIBCMT:getqloc.obj
 0002:00012d3c       ??_C@_02NEINDODK@uk?$AA@   004e0d3c     LIBCMT:getqloc.obj
 0002:00012d40       ??_C@_05JMPCFJFJ@swiss?$AA@ 004e0d40     LIBCMT:getqloc.obj
 0002:00012d48       ??_C@_0BA@HLOCPIOD@swedish?9finland?$AA@ 004e0d48     LIBCMT:getqloc.obj
 0002:00012d58       ??_C@_0BC@PKCNIABK@spanish?9venezuela?$AA@ 004e0d58     LIBCMT:getqloc.obj
 0002:00012d6c       ??_C@_0BA@GBHHMIJI@spanish?9uruguay?$AA@ 004e0d6c     LIBCMT:getqloc.obj
 0002:00012d7c       ??_C@_0BE@BHDOHPMC@spanish?9puerto?5rico?$AA@ 004e0d7c     LIBCMT:getqloc.obj
 0002:00012d90       ??_C@_0N@KMOIDGGN@spanish?9peru?$AA@ 004e0d90     LIBCMT:getqloc.obj
 0002:00012da0       ??_C@_0BB@HMHLPGPH@spanish?9paraguay?$AA@ 004e0da0     LIBCMT:getqloc.obj
 0002:00012db4       ??_C@_0P@MCPKNGFD@spanish?9panama?$AA@ 004e0db4     LIBCMT:getqloc.obj
 0002:00012dc4       ??_C@_0BC@IHOHGAIL@spanish?9nicaragua?$AA@ 004e0dc4     LIBCMT:getqloc.obj
 0002:00012dd8       ??_C@_0P@KLMJDNFJ@spanish?9modern?$AA@ 004e0dd8     LIBCMT:getqloc.obj
 0002:00012de8       ??_C@_0BA@BPAPGBCM@spanish?9mexican?$AA@ 004e0de8     LIBCMT:getqloc.obj
 0002:00012df8       ??_C@_0BB@PDECHHHE@spanish?9honduras?$AA@ 004e0df8     LIBCMT:getqloc.obj
 0002:00012e0c       ??_C@_0BC@KLHKFGDB@spanish?9guatemala?$AA@ 004e0e0c     LIBCMT:getqloc.obj
 0002:00012e20       ??_C@_0BE@MFOOKJAI@spanish?9el?5salvador?$AA@ 004e0e20     LIBCMT:getqloc.obj
 0002:00012e34       ??_C@_0BA@FCOKFPFC@spanish?9ecuador?$AA@ 004e0e34     LIBCMT:getqloc.obj
 0002:00012e44       ??_C@_0BL@PLMGIMOO@spanish?9dominican?5republic?$AA@ 004e0e44     LIBCMT:getqloc.obj
 0002:00012e60       ??_C@_0BD@HLGDNMHB@spanish?9costa?5rica?$AA@ 004e0e60     LIBCMT:getqloc.obj
 0002:00012e74       ??_C@_0BB@PKCBKCPE@spanish?9colombia?$AA@ 004e0e74     LIBCMT:getqloc.obj
 0002:00012e88       ??_C@_0O@MCBIJGNE@spanish?9chile?$AA@ 004e0e88     LIBCMT:getqloc.obj
 0002:00012e98       ??_C@_0BA@BEFEIGJJ@spanish?9bolivia?$AA@ 004e0e98     LIBCMT:getqloc.obj
 0002:00012ea8       ??_C@_0BC@EMECMPD@spanish?9argentina?$AA@ 004e0ea8     LIBCMT:getqloc.obj
 0002:00012ebc       ??_C@_0BF@EALFLENP@portuguese?9brazilian?$AA@ 004e0ebc     LIBCMT:getqloc.obj
 0002:00012ed4       ??_C@_0BC@HBLEBLNN@norwegian?9nynorsk?$AA@ 004e0ed4     LIBCMT:getqloc.obj
 0002:00012ee8       ??_C@_0BB@HMACDDCK@norwegian?9bokmal?$AA@ 004e0ee8     LIBCMT:getqloc.obj
 0002:00012efc       ??_C@_09BAFFPPHE@norwegian?$AA@ 004e0efc     LIBCMT:getqloc.obj
 0002:00012f08       ??_C@_0O@EAJFJDFG@italian?9swiss?$AA@ 004e0f08     LIBCMT:getqloc.obj
 0002:00012f18       ??_C@_0O@CNOMPGD@irish?9english?$AA@ 004e0f18     LIBCMT:getqloc.obj
 0002:00012f28       ??_C@_0N@EDHBGCKG@german?9swiss?$AA@ 004e0f28     LIBCMT:getqloc.obj
 0002:00012f38       ??_C@_0BC@JACMHNBP@german?9luxembourg?$AA@ 004e0f38     LIBCMT:getqloc.obj
 0002:00012f4c       ??_C@_0BE@HBGMGFEG@german?9lichtenstein?$AA@ 004e0f4c     LIBCMT:getqloc.obj
 0002:00012f60       ??_C@_0BA@HKKBIBKL@german?9austrian?$AA@ 004e0f60     LIBCMT:getqloc.obj
 0002:00012f70       ??_C@_0N@GCAEPEBK@french?9swiss?$AA@ 004e0f70     LIBCMT:getqloc.obj
 0002:00012f80       ??_C@_0BC@DJFJJCK@french?9luxembourg?$AA@ 004e0f80     LIBCMT:getqloc.obj
 0002:00012f94       ??_C@_0BA@NNCEDFIC@french?9canadian?$AA@ 004e0f94     LIBCMT:getqloc.obj
 0002:00012fa4       ??_C@_0P@CMPOCLM@french?9belgian?$AA@ 004e0fa4     LIBCMT:getqloc.obj
 0002:00012fb4       ??_C@_0M@GHHDJOK@english?9usa?$AA@ 004e0fb4     LIBCMT:getqloc.obj
 0002:00012fc0       ??_C@_0L@PLDJKEIL@english?9us?$AA@ 004e0fc0     LIBCMT:getqloc.obj
 0002:00012fcc       ??_C@_0L@HJCCDMNC@english?9uk?$AA@ 004e0fcc     LIBCMT:getqloc.obj
 0002:00012fd8       ??_C@_0BK@CKLIAGJB@english?9trinidad?5y?5tobago?$AA@ 004e0fd8     LIBCMT:getqloc.obj
 0002:00012ff4       ??_C@_0BF@JMJMGNNF@english?9south?5africa?$AA@ 004e0ff4     LIBCMT:getqloc.obj
 0002:0001300c       ??_C@_0L@DKIIFDFD@english?9nz?$AA@ 004e100c     LIBCMT:getqloc.obj
 0002:00013018       ??_C@_0BA@ONHGJCLH@english?9jamaica?$AA@ 004e1018     LIBCMT:getqloc.obj
 0002:00013028       ??_C@_0M@HJBGHOPO@english?9ire?$AA@ 004e1028     LIBCMT:getqloc.obj
 0002:00013034       ??_C@_0BC@LFEKMIFB@english?9caribbean?$AA@ 004e1034     LIBCMT:getqloc.obj
 0002:00013048       ??_C@_0M@OLDPFKHI@english?9can?$AA@ 004e1048     LIBCMT:getqloc.obj
 0002:00013054       ??_C@_0P@OMDEHBMP@english?9belize?$AA@ 004e1054     LIBCMT:getqloc.obj
 0002:00013064       ??_C@_0M@KFHFPFED@english?9aus?$AA@ 004e1064     LIBCMT:getqloc.obj
 0002:00013070       ??_C@_0BB@MNMBKDFE@english?9american?$AA@ 004e1070     LIBCMT:getqloc.obj
 0002:00013084       ??_C@_0O@KIDLNNBA@dutch?9belgian?$AA@ 004e1084     LIBCMT:getqloc.obj
 0002:00013094       ??_C@_0BE@JBKABBMH@chinese?9traditional?$AA@ 004e1094     LIBCMT:getqloc.obj
 0002:000130a8       ??_C@_0BC@MJJMPKCG@chinese?9singapore?$AA@ 004e10a8     LIBCMT:getqloc.obj
 0002:000130bc       ??_C@_0BD@FDKADDCP@chinese?9simplified?$AA@ 004e10bc     LIBCMT:getqloc.obj
 0002:000130d0       ??_C@_0BB@DBEFDDME@chinese?9hongkong?$AA@ 004e10d0     LIBCMT:getqloc.obj
 0002:000130e4       ??_C@_07DHNMFMCI@chinese?$AA@ 004e10e4     LIBCMT:getqloc.obj
 0002:000130ec       ??_C@_03FNDDCHI@chi?$AA@   004e10ec     LIBCMT:getqloc.obj
 0002:000130f0       ??_C@_03BMMIADDJ@chh?$AA@  004e10f0     LIBCMT:getqloc.obj
 0002:000130f4       ??_C@_08OAIPJDGI@canadian?$AA@ 004e10f4     LIBCMT:getqloc.obj
 0002:00013100       ??_C@_07HBPMNPNJ@belgian?$AA@ 004e1100     LIBCMT:getqloc.obj
 0002:00013108       ??_C@_0L@OEKOPBEL@australian?$AA@ 004e1108     LIBCMT:getqloc.obj
 0002:00013114       ??_C@_0BB@MEIMBEDG@american?9english?$AA@ 004e1114     LIBCMT:getqloc.obj
 0002:00013128       ??_C@_0BB@DFMDPDGB@american?5english?$AA@ 004e1128     LIBCMT:getqloc.obj
 0002:0001313c       ??_C@_08IJLOKOLL@american?$AA@ 004e113c     LIBCMT:getqloc.obj
 0002:00013148       ___rg_language             004e1148     LIBCMT:getqloc.obj
 0002:00013350       ___rg_country              004e1350     LIBCMT:getqloc.obj
 0002:00013408       ___rglangidNotDefault      004e1408     LIBCMT:getqloc.obj
 0002:0001341c       ??_C@_03NFKLAGEF@OCP?$AA@  004e141c     LIBCMT:getqloc.obj
 0002:00013420       ??_C@_03DFHEHBHG@ACP?$AA@  004e1420     LIBCMT:getqloc.obj
 0002:00013424       ??_C@_0BC@NFIEMBLL@Norwegian?9Nynorsk?$AA@ 004e1424     LIBCMT:getqloc.obj
 0002:00013438       ??_C@_0BK@CFCOFLF@?5Complete?5Object?5Locator?8?$AA@ 004e1438     LIBCMT:undname.obj
 0002:00013454       ??_C@_0BN@MECKDCOJ@?5Class?5Hierarchy?5Descriptor?8?$AA@ 004e1454     LIBCMT:undname.obj
 0002:00013474       ??_C@_0BD@LGICGFMM@?5Base?5Class?5Array?8?$AA@ 004e1474     LIBCMT:undname.obj
 0002:00013488       ??_C@_0BM@LDKODKLH@?5Base?5Class?5Descriptor?5at?5?$CI?$AA@ 004e1488     LIBCMT:undname.obj
 0002:000134a4       ??_C@_0BC@DAFEJGAK@?5Type?5Descriptor?8?$AA@ 004e14a4     LIBCMT:undname.obj
 0002:000134b8       ??_C@_0BM@PMGGMLDN@?$GAlocal?5static?5thread?5guard?8?$AA@ 004e14b8     LIBCMT:undname.obj
 0002:000134d4       ??_C@_0CL@FGIJHLCE@?$GAmanaged?5vector?5copy?5constructor@ 004e14d4     LIBCMT:undname.obj
 0002:00013500       ??_C@_0CJ@GJELGAMM@?$GAvector?5vbase?5copy?5constructor?5i@ 004e1500     LIBCMT:undname.obj
 0002:0001352c       ??_C@_0CD@CGAJBKEJ@?$GAvector?5copy?5constructor?5iterato@ 004e152c     LIBCMT:undname.obj
 0002:00013550       ??_C@_0CB@PDBIFEP@?$GAdynamic?5atexit?5destructor?5for?5?8@ 004e1550     LIBCMT:undname.obj
 0002:00013574       ??_C@_0BL@CLIPGLGB@?$GAdynamic?5initializer?5for?5?8?$AA@ 004e1574     LIBCMT:undname.obj
 0002:00013590       ??_C@_0CM@FCBBDIGB@?$GAeh?5vector?5vbase?5copy?5constructo@ 004e1590     LIBCMT:undname.obj
 0002:000135bc       ??_C@_0CG@HLDDJMAG@?$GAeh?5vector?5copy?5constructor?5iter@ 004e15bc     LIBCMT:undname.obj
 0002:000135e4       ??_C@_0CF@IMGKMJNO@?$GAmanaged?5vector?5destructor?5itera@ 004e15e4     LIBCMT:undname.obj
 0002:0001360c       ??_C@_0CG@CFDHKGGD@?$GAmanaged?5vector?5constructor?5iter@ 004e160c     LIBCMT:undname.obj
 0002:00013634       ??_C@_0BN@CKNJLHMB@?$GAplacement?5delete?$FL?$FN?5closure?8?$AA@ 004e1634     LIBCMT:undname.obj
 0002:00013654       ??_C@_0BL@CNOONJFP@?$GAplacement?5delete?5closure?8?$AA@ 004e1654     LIBCMT:undname.obj
 0002:00013670       ??_C@_0P@HJKNJFNN@?$GAomni?5callsig?8?$AA@ 004e1670     LIBCMT:undname.obj
 0002:00013680       ??_C@_09LBNFPBCA@?5delete?$FL?$FN?$AA@ 004e1680     LIBCMT:undname.obj
 0002:0001368c       ??_C@_06FHBGPFGH@?5new?$FL?$FN?$AA@ 004e168c     LIBCMT:undname.obj
 0002:00013694       ??_C@_0CE@IIHCMGGL@?$GAlocal?5vftable?5constructor?5closu@ 004e1694     LIBCMT:undname.obj
 0002:000136b8       ??_C@_0BA@KKLDJDLB@?$GAlocal?5vftable?8?$AA@ 004e16b8     LIBCMT:undname.obj
 0002:000136c8       ??_C@_05KHLCHHI@?$GARTTI?$AA@ 004e16c8     LIBCMT:undname.obj
 0002:000136d0       ??_C@_03KLGMFNMG@?$GAEH?$AA@ 004e16d0     LIBCMT:undname.obj
 0002:000136d4       ??_C@_0BA@KBCDOMBN@?$GAudt?5returning?8?$AA@ 004e16d4     LIBCMT:undname.obj
 0002:000136e4       ??_C@_0BL@LLKPOHJI@?$GAcopy?5constructor?5closure?8?$AA@ 004e16e4     LIBCMT:undname.obj
 0002:00013700       ??_C@_0CH@OOJPLCPH@?$GAeh?5vector?5vbase?5constructor?5ite@ 004e1700     LIBCMT:undname.obj
 0002:00013728       ??_C@_0CA@GCEOPDGL@?$GAeh?5vector?5destructor?5iterator?8?$AA@ 004e1728     LIBCMT:undname.obj
 0002:00013748       ??_C@_0CB@JONCMFFK@?$GAeh?5vector?5constructor?5iterator?8@ 004e1748     LIBCMT:undname.obj
 0002:0001376c       ??_C@_0BL@NILFHHPC@?$GAvirtual?5displacement?5map?8?$AA@ 004e176c     LIBCMT:undname.obj
 0002:00013788       ??_C@_0CE@IKBNEHA@?$GAvector?5vbase?5constructor?5iterat@ 004e1788     LIBCMT:undname.obj
 0002:000137ac       ??_C@_0BN@LFPFMEDL@?$GAvector?5destructor?5iterator?8?$AA@ 004e17ac     LIBCMT:undname.obj
 0002:000137cc       ??_C@_0BO@PFGOCPJJ@?$GAvector?5constructor?5iterator?8?$AA@ 004e17cc     LIBCMT:undname.obj
 0002:000137ec       ??_C@_0BN@IMDCHIKM@?$GAscalar?5deleting?5destructor?8?$AA@ 004e17ec     LIBCMT:undname.obj
 0002:0001380c       ??_C@_0BO@OBMKPJIG@?$GAdefault?5constructor?5closure?8?$AA@ 004e180c     LIBCMT:undname.obj
 0002:0001382c       ??_C@_0BN@DEGPLNFK@?$GAvector?5deleting?5destructor?8?$AA@ 004e182c     LIBCMT:undname.obj
 0002:0001384c       ??_C@_0BD@JDLKDPAB@?$GAvbase?5destructor?8?$AA@ 004e184c     LIBCMT:undname.obj
 0002:00013860       ??_C@_08OBABFOLI@?$GAstring?8?$AA@ 004e1860     LIBCMT:undname.obj
 0002:0001386c       ??_C@_0BF@KDPPACIK@?$GAlocal?5static?5guard?8?$AA@ 004e186c     LIBCMT:undname.obj
 0002:00013884       ??_C@_08LLFFHHDJ@?$GAtypeof?8?$AA@ 004e1884     LIBCMT:undname.obj
 0002:00013890       ??_C@_07FEEIOKP@?$GAvcall?8?$AA@ 004e1890     LIBCMT:undname.obj
 0002:00013898       ??_C@_09BLBHBJP@?$GAvbtable?8?$AA@ 004e1898     LIBCMT:undname.obj
 0002:000138a4       ??_C@_09IFPLHPGF@?$GAvftable?8?$AA@ 004e18a4     LIBCMT:undname.obj
 0002:000138b0       ??_C@_02MHEGNOJ@?$FO?$DN?$AA@ 004e18b0     LIBCMT:undname.obj
 0002:000138b4       ??_C@_02DHLNPPGH@?$HM?$DN?$AA@ 004e18b4     LIBCMT:undname.obj
 0002:000138b8       ??_C@_02FGJGFEAB@?$CG?$DN?$AA@ 004e18b8     LIBCMT:undname.obj
 0002:000138bc       ??_C@_03CDNPDDLA@?$DM?$DM?$DN?$AA@ 004e18bc     LIBCMT:undname.obj
 0002:000138c0       ??_C@_03IKFCCPFF@?$DO?$DO?$DN?$AA@ 004e18c0     LIBCMT:undname.obj
 0002:000138c4       ??_C@_02FENAOKFI@?$CF?$DN?$AA@ 004e18c4     LIBCMT:undname.obj
 0002:000138c8       ??_C@_02FJEHGPIO@?1?$DN?$AA@ 004e18c8     LIBCMT:undname.obj
 0002:000138cc       ??_C@_02FKMDLLOA@?9?$DN?$AA@ 004e18cc     LIBCMT:undname.obj
 0002:000138d0       ??_C@_02FOEOMHFC@?$CL?$DN?$AA@ 004e18d0     LIBCMT:undname.obj
 0002:000138d4       ??_C@_02FPIMKNGF@?$CK?$DN?$AA@ 004e18d4     LIBCMT:undname.obj
 0002:000138d8       ??_C@_02NONPIBCD@?$HM?$HM?$AA@ 004e18d8     LIBCMT:undname.obj
 0002:000138dc       ??_C@_02PPKAJPJL@?$CG?$CG?$AA@ 004e18dc     LIBCMT:undname.obj
 0002:000138e0       ??_C@_01DNKMNLPK@?$HM?$AA@ 004e18e0     LIBCMT:undname.obj
 0002:000138e4       ??_C@_01JKBOJNNK@?$FO?$AA@ 004e18e4     LIBCMT:undname.obj
 0002:000138e8       ??_C@_01PJKLJHI@?$HO?$AA@  004e18e8     LIBCMT:undname.obj
 0002:000138ec       ??_C@_02HCKGKOFO@?$CI?$CJ?$AA@ 004e18ec     LIBCMT:undname.obj
 0002:000138f0       ??_C@_01IHBHIGKO@?0?$AA@   004e18f0     LIBCMT:undname.obj
 0002:000138f4       ??_C@_02EEKDKGMJ@?$DO?$DN?$AA@ 004e18f4     LIBCMT:undname.obj
 0002:000138f8       ??_C@_01PPODPGHN@?$DO?$AA@ 004e18f8     LIBCMT:undname.obj
 0002:000138fc       ??_C@_02EHCHHCKH@?$DM?$DN?$AA@ 004e18fc     LIBCMT:undname.obj
 0002:00013900       ??_C@_01MNNFJEPP@?$DM?$AA@ 004e1900     LIBCMT:undname.obj
 0002:00013904       ??_C@_01FGNFDNOH@?$CF?$AA@ 004e1904     LIBCMT:undname.obj
 0002:00013908       ??_C@_01KMDKNFGN@?1?$AA@   004e1908     LIBCMT:undname.obj
 0002:0001390c       ??_C@_03MNHNFDLC@?9?$DO?$CK?$AA@ 004e190c     LIBCMT:undname.obj
 0002:00013910       ??_C@_01HNPIGOCE@?$CG?$AA@ 004e1910     LIBCMT:undname.obj
 0002:00013914       ??_C@_01MIFGBAGJ@?$CL?$AA@ 004e1914     LIBCMT:undname.obj
 0002:00013918       ??_C@_02BAABKJLB@?9?9?$AA@ 004e1918     LIBCMT:undname.obj
 0002:0001391c       ??_C@_02ECNGHCIF@?$CL?$CL?$AA@ 004e191c     LIBCMT:undname.obj
 0002:00013920       ??_C@_02HBOOOICD@?9?$DO?$AA@ 004e1920     LIBCMT:undname.obj
 0002:00013924       ??_C@_08LHJFAFGD@operator?$AA@ 004e1924     LIBCMT:undname.obj
 0002:00013930       ??_C@_02GPECMEKF@?$FL?$FN?$AA@ 004e1930     LIBCMT:undname.obj
 0002:00013934       ??_C@_02FDNJECIE@?$CB?$DN?$AA@ 004e1934     LIBCMT:undname.obj
 0002:00013938       ??_C@_02EGOFBIJA@?$DN?$DN?$AA@ 004e1938     LIBCMT:undname.obj
 0002:0001393c       ??_C@_01DCLJPIOD@?$CB?$AA@ 004e193c     LIBCMT:undname.obj
 0002:00013940       ??_C@_02FODMEDOG@?$DM?$DM?$AA@ 004e1940     LIBCMT:undname.obj
 0002:00013944       ??_C@_02GPIOPFAK@?$DO?$DO?$AA@ 004e1944     LIBCMT:undname.obj
 0002:00013948       ??_C@_07FPCDHGMM@?5delete?$AA@ 004e1948     LIBCMT:undname.obj
 0002:00013950       ??_C@_04NIHEBCM@?5new?$AA@ 004e1950     LIBCMT:undname.obj
 0002:00013958       ??_C@_0M@GFIIJFMG@__unaligned?$AA@ 004e1958     LIBCMT:undname.obj
 0002:00013964       ??_C@_0L@PILCLIHE@__restrict?$AA@ 004e1964     LIBCMT:undname.obj
 0002:00013970       ??_C@_07JOMMBBKO@__ptr64?$AA@ 004e1970     LIBCMT:undname.obj
 0002:00013978       ??_C@_09HIJEGCPM@__clrcall?$AA@ 004e1978     LIBCMT:undname.obj
 0002:00013984       ??_C@_0L@JMKHOMEK@__fastcall?$AA@ 004e1984     LIBCMT:undname.obj
 0002:00013990       ??_C@_0L@NPHFGOKO@__thiscall?$AA@ 004e1990     LIBCMT:undname.obj
 0002:0001399c       ??_C@_09IFJBGAPI@__stdcall?$AA@ 004e199c     LIBCMT:undname.obj
 0002:000139a8       ??_C@_08GHMPAG@__pascal?$AA@ 004e19a8     LIBCMT:undname.obj
 0002:000139b4       ??_C@_07KOLFKCDI@__cdecl?$AA@ 004e19b4     LIBCMT:undname.obj
 0002:000139bc       ??_C@_08EHJDFFNH@__based?$CI?$AA@ 004e19bc     LIBCMT:undname.obj
 0002:00013b4c       ??_7DNameNode@@6B@         004e1b4c     LIBCMT:undname.obj
 0002:00013b5c       ??_7charNode@@6B@          004e1b5c     LIBCMT:undname.obj
 0002:00013b6c       ??_7pDNameNode@@6B@        004e1b6c     LIBCMT:undname.obj
 0002:00013b7c       ??_7DNameStatusNode@@6B@   004e1b7c     LIBCMT:undname.obj
 0002:00013b8c       ??_7pcharNode@@6B@         004e1b8c     LIBCMT:undname.obj
 0002:00013b98       ??_C@_04OKOHEJBO@?5?$DP?$DP?5?$AA@ 004e1b98     LIBCMT:undname.obj
 0002:00013ba0       ??_C@_06EEGAIFAK@?$HLflat?$HN?$AA@ 004e1ba0     LIBCMT:undname.obj
 0002:00013ba8       ??_C@_05JIBOFOHK@?$HLfor?5?$AA@ 004e1ba8     LIBCMT:undname.obj
 0002:00013bb0       ??_C@_0BN@IBLMMFAP@?$GAnon?9type?9template?9parameter?$AA@ 004e1bb0     LIBCMT:undname.obj
 0002:00013bd0       ??_C@_09EBBEKKIH@unsigned?5?$AA@ 004e1bd0     LIBCMT:undname.obj
 0002:00013bdc       ??_C@_05CJIMAING@long?5?$AA@ 004e1bdc     LIBCMT:undname.obj
 0002:00013be4       ??_C@_04LAHKHJMA@int?5?$AA@ 004e1be4     LIBCMT:undname.obj
 0002:00013bec       ??_C@_06EHJMALKF@short?5?$AA@ 004e1bec     LIBCMT:undname.obj
 0002:00013bf4       ??_C@_05CIHEBHNO@char?5?$AA@ 004e1bf4     LIBCMT:undname.obj
 0002:00013bfc       ??_C@_04GKJNKENE@void?$AA@ 004e1bfc     LIBCMT:undname.obj
 0002:00013c04       ??_C@_0L@EGPHHEKN@?$DMellipsis?$DO?$AA@ 004e1c04     LIBCMT:undname.obj
 0002:00013c10       ??_C@_0M@ELJOJFFH@?0?$DMellipsis?$DO?$AA@ 004e1c10     LIBCMT:undname.obj
 0002:00013c1c       ??_C@_04EENFHACM@?0?4?4?4?$AA@ 004e1c1c     LIBCMT:undname.obj
 0002:00013c24       ??_C@_07HDJPLPEK@?5throw?$CI?$AA@ 004e1c24     LIBCMT:undname.obj
 0002:00013c2c       ??_C@_02GOGNNPBN@?$CJ?$FL?$AA@ 004e1c2c     LIBCMT:undname.obj
 0002:00013c30       ??_C@_02MDINNEEG@s?5?$AA@  004e1c30     LIBCMT:undname.obj
 0002:00013c34       ??_C@_0BE@EODMJLIF@?$GAtemplate?9parameter?$AA@ 004e1c34     LIBCMT:undname.obj
 0002:00013c48       ??_C@_0O@GKABPPIF@cli?3?3pin_ptr?$DM?$AA@ 004e1c48     LIBCMT:undname.obj
 0002:00013c58       ??_C@_0M@EALIELKG@cli?3?3array?$DM?$AA@ 004e1c58     LIBCMT:undname.obj
 0002:00013c64       ??_C@_05BEFAKPML@void?5?$AA@ 004e1c64     LIBCMT:undname.obj
 0002:00013c6c       ??_C@_02OHHJMEON@?8?8?$AA@ 004e1c6c     LIBCMT:undname.obj
 0002:00013c70       ??_C@_0BG@JNJLAMPM@?$GAanonymous?5namespace?8?$AA@ 004e1c70     LIBCMT:undname.obj
 0002:00013c88       ??_C@_01NLNLIGKH@?$GA?$AA@ 004e1c88     LIBCMT:undname.obj
 0002:00013c8c       ??_C@_0O@KHGCOMHP@generic?9type?9?$AA@ 004e1c8c     LIBCMT:undname.obj
 0002:00013c9c       ??_C@_0BE@JAEOCHPE@template?9parameter?9?$AA@ 004e1c9c     LIBCMT:undname.obj
 0002:00013cb0       ??_C@_02MOLJINC@?3?3?$AA@  004e1cb0     LIBCMT:undname.obj
 0002:00013cb4       ??_C@_0P@GCIFDJCJ@?$GAunknown?5ecsu?8?$AA@ 004e1cb4     LIBCMT:undname.obj
 0002:00013cc4       ??_C@_06MOJHIBMG@union?5?$AA@ 004e1cc4     LIBCMT:undname.obj
 0002:00013ccc       ??_C@_07DIBCDNGL@struct?5?$AA@ 004e1ccc     LIBCMT:undname.obj
 0002:00013cd4       ??_C@_06LJBABKPM@class?5?$AA@ 004e1cd4     LIBCMT:undname.obj
 0002:00013cdc       ??_C@_05LJGMCFOG@enum?5?$AA@ 004e1cdc     LIBCMT:undname.obj
 0002:00013ce4       ??_C@_08KOFANOFK@coclass?5?$AA@ 004e1ce4     LIBCMT:undname.obj
 0002:00013cf0       ??_C@_0N@DLIEFKNA@cointerface?5?$AA@ 004e1cf0     LIBCMT:undname.obj
 0002:00013d00       ??_C@_0M@DHNBOJMP@extern?5?$CCC?$CC?5?$AA@ 004e1d00     LIBCMT:undname.obj
 0002:00013d0c       ??_C@_08KJLFOPNE@?$FLthunk?$FN?3?$AA@ 004e1d0c     LIBCMT:undname.obj
 0002:00013d18       ??_C@_08GPDDCMKI@public?3?5?$AA@ 004e1d18     LIBCMT:undname.obj
 0002:00013d24       ??_C@_0M@GAIFPFIP@protected?3?5?$AA@ 004e1d24     LIBCMT:undname.obj
 0002:00013d30       ??_C@_09LAPHOOG@private?3?5?$AA@ 004e1d30     LIBCMT:undname.obj
 0002:00013d3c       ??_C@_08NIEOINHE@virtual?5?$AA@ 004e1d3c     LIBCMT:undname.obj
 0002:00013d48       ??_C@_07PGOEDBHP@static?5?$AA@ 004e1d48     LIBCMT:undname.obj
 0002:00013d50       ??_C@_0DA@HGFJFBBE@?$GAtemplate?5static?5data?5member?5des@ 004e1d50     LIBCMT:undname.obj
 0002:00013d80       ??_C@_0DB@ILEFOCIJ@?$GAtemplate?5static?5data?5member?5con@ 004e1d80     LIBCMT:undname.obj
 0002:00013db4       ??_C@_0CB@KJDOOODE@?$GAlocal?5static?5destructor?5helper?8@ 004e1db4     LIBCMT:undname.obj
 0002:00013dd8       ??_C@_0L@HNGCOGAE@?$GAadjustor?$HL?$AA@ 004e1dd8     LIBCMT:undname.obj
 0002:00013de4       ??_C@_0L@GHPFDFH@?$GAvtordisp?$HL?$AA@ 004e1de4     LIBCMT:undname.obj
 0002:00013df0       ??_C@_0N@CBHHHENL@?$GAvtordispex?$HL?$AA@ 004e1df0     LIBCMT:undname.obj
 0002:00013e00       ??_C@_02IGFCGPIL@?$HN?8?$AA@ 004e1e00     LIBCMT:undname.obj
 0002:00013e04       ??_C@_03OPGICMGF@?$HN?8?5?$AA@ 004e1e04     LIBCMT:undname.obj
 0002:00013e08       ??_C@_06LIJLOJAG@const?5?$AA@ 004e1e08     LIBCMT:undname.obj
 0002:00013e10       ??_C@_09GAIEOBLP@volatile?5?$AA@ 004e1e10     LIBCMT:undname.obj
 0002:00013e1c       ??_C@_04HEJADOOB@CV?3?5?$AA@ 004e1e1c     LIBCMT:undname.obj
 0002:00013e24       ??_C@_08PABEKFH@volatile?$AA@ 004e1e24     LIBCMT:undname.obj
 0002:00013e30       ??_C@_09EFNPDFFP@?5volatile?$AA@ 004e1e30     LIBCMT:undname.obj
 0002:00013e3c       ??_C@_05BNCCCJPP@const?$AA@ 004e1e3c     LIBCMT:undname.obj
 0002:00013e44       ??_C@_07EDHNAJHC@signed?5?$AA@ 004e1e44     LIBCMT:undname.obj
 0002:00013e4c       ??_C@_06BNJCAIGJ@double?$AA@ 004e1e4c     LIBCMT:undname.obj
 0002:00013e54       ??_C@_04DDKJGDCM@bool?$AA@ 004e1e54     LIBCMT:undname.obj
 0002:00013e5c       ??_C@_07CLGGIAMF@wchar_t?$AA@ 004e1e5c     LIBCMT:undname.obj
 0002:00013e64       ??_C@_07NFANNNEC@UNKNOWN?$AA@ 004e1e64     LIBCMT:undname.obj
 0002:00013e6c       ??_C@_08GAHOLHEO@__int128?$AA@ 004e1e6c     LIBCMT:undname.obj
 0002:00013e78       ??_C@_07OFLPPHGP@__int32?$AA@ 004e1e78     LIBCMT:undname.obj
 0002:00013e80       ??_C@_07LFCOJCAC@__int64?$AA@ 004e1e80     LIBCMT:undname.obj
 0002:00013e88       ??_C@_07ICFHOGAF@__int16?$AA@ 004e1e88     LIBCMT:undname.obj
 0002:00013e90       ??_C@_06GCICPBLB@__w64?5?$AA@ 004e1e90     LIBCMT:undname.obj
 0002:00013e98       ??_C@_06EBGKOKIG@__int8?$AA@ 004e1e98     LIBCMT:undname.obj
 0002:00013ea0       ??_C@_05KNFBNCOH@float?$AA@ 004e1ea0     LIBCMT:undname.obj
 0002:00013ea8       ??_C@_04GOKPGOLB@long?$AA@ 004e1ea8     LIBCMT:undname.obj
 0002:00013eb0       ??_C@_03JBIPMCLC@int?$AA@  004e1eb0     LIBCMT:undname.obj
 0002:00013eb4       ??_C@_05BFKKPKCG@short?$AA@ 004e1eb4     LIBCMT:undname.obj
 0002:00013ebc       ??_C@_04ENMBGAPA@char?$AA@ 004e1ebc     LIBCMT:undname.obj
 0002:00013ec4       ??_C@_0BI@DFKBFLJE@GetProcessWindowStation?$AA@ 004e1ec4     LIBCMT:crtmbox.obj
 0002:00013edc       ??_C@_0BK@CIDNPOGP@GetUserObjectInformationA?$AA@ 004e1edc     LIBCMT:crtmbox.obj
 0002:00013ef8       ??_C@_0BD@HHGDFDBJ@GetLastActivePopup?$AA@ 004e1ef8     LIBCMT:crtmbox.obj
 0002:00013f0c       ??_C@_0BA@HNOPNCHB@GetActiveWindow?$AA@ 004e1f0c     LIBCMT:crtmbox.obj
 0002:00013f1c       ??_C@_0M@CHKKJDAI@MessageBoxA?$AA@ 004e1f1c     LIBCMT:crtmbox.obj
 0002:00013f28       ??_C@_0L@NDEGIDAG@USER32?4DLL?$AA@ 004e1f28     LIBCMT:crtmbox.obj
 0002:00013f34       ??_C@_0L@KDOEJCKC@_nextafter?$AA@ 004e1f34     LIBCMT:fpexcept.obj
 0002:00013f40       ??_C@_05JGDBENOH@_logb?$AA@ 004e1f40     LIBCMT:fpexcept.obj
 0002:00013f48       ??_C@_03ONILCKOB@_yn?$AA@  004e1f48     LIBCMT:fpexcept.obj
 0002:00013f4c       ??_C@_03NAKIGLHK@_y1?$AA@  004e1f4c     LIBCMT:fpexcept.obj
 0002:00013f50       ??_C@_03MJLDFKDL@_y0?$AA@  004e1f50     LIBCMT:fpexcept.obj
 0002:00013f54       ??_C@_05GKKHEGJL@frexp?$AA@ 004e1f54     LIBCMT:fpexcept.obj
 0002:00013f5c       ??_C@_04KEPJIHGP@fmod?$AA@ 004e1f5c     LIBCMT:fpexcept.obj
 0002:00013f64       ??_C@_06MEIMCGCF@_hypot?$AA@ 004e1f64     LIBCMT:fpexcept.obj
 0002:00013f6c       ??_C@_05KBKMEMPO@_cabs?$AA@ 004e1f6c     LIBCMT:fpexcept.obj
 0002:00013f74       ??_C@_05CEJMAHNP@ldexp?$AA@ 004e1f74     LIBCMT:fpexcept.obj
 0002:00013f7c       ??_C@_04ODHECPBC@fabs?$AA@ 004e1f7c     LIBCMT:fpexcept.obj
 0002:00013f84       ??_C@_04EIAKFFMI@sqrt?$AA@ 004e1f84     LIBCMT:fpexcept.obj
 0002:00013f8c       ??_C@_05KNGEOGJB@atan2?$AA@ 004e1f8c     LIBCMT:fpexcept.obj
 0002:00013f94       ??_C@_04FJHINJAO@tanh?$AA@ 004e1f94     LIBCMT:fpexcept.obj
 0002:00013f9c       ??_C@_04HPJJNFIM@cosh?$AA@ 004e1f9c     LIBCMT:fpexcept.obj
 0002:00013fa4       ??_C@_04COOMCNPB@sinh?$AA@ 004e1fa4     LIBCMT:fpexcept.obj
 0002:00013fac       ??_C@_02CLFPBFFP@TZ?$AA@   004e1fac     LIBCMT:tzset.obj
 0002:00013fb0       ___dnames                  004e1fb0     LIBCMT:timeset.obj
 0002:00013fc8       ___mnames                  004e1fc8     LIBCMT:timeset.obj
 0002:00013ff0       ??_C@_0L@NKOGAPMJ@SystemRoot?$AA@ 004e1ff0     LIBCMT:cenvarg.obj
 0002:00013ffc       ??_C@_0M@EKFFODEC@MSPDB80?4DLL?$AA@ 004e1ffc     LIBCMT:pdblkup.obj
 0002:00014008       ??_C@_0BF@BMIHBHCA@EnvironmentDirectory?$AA@ 004e2008     LIBCMT:pdblkup.obj
 0002:00014020       ??_C@_0CN@EAEOKKOC@SOFTWARE?2Microsoft?2VisualStudio?2@ 004e2020     LIBCMT:pdblkup.obj
 0002:00014050       ??_C@_0M@HLOHPNFA@RegCloseKey?$AA@ 004e2050     LIBCMT:pdblkup.obj
 0002:0001405c       ??_C@_0BB@HHEIPGME@RegQueryValueExA?$AA@ 004e205c     LIBCMT:pdblkup.obj
 0002:00014070       ??_C@_0O@DCOGKJGG@RegOpenKeyExA?$AA@ 004e2070     LIBCMT:pdblkup.obj
 0002:00014080       ??_C@_0BB@KCIACLNC@PDBOpenValidate5?$AA@ 004e2080     LIBCMT:pdblkup.obj
 0002:00014094       ??_C@_06IMKFLFPG@1?$CDQNAN?$AA@ 004e2094     LIBCMT:x10fout.obj
 0002:0001409c       ??_C@_05DNEBIAHO@1?$CDINF?$AA@ 004e209c     LIBCMT:x10fout.obj
 0002:000140a4       ??_C@_05PHHOCPM@1?$CDIND?$AA@ 004e20a4     LIBCMT:x10fout.obj
 0002:000140ac       ??_C@_06PGGFOGJG@1?$CDSNAN?$AA@ 004e20ac     LIBCMT:x10fout.obj
 0002:000140b4       ??_C@_06GDENEHCP@CONIN$?$AA@ 004e20b4     LIBCMT:initcon.obj
 0002:000140bc       ??_C@_07GPDNMNG@CONOUT$?$AA@ 004e20bc     LIBCMT:initcon.obj
 0002:000140c8       ??_7invalid_argument@std@@6B@ 004e20c8     libcpmt:string.obj
 0002:000140d4       ??_7out_of_range@std@@6B@  004e20d4     libcpmt:string.obj
 0002:000140dc       ??_C@_0BA@JFNIOLAK@string?5too?5long?$AA@ 004e20dc     libcpmt:string.obj
 0002:000140ec       ??_C@_0BI@CFPLBAOH@invalid?5string?5position?$AA@ 004e20ec     libcpmt:string.obj
 0002:00014104       ??_C@_0BI@ILCMCLF@invalid?5string?5argument?$AA@ 004e2104     libcpmt:string.obj
 0002:0001411c       ?_BADOFF@std@@3JB          004e211c     libcpmt:ios.obj
 0002:00014124       ??_7_Locimp@locale@std@@6B@ 004e2124     libcpmt:locale0.obj
 0002:00014128       ??_C@_13BPINEIPE@?$AAr?$AA?$AA@ 004e2128     libcpmt:fiopen.obj
 0002:00014168       ??_C@_13CIFDLIMG@?$AAw?$AA?$AA@ 004e2168     libcpmt:fiopen.obj
 0002:0001416c       ??_C@_13FNCBLAIF@?$AAa?$AA?$AA@ 004e216c     libcpmt:fiopen.obj
 0002:00014170       ??_C@_15JJPIMNBO@?$AAr?$AAb?$AA?$AA@ 004e2170     libcpmt:fiopen.obj
 0002:00014178       ??_C@_15MJDFFMKN@?$AAw?$AAb?$AA?$AA@ 004e2178     libcpmt:fiopen.obj
 0002:00014180       ??_C@_15BMLKLNCL@?$AAa?$AAb?$AA?$AA@ 004e2180     libcpmt:fiopen.obj
 0002:00014188       ??_C@_15HPOENKKJ@?$AAr?$AA?$CL?$AA?$AA@ 004e2188     libcpmt:fiopen.obj
 0002:00014190       ??_C@_15CPCJELBK@?$AAw?$AA?$CL?$AA?$AA@ 004e2190     libcpmt:fiopen.obj
 0002:00014198       ??_C@_15PKKGKKJM@?$AAa?$AA?$CL?$AA?$AA@ 004e2198     libcpmt:fiopen.obj
 0002:000141a0       ??_C@_17IIOMHMAG@?$AAr?$AA?$CL?$AAb?$AA?$AA@ 004e21a0     libcpmt:fiopen.obj
 0002:000141a8       ??_C@_17MAAMHCGC@?$AAw?$AA?$CL?$AAb?$AA?$AA@ 004e21a8     libcpmt:fiopen.obj
 0002:000141b0       ??_C@_17HKNIEKMO@?$AAa?$AA?$CL?$AAb?$AA?$AA@ 004e21b0     libcpmt:fiopen.obj
 0002:000141b8       ??_C@_0BL@OLOJPJLN@IMAGE_FORMAT_RGBA32323232F?$AA@ 004e21b8     bitmap:imageformat.obj
 0002:000141d4       ??_C@_0BI@FLDBGJMJ@IMAGE_FORMAT_RGB323232F?$AA@ 004e21d4     bitmap:imageformat.obj
 0002:000141ec       ??_C@_0BC@EJLIBMHN@IMAGE_FORMAT_R32F?$AA@ 004e21ec     bitmap:imageformat.obj
 0002:00014200       ??_C@_0BG@EPLNNPIA@IMAGE_FORMAT_UVLX8888?$AA@ 004e2200     bitmap:imageformat.obj
 0002:00014218       ??_C@_0N@GBJBEFCM@RGBA16161616?$AA@ 004e2218     bitmap:imageformat.obj
 0002:00014228       ??_C@_0O@JEJKBFCF@RGBA16161616F?$AA@ 004e2228     bitmap:imageformat.obj
 0002:00014238       ??_C@_08KPDDCJI@UVWQ8888?$AA@ 004e2238     bitmap:imageformat.obj
 0002:00014244       ??_C@_04BKKPBAPE@UV88?$AA@ 004e2244     bitmap:imageformat.obj
 0002:0001424c       ??_C@_08PAENDFNP@BGRA5551?$AA@ 004e224c     bitmap:imageformat.obj
 0002:00014258       ??_C@_0BB@BFEFPFPF@DXT1_ONEBITALPHA?$AA@ 004e2258     bitmap:imageformat.obj
 0002:0001426c       ??_C@_08JCEOFHI@BGRA4444?$AA@ 004e226c     bitmap:imageformat.obj
 0002:00014278       ??_C@_08NEJEGGIM@BGRX5551?$AA@ 004e2278     bitmap:imageformat.obj
 0002:00014284       ??_C@_06KEKLLBKJ@BGR565?$AA@ 004e2284     bitmap:imageformat.obj
 0002:0001428c       ??_C@_08HHEFCPK@BGRX8888?$AA@ 004e228c     bitmap:imageformat.obj
 0002:00014298       ??_C@_04FDJDJFPM@DXT5?$AA@ 004e2298     bitmap:imageformat.obj
 0002:000142a0       ??_C@_04FMJDCHK@DXT3?$AA@  004e22a0     bitmap:imageformat.obj
 0002:000142a8       ??_C@_04DHPPFAPI@DXT1?$AA@ 004e22a8     bitmap:imageformat.obj
 0002:000142b0       ??_C@_08CDKNABKJ@BGRA8888?$AA@ 004e22b0     bitmap:imageformat.obj
 0002:000142bc       ??_C@_08JNAJMDOE@ARGB8888?$AA@ 004e22bc     bitmap:imageformat.obj
 0002:000142c8       ??_C@_0BC@KDPNAOFO@BGR888_BLUESCREEN?$AA@ 004e22c8     bitmap:imageformat.obj
 0002:000142dc       ??_C@_0BC@GLHJGMNI@RGB888_BLUESCREEN?$AA@ 004e22dc     bitmap:imageformat.obj
 0002:000142f0       ??_C@_02GGHJHNOB@A8?$AA@   004e22f0     bitmap:imageformat.obj
 0002:000142f4       ??_C@_02HLJNLEKG@P8?$AA@   004e22f4     bitmap:imageformat.obj
 0002:000142f8       ??_C@_04HCHBAFFB@IA88?$AA@ 004e22f8     bitmap:imageformat.obj
 0002:00014300       ??_C@_02GIGKCMFJ@I8?$AA@   004e2300     bitmap:imageformat.obj
 0002:00014304       ??_C@_06KDJFLKOF@RGB565?$AA@ 004e2304     bitmap:imageformat.obj
 0002:0001430c       ??_C@_06OJPBDKDD@BGR888?$AA@ 004e230c     bitmap:imageformat.obj
 0002:00014314       ??_C@_06OOMPDBHP@RGB888?$AA@ 004e2314     bitmap:imageformat.obj
 0002:0001431c       ??_C@_08OCGEPAFE@ABGR8888?$AA@ 004e231c     bitmap:imageformat.obj
 0002:00014328       ??_C@_08OILDNPBG@RGBA8888?$AA@ 004e2328     bitmap:imageformat.obj
 0002:0001433c       __real@c77fe000            004e233c     bitmap:colorconversion.obj
 0002:00014340       __real@c0effc0000000000    004e2340     bitmap:colorconversion.obj
 0002:00014348       __real@40effc0000000000    004e2348     bitmap:colorconversion.obj
 0002:00014350       __real@3f10000000000000    004e2350     bitmap:colorconversion.obj
 0002:00014358       __real@3da7ef9e            004e2358     bitmap:colorconversion.obj
 0002:0001435c       __real@3f1c01a3            004e235c     bitmap:colorconversion.obj
 0002:00014360       __real@3e9e00d2            004e2360     bitmap:colorconversion.obj
 0002:00014368       __real@40efffe000000000    004e2368     bitmap:colorconversion.obj
 0002:00014370       __real@40b0000000000000    004e2370     bitmap:colorconversion.obj
 0002:00014378       __real@4060000000000000    004e2378     bitmap:colorconversion.obj
 0002:00014380       __real@3f70101020000000    004e2380     bitmap:colorconversion.obj
 0002:00014388       __real@3f80204080000000    004e2388     bitmap:colorconversion.obj
 0002:00014390       __real@3fbd2f1aa0000000    004e2390     bitmap:colorconversion.obj
 0002:00014398       __real@3fd322d0e0000000    004e2398     bitmap:colorconversion.obj
 0002:000143a0       __real@3fe2c8b440000000    004e23a0     bitmap:colorconversion.obj
 0002:000143a8       __real@3ef0000000000000    004e23a8     bitmap:colorconversion.obj
 0002:000143b0       __real@477fff00            004e23b0     bitmap:colorconversion.obj
 0002:000143b8       __real@3ecccccd            004e23b8     bitmap:resample.obj
 0002:000143c0       __real@4059800000000000    004e23c0     bitmap:resample.obj
 0002:00014798       ??_R4CPhysCollisionEntry@@6B@ 004e2798     ivp.obj
 0002:000147ac       ??_R3CPhysCollisionEntry@@8 004e27ac     ivp.obj
 0002:000147bc       ??_R2CPhysCollisionEntry@@8 004e27bc     ivp.obj
 0002:000147c4       ??_R1A@?0A@EA@CPhysCollisionEntry@@8 004e27c4     ivp.obj
 0002:000147e0       ??_R4CPhysCollisionEntrySolid@@6B@ 004e27e0     ivp.obj
 0002:000147f4       ??_R3CPhysCollisionEntrySolid@@8 004e27f4     ivp.obj
 0002:00014804       ??_R2CPhysCollisionEntrySolid@@8 004e2804     ivp.obj
 0002:00014810       ??_R1A@?0A@EA@CPhysCollisionEntrySolid@@8 004e2810     ivp.obj
 0002:0001482c       ??_R4CPhysCollisionEntryStaticSolid@@6B@ 004e282c     ivp.obj
 0002:00014840       ??_R3CPhysCollisionEntryStaticSolid@@8 004e2840     ivp.obj
 0002:00014850       ??_R2CPhysCollisionEntryStaticSolid@@8 004e2850     ivp.obj
 0002:0001485c       ??_R1A@?0A@EA@CPhysCollisionEntryStaticSolid@@8 004e285c     ivp.obj
 0002:00014878       ??_R4CPhysCollisionEntryStaticMesh@@6B@ 004e2878     ivp.obj
 0002:0001488c       ??_R3CPhysCollisionEntryStaticMesh@@8 004e288c     ivp.obj
 0002:0001489c       ??_R2CPhysCollisionEntryStaticMesh@@8 004e289c     ivp.obj
 0002:000148a8       ??_R1A@?0A@EA@CPhysCollisionEntryStaticMesh@@8 004e28a8     ivp.obj
 0002:000148c4       ??_R4CPhysCollisionEntryFluid@@6B@ 004e28c4     ivp.obj
 0002:000148d8       ??_R3CPhysCollisionEntryFluid@@8 004e28d8     ivp.obj
 0002:000148e8       ??_R2CPhysCollisionEntryFluid@@8 004e28e8     ivp.obj
 0002:000148f4       ??_R1A@?0A@EA@CPhysCollisionEntryFluid@@8 004e28f4     ivp.obj
 0002:00014910       ??_R4bad_alloc@std@@6B@    004e2910     mstristrip.obj
 0002:00014924       ??_R3bad_alloc@std@@8      004e2924     mstristrip.obj
 0002:00014934       ??_R2bad_alloc@std@@8      004e2934     mstristrip.obj
 0002:00014940       ??_R1A@?0A@EA@bad_alloc@std@@8 004e2940     mstristrip.obj
 0002:0001495c       ??_R1A@?0A@EA@exception@std@@8 004e295c     mstristrip.obj
 0002:00014978       ??_R3exception@std@@8      004e2978     mstristrip.obj
 0002:00014988       ??_R2exception@std@@8      004e2988     mstristrip.obj
 0002:00014990       ??_R4logic_error@std@@6B@  004e2990     mstristrip.obj
 0002:000149a4       ??_R3logic_error@std@@8    004e29a4     mstristrip.obj
 0002:000149b4       ??_R2logic_error@std@@8    004e29b4     mstristrip.obj
 0002:000149c0       ??_R1A@?0A@EA@logic_error@std@@8 004e29c0     mstristrip.obj
 0002:000149dc       ??_R4length_error@std@@6B@ 004e29dc     mstristrip.obj
 0002:000149f0       ??_R3length_error@std@@8   004e29f0     mstristrip.obj
 0002:00014a00       ??_R2length_error@std@@8   004e2a00     mstristrip.obj
 0002:00014a10       ??_R1A@?0A@EA@length_error@std@@8 004e2a10     mstristrip.obj
 0002:00014a2c       ??_R4IScratchPad3D@@6B@    004e2a2c     ScratchPad3D.obj
 0002:00014a40       ??_R3IScratchPad3D@@8      004e2a40     ScratchPad3D.obj
 0002:00014a50       ??_R2IScratchPad3D@@8      004e2a50     ScratchPad3D.obj
 0002:00014a58       ??_R1A@?0A@EA@IScratchPad3D@@8 004e2a58     ScratchPad3D.obj
 0002:00014a74       ??_R4CBaseCommand@CScratchPad3D@@6B@ 004e2a74     ScratchPad3D.obj
 0002:00014a88       ??_R3CBaseCommand@CScratchPad3D@@8 004e2a88     ScratchPad3D.obj
 0002:00014a98       ??_R2CBaseCommand@CScratchPad3D@@8 004e2a98     ScratchPad3D.obj
 0002:00014aa0       ??_R1A@?0A@EA@CBaseCommand@CScratchPad3D@@8 004e2aa0     ScratchPad3D.obj
 0002:00014abc       ??_R4CCommand_Point@CScratchPad3D@@6B@ 004e2abc     ScratchPad3D.obj
 0002:00014ad0       ??_R3CCommand_Point@CScratchPad3D@@8 004e2ad0     ScratchPad3D.obj
 0002:00014ae0       ??_R2CCommand_Point@CScratchPad3D@@8 004e2ae0     ScratchPad3D.obj
 0002:00014aec       ??_R1A@?0A@EA@CCommand_Point@CScratchPad3D@@8 004e2aec     ScratchPad3D.obj
 0002:00014b08       ??_R4CCommand_Line@CScratchPad3D@@6B@ 004e2b08     ScratchPad3D.obj
 0002:00014b1c       ??_R3CCommand_Line@CScratchPad3D@@8 004e2b1c     ScratchPad3D.obj
 0002:00014b2c       ??_R2CCommand_Line@CScratchPad3D@@8 004e2b2c     ScratchPad3D.obj
 0002:00014b38       ??_R1A@?0A@EA@CCommand_Line@CScratchPad3D@@8 004e2b38     ScratchPad3D.obj
 0002:00014b54       ??_R4CCommand_Matrix@CScratchPad3D@@6B@ 004e2b54     ScratchPad3D.obj
 0002:00014b68       ??_R3CCommand_Matrix@CScratchPad3D@@8 004e2b68     ScratchPad3D.obj
 0002:00014b78       ??_R2CCommand_Matrix@CScratchPad3D@@8 004e2b78     ScratchPad3D.obj
 0002:00014b84       ??_R1A@?0A@EA@CCommand_Matrix@CScratchPad3D@@8 004e2b84     ScratchPad3D.obj
 0002:00014ba0       ??_R4CCommand_RenderState@CScratchPad3D@@6B@ 004e2ba0     ScratchPad3D.obj
 0002:00014bb4       ??_R3CCommand_RenderState@CScratchPad3D@@8 004e2bb4     ScratchPad3D.obj
 0002:00014bc4       ??_R2CCommand_RenderState@CScratchPad3D@@8 004e2bc4     ScratchPad3D.obj
 0002:00014bd0       ??_R1A@?0A@EA@CCommand_RenderState@CScratchPad3D@@8 004e2bd0     ScratchPad3D.obj
 0002:00014bec       ??_R4CCommand_Polygon@CScratchPad3D@@6B@ 004e2bec     ScratchPad3D.obj
 0002:00014c00       ??_R3CCommand_Polygon@CScratchPad3D@@8 004e2c00     ScratchPad3D.obj
 0002:00014c10       ??_R2CCommand_Polygon@CScratchPad3D@@8 004e2c10     ScratchPad3D.obj
 0002:00014c1c       ??_R1A@?0A@EA@CCommand_Polygon@CScratchPad3D@@8 004e2c1c     ScratchPad3D.obj
 0002:00014c38       ??_R4CScratchPad3D@@6B@    004e2c38     ScratchPad3D.obj
 0002:00014c4c       ??_R3CScratchPad3D@@8      004e2c4c     ScratchPad3D.obj
 0002:00014c5c       ??_R2CScratchPad3D@@8      004e2c5c     ScratchPad3D.obj
 0002:00014c68       ??_R1A@?0A@EA@CScratchPad3D@@8 004e2c68     ScratchPad3D.obj
 0002:00014c84       ??_R4CCommand_Text@CScratchPad3D@@6B@ 004e2c84     ScratchPad3D.obj
 0002:00014c98       ??_R3CCommand_Text@CScratchPad3D@@8 004e2c98     ScratchPad3D.obj
 0002:00014ca8       ??_R2CCommand_Text@CScratchPad3D@@8 004e2ca8     ScratchPad3D.obj
 0002:00014cb4       ??_R1A@?0A@EA@CCommand_Text@CScratchPad3D@@8 004e2cb4     ScratchPad3D.obj
 0002:00014cd0       ??_R4IWriteStream@@6B@     004e2cd0     zip_utils.obj
 0002:00014ce4       ??_R3IWriteStream@@8       004e2ce4     zip_utils.obj
 0002:00014cf4       ??_R2IWriteStream@@8       004e2cf4     zip_utils.obj
 0002:00014cfc       ??_R1A@?0A@EA@IWriteStream@@8 004e2cfc     zip_utils.obj
 0002:00014d18       ??_R4CFileStream@@6B@      004e2d18     zip_utils.obj
 0002:00014d2c       ??_R3CFileStream@@8        004e2d2c     zip_utils.obj
 0002:00014d3c       ??_R2CFileStream@@8        004e2d3c     zip_utils.obj
 0002:00014d48       ??_R1A@?0A@EA@CFileStream@@8 004e2d48     zip_utils.obj
 0002:00014d64       ??_R4IZip@@6B@             004e2d64     zip_utils.obj
 0002:00014d78       ??_R3IZip@@8               004e2d78     zip_utils.obj
 0002:00014d88       ??_R2IZip@@8               004e2d88     zip_utils.obj
 0002:00014d90       ??_R1A@?0A@EA@IZip@@8      004e2d90     zip_utils.obj
 0002:00014dac       ??_R4CBufferStream@@6B@    004e2dac     zip_utils.obj
 0002:00014dc0       ??_R3CBufferStream@@8      004e2dc0     zip_utils.obj
 0002:00014dd0       ??_R2CBufferStream@@8      004e2dd0     zip_utils.obj
 0002:00014ddc       ??_R1A@?0A@EA@CBufferStream@@8 004e2ddc     zip_utils.obj
 0002:00014df8       ??_R4CZip@@6B@             004e2df8     zip_utils.obj
 0002:00014e0c       ??_R3CZip@@8               004e2e0c     zip_utils.obj
 0002:00014e1c       ??_R2CZip@@8               004e2e1c     zip_utils.obj
 0002:00014e28       ??_R1A@?0A@EA@CZip@@8      004e2e28     zip_utils.obj
 0002:00014e44       ??_R4ISpatialQuery@@6B@    004e2e44     bsplib.obj
 0002:00014e58       ??_R3ISpatialQuery@@8      004e2e58     bsplib.obj
 0002:00014e68       ??_R2ISpatialQuery@@8      004e2e68     bsplib.obj
 0002:00014e70       ??_R1A@?0A@EA@ISpatialQuery@@8 004e2e70     bsplib.obj
 0002:00014e8c       ??_R4CToolBSPTree@@6B@     004e2e8c     bsplib.obj
 0002:00014ea0       ??_R3CToolBSPTree@@8       004e2ea0     bsplib.obj
 0002:00014eb0       ??_R2CToolBSPTree@@8       004e2eb0     bsplib.obj
 0002:00014ebc       ??_R1A@?0A@EA@CToolBSPTree@@8 004e2ebc     bsplib.obj
 0002:00014ed8       ??_R4CDispUtilsHelper@@6B@ 004e2ed8     builddisp.obj
 0002:00014eec       ??_R3CDispUtilsHelper@@8   004e2eec     builddisp.obj
 0002:00014efc       ??_R2CDispUtilsHelper@@8   004e2efc     builddisp.obj
 0002:00014f04       ??_R1A@?0A@EA@CDispUtilsHelper@@8 004e2f04     builddisp.obj
 0002:00014f20       ??_R4CCoreDispInfo@@6B@    004e2f20     builddisp.obj
 0002:00014f34       ??_R3CCoreDispInfo@@8      004e2f34     builddisp.obj
 0002:00014f44       ??_R2CCoreDispInfo@@8      004e2f44     builddisp.obj
 0002:00014f50       ??_R1A@?0A@EA@CCoreDispInfo@@8 004e2f50     builddisp.obj
 0002:00014f6c       ??_R4ios_base@std@@6B@     004e2f6c     ChunkFile.obj
 0002:00014f80       ??_R3ios_base@std@@8       004e2f80     ChunkFile.obj
 0002:00014f90       ??_R2ios_base@std@@8       004e2f90     ChunkFile.obj
 0002:00014f9c       ??_R1A@?0A@EA@ios_base@std@@8 004e2f9c     ChunkFile.obj
 0002:00014fb8       ??_R13?0A@EA@?$_Iosb@H@std@@8 004e2fb8     ChunkFile.obj
 0002:00014fd4       ??_R3?$_Iosb@H@std@@8      004e2fd4     ChunkFile.obj
 0002:00014fe4       ??_R2?$_Iosb@H@std@@8      004e2fe4     ChunkFile.obj
 0002:00014fec       ??_R1A@?0A@EA@?$_Iosb@H@std@@8 004e2fec     ChunkFile.obj
 0002:00015008       ??_R4?$basic_ios@DU?$char_traits@D@std@@@std@@6B@ 004e3008     ChunkFile.obj
 0002:0001501c       ??_R3?$basic_ios@DU?$char_traits@D@std@@@std@@8 004e301c     ChunkFile.obj
 0002:0001502c       ??_R2?$basic_ios@DU?$char_traits@D@std@@@std@@8 004e302c     ChunkFile.obj
 0002:0001503c       ??_R1A@?0A@EA@?$basic_ios@DU?$char_traits@D@std@@@std@@8 004e303c     ChunkFile.obj
 0002:00015058       ??_R4?$basic_istream@DU?$char_traits@D@std@@@std@@6B@ 004e3058     ChunkFile.obj
 0002:0001506c       ??_R3?$basic_istream@DU?$char_traits@D@std@@@std@@8 004e306c     ChunkFile.obj
 0002:0001507c       ??_R2?$basic_istream@DU?$char_traits@D@std@@@std@@8 004e307c     ChunkFile.obj
 0002:00015090       ??_R1A@?0A@EA@?$basic_istream@DU?$char_traits@D@std@@@std@@8 004e3090     ChunkFile.obj
 0002:000150ac       ??_R1A@A@3FA@?$basic_ios@DU?$char_traits@D@std@@@std@@8 004e30ac     ChunkFile.obj
 0002:000150c8       ??_R1A@A@3EA@ios_base@std@@8 004e30c8     ChunkFile.obj
 0002:000150e4       ??_R13A@3EA@?$_Iosb@H@std@@8 004e30e4     ChunkFile.obj
 0002:00015100       ??_R4?$basic_streambuf@DU?$char_traits@D@std@@@std@@6B@ 004e3100     ChunkFile.obj
 0002:00015114       ??_R3?$basic_streambuf@DU?$char_traits@D@std@@@std@@8 004e3114     ChunkFile.obj
 0002:00015124       ??_R2?$basic_streambuf@DU?$char_traits@D@std@@@std@@8 004e3124     ChunkFile.obj
 0002:0001512c       ??_R1A@?0A@EA@?$basic_streambuf@DU?$char_traits@D@std@@@std@@8 004e312c     ChunkFile.obj
 0002:00015148       ??_R4?$basic_filebuf@DU?$char_traits@D@std@@@std@@6B@ 004e3148     ChunkFile.obj
 0002:0001515c       ??_R3?$basic_filebuf@DU?$char_traits@D@std@@@std@@8 004e315c     ChunkFile.obj
 0002:0001516c       ??_R2?$basic_filebuf@DU?$char_traits@D@std@@@std@@8 004e316c     ChunkFile.obj
 0002:00015178       ??_R1A@?0A@EA@?$basic_filebuf@DU?$char_traits@D@std@@@std@@8 004e3178     ChunkFile.obj
 0002:00015194       ??_R4facet@locale@std@@6B@ 004e3194     ChunkFile.obj
 0002:000151a8       ??_R3facet@locale@std@@8   004e31a8     ChunkFile.obj
 0002:000151b8       ??_R2facet@locale@std@@8   004e31b8     ChunkFile.obj
 0002:000151c0       ??_R1A@?0A@EA@facet@locale@std@@8 004e31c0     ChunkFile.obj
 0002:000151dc       ??_R4codecvt_base@std@@6B@ 004e31dc     ChunkFile.obj
 0002:000151f0       ??_R3codecvt_base@std@@8   004e31f0     ChunkFile.obj
 0002:00015200       ??_R2codecvt_base@std@@8   004e3200     ChunkFile.obj
 0002:0001520c       ??_R1A@?0A@EA@codecvt_base@std@@8 004e320c     ChunkFile.obj
 0002:00015228       ??_R4runtime_error@std@@6B@ 004e3228     ChunkFile.obj
 0002:0001523c       ??_R3runtime_error@std@@8  004e323c     ChunkFile.obj
 0002:0001524c       ??_R2runtime_error@std@@8  004e324c     ChunkFile.obj
 0002:00015258       ??_R1A@?0A@EA@runtime_error@std@@8 004e3258     ChunkFile.obj
 0002:00015274       ??_R4?$codecvt@DDH@std@@6B@ 004e3274     ChunkFile.obj
 0002:00015288       ??_R3?$codecvt@DDH@std@@8  004e3288     ChunkFile.obj
 0002:00015298       ??_R2?$codecvt@DDH@std@@8  004e3298     ChunkFile.obj
 0002:000152a8       ??_R1A@?0A@EA@?$codecvt@DDH@std@@8 004e32a8     ChunkFile.obj
 0002:000152c4       ??_R4?$basic_ifstream@DU?$char_traits@D@std@@@std@@6B@ 004e32c4     ChunkFile.obj
 0002:000152d8       ??_R3?$basic_ifstream@DU?$char_traits@D@std@@@std@@8 004e32d8     ChunkFile.obj
 0002:000152e8       ??_R2?$basic_ifstream@DU?$char_traits@D@std@@@std@@8 004e32e8     ChunkFile.obj
 0002:00015300       ??_R1A@?0A@EA@?$basic_ifstream@DU?$char_traits@D@std@@@std@@8 004e3300     ChunkFile.obj
 0002:0001531c       ??_R4CUtlCharConversion@@6B@ 004e331c     tier1:utlbuffer.obj
 0002:00015330       ??_R3CUtlCharConversion@@8 004e3330     tier1:utlbuffer.obj
 0002:00015340       ??_R2CUtlCharConversion@@8 004e3340     tier1:utlbuffer.obj
 0002:00015348       ??_R1A@?0A@EA@CUtlCharConversion@@8 004e3348     tier1:utlbuffer.obj
 0002:00015364       ??_R4CUtlNoEscConversion@@6B@ 004e3364     tier1:utlbuffer.obj
 0002:00015378       ??_R3CUtlNoEscConversion@@8 004e3378     tier1:utlbuffer.obj
 0002:00015388       ??_R2CUtlNoEscConversion@@8 004e3388     tier1:utlbuffer.obj
 0002:00015394       ??_R1A@?0A@EA@CUtlNoEscConversion@@8 004e3394     tier1:utlbuffer.obj
 0002:000153b0       ??_R4CUtlCStringConversion@@6B@ 004e33b0     tier1:utlbuffer.obj
 0002:000153c4       ??_R3CUtlCStringConversion@@8 004e33c4     tier1:utlbuffer.obj
 0002:000153d4       ??_R2CUtlCStringConversion@@8 004e33d4     tier1:utlbuffer.obj
 0002:000153e0       ??_R1A@?0A@EA@CUtlCStringConversion@@8 004e33e0     tier1:utlbuffer.obj
 0002:000153fc       ??_R4ctype_base@std@@6B@   004e33fc     tier1:tokenreader.obj
 0002:00015410       ??_R3ctype_base@std@@8     004e3410     tier1:tokenreader.obj
 0002:00015420       ??_R2ctype_base@std@@8     004e3420     tier1:tokenreader.obj
 0002:0001542c       ??_R1A@?0A@EA@ctype_base@std@@8 004e342c     tier1:tokenreader.obj
 0002:00015448       ??_R4failure@ios_base@std@@6B@ 004e3448     tier1:tokenreader.obj
 0002:0001545c       ??_R3failure@ios_base@std@@8 004e345c     tier1:tokenreader.obj
 0002:0001546c       ??_R2failure@ios_base@std@@8 004e346c     tier1:tokenreader.obj
 0002:0001547c       ??_R1A@?0A@EA@failure@ios_base@std@@8 004e347c     tier1:tokenreader.obj
 0002:00015498       ??_R4?$ctype@D@std@@6B@    004e3498     tier1:tokenreader.obj
 0002:000154ac       ??_R3?$ctype@D@std@@8      004e34ac     tier1:tokenreader.obj
 0002:000154bc       ??_R2?$ctype@D@std@@8      004e34bc     tier1:tokenreader.obj
 0002:000154cc       ??_R1A@?0A@EA@?$ctype@D@std@@8 004e34cc     tier1:tokenreader.obj
 0002:000154e8       ??_R4TokenReader@@6B@      004e34e8     tier1:tokenreader.obj
 0002:000154fc       ??_R3TokenReader@@8        004e34fc     tier1:tokenreader.obj
 0002:0001550c       ??_R2TokenReader@@8        004e350c     tier1:tokenreader.obj
 0002:00015528       ??_R1A@?0A@EA@TokenReader@@8 004e3528     tier1:tokenreader.obj
 0002:00015544       ??_R1A@?0A@EN@?$basic_ifstream@DU?$char_traits@D@std@@@std@@8 004e3544     tier1:tokenreader.obj
 0002:00015560       ??_R1A@?0A@EJ@?$basic_istream@DU?$char_traits@D@std@@@std@@8 004e3560     tier1:tokenreader.obj
 0002:0001557c       ??_R1A@A@3FJ@?$basic_ios@DU?$char_traits@D@std@@@std@@8 004e357c     tier1:tokenreader.obj
 0002:00015598       ??_R1A@A@3EJ@ios_base@std@@8 004e3598     tier1:tokenreader.obj
 0002:000155b4       ??_R13A@3EJ@?$_Iosb@H@std@@8 004e35b4     tier1:tokenreader.obj
 0002:000155d0       ??_R4CCountedStringPool@@6B@ 004e35d0     tier1:stringpool.obj
 0002:000155e4       ??_R3CCountedStringPool@@8 004e35e4     tier1:stringpool.obj
 0002:000155f4       ??_R2CCountedStringPool@@8 004e35f4     tier1:stringpool.obj
 0002:000155fc       ??_R1A@?0A@EA@CCountedStringPool@@8 004e35fc     tier1:stringpool.obj
 0002:00015618       ??_R4ConCommandBase@@6B@   004e3618     tier1:convar.obj
 0002:0001562c       ??_R3ConCommandBase@@8     004e362c     tier1:convar.obj
 0002:0001563c       ??_R2ConCommandBase@@8     004e363c     tier1:convar.obj
 0002:00015644       ??_R1A@?0A@EA@ConCommandBase@@8 004e3644     tier1:convar.obj
 0002:00015660       ??_R4ConVar@@6B@           004e3660     tier1:convar.obj
 0002:00015674       ??_R3ConVar@@8             004e3674     tier1:convar.obj
 0002:00015684       ??_R2ConVar@@8             004e3684     tier1:convar.obj
 0002:00015690       ??_R1A@?0A@EA@ConVar@@8    004e3690     tier1:convar.obj
 0002:000156ac       ??_R4ConCommand@@6B@       004e36ac     tier1:convar.obj
 0002:000156c0       ??_R3ConCommand@@8         004e36c0     tier1:convar.obj
 0002:000156d0       ??_R2ConCommand@@8         004e36d0     tier1:convar.obj
 0002:000156dc       ??_R1A@?0A@EA@ConCommand@@8 004e36dc     tier1:convar.obj
 0002:000156f8       ??_R4type_info@@6B@        004e36f8     LIBCMT:typinfo.obj
 0002:0001570c       ??_R3type_info@@8          004e370c     LIBCMT:typinfo.obj
 0002:0001571c       ??_R2type_info@@8          004e371c     LIBCMT:typinfo.obj
 0002:00015724       ??_R1A@?0A@EA@type_info@@8 004e3724     LIBCMT:typinfo.obj
 0002:00015740       ??_R4exception@std@@6B@    004e3740     LIBCMT:stdexcpt.obj
 0002:00015754       ??_R4bad_cast@std@@6B@     004e3754     LIBCMT:stdexcpt.obj
 0002:00015768       ??_R3bad_cast@std@@8       004e3768     LIBCMT:stdexcpt.obj
 0002:00015778       ??_R2bad_cast@std@@8       004e3778     LIBCMT:stdexcpt.obj
 0002:00015784       ??_R1A@?0A@EA@bad_cast@std@@8 004e3784     LIBCMT:stdexcpt.obj
 0002:000157a0       ??_R4bad_typeid@std@@6B@   004e37a0     LIBCMT:stdexcpt.obj
 0002:000157b4       ??_R3bad_typeid@std@@8     004e37b4     LIBCMT:stdexcpt.obj
 0002:000157c4       ??_R2bad_typeid@std@@8     004e37c4     LIBCMT:stdexcpt.obj
 0002:000157d0       ??_R1A@?0A@EA@bad_typeid@std@@8 004e37d0     LIBCMT:stdexcpt.obj
 0002:000157ec       ??_R4__non_rtti_object@std@@6B@ 004e37ec     LIBCMT:stdexcpt.obj
 0002:00015800       ??_R3__non_rtti_object@std@@8 004e3800     LIBCMT:stdexcpt.obj
 0002:00015810       ??_R2__non_rtti_object@std@@8 004e3810     LIBCMT:stdexcpt.obj
 0002:00015820       ??_R1A@?0A@EA@__non_rtti_object@std@@8 004e3820     LIBCMT:stdexcpt.obj
 0002:0001583c       ??_R4bad_exception@std@@6B@ 004e383c     LIBCMT:frame.obj
 0002:00015850       ??_R3bad_exception@std@@8  004e3850     LIBCMT:frame.obj
 0002:00015860       ??_R2bad_exception@std@@8  004e3860     LIBCMT:frame.obj
 0002:0001586c       ??_R1A@?0A@EA@bad_exception@std@@8 004e386c     LIBCMT:frame.obj
 0002:00015888       ??_R4DNameNode@@6B@        004e3888     LIBCMT:undname.obj
 0002:0001589c       ??_R3DNameNode@@8          004e389c     LIBCMT:undname.obj
 0002:000158ac       ??_R2DNameNode@@8          004e38ac     LIBCMT:undname.obj
 0002:000158b4       ??_R1A@?0A@EA@DNameNode@@8 004e38b4     LIBCMT:undname.obj
 0002:000158d0       ??_R4charNode@@6B@         004e38d0     LIBCMT:undname.obj
 0002:000158e4       ??_R3charNode@@8           004e38e4     LIBCMT:undname.obj
 0002:000158f4       ??_R2charNode@@8           004e38f4     LIBCMT:undname.obj
 0002:00015900       ??_R1A@?0A@EA@charNode@@8  004e3900     LIBCMT:undname.obj
 0002:0001591c       ??_R4pDNameNode@@6B@       004e391c     LIBCMT:undname.obj
 0002:00015930       ??_R3pDNameNode@@8         004e3930     LIBCMT:undname.obj
 0002:00015940       ??_R2pDNameNode@@8         004e3940     LIBCMT:undname.obj
 0002:0001594c       ??_R1A@?0A@EA@pDNameNode@@8 004e394c     LIBCMT:undname.obj
 0002:00015968       ??_R4DNameStatusNode@@6B@  004e3968     LIBCMT:undname.obj
 0002:0001597c       ??_R3DNameStatusNode@@8    004e397c     LIBCMT:undname.obj
 0002:0001598c       ??_R2DNameStatusNode@@8    004e398c     LIBCMT:undname.obj
 0002:00015998       ??_R1A@?0A@EA@DNameStatusNode@@8 004e3998     LIBCMT:undname.obj
 0002:000159b4       ??_R4pcharNode@@6B@        004e39b4     LIBCMT:undname.obj
 0002:000159c8       ??_R3pcharNode@@8          004e39c8     LIBCMT:undname.obj
 0002:000159d8       ??_R2pcharNode@@8          004e39d8     LIBCMT:undname.obj
 0002:000159e4       ??_R1A@?0A@EA@pcharNode@@8 004e39e4     LIBCMT:undname.obj
 0002:00015a00       ??_R4invalid_argument@std@@6B@ 004e3a00     libcpmt:string.obj
 0002:00015a14       ??_R3invalid_argument@std@@8 004e3a14     libcpmt:string.obj
 0002:00015a24       ??_R2invalid_argument@std@@8 004e3a24     libcpmt:string.obj
 0002:00015a34       ??_R1A@?0A@EA@invalid_argument@std@@8 004e3a34     libcpmt:string.obj
 0002:00015a50       ??_R4out_of_range@std@@6B@ 004e3a50     libcpmt:string.obj
 0002:00015a64       ??_R3out_of_range@std@@8   004e3a64     libcpmt:string.obj
 0002:00015a74       ??_R2out_of_range@std@@8   004e3a74     libcpmt:string.obj
 0002:00015a84       ??_R1A@?0A@EA@out_of_range@std@@8 004e3a84     libcpmt:string.obj
 0002:00015aa0       ??_R4_Locimp@locale@std@@6B@ 004e3aa0     libcpmt:locale0.obj
 0002:00015ab4       ??_R3_Locimp@locale@std@@8 004e3ab4     libcpmt:locale0.obj
 0002:00015ac4       ??_R2_Locimp@locale@std@@8 004e3ac4     libcpmt:locale0.obj
 0002:00015ad0       ??_R1A@?0A@EA@_Locimp@locale@std@@8 004e3ad0     libcpmt:locale0.obj
 0002:00015aec       ___rtc_iaa                 004e3aec     LIBCMT:initsect.obj
 0002:00015af0       ___rtc_izz                 004e3af0     LIBCMT:initsect.obj
 0002:00015af4       ___rtc_taa                 004e3af4     LIBCMT:initsect.obj
 0002:00015af8       ___rtc_tzz                 004e3af8     LIBCMT:initsect.obj
 0002:00015b00       __TI2?AVbad_alloc@std@@    004e3b00     mstristrip.obj
 0002:00015b10       __CTA2?AVbad_alloc@std@@   004e3b10     mstristrip.obj
 0002:00015b1c       __CT??_R0?AVbad_alloc@std@@@8??0bad_alloc@std@@QAE@ABV01@@Z12 004e3b1c     mstristrip.obj
 0002:00015b38       __CT??_R0?AVexception@std@@@8??0exception@std@@QAE@ABV01@@Z12 004e3b38     mstristrip.obj
 0002:00015c90       __TI3?AVlength_error@std@@ 004e3c90     mstristrip.obj
 0002:00015ca0       __CTA3?AVlength_error@std@@ 004e3ca0     mstristrip.obj
 0002:00015cb0       __CT??_R0?AVlength_error@std@@@8??0length_error@std@@QAE@ABV01@@Z40 004e3cb0     mstristrip.obj
 0002:00015ccc       __CT??_R0?AVlogic_error@std@@@8??0logic_error@std@@QAE@ABV01@@Z40 004e3ccc     mstristrip.obj
 0002:00015d98       __TI2?AVruntime_error@std@@ 004e3d98     ChunkFile.obj
 0002:00015da8       __CTA2?AVruntime_error@std@@ 004e3da8     ChunkFile.obj
 0002:00015db4       __CT??_R0?AVruntime_error@std@@@8??0runtime_error@std@@QAE@ABV01@@Z40 004e3db4     ChunkFile.obj
 0002:00015dd0       __TI2?AVbad_cast@std@@     004e3dd0     ChunkFile.obj
 0002:00015de0       __CTA2?AVbad_cast@std@@    004e3de0     ChunkFile.obj
 0002:00015dec       __CT??_R0?AVbad_cast@std@@@8??0bad_cast@std@@QAE@ABV01@@Z12 004e3dec     ChunkFile.obj
 0002:000161cc       __TI3?AVfailure@ios_base@std@@ 004e41cc     tier1:tokenreader.obj
 0002:00016218       __CTA3?AVfailure@ios_base@std@@ 004e4218     tier1:tokenreader.obj
 0002:00016228       __CT??_R0?AVfailure@ios_base@std@@@8??0failure@ios_base@std@@QAE@ABV012@@Z40 004e4228     tier1:tokenreader.obj
 0002:00016fc4       __TI2?AVbad_exception@std@@ 004e4fc4     LIBCMT:frame.obj
 0002:00016fd4       __CTA2?AVbad_exception@std@@ 004e4fd4     LIBCMT:frame.obj
 0002:00016fe0       __CT??_R0?AVbad_exception@std@@@8??0bad_exception@std@@QAE@ABV01@@Z12 004e4fe0     LIBCMT:frame.obj
 0002:000174b0       __TI3?AVout_of_range@std@@ 004e54b0     libcpmt:string.obj
 0002:000174ec       __CTA3?AVout_of_range@std@@ 004e54ec     libcpmt:string.obj
 0002:000174fc       __CT??_R0?AVout_of_range@std@@@8??0out_of_range@std@@QAE@ABV01@@Z40 004e54fc     libcpmt:string.obj
 0002:00017518       __TI3?AVinvalid_argument@std@@ 004e5518     libcpmt:string.obj
 0002:00017554       __CTA3?AVinvalid_argument@std@@ 004e5554     libcpmt:string.obj
 0002:00017564       __CT??_R0?AVinvalid_argument@std@@@8??0invalid_argument@std@@QAE@ABV01@@Z40 004e5564     libcpmt:string.obj
 0002:00017794       __IMPORT_DESCRIPTOR_KERNEL32 004e5794     kernel32:KERNEL32.dll
 0002:000177a8       __IMPORT_DESCRIPTOR_ADVAPI32 004e57a8     advapi32:ADVAPI32.dll
 0002:000177bc       __IMPORT_DESCRIPTOR_tier0  004e57bc     tier0:tier0.dll
 0002:000177d0       __IMPORT_DESCRIPTOR_vstdlib 004e57d0     vstdlib:vstdlib.dll
 0002:000177e4       __NULL_IMPORT_DESCRIPTOR   004e57e4     kernel32:KERNEL32.dll
 0003:000000b0       ?g_EdgeDims@@3PAHA         004e70b0     disp_common.obj
 0003:000000c0       ?g_ShiftInfos@@3PAY02VCShiftInfo@@A 004e70c0     disp_common.obj
 0003:0000012c       ?g_EdgeSideLenMul@@3PAHA   004e712c     disp_common.obj
 0003:000002a0       ?g_TWinding@@3VCTesselateWinding@@A 004e72a0     disp_powerinfo.obj
 0003:000002a8       ?g_PowerInfos@@3PAPAVCPowerInfo@@A 004e72a8     disp_powerinfo.obj
 0003:000002f4       ?g_TesselateVerts@@3PAVCTesselateVert@@A 004e72f4     disp_powerinfo.obj
 0003:00000620       ?firstmodeledge@@3HA       004e7620     faces.obj
 0003:00000624       ?g_maxLightmapDimension@@3MA 004e7624     faces.obj
 0003:0000063c       ??_R0?AVCPhysCollisionEntry@@@8 004e763c     ivp.obj
 0003:00000660       ??_R0?AVCPhysCollisionEntrySolid@@@8 004e7660     ivp.obj
 0003:00000688       ??_R0?AVCPhysCollisionEntryStaticSolid@@@8 004e7688     ivp.obj
 0003:000006b8       ??_R0?AVCPhysCollisionEntryStaticMesh@@@8 004e76b8     ivp.obj
 0003:000006e4       ??_R0?AVCPhysCollisionEntryFluid@@@8 004e76e4     ivp.obj
 0003:0000074c       ?g_ClipTexinfo@@3HA        004e774c     map.obj
 0003:00000760       ?s_MapPatchedMatToOriginalMat@@3V?$CUtlRBTree@UNameTranslationLookup_t@@HP6A_NABU1@0@Z@@A 004e7760     materialpatch.obj
 0003:0000078c       __amblksiz                 004e778c     memoverride.obj
 0003:00000790       __crtheap                  004e7790     memoverride.obj
 0003:00000794       ___active_heap             004e7794     memoverride.obj
 0003:00000798       __crtDbgFlag               004e7798     memoverride.obj
 0003:0000079c       __crtAssertBusy            004e779c     memoverride.obj
 0003:000007a4       ??_R0?AVbad_alloc@std@@@8  004e77a4     mstristrip.obj
 0003:000007c0       ??_R0?AVexception@std@@@8  004e77c0     mstristrip.obj
 0003:000007dc       ??_R0?AVlogic_error@std@@@8 004e77dc     mstristrip.obj
 0003:000007fc       ??_R0?AVlength_error@std@@@8 004e77fc     mstristrip.obj
 0003:0000084c       ??_R0?AVIScratchPad3D@@@8  004e784c     ScratchPad3D.obj
 0003:00000868       ??_R0?AVCBaseCommand@CScratchPad3D@@@8 004e7868     ScratchPad3D.obj
 0003:00000894       ??_R0?AVCCommand_Point@CScratchPad3D@@@8 004e7894     ScratchPad3D.obj
 0003:000008c0       ??_R0?AVCCommand_Line@CScratchPad3D@@@8 004e78c0     ScratchPad3D.obj
 0003:000008ec       ??_R0?AVCCommand_Matrix@CScratchPad3D@@@8 004e78ec     ScratchPad3D.obj
 0003:00000918       ??_R0?AVCCommand_RenderState@CScratchPad3D@@@8 004e7918     ScratchPad3D.obj
 0003:0000094c       ??_R0?AVCCommand_Polygon@CScratchPad3D@@@8 004e794c     ScratchPad3D.obj
 0003:0000097c       ??_R0?AVCScratchPad3D@@@8  004e797c     ScratchPad3D.obj
 0003:00000998       ??_R0?AVCCommand_Text@CScratchPad3D@@@8 004e7998     ScratchPad3D.obj
 0003:00000a08       ?baseaxis@@3PAVVector@@A   004e7a08     textures.obj
 0003:00000af0       ?microvolume@@3MA          004e7af0     vbsp.obj
 0003:00000af4       ?g_defaultLuxelSize@@3MA   004e7af4     vbsp.obj
 0003:00000af8       ?g_luxelScale@@3MA         004e7af8     vbsp.obj
 0003:00000afc       ?g_minLuxelScale@@3MA      004e7afc     vbsp.obj
 0003:00000b00       ?g_nDXLevel@@3HA           004e7b00     vbsp.obj
 0003:00000b04       ?block_xl@@3HA             004e7b04     vbsp.obj
 0003:00000b08       ?block_xh@@3HA             004e7b08     vbsp.obj
 0003:00000b0c       ?block_yl@@3HA             004e7b0c     vbsp.obj
 0003:00000b10       ?block_yh@@3HA             004e7b10     vbsp.obj
 0003:00000b2c       ?zip_utils@@3PAVIZip@@A    004e7b2c     zip_utils.obj
 0003:00000b60       ??_R0?AVIWriteStream@@@8   004e7b60     zip_utils.obj
 0003:00000b7c       ??_R0?AVCFileStream@@@8    004e7b7c     zip_utils.obj
 0003:00000b98       ??_R0?AVIZip@@@8           004e7b98     zip_utils.obj
 0003:00000bac       ??_R0?AVCBufferStream@@@8  004e7bac     zip_utils.obj
 0003:00000bc8       ??_R0?AVCZip@@@8           004e7bc8     zip_utils.obj
 0003:00000bdc       ?dvis@@3PAUdvis_t@@A       004e7bdc     bsplib.obj
 0003:00000be0       ?pdlightdata@@3PAV?$CUtlVector@EV?$CUtlMemory@E@@@@A 004e7be0     bsplib.obj
 0003:00000be4       ?pNumworldlights@@3PAHA    004e7be4     bsplib.obj
 0003:00000be8       ?dworldlights@@3PAUdworldlight_t@@A 004e7be8     bsplib.obj
 0003:00000bf4       ?texinfo@@3V?$CUtlVector@Utexinfo_s@@V?$CUtlMemory@Utexinfo_s@@@@@@A 004e7bf4     bsplib.obj
 0003:00000c08       ?g_OccluderData@@3V?$CUtlVector@Udoccluderdata_t@@V?$CUtlMemory@Udoccluderdata_t@@@@@@A 004e7c08     bsplib.obj
 0003:00000c1c       ?g_OccluderPolyData@@3V?$CUtlVector@Udoccluderpolydata_t@@V?$CUtlMemory@Udoccluderpolydata_t@@@@@@A 004e7c1c     bsplib.obj
 0003:00000c30       ?g_OccluderVertexIndices@@3V?$CUtlVector@HV?$CUtlMemory@H@@@@A 004e7c30     bsplib.obj
 0003:00000c60       ??_R0?AVISpatialQuery@@@8  004e7c60     bsplib.obj
 0003:00000c7c       ??_R0?AVCToolBSPTree@@@8   004e7c7c     bsplib.obj
 0003:00000c98       ??_R0?AVCDispUtilsHelper@@@8 004e7c98     builddisp.obj
 0003:00000cb8       ??_R0?AVCCoreDispInfo@@@8  004e7cb8     builddisp.obj
 0003:00000ce8       ??_R0?AVios_base@std@@@8   004e7ce8     ChunkFile.obj
 0003:00000d04       ??_R0?AV?$_Iosb@H@std@@@8  004e7d04     ChunkFile.obj
 0003:00000d20       ??_R0?AV?$basic_ios@DU?$char_traits@D@std@@@std@@@8 004e7d20     ChunkFile.obj
 0003:00000d58       ??_R0?AV?$basic_istream@DU?$char_traits@D@std@@@std@@@8 004e7d58     ChunkFile.obj
 0003:00000d94       ??_R0?AV?$basic_streambuf@DU?$char_traits@D@std@@@std@@@8 004e7d94     ChunkFile.obj
 0003:00000dd0       ??_R0?AV?$basic_filebuf@DU?$char_traits@D@std@@@std@@@8 004e7dd0     ChunkFile.obj
 0003:00000e0c       ??_R0?AVfacet@locale@std@@@8 004e7e0c     ChunkFile.obj
 0003:00000e2c       ??_R0?AVcodecvt_base@std@@@8 004e7e2c     ChunkFile.obj
 0003:00000e4c       ??_R0?AVruntime_error@std@@@8 004e7e4c     ChunkFile.obj
 0003:00000e6c       ??_R0?AV?$codecvt@DDH@std@@@8 004e7e6c     ChunkFile.obj
 0003:00000e8c       ??_R0?AV?$basic_ifstream@DU?$char_traits@D@std@@@std@@@8 004e7e8c     ChunkFile.obj
 0003:00000ec8       ??_R0?AVbad_cast@std@@@8   004e7ec8     ChunkFile.obj
 0003:00000ef4       ?g_CleanupFunctions@@3V?$CUtlLinkedList@P6AXXZG@@A 004e7ef4     cmdlib.obj
 0003:00000f10       ?g_ExtraSpewHooks@@3V?$CUtlLinkedList@P6AXPBD@ZG@@A 004e7f10     cmdlib.obj
 0003:00000f48       ?numthreads@@3HA           004e7f48     threads.obj
 0003:00000fb0       ??_R0?AVCUtlCharConversion@@@8 004e7fb0     tier1:utlbuffer.obj
 0003:00000fd4       ??_R0?AVCUtlNoEscConversion@@@8 004e7fd4     tier1:utlbuffer.obj
 0003:00000ff8       ??_R0?AVCUtlCStringConversion@@@8 004e7ff8     tier1:utlbuffer.obj
 0003:0000101c       ?s_bAllowStaticSymbolTable@CUtlSymbol@@1_NA 004e801c     tier1:utlsymbol.obj
 0003:00001028       ?g_KeyValuesErrorStack@@3VCKeyValuesErrorStack@@A 004e8028     tier1:KeyValues.obj
 0003:00001138       ??_R0?AUctype_base@std@@@8 004e8138     tier1:tokenreader.obj
 0003:00001158       ??_R0?AVfailure@ios_base@std@@@8 004e8158     tier1:tokenreader.obj
 0003:0000117c       ??_R0?AV?$ctype@D@std@@@8  004e817c     tier1:tokenreader.obj
 0003:00001198       ??_R0?AVTokenReader@@@8    004e8198     tier1:tokenreader.obj
 0003:000011b4       ??_R0?AVCCountedStringPool@@@8 004e81b4     tier1:stringpool.obj
 0003:000015d8       ??_R0?AVConCommandBase@@@8 004e85d8     tier1:convar.obj
 0003:000015fc       ??_R0?AVConVar@@@8         004e85fc     tier1:convar.obj
 0003:00001618       ??_R0?AVConCommand@@@8     004e8618     tier1:convar.obj
 0003:00001634       _pfSqrt                    004e8634     mathlib:mathlib_base.obj
 0003:00001638       ?pfRSqrt@@3P6AMM@ZA        004e8638     mathlib:mathlib_base.obj
 0003:0000163c       ?pfRSqrtFast@@3P6AMM@ZA    004e863c     mathlib:mathlib_base.obj
 0003:00001640       ?pfVectorNormalize@@3P6IMAAVVector@@@ZA 004e8640     mathlib:mathlib_base.obj
 0003:00001644       ?pfVectorNormalizeFast@@3P6IXAAVVector@@@ZA 004e8644     mathlib:mathlib_base.obj
 0003:00001648       ?pfInvRSquared@@3P6AMPBM@ZA 004e8648     mathlib:mathlib_base.obj
 0003:0000164c       ?pfFastSinCos@@3P6AXMPAM0@ZA 004e864c     mathlib:mathlib_base.obj
 0003:00001650       ?pfFastCos@@3P6AMM@ZA      004e8650     mathlib:mathlib_base.obj
 0003:0000165c       ?vec3_invalid@@3VVector@@B 004e865c     mathlib:mathlib_base.obj
 0003:00001670       ?__LINE__Var@?1??ConnectTier2Libraries@@YAXPAP6APAXPBDPAH@ZH@Z@4JA 004e8670     tier2:tier2.obj
 0003:00001674       ?__LINE__Var@?1???0Vector2D@@QAE@MM@Z@4JA 004e8674     tier2:tier2.obj
 0003:00001678       ?g_leftFaceVerts@@3PAHA    004e8678     vtf:vtf.obj
 0003:00001688       ?g_frontFaceVerts@@3PAHA   004e8688     vtf:vtf.obj
 0003:00001698       ?g_downFaceVerts@@3PAHA    004e8698     vtf:vtf.obj
 0003:000016a8       ?g_rightFaceVerts@@3PAHA   004e86a8     vtf:vtf.obj
 0003:000016b8       ?g_backFaceVerts@@3PAHA    004e86b8     vtf:vtf.obj
 0003:000016c8       ?g_upFaceVerts@@3PAHA      004e86c8     vtf:vtf.obj
 0003:000016d8       ?g_FaceVerts@@3PAPAHA      004e86d8     vtf:vtf.obj
 0003:000016f0       ?g_skybox_rightFaceVerts@@3PAHA 004e86f0     vtf:vtf.obj
 0003:00001700       ?g_skybox_leftFaceVerts@@3PAHA 004e8700     vtf:vtf.obj
 0003:00001710       ?g_skybox_backFaceVerts@@3PAHA 004e8710     vtf:vtf.obj
 0003:00001720       ?g_skybox_frontFaceVerts@@3PAHA 004e8720     vtf:vtf.obj
 0003:00001730       ?g_skybox_upFaceVerts@@3PAHA 004e8730     vtf:vtf.obj
 0003:00001740       ?g_skybox_downFaceVerts@@3PAHA 004e8740     vtf:vtf.obj
 0003:00001750       ?g_skybox_FaceVerts@@3PAPAHA 004e8750     vtf:vtf.obj
 0003:00001778       ?S3TC_BLOCK_WIDTH@@3HA     004e8778     vtf:S3_intrf.obj
 0003:00001af0       __fltused                  004e8af0     LIBCMT:fpinit.obj
 0003:00001af4       __ldused                   004e8af4     LIBCMT:fpinit.obj
 0003:00001b24       ??_R0?AVtype_info@@@8      004e8b24     LIBCMT:typinfo.obj
 0003:00001b44       ??_R0?AVbad_typeid@std@@@8 004e8b44     LIBCMT:stdexcpt.obj
 0003:00001b64       ??_R0?AV__non_rtti_object@std@@@8 004e8b64     LIBCMT:stdexcpt.obj
 0003:00001b90       __OP_FMODjmptab            004e8b90     LIBCMT:87fmod.obj
 0003:00001be8       __aexit_rtn                004e8be8     LIBCMT:crt0dat.obj
 0003:00001c10       __iob                      004e8c10     LIBCMT:_file.obj
 0003:00002000       ___app_type                004e9000     LIBCMT:crt0.obj
 0003:00002010       ___security_cookie         004e9010     LIBCMT:gs_cookie.obj
 0003:00002014       ___security_cookie_complement 004e9014     LIBCMT:gs_cookie.obj
 0003:00002040       __half                     004e9040     LIBCMT:pow.obj
 0003:00002050       __cfltcvt_tab              004e9050     LIBCMT:cmiscdat.obj
 0003:00002080       __indefinite               004e9080     LIBCMT:87disp.obj
 0003:0000208a       __piby2                    004e908a     LIBCMT:87disp.obj
 0003:000020b0       ___nullstring              004e90b0     LIBCMT:output.obj
 0003:000020b4       ___wnullstring             004e90b4     LIBCMT:output.obj
 0003:000020b8       ___badioinfo               004e90b8     LIBCMT:ioinit.obj
 0003:000020f0       ___flsindex                004e90f0     LIBCMT:tidtable.obj
 0003:000020f4       ___getvalueindex           004e90f4     LIBCMT:tidtable.obj
 0003:00002100       ___initialmbcinfo          004e9100     LIBCMT:mbctype.obj
 0003:00002320       __mbctype                  004e9320     LIBCMT:mbctype.obj
 0003:00002428       __mbcasemap                004e9428     LIBCMT:mbctype.obj
 0003:00002528       ___ptmbcinfo               004e9528     LIBCMT:mbctype.obj
 0003:00002624       ___globallocalestatus      004e9624     LIBCMT:glstatus.obj
 0003:00002628       ___clocalestr              004e9628     LIBCMT:nlsdata2.obj
 0003:00002630       ___initiallocinfo          004e9630     LIBCMT:nlsdata2.obj
 0003:00002708       ___ptlocinfo               004e9708     LIBCMT:nlsdata2.obj
 0003:0000270c       ___lc_clike                004e970c     LIBCMT:nlsdata2.obj
 0003:00002710       ___initiallocalestructinfo 004e9710     LIBCMT:nlsdata2.obj
 0003:00002720       ___abort_behavior          004e9720     LIBCMT:abort.obj
 0003:000027e8       ??_R0?AVbad_exception@std@@@8 004e97e8     LIBCMT:frame.obj
 0003:00002810       __OP_ATAN2jmptab           004e9810     LIBCMT:87triga.obj
 0003:00002ae0       __XcptActTab               004e9ae0     LIBCMT:winxfltr.obj
 0003:00002b58       __First_FPE_Indx           004e9b58     LIBCMT:winxfltr.obj
 0003:00002b5c       __Num_FPE                  004e9b5c     LIBCMT:winxfltr.obj
 0003:00002b60       __XcptActTabSize           004e9b60     LIBCMT:winxfltr.obj
 0003:00002b64       __XcptActTabCount          004e9b64     LIBCMT:winxfltr.obj
 0003:00002b70       __lookuptrailbytes         004e9b70     LIBCMT:read.obj
 0003:00002c78       __sys_errlist              004e9c78     LIBCMT:syserr.obj
 0003:00002d28       __sys_nerr                 004e9d28     LIBCMT:syserr.obj
 0003:00002d40       __HUGE                     004e9d40     LIBCMT:huge.obj
 0003:00002d50       __infinity                 004e9d50     LIBCMT:87tran.obj
 0003:00002d5a       __minfinity                004e9d5a     LIBCMT:87tran.obj
 0003:00002d64       __logemax                  004e9d64     LIBCMT:87tran.obj
 0003:00002d8a       __OP_EXPjmptab             004e9d8a     LIBCMT:87tran.obj
 0003:00002db0       ?_RTC_ErrorLevels@@3PAHA   004e9db0     LIBCMT:error.obj
 0003:00002de0       __NLG_Destination          004e9de0     LIBCMT:exsup.obj
 0003:00002df0       __pctype                   004e9df0     LIBCMT:ctype.obj
 0003:00002df4       __pwctype                  004e9df4     LIBCMT:ctype.obj
 0003:00002df8       ___lc_time_c               004e9df8     LIBCMT:strftime.obj
 0003:00002eb0       ___lc_time_curr            004e9eb0     LIBCMT:strftime.obj
 0003:00002eb4       ___lconv_static_decimal    004e9eb4     LIBCMT:lconv.obj
 0003:00002eb8       ___lconv_c                 004e9eb8     LIBCMT:lconv.obj
 0003:00002ee8       ___lconv                   004e9ee8     LIBCMT:lconv.obj
 0003:00002eec       ___mb_cur_max              004e9eec     LIBCMT:nlsdata1.obj
 0003:00002ef0       ___decimal_point           004e9ef0     LIBCMT:nlsdata1.obj
 0003:00002ef4       ___decimal_point_length    004e9ef4     LIBCMT:nlsdata1.obj
 0003:00002f30       __pow10pos                 004e9f30     LIBCMT:constpow.obj
 0003:00003090       __pow10neg                 004ea090     LIBCMT:constpow.obj
 0003:000031ec       ??_R0?AVDNameNode@@@8      004ea1ec     LIBCMT:undname.obj
 0003:00003204       ??_R0?AVcharNode@@@8       004ea204     LIBCMT:undname.obj
 0003:0000321c       ??_R0?AVpDNameNode@@@8     004ea21c     LIBCMT:undname.obj
 0003:00003238       ??_R0?AVDNameStatusNode@@@8 004ea238     LIBCMT:undname.obj
 0003:00003258       ??_R0?AVpcharNode@@@8      004ea258     LIBCMT:undname.obj
 0003:00003274       __matherr_flag             004ea274     LIBCMT:matherr.obj
 0003:00003360       __d_inf                    004ea360     LIBCMT:util.obj
 0003:00003368       __d_ind                    004ea368     LIBCMT:util.obj
 0003:00003370       __d_max                    004ea370     LIBCMT:util.obj
 0003:00003378       __d_min                    004ea378     LIBCMT:util.obj
 0003:00003380       __d_mzero                  004ea380     LIBCMT:util.obj
 0003:000033c0       __timezone                 004ea3c0     LIBCMT:timeset.obj
 0003:000033c4       __daylight                 004ea3c4     LIBCMT:timeset.obj
 0003:000033c8       __dstbias                  004ea3c8     LIBCMT:timeset.obj
 0003:00003450       __tzname                   004ea450     LIBCMT:timeset.obj
 0003:00003458       __lpdays                   004ea458     LIBCMT:days.obj
 0003:0000348c       __days                     004ea48c     LIBCMT:days.obj
 0003:000034c0       __p_overlay                004ea4c0     LIBCMT:dospawn.obj
 0003:000034c8       __coninpfh                 004ea4c8     LIBCMT:initcon.obj
 0003:000034cc       __confh                    004ea4cc     LIBCMT:initcon.obj
 0003:000034d4       ??_R0?AVinvalid_argument@std@@@8 004ea4d4     libcpmt:string.obj
 0003:000034f8       ??_R0?AVout_of_range@std@@@8 004ea4f8     libcpmt:string.obj
 0003:00003520       ?_Sync@ios_base@std@@0_NA  004ea520     libcpmt:ios.obj
 0003:00003528       ??_R0?AV_Locimp@locale@std@@@8 004ea528     libcpmt:locale0.obj
 0003:00003598       ?_PJP_CPP_Copyright@@3PADA 004ea598     libcpmt:iosptrs.obj
 0003:00003980       ?c_nonvis@@3HA             004ea980     brushbsp.obj
 0003:00003984       ?c_nodes@@3HA              004ea984     brushbsp.obj
 0003:00003988       ?c_active_brushes@@3HA     004ea988     brushbsp.obj
 0003:000039a4       ?minplanenums@@3PAHA       004ea9a4     csg.obj
 0003:000039b0       ?maxplanenums@@3PAHA       004ea9b0     csg.obj
 0003:000243f8       ?s_Sentinel@?1??Links@?$CUtlRBTree@UCubemapInfo_t@@GP6A_NABU1@0@Z@@IBEABULinks_t@2@G@Z@4U32@A 0050b3f8     cubemap.obj
 0003:00024400       ??_B?1??Links@?$CUtlRBTree@UCubemapInfo_t@@GP6A_NABU1@0@Z@@IBEABULinks_t@1@G@Z@51 0050b400     cubemap.obj
 0003:00024468       ?s_Sentinel@?1??Links@?$CUtlRBTree@UStaticPropLookup_t@@GP6A_NABU1@0@Z@@IBEABULinks_t@2@G@Z@4U32@A 0050b468     detailObjects.obj
 0003:00024470       ??_B?1??Links@?$CUtlRBTree@UStaticPropLookup_t@@GP6A_NABU1@0@Z@@IBEABULinks_t@1@G@Z@51 0050b470     detailObjects.obj
 0003:00024480       ?dummy@?1??GetNodeInfo@CVBSPTesselateHelper@@QAEAAUDispNodeInfo_t@@H@Z@4U3@A 0050b480     disp_ivp.obj
 0003:0002e590       ?nummapdispinfo@@3HA       00515590     disp_vbsp.obj
 0003:0002e59c       ?g_CoreDispInfos@@3V?$CUtlVector@PAVCCoreDispInfo@@V?$CUtlMemory@PAVCCoreDispInfo@@@@@@A 0051559c     disp_vbsp.obj
 0003:0002e5b0       ?mapdispinfo@@3PAUmapdispinfo_t@@A 005155b0     disp_vbsp.obj
 0003:014c65b0       ?hashverts@@3PAHA          019ad5b0     faces.obj
 0003:015065b0       ?c_tryedges@@3HA           019ed5b0     faces.obj
 0003:015065b4       ?num_edge_verts@@3HA       019ed5b4     faces.obj
 0003:015065b8       ?c_uniqueverts@@3HA        019ed5b8     faces.obj
 0003:015065bc       ?c_faces@@3HA              019ed5bc     faces.obj
 0003:015065c0       ?c_facecollapse@@3HA       019ed5c0     faces.obj
 0003:015065c4       ?c_tjunctions@@3HA         019ed5c4     faces.obj
 0003:015065c8       ?edgefaces@@3PAY01PAUface_t@@A 019ed5c8     faces.obj
 0003:016fa5c8       ?edge_verts@@3PAHA         01be15c8     faces.obj
 0003:0173a5c8       ?c_nodefaces@@3HA          01c215c8     faces.obj
 0003:0173a5cc       ?c_faceoverflows@@3HA      01c215cc     faces.obj
 0003:0173a5d0       ?numsuperverts@@3HA        01c215d0     faces.obj
 0003:0173a5d4       ?edge_len@@3MA             01c215d4     faces.obj
 0003:0173a5d8       ?firstmodelface@@3HA       01c215d8     faces.obj
 0003:0173a5dc       ?c_subdivide@@3HA          01c215dc     faces.obj
 0003:0173a5e0       ?superverts@@3PAHA         01c215e0     faces.obj
 0003:0173ade0       ?vertexchain@@3PAHA        01c21de0     faces.obj
 0003:0177ade0       ?c_badstartverts@@3HA      01c61de0     faces.obj
 0003:0177ade4       ?c_degenerate@@3HA         01c61de4     faces.obj
 0003:0177ade8       ?c_merge@@3HA              01c61de8     faces.obj
 0003:0177adec       ?c_totalverts@@3HA         01c61dec     faces.obj
 0003:0177adf8       ?edge_dir@@3VVector@@A     01c61df8     faces.obj
 0003:0177ae04       ?edge_start@@3VVector@@A   01c61e04     faces.obj
 0003:0177ae10       ?g_VertEdgeList@@3PAV?$CUtlVector@HV?$CUtlMemory@H@@@@A 01c61e10     faces.obj
 0003:018bae14       ?c_glfaces@@3HA            01da1e14     glfile.obj
 0003:018bae20       ?physcollision@@3PAVIPhysicsCollision@@A 01da1e20     ivp.obj
 0003:018bae68       ?s_Sentinel@?1??Links@?$CUtlRBTree@UWaterTexInfo@@HP6A_NABU1@0@Z@@IBEABULinks_t@2@H@Z@4U32@A 01da1e68     ivp.obj
 0003:018bae78       ??_B?1??Links@?$CUtlRBTree@UWaterTexInfo@@HP6A_NABU1@0@Z@@IBEABULinks_t@1@H@Z@51 01da1e78     ivp.obj
 0003:018bae90       ?nummapbrushsides@@3HA     01da1e90     map.obj
 0003:018bae94       ?nummapbrushes@@3HA        01da1e94     map.obj
 0003:018bae98       ?planehash@@3PAPAUplane_t@@A 01da1e98     map.obj
 0003:018bbe98       ?c_edgebevels@@3HA         01da2e98     map.obj
 0003:018bbe9c       ?c_areaportals@@3HA        01da2e9c     map.obj
 0003:018bbea0       ?nummapplanes@@3HA         01da2ea0     map.obj
 0003:018bbea4       ?c_boxbevels@@3HA          01da2ea4     map.obj
 0003:018bbea8       ?c_clipbrushes@@3HA        01da2ea8     map.obj
 0003:018bbeb4       ?map_mins@@3VVector@@A     01da2eb4     map.obj
 0003:018bbec0       ?map_maxs@@3VVector@@A     01da2ec0     map.obj
 0003:018bbecc       ?g_NoDynamicShadowSides@@3V?$CUtlVector@HV?$CUtlMemory@H@@@@A 01da2ecc     map.obj
 0003:018bbee0       ?brushsides@@3PAUside_t@@A 01da2ee0     map.obj
 0003:01efbee0       ?side_brushtextures@@3PAUbrush_texture_t@@A 023e2ee0     map.obj
 0003:02a3bee0       ?mapbrushes@@3PAUmapbrush_t@@A 02f22ee0     map.obj
 0003:02a9bee0       ?mapplanes@@3PAUplane_t@@A 02f82ee0     map.obj
 0003:02c1bee0       ?id@?$codecvt@DDH@std@@2V0locale@2@A 03102ee0     map.obj
 0003:02c1bee4       ?s_Sentinel@?1??Links@?$CUtlRBTree@UNameTranslationLookup_t@@HP6A_NABU1@0@Z@@IBEABULinks_t@2@H@Z@4U32@A 03102ee4     materialpatch.obj
 0003:02c1bef4       ??_B?1??Links@?$CUtlRBTree@UNameTranslationLookup_t@@HP6A_NABU1@0@Z@@IBEABULinks_t@1@H@Z@51 03102ef4     materialpatch.obj
 0003:02c1bf38       ?g_ReplaceMaterials@@3_NA  03102f38     materialsub.obj
 0003:02c1bf50       __crtBreakAlloc            03102f50     memoverride.obj
 0003:02c1bf54       ?_pfnDumpClient@@3P6AXPAXI@ZA 03102f54     memoverride.obj
 0003:02c1bf58       ___crtDebugCheckCount      03102f58     memoverride.obj
 0003:02c1bf5c       ___crtDebugFillThreshold   03102f5c     memoverride.obj
 0003:02c1c380       ?draw_maxs@@3VVector@@A    03103380     nodraw.obj
 0003:02c1c38c       ?draw_mins@@3VVector@@A    0310338c     nodraw.obj
 0003:02c1c3a8       ?g_aMapOverlays@@3V?$CUtlVector@Umapoverlay_t@@V?$CUtlMemory@Umapoverlay_t@@@@@@A 031033a8     overlay.obj
 0003:02c1c3bc       ?g_aMapWaterOverlays@@3V?$CUtlVector@Umapoverlay_t@@V?$CUtlMemory@Umapoverlay_t@@@@@@A 031033bc     overlay.obj
 0003:02c1c3dc       ?c_outside@@3HA            031033dc     portals.obj
 0003:02c1c3e0       ?c_boundary@@3HA           031033e0     portals.obj
 0003:02c1c3e4       ?c_peak_portals@@3HA       031033e4     portals.obj
 0003:02c1c3e8       ?c_solid@@3HA              031033e8     portals.obj
 0003:02c1c3ec       ?c_boundary_sides@@3HA     031033ec     portals.obj
 0003:02c1c3f0       ?c_tinyportals@@3HA        031033f0     portals.obj
 0003:02c1c3f4       ?c_inside@@3HA             031033f4     portals.obj
 0003:02c1c3f8       ?c_areas@@3HA              031033f8     portals.obj
 0003:02c1c3fc       ?c_active_portals@@3HA     031033fc     portals.obj
 0003:02c1c410       ?num_visclusters@@3HA      03103410     prtfile.obj
 0003:02c1c414       ?pf@@3PAU_iobuf@@A         03103414     prtfile.obj
 0003:02c1c418       ?num_visportals@@3HA       03103418     prtfile.obj
 0003:02c1c41c       ?clusterleaf@@3HA          0310341c     prtfile.obj
 0003:02c1c43c       ?s_pPhysCollision@@3PAVIPhysicsCollision@@A 0310343c     StaticProp.obj
 0003:02c1c498       ?s_Sentinel@?1??Links@?$CUtlRBTree@UModelCollisionLookup_t@@GP6A_NABU1@0@Z@@IBEABULinks_t@2@G@Z@4U32@A 03103498     StaticProp.obj
 0003:02c1c4a0       ??_B?1??Links@?$CUtlRBTree@UModelCollisionLookup_t@@GP6A_NABU1@0@Z@@IBEABULinks_t@1@G@Z@51 031034a0     StaticProp.obj
 0003:02c1c4a8       ?nummiptex@@3HA            031034a8     textures.obj
 0003:02c1c4b0       ?g_SurfaceProperties@@3PAHA 031034b0     textures.obj
 0003:02c1e4b0       ?textureref@@3PAUtextureref_t@@A 031054b0     textures.obj
 0003:02c414b0       ?physprops@@3PAVIPhysicsSurfaceProps@@A 031284b0     textures.obj
 0003:02c414b4       ?g_bHasWater@@3_NA         031284b4     textures.obj
 0003:02c414c0       ?c_pruned@@3HA             031284c0     tree.obj
 0003:02c414d8       ?nocsg@@3HA                031284d8     vbsp.obj
 0003:02c414dc       ?nosubdiv@@3HA             031284dc     vbsp.obj
 0003:02c414e0       ?outbase@@3PADA            031284e0     vbsp.obj
 0003:02c41500       ?mapbase@@3PADA            03128500     vbsp.obj
 0003:02c41540       ?fulldetail@@3HA           03128540     vbsp.obj
 0003:02c41544       ?onlyprops@@3_NA           03128544     vbsp.obj
 0003:02c41548       ?nowater@@3HA              03128548     vbsp.obj
 0003:02c4154c       ?brush_end@@3HA            0312854c     vbsp.obj
 0003:02c41550       ?block_nodes@@3PAY0CC@PAUnode_t@@A 03128550     vbsp.obj
 0003:02c42760       ?verboseentities@@3HA      03129760     vbsp.obj
 0003:02c42764       ?onlyents@@3HA             03129764     vbsp.obj
 0003:02c42768       ?noshare@@3HA              03129768     vbsp.obj
 0003:02c4276c       ?nodetail@@3HA             0312976c     vbsp.obj
 0003:02c42770       ?notjunc@@3HA              03129770     vbsp.obj
 0003:02c42774       ?noprune@@3HA              03129774     vbsp.obj
 0003:02c42778       ?noweld@@3HA               03129778     vbsp.obj
 0003:02c4277c       ?nomerge@@3HA              0312977c     vbsp.obj
 0003:02c42780       ?glview@@3HA               03129780     vbsp.obj
 0003:02c42784       ?brush_start@@3HA          03129784     vbsp.obj
 0003:02c42788       ?name@@3PADA               03129788     vbsp.obj
 0003:02c42b88       ?entity_num@@3HA           03129b88     vbsp.obj
 0003:02c42b8c       ?noopt@@3HA                03129b8c     vbsp.obj
 0003:02c42b90       ?source@@3PADA             03129b90     vbsp.obj
 0003:02c42f90       ?leaktest@@3HA             03129f90     vbsp.obj
 0003:02c42f98       ?materialPath@@3PADA       03129f98     vbsp.obj
 0003:02c43398       ?nomergewater@@3HA         0312a398     vbsp.obj
 0003:02c4339c       ?dumpcollide@@3HA          0312a39c     vbsp.obj
 0003:02c433a0       ?g_bLowPriority@@3HA       0312a3a0     vbsp.obj
 0003:02c433a4       ?g_DumpStaticProps@@3HA    0312a3a4     vbsp.obj
 0003:02c433a8       ?g_bLightIfMissing@@3_NA   0312a3a8     vbsp.obj
 0003:02c433a9       ?g_snapAxialPlanes@@3_NA   0312a3a9     vbsp.obj
 0003:02c433aa       ?g_bKeepStaleZip@@3_NA     0312a3aa     vbsp.obj
 0003:02c433ab       ?g_NodrawTriggers@@3_NA    0312a3ab     vbsp.obj
 0003:02c433ac       ?g_DisableWaterLighting@@3_NA 0312a3ac     vbsp.obj
 0003:02c433ad       ?g_bAllowDetailCracks@@3_NA 0312a3ad     vbsp.obj
 0003:02c433ae       ?g_bNoVirtualMesh@@3_NA    0312a3ae     vbsp.obj
 0003:02c433af       ?g_BumpAll@@3_NA           0312a3af     vbsp.obj
 0003:02c433d8       ?firstmodleaf@@3HA         0312a3d8     writebsp.obj
 0003:02c433dc       ?c_nofaces@@3HA            0312a3dc     writebsp.obj
 0003:02c433e0       ?pOrigFaceSideList@@3PAPAUside_t@@A 0312a3e0     writebsp.obj
 0003:02c833e0       ?c_facenodes@@3HA          0316a3e0     writebsp.obj
 0003:02c833e8       ?dfacenodes@@3PAPAUnode_t@@A 0316a3e8     writebsp.obj
 0003:02cc33f4       ?s_Sentinel@?1??Links@?$CUtlRBTree@UNode_t@?$CUtlMap@PBDHH@@HVCKeyLess@2@@@IBEABULinks_t@2@H@Z@4U32@A 031aa3f4     writebsp.obj
 0003:02cc3404       ??_B?1??Links@?$CUtlRBTree@UNode_t@?$CUtlMap@PBDHH@@HVCKeyLess@2@@@IBEABULinks_t@1@H@Z@51 031aa404     writebsp.obj
 0003:02cc3408       ?s_Sentinel@?1??Links@?$CUtlRBTree@VCZipEntry@CZipFile@@HP6A_NABV12@0@Z@@IBEABULinks_t@2@H@Z@4U32@A 031aa408     zip_utils.obj
 0003:02cc3418       ??_B?1??Links@?$CUtlRBTree@VCZipEntry@CZipFile@@HP6A_NABV12@0@Z@@IBEABULinks_t@1@H@Z@51 031aa418     zip_utils.obj
 0003:02cc3420       ?numnodes@@3HA             031aa420     bsplib.obj
 0003:02cc3424       ?g_nClipPortalVerts@@3HA   031aa424     bsplib.obj
 0003:02cc3428       ?dportals@@3PAUdportal_t@@A 031aa428     bsplib.obj
 0003:02dc3428       ?numareaportals@@3HA       032aa428     bsplib.obj
 0003:02dc342c       ?numworldlightsLDR@@3HA    032aa42c     bsplib.obj
 0003:02dc3430       ?outheader@@3Udheader_t@@A 032aa430     bsplib.obj
 0003:02dc383c       ?visdatasize@@3HA          032aa83c     bsplib.obj
 0003:02dc3840       ?dleafs@@3PAUdleaf_t@@A    032aa840     bsplib.obj
 0003:02fc3840       ?g_LeafMinDistToWater@@3PAGA 034aa840     bsplib.obj
 0003:02fe3840       ?g_CubemapSamples@@3PAUdcubemapsample_t@@A 034ca840     bsplib.obj
 0003:02fe7840       ?dedges@@3PAUdedge_t@@A    034ce840     bsplib.obj
 0003:030e1840       ?g_Lumps@@3U<unnamed-tag>@@A 035c8840     bsplib.obj
 0003:030e1b40       ?dorigfaces@@3PAUdface_t@@A 035c8b40     bsplib.obj
 0003:03461b40       ?header@@3PAUdheader_t@@A  03948b40     bsplib.obj
 0003:03461b44       ?nummodels@@3HA            03948b44     bsplib.obj
 0003:03461b48       ?dareaportals@@3PAUdareaportal_t@@A 03948b48     bsplib.obj
 0003:03464b48       ?g_primitives@@3PAUdprimitive_t@@A 0394bb48     bsplib.obj
 0003:034b4b48       ?dleaffaces@@3PAGA         0399bb48     bsplib.obj
 0003:034d4b48       ?dbrushsides@@3PAUdbrushside_t@@A 039bbb48     bsplib.obj
 0003:03554b48       ?numsurfedges@@3HA         03a3bb48     bsplib.obj
 0003:03554b4c       ?numclusterportals@@3HA    03a3bb4c     bsplib.obj
 0003:03554b50       ?dleafwaterdata@@3PAUdleafwaterdata_t@@A 03a3bb50     bsplib.obj
 0003:035b4b50       ?dclusterportals@@3PAGA    03a9bb50     bsplib.obj
 0003:035f4b50       ?dfaces_hdr@@3PAUdface_t@@A 03adbb50     bsplib.obj
 0003:03974b50       ?numleafbrushes@@3HA       03e5bb50     bsplib.obj
 0003:03974b54       ?g_nOverlayCount@@3HA      03e5bb54     bsplib.obj
 0003:03974b58       ?dportalverts@@3PAGA       03e5bb58     bsplib.obj
 0003:039b3358       ?numplanes@@3HA            03e9a358     bsplib.obj
 0003:039b335c       ?g_numvertnormals@@3HA     03e9a35c     bsplib.obj
 0003:039b3360       ?numleafs@@3HA             03e9a360     bsplib.obj
 0003:039b3364       ?wadfile@@3PAXA            03e9a364     bsplib.obj
 0003:039b3368       ?dsurfedges@@3PAHA         03e9a368     bsplib.obj
 0003:03ba7368       ?g_numvertnormalindices@@3HA 0408e368     bsplib.obj
 0003:03ba736c       ?numleaffaces@@3HA         0408e36c     bsplib.obj
 0003:03ba7370       ?dvisdata@@3PAEA           0408e370     bsplib.obj
 0003:04ba7370       ?numareas@@3HA             0508e370     bsplib.obj
 0003:04ba7374       ?numvertexes@@3HA          0508e374     bsplib.obj
 0003:04ba7378       ?dfaces@@3PAUdface_t@@A    0508e378     bsplib.obj
 0003:04f27378       ?numorigfaces@@3HA         0540e378     bsplib.obj
 0003:04f2737c       ?numedges@@3HA             0540e37c     bsplib.obj
 0003:04f27380       ?dclusters@@3PAUdcluster_t@@A 0540e380     bsplib.obj
 0003:04fa7380       ?numbrushes@@3HA           0548e380     bsplib.obj
 0003:04fa7384       ?num_entities@@3HA         0548e384     bsplib.obj
 0003:04fa7388       ?dleafbrushes@@3PAGA       0548e388     bsplib.obj
 0003:04fc7388       ?numfaces@@3HA             054ae388     bsplib.obj
 0003:04fc738c       ?g_nWaterOverlayCount@@3HA 054ae38c     bsplib.obj
 0003:04fc7390       ?dareas@@3PAUdarea_t@@A    054ae390     bsplib.obj
 0003:04fc7b90       ?dnodes@@3PAUdnode_t@@A    054aeb90     bsplib.obj
 0003:051c7b90       ?numbrushsides@@3HA        056aeb90     bsplib.obj
 0003:051c7b94       ?numworldlightsHDR@@3HA    056aeb94     bsplib.obj
 0003:051c7b98       ?dbrushes@@3PAUdbrush_t@@A 056aeb98     bsplib.obj
 0003:051dfb98       ?numfaces_hdr@@3HA         056c6b98     bsplib.obj
 0003:051dfb9c       ?numtexdata@@3HA           056c6b9c     bsplib.obj
 0003:051dfba0       ?g_primindices@@3PAGA      056c6ba0     bsplib.obj
 0003:051ffba0       ?g_vertnormalindices@@3PAGA 056e6ba0     bsplib.obj
 0003:0527cba0       ?g_bHDR@@3_NA              05763ba0     bsplib.obj
 0003:0527cba4       ?g_LevelFlags@@3IA         05763ba4     bsplib.obj
 0003:0527cba8       ?g_pLeafAmbientLighting@@3PAV?$CUtlVector@UCompressedLightCube@@V?$CUtlMemory@UCompressedLightCube@@@@@@A 05763ba8     bsplib.obj
 0003:0527cbac       ?g_numprimitives@@3HA      05763bac     bsplib.obj
 0003:0527cbb0       ?g_numprimverts@@3HA       05763bb0     bsplib.obj
 0003:0527cbb4       ?g_numprimindices@@3HA     05763bb4     bsplib.obj
 0003:0527cbb8       ?numportals@@3HA           05763bb8     bsplib.obj
 0003:0527cbbc       ?numclusters@@3HA          05763bbc     bsplib.obj
 0003:0527cbc0       ?numleafwaterdata@@3HA     05763bc0     bsplib.obj
 0003:0527cbc4       ?numportalverts@@3HA       05763bc4     bsplib.obj
 0003:0527cbc8       ?g_nCubemapSamples@@3HA    05763bc8     bsplib.obj
 0003:0527cbcc       ?g_pPhysCollide@@3PAEA     05763bcc     bsplib.obj
 0003:0527cbd0       ?g_PhysCollideSize@@3HA    05763bd0     bsplib.obj
 0003:0527cbd4       ?g_MapRevision@@3HA        05763bd4     bsplib.obj
 0003:0527cbe0       ?g_vertnormals@@3PAVVector@@A 05763be0     bsplib.obj
 0003:0556abe0       ?dworldlightsHDR@@3PAUdworldlight_t@@A 05a51be0     bsplib.obj
 0003:0561abe0       ?g_LeafAmbientLightingHDR@@3V?$CUtlVector@UCompressedLightCube@@V?$CUtlMemory@UCompressedLightCube@@@@@@A 05b01be0     bsplib.obj
 0003:0561abf4       ?g_DispLightmapSamplePositions@@3V?$CUtlVector@EV?$CUtlMemory@E@@@@A 05b01bf4     bsplib.obj
 0003:0561ac08       ?dtexdata@@3PAUdtexdata_t@@A 05b01c08     bsplib.obj
 0003:0562ac08       ?g_Overlays@@3PAUdoverlay_t@@A 05b11c08     bsplib.obj
 0003:05656c08       ?dlightdataLDR@@3V?$CUtlVector@EV?$CUtlMemory@E@@@@A 05b3dc08     bsplib.obj
 0003:05656c1c       ?g_LeafAmbientLightingLDR@@3V?$CUtlVector@UCompressedLightCube@@V?$CUtlMemory@UCompressedLightCube@@@@@@A 05b3dc1c     bsplib.obj
 0003:05656c30       ?g_ClusterLeaves@@3V?$CUtlVector@Uclusterlist_t@@V?$CUtlMemory@Uclusterlist_t@@@@@@A 05b3dc30     bsplib.obj
 0003:05656c44       ?g_dispinfo@@3V?$CUtlVector@Vddispinfo_t@@V?$CUtlMemory@Vddispinfo_t@@@@@@A 05b3dc44     bsplib.obj
 0003:05656c58       ?entities@@3PAUentity_t@@A 05b3dc58     bsplib.obj
 0003:05682c58       ?g_TexDataStringData@@3V?$CUtlVector@DV?$CUtlMemory@D@@@@A 05b69c58     bsplib.obj
 0003:05682c6c       ?dentdata@@3V?$CUtlVector@DV?$CUtlMemory@D@@@@A 05b69c6c     bsplib.obj
 0003:05682c80       ?g_TexDataStringTable@@3V?$CUtlVector@HV?$CUtlMemory@H@@@@A 05b69c80     bsplib.obj
 0003:05682c94       ?g_dLightmapPageInfos@@3V?$CUtlVector@Udlightmappageinfo_t@@V?$CUtlMemory@Udlightmappageinfo_t@@@@@@A 05b69c94     bsplib.obj
 0003:05682ca8       ?g_ClipPortalVerts@@3PAVVector@@A 05b69ca8     bsplib.obj
 0003:057f9ca8       ?g_primverts@@3PAUdprimvert_t@@A 05ce0ca8     bsplib.obj
 0003:058b9ca8       ?g_dLightmapPages@@3V?$CUtlVector@Udlightmappage_t@@V?$CUtlMemory@Udlightmappage_t@@@@@@A 05da0ca8     bsplib.obj
 0003:058b9cbc       ?g_DispVerts@@3V?$CUtlVector@VCDispVert@@V?$CUtlMemory@VCDispVert@@@@@@A 05da0cbc     bsplib.obj
 0003:058b9cd0       ?dplanes@@3PAUdplane_t@@A  05da0cd0     bsplib.obj
 0003:059f9cd0       ?g_FaceMacroTextureInfos@@3V?$CUtlVector@VCFaceMacroTextureInfo@@V?$CUtlMemory@VCFaceMacroTextureInfo@@@@@@A 05ee0cd0     bsplib.obj
 0003:059f9ce4       ?g_DispTris@@3V?$CUtlVector@VCDispTri@@V?$CUtlMemory@VCDispTri@@@@@@A 05ee0ce4     bsplib.obj
 0003:059f9cf8       ?dworldlightsLDR@@3PAUdworldlight_t@@A 05ee0cf8     bsplib.obj
 0003:05aa9cf8       ?g_WaterOverlays@@3PAUdwateroverlay_t@@A 05f90cf8     bsplib.obj
 0003:06c29cf8       ?dmodels@@3PAUdmodel_t@@A  07110cf8     bsplib.obj
 0003:06c35cf8       ?dlightdataHDR@@3V?$CUtlVector@EV?$CUtlMemory@E@@@@A 0711ccf8     bsplib.obj
 0003:06c35d10       ?dvertexes@@3PAUdvertex_t@@A 0711cd10     bsplib.obj
 0003:06cf6120       ?_Stinit@?1??_Init@?$basic_filebuf@DU?$char_traits@D@std@@@std@@IAEXPAU_iobuf@@W4_Initfl@23@@Z@4HA 071dd120     ChunkFile.obj
 0003:06cf6124       ?_Psave@?$_Facetptr@V?$codecvt@DDH@std@@@std@@2PBVfacet@locale@2@B 071dd124     ChunkFile.obj
 0003:06cf6130       ?ex_argv@@3PAPADA          071dd130     cmdlib.obj
 0003:06cf7130       ?g_SpewCS@@3U_RTL_CRITICAL_SECTION@@A 071de130     cmdlib.obj
 0003:06cf7148       ?com_token@@3PADA          071de148     cmdlib.obj
 0003:06cf7548       ?archivedir@@3PADA         071de548     cmdlib.obj
 0003:06cf7948       ?myargc@@3HA               071de948     cmdlib.obj
 0003:06cf794c       ?ex_argc@@3HA              071de94c     cmdlib.obj
 0003:06cf8378       ?myargv@@3PAPADA           071df378     cmdlib.obj
 0003:06cf837c       ?archive@@3HA              071df37c     cmdlib.obj
 0003:06cf8380       ?g_pLogFile@@3PAXA         071df380     cmdlib.obj
 0003:06cf8384       ?g_bStopOnExit@@3_NA       071df384     cmdlib.obj
 0003:06cf8385       ?g_bSpewCSInitted@@3_NA    071df385     cmdlib.obj
 0003:06cf8386       ?g_bSuppressPrintfOutput@@3_NA 071df386     cmdlib.obj
 0003:06cf8388       ?g_ExtraSpewHook@@3P6AXPBD@ZA 071df388     cmdlib.obj
 0003:06cf838c       ?verbose@@3HA              071df38c     cmdlib.obj
 0003:06cf8394       ?g_ExitStopper@@3VCExitStopper@@A 071df394     cmdlib.obj
 0003:06cf8eb8       ?qdir@@3PADA               071dfeb8     filesystem_tools.obj
 0003:06cf92b8       ?gamedir@@3PADA            071e02b8     filesystem_tools.obj
 0003:06cf96b8       ?g_pFileSystem@@3PAVIBaseFileSystem@@A 071e06b8     filesystem_tools.obj
 0003:06cf96bc       ?g_pFullFileSystemModule@@3PAVCSysModule@@A 071e06bc     filesystem_tools.obj
 0003:06cf96c0       ?g_MapError@@3VCMapError@@A 071e06c0     map_shared.obj
 0003:06cf9718       ?g_nMapFileVersion@@3HA    071e0718     map_shared.obj
 0003:06cf9728       ?c_active_windings@@3HA    071e0728     polylib.obj
 0003:06cf972c       ?c_removed@@3HA            071e072c     polylib.obj
 0003:06cf9730       ?c_peak_windings@@3HA      071e0730     polylib.obj
 0003:06cf9734       ?c_winding_allocs@@3HA     071e0734     polylib.obj
 0003:06cf9738       ?winding_pool@@3PAPAUwinding_t@@A 071e0738     polylib.obj
 0003:06cf9848       ?c_winding_points@@3HA     071e0848     polylib.obj
 0003:06cf9858       ?macrolist@@3PAPAUscript_t@@A 071e0858     scriplib.obj
 0003:06cf9958       ?script@@3PAUscript_t@@A   071e0958     scriplib.obj
 0003:06cf995c       ?nummacros@@3HA            071e095c     scriplib.obj
 0003:06cf9960       ?scriptstack@@3PAUscript_t@@A 071e0960     scriplib.obj
 0003:06d0faa0       _token                     071f6aa0     scriplib.obj
 0003:06d0fea0       _scriptline                071f6ea0     scriplib.obj
 0003:06d0fea4       _endofscript               071f6ea4     scriplib.obj
 0003:06d0fea8       ?tokenready@@3HA           071f6ea8     scriplib.obj
 0003:06d0feb0       ?pacifier@@3HA             071f6eb0     threads.obj
 0003:06d0feb4       ?crit@@3U_RTL_CRITICAL_SECTION@@A 071f6eb4     threads.obj
 0003:06d0fecc       ?workcount@@3HA            071f6ecc     threads.obj
 0003:06d0fed0       ?g_RunThreadsData@@3PAVCRunThreadsData@@A 071f6ed0     threads.obj
 0003:06d0ff90       ?workfunction@@3P6AXHH@ZA  071f6f90     threads.obj
 0003:06d0ff94       ?dispatch@@3HA             071f6f94     threads.obj
 0003:06d0ff98       ?g_ThreadHandles@@3PAPAXA  071f6f98     threads.obj
 0003:06d0ffd8       ?threaded@@3HA             071f6fd8     threads.obj
 0003:06d0ffe0       ?g_bLowPriorityThreads@@3_NA 071f6fe0     threads.obj
 0003:06d0ffe1       ?g_CritInit@@3VCCritInit@@A 071f6fe1     threads.obj
 0003:06d10200       ?s_StringCharConversion@@3VCUtlCStringConversion@@A 071f7200     tier1:utlbuffer.obj
 0003:06d10c10       ?s_NoEscConversion@@3VCUtlNoEscConversion@@A 071f7c10     tier1:utlbuffer.obj
 0003:06d11520       ?s_pSymbolTable@CUtlSymbol@@1PAVCUtlSymbolTableMT@@A 071f8520     tier1:utlsymbol.obj
 0003:06d11528       ?s_Sentinel@?1??Links@?$CUtlRBTree@VCStringPoolIndex@CUtlSymbolTable@@GVCLess@2@@@IBEABULinks_t@2@G@Z@4U32@A 071f8528     tier1:utlsymbol.obj
 0003:06d11530       ??_B?1??Links@?$CUtlRBTree@VCStringPoolIndex@CUtlSymbolTable@@GVCLess@2@@@IBEABULinks_t@1@G@Z@51 071f8530     tier1:utlsymbol.obj
 0003:06d12338       ?s_pInterfaceRegs@InterfaceReg@@2PAV1@A 071f9338     tier1:interface.obj
 0003:06d12448       ?_Psave@?$_Facetptr@V?$ctype@D@std@@@std@@2PBVfacet@locale@2@B 071f9448     tier1:tokenreader.obj
 0003:06d1244c       ?s_Sentinel@?1??Links@?$CUtlRBTree@PBDGP6A_NABQBD0@Z@@IBEABULinks_t@2@G@Z@4U32@A 071f944c     tier1:stringpool.obj
 0003:06d12454       ??_B?1??Links@?$CUtlRBTree@PBDGP6A_NABQBD0@Z@@IBEABULinks_t@1@G@Z@51 071f9454     tier1:stringpool.obj
 0003:06d1247c       ?g_CountedStringPool@@3VCCountedStringPool@@A 071f947c     tier1:stringpool.obj
 0003:06d124ac       ?s_pConCommandBases@ConCommandBase@@1PAV1@A 071f94ac     tier1:convar.obj
 0003:06d124b0       ?s_pAccessor@ConCommandBase@@1PAVIConCommandBaseAccessor@@A 071f94b0     tier1:convar.obj
 0003:06d128b8       ?lineartolightmap@@3PAEA   071f98b8     mathlib:mathlib_base.obj
 0003:06d13cb8       ?SinCosTable@@3PAMA        071facb8     mathlib:mathlib_base.obj
 0003:06d160b8       ?power2_n@@3PAMA           071fd0b8     mathlib:mathlib_base.obj
 0003:06d168b8       ?lineartovertex@@3PAMA     071fd8b8     mathlib:mathlib_base.obj
 0003:06d1a9c8       ?vec3_origin@@3VVector@@B  072019c8     mathlib:mathlib_base.obj
 0003:06d1a9d4       ?vec3_angle@@3VQAngle@@B   072019d4     mathlib:mathlib_base.obj
 0003:06d1a9e4       ?g_pFullFileSystem@@3PAVIFileSystem@@A 072019e4     tier2:tier2.obj
 0003:06d1a9e8       ?materials@@3PAVIMaterialSystem@@A 072019e8     tier2:tier2.obj
 0003:06d1a9ec       ?g_pMaterialSystem@@3PAVIMaterialSystem@@A 072019ec     tier2:tier2.obj
 0003:06d1a9f0       ?g_pInputSystem@@3PAVIInputSystem@@A 072019f0     tier2:tier2.obj
 0003:06d1a9f4       ?g_pNetworkSystem@@3PAVINetworkSystem@@A 072019f4     tier2:tier2.obj
 0003:06d1a9f8       ?g_pMaterialSystemHardwareConfig@@3PAVIMaterialSystemHardwareConfig@@A 072019f8     tier2:tier2.obj
 0003:06d1a9fc       ?g_pMaterialSystemDebugTextureInfo@@3PAVIDebugTextureInfo@@A 072019fc     tier2:tier2.obj
 0003:06d1aa00       ?colorcorrection@@3PAVIColorCorrectionSystem@@A 07201a00     tier2:tier2.obj
 0003:06d1aa04       ?g_pColorCorrectionSystem@@3PAVIColorCorrectionSystem@@A 07201a04     tier2:tier2.obj
 0003:06d1aa2c       ?bS3TCForce4@@3_NA         07201a2c     vtf:S3_intrf.obj
 0003:06d23c94       ___fastflag                0720ac94     LIBCMT:fpinit.obj
 0003:06d23c98       __adjust_fdiv              0720ac98     LIBCMT:fpinit.obj
 0003:06d23ca0       ___pInvalidArgHandler      0720aca0     LIBCMT:invarg.obj
 0003:06d23ca4       __umaskval                 0720aca4     LIBCMT:crt0dat.obj
 0003:06d23ca8       __osplatform               0720aca8     LIBCMT:crt0dat.obj
 0003:06d23cac       __osver                    0720acac     LIBCMT:crt0dat.obj
 0003:06d23cb0       __winver                   0720acb0     LIBCMT:crt0dat.obj
 0003:06d23cb4       __winmajor                 0720acb4     LIBCMT:crt0dat.obj
 0003:06d23cb8       __winminor                 0720acb8     LIBCMT:crt0dat.obj
 0003:06d23cbc       ___argc                    0720acbc     LIBCMT:crt0dat.obj
 0003:06d23cc0       ___argv                    0720acc0     LIBCMT:crt0dat.obj
 0003:06d23cc4       ___wargv                   0720acc4     LIBCMT:crt0dat.obj
 0003:06d23cc8       __environ                  0720acc8     LIBCMT:crt0dat.obj
 0003:06d23ccc       ___initenv                 0720accc     LIBCMT:crt0dat.obj
 0003:06d23cd0       __wenviron                 0720acd0     LIBCMT:crt0dat.obj
 0003:06d23cd4       ___winitenv                0720acd4     LIBCMT:crt0dat.obj
 0003:06d23cd8       __pgmptr                   0720acd8     LIBCMT:crt0dat.obj
 0003:06d23cdc       __wpgmptr                  0720acdc     LIBCMT:crt0dat.obj
 0003:06d23ce0       __exitflag                 0720ace0     LIBCMT:crt0dat.obj
 0003:06d23ce4       __C_Termination_Done       0720ace4     LIBCMT:crt0dat.obj
 0003:06d23ce8       __C_Exit_Done              0720ace8     LIBCMT:crt0dat.obj
 0003:06d23cec       __cflush                   0720acec     LIBCMT:_file.obj
 0003:06d23cf0       ?_pnhHeap@@3P6AHI@ZA       0720acf0     LIBCMT:handler.obj
 0003:06d23cf4       __aenvptr                  0720acf4     LIBCMT:crt0.obj
 0003:06d23cf8       __wenvptr                  0720acf8     LIBCMT:crt0.obj
 0003:06d23cfc       ___error_mode              0720acfc     LIBCMT:crt0.obj
 0003:06d23d04       __stdbuf                   0720ad04     LIBCMT:_sftbuf.obj
 0003:06d23d0c       _gpFlsAlloc                0720ad0c     LIBCMT:tidtable.obj
 0003:06d23d10       _gpFlsGetValue             0720ad10     LIBCMT:tidtable.obj
 0003:06d23d14       _gpFlsSetValue             0720ad14     LIBCMT:tidtable.obj
 0003:06d23d18       _gpFlsFree                 0720ad18     LIBCMT:tidtable.obj
 0003:06d23d20       ___mbulinfo                0720ad20     LIBCMT:mbctype.obj
 0003:06d23d2c       ___mbcodepage              0720ad2c     LIBCMT:mbctype.obj
 0003:06d23d30       ___ismbcodepage            0720ad30     LIBCMT:mbctype.obj
 0003:06d23d34       ___mblcid                  0720ad34     LIBCMT:mbctype.obj
 0003:06d23d38       ___locale_changed          0720ad38     LIBCMT:setlocal.obj
 0003:06d23d3c       ___lc_handle               0720ad3c     LIBCMT:nlsdata2.obj
 0003:06d23d54       ___lc_codepage             0720ad54     LIBCMT:nlsdata2.obj
 0003:06d23d58       ___lc_collate_cp           0720ad58     LIBCMT:nlsdata2.obj
 0003:06d24084       ___pPurecall               0720b084     LIBCMT:inithelp.obj
 0003:06d2408c       ?__pInconsistency@@3P6AXXZA 0720b08c     LIBCMT:hooks.obj
 0003:06d24204       __newmode                  0720b204     LIBCMT:_newmode.obj
 0003:06d2463c       ?wsprintffp@@3P6AHPADPBDZZA 0720b63c     LIBCMT:error.obj
 0003:06d24648       __outputformat             0720b648     LIBCMT:outputformat.obj
 0003:06d2464c       __commode                  0720b64c     LIBCMT:ncommode.obj
 0003:06d24654       ___lconv_static_null       0720b654     LIBCMT:lconv.obj
 0003:06d2466c       ?pArgList@UnDecorator@@0PAVReplicator@@A 0720b66c     LIBCMT:undname.obj
 0003:06d24670       ?pZNameList@UnDecorator@@0PAVReplicator@@A 0720b670     LIBCMT:undname.obj
 0003:06d24674       ?pTemplateArgList@UnDecorator@@0PAVReplicator@@A 0720b674     LIBCMT:undname.obj
 0003:06d24678       ?gName@UnDecorator@@0PBDB  0720b678     LIBCMT:undname.obj
 0003:06d2467c       ?name@UnDecorator@@0PBDB   0720b67c     LIBCMT:undname.obj
 0003:06d24680       ?outputString@UnDecorator@@0PADA 0720b680     LIBCMT:undname.obj
 0003:06d24684       ?maxStringLength@UnDecorator@@0HA 0720b684     LIBCMT:undname.obj
 0003:06d24688       ?disableFlags@UnDecorator@@0KA 0720b688     LIBCMT:undname.obj
 0003:06d2468c       ?m_pGetParameter@UnDecorator@@0P6APADJ@ZA 0720b68c     LIBCMT:undname.obj
 0003:06d24690       ?fExplicitTemplateParams@UnDecorator@@0_NA 0720b690     LIBCMT:undname.obj
 0003:06d24691       ?fGetTemplateArgumentList@UnDecorator@@0_NA 0720b691     LIBCMT:undname.obj
 0003:06d24784       __fmode                    0720b784     LIBCMT:txtmode.obj
 0003:06d247f0       ?_Fpz@std@@3_JA            0720b7f0     libcpmt:ios.obj
 0003:06d247f8       ?_Index@ios_base@std@@0HA  0720b7f8     libcpmt:ios.obj
 0003:06d24838       ?_Clocptr@_Locimp@locale@std@@0PAV123@A 0720b838     libcpmt:locale0.obj
 0003:06d2483c       ?_Id_cnt@id@locale@std@@0HA 0720b83c     libcpmt:locale0.obj
 0003:06d24840       ?id@?$ctype@D@std@@2V0locale@2@A 0720b840     libcpmt:locale0.obj
 0003:06d24844       ?id@?$codecvt@GDH@std@@2V0locale@2@A 0720b844     libcpmt:locale0.obj
 0003:06d24848       ?id@?$ctype@_W@std@@2V0locale@2@A 0720b848     libcpmt:locale0.obj
 0003:06d2484c       ?id@?$codecvt@_WDH@std@@2V0locale@2@A 0720b84c     libcpmt:locale0.obj
 0003:06d24854       ?id@?$ctype@G@std@@2V0locale@2@A 0720b854     libcpmt:locale0.obj
 0003:06d2485c       ?_Ptr_cin@std@@3PAV?$basic_istream@DU?$char_traits@D@std@@@1@A 0720b85c     libcpmt:iosptrs.obj
 0003:06d24860       ?_Ptr_cout@std@@3PAV?$basic_ostream@DU?$char_traits@D@std@@@1@A 0720b860     libcpmt:iosptrs.obj
 0003:06d24864       ?_Ptr_cerr@std@@3PAV?$basic_ostream@DU?$char_traits@D@std@@@1@A 0720b864     libcpmt:iosptrs.obj
 0003:06d24868       ?_Ptr_clog@std@@3PAV?$basic_ostream@DU?$char_traits@D@std@@@1@A 0720b868     libcpmt:iosptrs.obj
 0003:06d2486c       ?_Ptr_wcin@std@@3PAV?$basic_istream@_WU?$char_traits@_W@std@@@1@A 0720b86c     libcpmt:iosptrs.obj
 0003:06d24870       ?_Ptr_wcout@std@@3PAV?$basic_ostream@_WU?$char_traits@_W@std@@@1@A 0720b870     libcpmt:iosptrs.obj
 0003:06d24874       ?_Ptr_wcerr@std@@3PAV?$basic_ostream@_WU?$char_traits@_W@std@@@1@A 0720b874     libcpmt:iosptrs.obj
 0003:06d24878       ?_Ptr_wclog@std@@3PAV?$basic_ostream@_WU?$char_traits@_W@std@@@1@A 0720b878     libcpmt:iosptrs.obj
 0003:06d24f94       __debugger_hook_dummy      0720bf94     <common>
 0003:06d24f98       __pmatherr                 0720bf98     <common>
 0003:06d24f9c       ___setlc_active            0720bf9c     <common>
 0003:06d24fa0       ___unguarded_readlc_active 0720bfa0     <common>
 0003:06d24fa4       __nhandle                  0720bfa4     <common>
 0003:06d24fc0       ___pioinfo                 0720bfc0     <common>
 0003:06d250c0       ___use_sse2_mathfcns       0720c0c0     <common>
 0003:06d250c4       ___sse2_available          0720c0c4     <common>
 0003:06d250c8       __acmdln                   0720c0c8     <common>
 0003:06d250cc       ___piob                    0720c0cc     <common>
 0003:06d250e0       __bufin                    0720c0e0     <common>
 0003:06d260e0       __nstream                  0720d0e0     <common>
 0003:06d260e4       ___env_initialized         0720d0e4     <common>
 0003:06d260e8       ___onexitend               0720d0e8     <common>
 0003:06d260ec       ___onexitbegin             0720d0ec     <common>
 0003:06d260f0       ___mbctype_initialized     0720d0f0     <common>
 0003:06d260f4       ___dyn_tls_init_callback   0720d0f4     <common>

 entry point at        0001:00091294

 Static symbols

 0001:fffff000       __unwindfunclet$??0runtime_error@std@@QAE@ABV01@@Z$0 00400000 f   tier1:tokenreader.obj
 0001:fffff000       __unwindfunclet$??1?$basic_filebuf@DU?$char_traits@D@std@@@std@@UAE@XZ$0 00400000 f   tier1:tokenreader.obj
 0001:fffff000       __ehhandler$?_Copy@?$basic_string@DU?$char_traits@D@std@@V?$allocator@D@2@@std@@IAEXII@Z 00400000 f   libcpmt:locale0.obj
 0001:fffff000       __unwindfunclet$?uflow@?$basic_filebuf@DU?$char_traits@D@std@@@std@@MAEHXZ$0 00400000 f   tier1:tokenreader.obj
 0001:fffff000       __unwindfunclet$??0?$codecvt@DDH@std@@QAE@I@Z$0 00400000 f   tier1:tokenreader.obj
 0001:fffff000       __unwindfunclet$??1?$basic_ifstream@DU?$char_traits@D@std@@@std@@UAE@XZ$0 00400000 f   tier1:tokenreader.obj
 0001:fffff000       __unwindfunclet$?_Getcat@?$codecvt@DDH@std@@SAIPAPBVfacet@locale@2@@Z$0 00400000 f   tier1:tokenreader.obj
 0001:fffff000       __unwindfunclet$??$use_facet@V?$codecvt@DDH@std@@@std@@YAABV?$codecvt@DDH@0@ABVlocale@0@@Z$0 00400000 f   tier1:tokenreader.obj
 0001:fffff000       __unwindfunclet$?_Endwrite@?$basic_filebuf@DU?$char_traits@D@std@@@std@@IAE_NXZ$0 00400000 f   tier1:tokenreader.obj
 0001:fffff000       __unwindfunclet$??0_Locinfo@std@@QAE@PBD@Z$0 00400000 f   tier1:tokenreader.obj
 0001:fffff000       __unwindfunclet$??1?$CUtlVector@GV?$CUtlMemory@G@@@@QAE@XZ$0 00400000 f   tier1:stringpool.obj
 0001:fffff000       __ehhandler$?_Copy@?$basic_string@DU?$char_traits@D@std@@V?$allocator@D@2@@std@@IAEXII@Z 00400000 f   tier1:tokenreader.obj
 0001:fffff000       __ehhandler$?_Copy@?$basic_string@DU?$char_traits@D@std@@V?$allocator@D@2@@std@@IAEXII@Z 00400000 f   libcpmt:string.obj
 0001:fffff000       __ehhandler$?_Copy@?$basic_string@DU?$char_traits@D@std@@V?$allocator@D@2@@std@@IAEXII@Z 00400000 f   ChunkFile.obj
 0001:fffff000       __unwindfunclet$?overflow@?$basic_filebuf@DU?$char_traits@D@std@@@std@@MAEHH@Z$0 00400000 f   tier1:tokenreader.obj
 0001:fffff000       __unwindfunclet$??0runtime_error@std@@QAE@ABV?$basic_string@DU?$char_traits@D@std@@V?$allocator@D@2@@1@@Z$0 00400000 f   tier1:tokenreader.obj
 0001:fffff000       __unwindfunclet$??0logic_error@std@@QAE@ABV01@@Z$0 00400000 f   libcpmt:string.obj
 0001:fffff000       __unwindfunclet$??0logic_error@std@@QAE@ABV?$basic_string@DU?$char_traits@D@std@@V?$allocator@D@2@@1@@Z$0 00400000 f   libcpmt:string.obj
 0001:fffff000       __unwindfunclet$??1_Locinfo@std@@QAE@XZ$0 00400000 f   tier1:tokenreader.obj
 0001:fffff008       __ehhandler$??0runtime_error@std@@QAE@ABV?$basic_string@DU?$char_traits@D@std@@V?$allocator@D@2@@1@@Z 00400008 f   tier1:tokenreader.obj
 0001:fffff008       __ehhandler$??0logic_error@std@@QAE@ABV01@@Z 00400008 f   libcpmt:string.obj
 0001:fffff008       __ehhandler$?overflow@?$basic_filebuf@DU?$char_traits@D@std@@@std@@MAEHH@Z 00400008 f   tier1:tokenreader.obj
 0001:fffff008       __unwindfunclet$??0_Locinfo@std@@QAE@PBD@Z$1 00400008 f   tier1:tokenreader.obj
 0001:fffff008       __ehhandler$?_Endwrite@?$basic_filebuf@DU?$char_traits@D@std@@@std@@IAE_NXZ 00400008 f   tier1:tokenreader.obj
 0001:fffff008       __ehhandler$??1?$CUtlVector@GV?$CUtlMemory@G@@@@QAE@XZ 00400008 f   tier1:stringpool.obj
 0001:fffff008       __ehhandler$??$use_facet@V?$codecvt@DDH@std@@@std@@YAABV?$codecvt@DDH@0@ABVlocale@0@@Z 00400008 f   tier1:tokenreader.obj
 0001:fffff008       __ehhandler$?uflow@?$basic_filebuf@DU?$char_traits@D@std@@@std@@MAEHXZ 00400008 f   tier1:tokenreader.obj
 0001:fffff008       __ehhandler$??1?$basic_filebuf@DU?$char_traits@D@std@@@std@@UAE@XZ 00400008 f   tier1:tokenreader.obj
 0001:fffff008       __ehhandler$??0logic_error@std@@QAE@ABV?$basic_string@DU?$char_traits@D@std@@V?$allocator@D@2@@1@@Z 00400008 f   libcpmt:string.obj
 0001:fffff008       __ehhandler$??0runtime_error@std@@QAE@ABV01@@Z 00400008 f   tier1:tokenreader.obj
 0001:fffff008       __unwindfunclet$??1_Locinfo@std@@QAE@XZ$1 00400008 f   tier1:tokenreader.obj
 0001:fffff00b       __ehhandler$??0?$codecvt@DDH@std@@QAE@I@Z 0040000b f   tier1:tokenreader.obj
 0001:fffff00b       __ehhandler$??1?$basic_ifstream@DU?$char_traits@D@std@@@std@@UAE@XZ 0040000b f   tier1:tokenreader.obj
 0001:fffff00b       __ehhandler$?_Getcat@?$codecvt@DDH@std@@SAIPAPBVfacet@locale@2@@Z 0040000b f   tier1:tokenreader.obj
 0001:fffff013       __unwindfunclet$??0_Locinfo@std@@QAE@PBD@Z$2 00400013 f   tier1:tokenreader.obj
 0001:fffff013       __unwindfunclet$??1_Locinfo@std@@QAE@XZ$2 00400013 f   tier1:tokenreader.obj
 0001:fffff01e       __unwindfunclet$??1_Locinfo@std@@QAE@XZ$3 0040001e f   tier1:tokenreader.obj
 0001:fffff01e       __unwindfunclet$??0_Locinfo@std@@QAE@PBD@Z$3 0040001e f   tier1:tokenreader.obj
 0001:fffff029       __unwindfunclet$??1_Locinfo@std@@QAE@XZ$4 00400029 f   tier1:tokenreader.obj
 0001:fffff029       __unwindfunclet$??0_Locinfo@std@@QAE@PBD@Z$4 00400029 f   tier1:tokenreader.obj
 0001:fffff034       __unwindfunclet$??0_Locinfo@std@@QAE@PBD@Z$5 00400034 f   tier1:tokenreader.obj
 0001:fffff034       __ehhandler$??1_Locinfo@std@@QAE@XZ 00400034 f   tier1:tokenreader.obj
 0001:fffff03c       __ehhandler$??0_Locinfo@std@@QAE@PBD@Z 0040003c f   tier1:tokenreader.obj
 0001:fffff05b       __catch$?_Copy@?$basic_string@DU?$char_traits@D@std@@V?$allocator@D@2@@std@@IAEXII@Z$0 0040005b f   libcpmt:string.obj
 0001:fffff05b       __catch$?_Copy@?$basic_string@DU?$char_traits@D@std@@V?$allocator@D@2@@std@@IAEXII@Z$0 0040005b f   libcpmt:locale0.obj
 0001:fffff07d       __catch$?_Copy@?$basic_string@DU?$char_traits@D@std@@V?$allocator@D@2@@std@@IAEXII@Z$0 0040007d f   tier1:tokenreader.obj
 0001:fffff0cd       __catch$?_Copy@?$basic_string@DU?$char_traits@D@std@@V?$allocator@D@2@@std@@IAEXII@Z$1 004000cd f   libcpmt:locale0.obj
 0001:fffff0cd       __catch$?_Copy@?$basic_string@DU?$char_traits@D@std@@V?$allocator@D@2@@std@@IAEXII@Z$1 004000cd f   libcpmt:string.obj
 0001:fffff110       __catch$?_Copy@?$basic_string@DU?$char_traits@D@std@@V?$allocator@D@2@@std@@IAEXII@Z$1 00400110 f   tier1:tokenreader.obj
 0001:fffff127       __catch$?_Copy@?$basic_string@DU?$char_traits@D@std@@V?$allocator@D@2@@std@@IAEXII@Z$0 00400127 f   ChunkFile.obj
 0001:fffff148       __catch$?_Copy@?$basic_string@DU?$char_traits@D@std@@V?$allocator@D@2@@std@@IAEXII@Z$1 00400148 f   ChunkFile.obj
 0001:00003350       ?Collision_ClearTrace@@YAXABVVector@@0PAVCBaseTrace@@@Z 00404350 f   CollisionUtils.obj
 0001:000033a0       ?ComputeBoxOffset@@YAMABURay_t@@@Z 004043a0 f   CollisionUtils.obj
 0001:000056e0       ?ComputeCenterMatrix@@YAXABVVector@@ABVQAngle@@00AAUmatrix3x4_t@@@Z 004066e0 f   CollisionUtils.obj
 0001:00005770       ?ComputeCenterIMatrix@@YAXABVVector@@ABVQAngle@@00AAUmatrix3x4_t@@@Z 00406770 f   CollisionUtils.obj
 0001:00005810       ?ComputeAbsMatrix@@YAXABUmatrix3x4_t@@AAU1@@Z 00406810 f   CollisionUtils.obj
 0001:000058c0       ?ComputeSeparatingPlane@@YA_NABUmatrix3x4_t@@0ABVVector@@1MPAUcplane_t@@@Z 004068c0 f   CollisionUtils.obj
 0001:00009020       ?CreateClippedBrush@@YAPAUbspbrush_t@@PAUmapbrush_t@@ABVVector@@1@Z 0040a020 f   csg.obj
 0001:00009120       ?ComputeBoundingPlanes@@YAXABVVector@@0@Z 0040a120 f   csg.obj
 0001:00009de0       ?CubemapLessFunc@@YA_NABUCubemapInfo_t@@0@Z 0040ade0 f   cubemap.obj
 0001:00009e80       ?FindSkyboxMaterialName@@YAPBDXZ 0040ae80 f   cubemap.obj
 0001:00009ef0       ?BackSlashToForwardSlash@@YAXPAD@Z 0040aef0 f   cubemap.obj
 0001:00009f10       ?FindDependentMaterial@@YAPBDPBDPAPBD@Z 0040af10 f   cubemap.obj
 0001:0000a070       ?PatchEnvmapForMaterialAndDependents@@YA_NPBDABUPatchInfo_t@@0@Z 0040b070 f   cubemap.obj
 0001:0000a270       ?SideIDToIndex@@YAHH@Z     0040b270 f   cubemap.obj
 0001:0000c510       ?LoadSrcVTFFiles@@YA_NQAPAVIVTFTexture@@PBDPAH_N@Z 0040d510 f   cubemap.obj
 0001:0000cd70       ?Cubemap_CreateTexInfo@@YAHHQAH@Z 0040dd70 f   cubemap.obj
 0001:0000de60       ?CountFaceList@@YAHPAUface_t@@@Z 0040ee60 f   detail.obj
 0001:0000e640       ?ClipFaceToBrushList@@YAXPAUface_t@@ABV?$CUtlVector@PAUbspbrush_t@@V?$CUtlMemory@PAUbspbrush_t@@@@@@PAPAU1@@Z 0040f640 f   detail.obj
 0001:0000ecd0       ?StaticLess@@YA_NABUStaticPropLookup_t@@0@Z 0040fcd0 f   detailObjects.obj
 0001:0000ecf0       ?FindDetailVBSPName@@YAPBDXZ 0040fcf0 f   detailObjects.obj
 0001:0000ed80       ?ComputeDetailLeaf@@YAHABVVector@@@Z 0040fd80 f   detailObjects.obj
 0001:0000edf0       ?ComputeDisplacementFaceArea@@YAMPAUdface_t@@@Z 0040fdf0 f   detailObjects.obj
 0001:0000ef50       ?SortFunc@@YAHPBX0@Z       0040ff50 f   detailObjects.obj
 0001:000109a0       ?SelectGroup@@YAHABUDetailObject_t@@M@Z 004119a0 f   detailObjects.obj
 0001:00010ac0       ?SelectDetail@@YAHABUDetailObjectGroup_t@@@Z 00411ac0 f   detailObjects.obj
 0001:00010b10       ?SetLumpData@@YAXXZ        00411b10 f   detailObjects.obj
 0001:00011b10       ?AddDetailDictLump@@YAHPBD@Z 00412b10 f   detailObjects.obj
 0001:00011c80       ?AddDetailSpriteDictLump@@YAHPBVVector2D@@0@Z 00412c80 f   detailObjects.obj
 0001:00011da0       ?AddDetailSpriteToLump@@YAXABVVector@@ABVQAngle@@HPBVVector2D@@2MHHHH@Z 00412da0 f   detailObjects.obj
 0001:00011e60       ?AddDetailSpriteToLump@@YAXABVVector@@ABVQAngle@@ABUDetailModel_t@@M@Z 00412e60 f   detailObjects.obj
 0001:00012090       ?IsModelValid@@YA_NPBD@Z   00413090 f   detailObjects.obj
 0001:00012150       ?AddDetailToLump@@YAXPBDABVVector@@ABVQAngle@@H@Z 00413150 f   detailObjects.obj
 0001:00012200       ?PlaceDetail@@YAXABUDetailModel_t@@ABVVector@@1@Z 00413200 f   detailObjects.obj
 0001:00012560       ?EmitDetailObjectsOnFace@@YAXPAUdface_t@@AAUDetailObject_t@@@Z 00413560 f   detailObjects.obj
 0001:00012880       ?EmitDetailObjectsOnDisplacementFace@@YAXPAUdface_t@@AAUDetailObject_t@@AAVCCoreDispInfo@@@Z 00413880 f   detailObjects.obj
 0001:000129d0       ?ParseDetailGroup@@YAXHPAVKeyValues@@@Z 004139d0 f   detailObjects.obj
 0001:00013570       ?ParseDetailObjectFile@@YAXAAVKeyValues@@@Z 00414570 f   detailObjects.obj
 0001:00013c50       ?RotateVertIncrement@@YAXW4NeighborOrientation@@ABVCVertIndex@@AAV2@@Z 00414c50 f   disp_common.obj
 0001:00013ff0       ?SetupCoordXY@@YAXAAVCNodeVert@@ABV1@11@Z 00414ff0 f   disp_common.obj
 0001:00014040       ?DispCommon_GenerateTriIndices_R@@YAPAGABVCNodeVert@@0PAGHH@Z 00415040 f   disp_common.obj
 0001:000175a0       ?Transform2D@@YA?AVCVertIndex@@QAY01$$CBHABV1@1@Z 004185a0 f   disp_powerinfo.obj
 0001:00017610       ?GetEdgeVertIndex@@YAXHHHAAVCVertIndex@@@Z 00418610 f   disp_powerinfo.obj
 0001:00017660       ?VertIndex@@YAHABVCVertIndex@@H@Z 00418660 f   disp_powerinfo.obj
 0001:00017680       ?WrapVertIndex@@YA?AVCVertIndex@@ABV1@H@Z 00418680 f   disp_powerinfo.obj
 0001:000176e0       ?GetFreeDependency@@YAHPAVCVertDependency@@H@Z 004186e0 f   disp_powerinfo.obj
 0001:00017700       ?AddDependency@@YAXPAVCVertInfo@@HABVCVertIndex@@1H_N2@Z 00418700 f   disp_powerinfo.obj
 0001:00017890       ?InitPowerInfo_R@@YAXPAVCPowerInfo@@HABVCVertIndex@@11111H@Z 00418890 f   disp_powerinfo.obj
 0001:00017c40       ?InitPowerInfoTriInfos_R@@YAXPAVCPowerInfo@@ABVCVertIndex@@AAPAVCTriInfo@@HH@Z 00418c40 f   disp_powerinfo.obj
 0001:0001d790       ?AssignBottomWaterMaterialToFace@@YA_NPAUface_t@@@Z 0041e790 f   faces.obj
 0001:0001e8b0       ?SubdivideFaceBySubdivSize@@YAXPAUface_t@@M@Z 0041f8b0 f   faces.obj
 0001:0001f960       ?IsLowerLeaf@@YA_NABUwaterleaf_t@@0@Z 00420960 f   ivp.obj
 0001:0001fad0       ?PortalCrossesWater@@YA_NAAUwaterleaf_t@@PAUportal_t@@@Z 00420ad0 f   ivp.obj
 0001:0001fb00       ?FindOrCreateLeafWaterData@@YAHMMH@Z 00420b00 f   ivp.obj
 0001:0001fb70       ?BuildWaterLeaf@@YAXPAUnode_t@@AAUwaterleaf_t@@@Z 00420b70 f   ivp.obj
 0001:0001fd40       ?TriangleNormal@@YA?AVVector@@ABV1@00@Z 00420d40 f   ivp.obj
 0001:0001fde0       ?FindBrushSide@@YAPAUdbrushside_t@@HABVVector@@@Z 00420de0 f   ivp.obj
 0001:0001ffd0       ?ClearLeafWaterData@@YAXXZ 00420fd0 f   ivp.obj
 0001:00021c40       ?VisitLeaves_r@@YAXAAVCPlaneList@@H@Z 00422c40 f   ivp.obj
 0001:00021cd0       ?WriteFogVolumeIDs@@YAXPAUdmodel_t@@@Z 00422cd0 f   ivp.obj
 0001:00022dc0       ?PropIndex@@YAHAAV?$CUtlVector@HV?$CUtlMemory@H@@@@H@Z 00423dc0 f   ivp.obj
 0001:000230b0       ?AddListPlane@@YAXPAV?$CUtlVector@Ulistplane_t@@V?$CUtlMemory@Ulistplane_t@@@@@@MMMM@Z 004240b0 f   ivp.obj
 0001:00023580       ?InsertSortWaterLeaf@@YAXAAV?$CUtlVector@Uwaterleaf_t@@V?$CUtlMemory@Uwaterleaf_t@@@@@@ABUwaterleaf_t@@@Z 00424580 f   ivp.obj
 0001:000235e0       ?Flood_FindConnectedWaterVolumes_r@@YAXAAV?$CUtlVector@PAUnode_t@@V?$CUtlMemory@PAUnode_t@@@@@@PAUnode_t@@AAUwaterleaf_t@@AAV?$CBitVec@$0BAAAA@@@@Z 004245e0 f   ivp.obj
 0001:00023710       ?ConvertWaterModelToPhysCollide@@YAXAAV?$CUtlVector@PAVCPhysCollisionEntry@@V?$CUtlMemory@PAVCPhysCollisionEntry@@@@@@HMM@Z 00424710 f   ivp.obj
 0001:00023a20       ?ConvertWorldBrushesToPhysCollide@@YAXAAV?$CUtlVector@PAVCPhysCollisionEntry@@V?$CUtlMemory@PAVCPhysCollisionEntry@@@@@@MMH@Z 00424a20 f   ivp.obj
 0001:00023cc0       ?BuildWorldPhysModel@@YAXAAV?$CUtlVector@PAVCPhysCollisionEntry@@V?$CUtlMemory@PAVCPhysCollisionEntry@@@@@@MM@Z 00424cc0 f   ivp.obj
 0001:00023d70       ?ConvertModelToPhysCollide@@YAXAAV?$CUtlVector@PAVCPhysCollisionEntry@@V?$CUtlMemory@PAVCPhysCollisionEntry@@@@@@HHMM@Z 00424d70 f   ivp.obj
 0001:000257d0       ?AddArguments@@YAXAAHAAPAPADPBD@Z 004267d0 f   loadcmdline.obj
 0001:00028530       ?LoadOverlayDataTransitionKeyCallback@@YA?AW4ChunkFileResult_t@@PBD0PAUmapoverlay_t@@@Z 00429530 f   map.obj
 0001:00028a00       ?LoadOverlayDataTransitionCallback@@YA?AW4ChunkFileResult_t@@PAVCChunkFile@@H@Z 00429a00 f   map.obj
 0001:00028a50       ?LoadOverlayTransitionCallback@@YA?AW4ChunkFileResult_t@@PAVCChunkFile@@H@Z 00429a50 f   map.obj
 0001:00029ce0       ?NameTranslationLessFunc@@YA_NABUNameTranslationLookup_t@@0@Z 0042ace0 f   materialpatch.obj
 0001:00029db0       ?DoesMaterialHaveKey@@YA_NPAVKeyValues@@PBD@Z 0042adb0 f   materialpatch.obj
 0001:00029e00       ?DoesMaterialHaveKeyValuePair@@YA_NPAVKeyValues@@PBD1@Z 0042ae00 f   materialpatch.obj
 0001:00029e70       ?InsertKeyValues@@YAXAAVKeyValues@@0_N@Z 0042ae70 f   materialpatch.obj
 0001:0002a940       ?ExpandPatchFile@@YAXAAVKeyValues@@@Z 0042b940 f   materialpatch.obj
 0001:0002bb40       ?AllocUnattributed@@YAPAXI@Z 0042cb40 f   memoverride.obj
 0001:0002bb90       ?ReallocUnattributed@@YAPAXPAXI@Z 0042cb90 f   memoverride.obj
 0001:0002e383       __catch$?_Buynode@?$list@PAV?$vector@GV?$allocator@G@std@@@std@@V?$allocator@PAV?$vector@GV?$allocator@G@std@@@std@@@2@@std@@IAEPAU_Node@?$_List_nod@PAV?$vector@GV?$allocator@G@std@@@std@@V?$allocator@PAV?$vector@GV?$allocator@G@std@@@std@@@2@@2@XZ$0 0042f383 f i mstristrip.obj
 0001:0002e558       __catch$?_Buynode@?$list@PAV?$vector@GV?$allocator@G@std@@@std@@V?$allocator@PAV?$vector@GV?$allocator@G@std@@@std@@@2@@std@@IAEPAU_Node@?$_List_nod@PAV?$vector@GV?$allocator@G@std@@@std@@V?$allocator@PAV?$vector@GV?$allocator@G@std@@@std@@@2@@2@PAU342@0ABQAV?$vector@GV?$allocator@G@std@@@2@@Z$0 0042f558 f i mstristrip.obj
 0001:0002e5f9       __catch$?_Copy@?$basic_string@DU?$char_traits@D@std@@V?$allocator@D@2@@std@@IAEXII@Z$0 0042f5f9 f i mstristrip.obj
 0001:0002e693       __catch$?_Copy@?$basic_string@DU?$char_traits@D@std@@V?$allocator@D@2@@std@@IAEXII@Z$1 0042f693 f i mstristrip.obj
 0001:0003019b       __catch$?_Construct_n@?$vector@GV?$allocator@G@std@@@std@@QAEXIABG@Z$0 0043119b f i mstristrip.obj
 0001:00030276       __catch$??$_Insert@V?$_Const_iterator@$00@?$list@PAV?$vector@GV?$allocator@G@std@@@std@@V?$allocator@PAV?$vector@GV?$allocator@G@std@@@std@@@2@@std@@@?$list@PAV?$vector@GV?$allocator@G@std@@@std@@V?$allocator@PAV?$vector@GV?$allocator@G@std@@@std@@@2@@std@@QAEXV?$_Iterator@$00@01@V?$_Const_iterator@$00@01@1Uforward_iterator_tag@1@@Z$0 00431276 f i mstristrip.obj
 0001:00033040       ?ComputeDistFromPlane@@YAMPAUwinding_t@@PAUplane_t@@M@Z 00434040 f   portals.obj
 0001:00034a70       ?DisplayPortalError@@YAXPAUportal_t@@H@Z 00435a70 f   portals.obj
 0001:000391e0       ?ModelLess@@YA_NABUModelCollisionLookup_t@@0@Z 0043a1e0 f   StaticProp.obj
 0001:00039310       ?SetCurrentModel@@YAXPAUstudiohdr_t@@@Z 0043a310 f   StaticProp.obj
 0001:00039320       ?FreeCurrentModelVertexes@@YAXXZ 0043a320 f   StaticProp.obj
 0001:00039960       ?ComputeConvexHull@@YAPAVCPhysConvex@@PAUmstudiomesh_t@@@Z 0043a960 f   StaticProp.obj
 0001:000399c0       ?TestLeafAgainstCollide@@YA_NHPAHABVVector@@ABVQAngle@@PAVCPhysCollide@@@Z 0043a9c0 f   StaticProp.obj
 0001:0003a9b0       ?ComputeLightingOrigin@@YA_NABUStaticPropBuild_t@@AAVVector@@@Z 0043b9b0 f   StaticProp.obj
 0001:0003aa40       ?SetLumpData@@YAXXZ        0043ba40 f   StaticProp.obj
 0001:0003b810       ?AddStaticPropDictLump@@YAHPBD@Z 0043c810 f   StaticProp.obj
 0001:0003bb10       ?ComputeConvexHullLeaves_R@@YAXHHPAHABVVector@@11ABVQAngle@@PAVCPhysCollide@@AAV?$CUtlVector@GV?$CUtlMemory@G@@@@@Z 0043cb10 f   StaticProp.obj
 0001:0003bce0       ?ComputeStaticPropLeaves@@YAXPAVCPhysCollide@@ABVVector@@ABVQAngle@@AAV?$CUtlVector@GV?$CUtlMemory@G@@@@@Z 0043cce0 f   StaticProp.obj
 0001:0003bde0       ?GetCollisionModel@@YAPAVCPhysCollide@@PBD@Z 0043cde0 f   StaticProp.obj
 0001:0003bfd0       ?AddStaticPropToLump@@YAXABUStaticPropBuild_t@@@Z 0043cfd0 f   StaticProp.obj
 0001:0003c4d0       ?StringIsTrue@@YAHPBD@Z    0043d4d0 f   textures.obj
 0001:000400a0       ?ClipOccluderBrushes@@YAPAUtree_t@@XZ 004410a0 f   vbsp.obj
 0001:000402a0       ?GenerateOccluderSideList@@YAXHAAV?$CUtlVector@PAUside_t@@V?$CUtlMemory@PAUside_t@@@@@@@Z 004412a0 f   vbsp.obj
 0001:00040370       ?GenerateOccluderFaceList@@YAXPAUnode_t@@AAV?$CUtlVector@PAUface_t@@V?$CUtlMemory@PAUface_t@@@@@@@Z 00441370 f   vbsp.obj
 0001:00040410       ?EmitOccluderBrushes@@YAXXZ 00441410 f   vbsp.obj
 0001:000435f0       ?CalculateAABBForNormalizedFrustum_Helper@@YAXMMMABVVMatrix@@AAVVector@@1@Z 004445f0 f   vmatrix.obj
 0001:00043800       ?FrustumPlanesFromMatrixHelper@@YAXABVVMatrix@@ABVVector@@11AAV2@AAM@Z 00444800 f   vmatrix.obj
 0001:00045430       ?ClearDistToClosestWater@@YAXXZ 00446430 f   writebsp.obj
 0001:00045650       ?PointLeafnum_r@@YAHABVVector@@H@Z 00446650 f   writebsp.obj
 0001:000464c0       ?AddNodeToBounds@@YAXHAAV?$CUtlVector@HV?$CUtlMemory@H@@@@AAVVector@@1@Z 004474c0 f   writebsp.obj
 0001:00047ec0       ?Compute3DSkyboxAreas@@YAXPAUdmodel_t@@AAV?$CUtlVector@HV?$CUtlMemory@H@@@@@Z 00448ec0 f   writebsp.obj
 0001:000490d0       ?GetLengthOfBinStringAsText@@YAHPBDH@Z 0044a0d0 f   zip_utils.obj
 0001:00049100       ?CopyTextData@@YAXPADPBDHH@Z 0044a100 f   zip_utils.obj
 0001:00049750       ?ReadTextData@@YAXPBDHAAVCUtlBuffer@@@Z 0044a750 f   zip_utils.obj
 0001:0004ced0       ?AddLump@@YAXHPAXHH@Z      0044ded0 f   bsplib.obj
 0001:0004d8f0       ?EnumerateLeavesInBox_R@@YA_NHABVVector@@0PAVISpatialLeafEnumerator@@H@Z 0044e8f0 f   bsplib.obj
 0001:0004da70       ?EnumerateLeavesInSphere_R@@YA_NHABVVector@@MPAVISpatialLeafEnumerator@@H@Z 0044ea70 f   bsplib.obj
 0001:0004db70       ?EnumerateLeavesAlongRay_R@@YA_NHABURay_t@@ABVVector@@1PAVISpatialLeafEnumerator@@H@Z 0044eb70 f   bsplib.obj
 0001:0004de50       ?EnumerateNodesAlongRay_R@@YA_NHABURay_t@@MMPAVIBSPNodeEnumerator@@H@Z 0044ee50 f   bsplib.obj
 0001:0004e670       ?WriteXZPPakFileLump@@YAXPAD@Z 0044f670 f   bsplib.obj
 0001:0004e930       ??$AddLump@UCompressedLightCube@@@@YAXHAAV?$CUtlVector@UCompressedLightCube@@V?$CUtlMemory@UCompressedLightCube@@@@@@H@Z 0044f930 f   bsplib.obj
 0001:0004e950       ??$AddLump@Utexinfo_s@@@@YAXHAAV?$CUtlVector@Utexinfo_s@@V?$CUtlMemory@Utexinfo_s@@@@@@H@Z 0044f950 f   bsplib.obj
 0001:0004e970       ??$AddLump@E@@YAXHAAV?$CUtlVector@EV?$CUtlMemory@E@@@@H@Z 0044f970 f   bsplib.obj
 0001:0004e990       ??$AddLump@D@@YAXHAAV?$CUtlVector@DV?$CUtlMemory@D@@@@H@Z 0044f990 f   bsplib.obj
 0001:0004e9b0       ??$AddLump@H@@YAXHAAV?$CUtlVector@HV?$CUtlMemory@H@@@@H@Z 0044f9b0 f   bsplib.obj
 0001:0004f370       ?ComputeGameLumpSizeAndCount@@YAXAAH0@Z 00450370 f   bsplib.obj
 0001:0004f3d0       ?AddGameLumps@@YAXXZ       004503d0 f   bsplib.obj
 0001:0004f540       ?AddOcclusionLump@@YAXXZ   00450540 f   bsplib.obj
 0001:00050020       ??$AddLump@Vddispinfo_t@@@@YAXHAAV?$CUtlVector@Vddispinfo_t@@V?$CUtlMemory@Vddispinfo_t@@@@@@H@Z 00451020 f   bsplib.obj
 0001:00050040       ??$AddLump@VCDispVert@@@@YAXHAAV?$CUtlVector@VCDispVert@@V?$CUtlMemory@VCDispVert@@@@@@H@Z 00451040 f   bsplib.obj
 0001:00050060       ??$AddLump@VCDispTri@@@@YAXHAAV?$CUtlVector@VCDispTri@@V?$CUtlMemory@VCDispTri@@@@@@H@Z 00451060 f   bsplib.obj
 0001:00050080       ??$AddLump@VCFaceMacroTextureInfo@@@@YAXHAAV?$CUtlVector@VCFaceMacroTextureInfo@@V?$CUtlMemory@VCFaceMacroTextureInfo@@@@@@H@Z 00451080 f   bsplib.obj
 0001:000500a0       ??$AddLump@Udlightmappage_t@@@@YAXHAAV?$CUtlVector@Udlightmappage_t@@V?$CUtlMemory@Udlightmappage_t@@@@@@H@Z 004510a0 f   bsplib.obj
 0001:000500c0       ??$AddLump@Udlightmappageinfo_t@@@@YAXHAAV?$CUtlVector@Udlightmappageinfo_t@@V?$CUtlMemory@Udlightmappageinfo_t@@@@@@H@Z 004510c0 f   bsplib.obj
 0001:00051400       ?WritePakFileLump@@YAXXZ   00452400 f   bsplib.obj
 0001:00051c00       ?UnserializeOcclusionLumpV2@@YAXAAVCUtlBuffer@@@Z 00452c00 f   bsplib.obj
 0001:00051ce0       ?LoadOcclusionLump@@YAXXZ  00452ce0 f   bsplib.obj
 0001:00053440       ?ParseGameLump@@YAXPAUdheader_t@@@Z 00454440 f   bsplib.obj
 0001:000616c0       _stat                      004626c0 f   cmdlib.obj
 0001:00061760       ?GetInitialColors@@YAXXZ   00462760 f   cmdlib.obj
 0001:000617e0       ?SetConsoleTextColor@@YAGHHHH@Z 004627e0 f   cmdlib.obj
 0001:00061870       ?RestoreConsoleTextColor@@YAXG@Z 00462870 f   cmdlib.obj
 0001:00061980       ?CmdLib_getwd@@YAXPADH@Z   00462980 f   cmdlib.obj
 0001:000635a0       ?InitializeCharacterSets@@YAXXZ 004645a0 f   filesystem_helpers.obj
 0001:00063a40       ?Sys_GetExecutableName@@YAHPADH@Z 00464a40 f   filesystem_init.obj
 0001:00063b00       ?FileSystem_GetBaseDir@@YA_NPADH@Z 00464b00 f   filesystem_init.obj
 0001:00065750       ?LoadEntityCallback@@YA?AW4ChunkFileResult_t@@PAVCChunkFile@@H@Z 00466750 f   map_shared.obj
 0001:00068d30       ?ToolsExceptionFilter@@YGJPAU_EXCEPTION_POINTERS@@@Z 00469d30 f   tools_minidump.obj
 0001:00068d60       ?ToolsExceptionFilter_Custom@@YGJPAU_EXCEPTION_POINTERS@@@Z 00469d60 f   tools_minidump.obj
 0001:00069740       ?V_nibble@@YAED@Z          0046a740 f   tier1:strtools.obj
 0001:00069c60       ?CopyToMaxChars@@YA_NPADHPBDH@Z 0046ac60 f   tier1:strtools.obj
 0001:00072b80       ?Sys_GetProcAddress@@YAPAXPBD0@Z 00473b80 f   tier1:interface.obj
 0001:00072b90       ?Sys_GetProcAddress@@YAPAXPAUHINSTANCE__@@PBD@Z 00473b90 f   tier1:interface.obj
 0001:00072ba0       ?Sys_IsDebuggerPresent@@YA_NXZ 00473ba0 f   tier1:interface.obj
 0001:000740cc       __catch$?_Ipfx@?$basic_istream@DU?$char_traits@D@std@@@std@@QAE_N_N@Z$0 004750cc f i tier1:tokenreader.obj
 0001:00074377       __catch$?get@?$basic_istream@DU?$char_traits@D@std@@@std@@QAEHXZ$0 00475377 f i tier1:tokenreader.obj
 0001:00074533       __catch$?get@?$basic_istream@DU?$char_traits@D@std@@@std@@QAEAAV12@PADHD@Z$0 00475533 f i tier1:tokenreader.obj
 0001:00074692       __catch$?ignore@?$basic_istream@DU?$char_traits@D@std@@@std@@QAEAAV12@HH@Z$0 00475692 f i tier1:tokenreader.obj
 0001:0007476d       __catch$?peek@?$basic_istream@DU?$char_traits@D@std@@@std@@QAEHXZ$0 0047576d f i tier1:tokenreader.obj
 0001:00074900       __catch$?putback@?$basic_istream@DU?$char_traits@D@std@@@std@@QAEAAV12@D@Z$0 00475900 f i tier1:tokenreader.obj
 0001:000761a0       ?dumpcountedstrings@@YAXXZ 004771a0 f   tier1:stringpool.obj
 0001:00078bf0       ?FLerp@@YAMMMMMM@Z         00479bf0 f   mathlib:mathlib_base.obj
 0001:0007f2c0       ?VectorToColorRGBExp32_CalcExponent@@YAHM@Z 004802c0 f   mathlib:mathlib_base.obj
 0001:000826f0       ?CalcInit@@YAXPAUSphereCalc_t@@HPAPAEW4LookDir_t@@@Z 004836f0 f   vtf:vtf.obj
 0001:000827b0       ?TransformNormal@@YAXPAUSphereCalc_t@@AAVVector@@@Z 004837b0 f   vtf:vtf.obj
 0001:00082860       ?CalcFaceIndex@@YAHABVVector@@@Z 00483860 f   vtf:vtf.obj
 0001:00082930       ?CalcColor@@YAXPAUSphereCalc_t@@HABVVector@@PAE@Z 00483930 f   vtf:vtf.obj
 0001:00082a60       ?CalcSphereColor@@YAXPAUSphereCalc_t@@MM@Z 00483a60 f   vtf:vtf.obj
 0001:00082b50       ?CalcHemisphereColor@@YAXPAUSphereCalc_t@@MM@Z 00483b50 f   vtf:vtf.obj
 0001:00082e20       ?FixCubeMapFacing@@YAXPAEHHW4ImageFormat@@@Z 00483e20 f   vtf:vtf.obj
 0001:00086880       ?decodeRGB@@YAXPAGPAI@Z    00487880 f   vtf:S3_intrf.obj
 0001:000869c0       ?decodeAlpha@@YAXPAEPAI@Z  004879c0 f   vtf:S3_intrf.obj
 0001:00087430       ?getAxis@@YAXHPAY02NQAN@Z  00488430 f   vtf:S3_quant.obj
 0001:00087830       ?getDiameter@@YAXHPAY02NQAN@Z 00488830 f   vtf:S3_quant.obj
 0001:00087940       ?sortProjection@@YAXHPAY02NQANQAHH@Z 00488940 f   vtf:S3_quant.obj
 0001:00087a90       ?sameOrder@@YAHHQAH0@Z     00488a90 f   vtf:S3_quant.obj
 0001:00087b00       ?search43Mult@@YANPAHHPAY02NPANQAHQAY02NQAN@Z 00488b00 f   vtf:S3_quant.obj
 0001:000881a0       ?searchClipped43Mult@@YANPAHHPAY02NPANQAHQAY02N4QAN@Z 004891a0 f   vtf:S3_quant.obj
 0001:00088bb0       ?allSame@@YANPAHHPAY02NQANQAY02HQAH@Z 00489bb0 f   vtf:S3_quant.obj
 0001:00089100       ?mapAndRoundMult@@YANPAHHHPAY02NPANQANQAY02NQAY02HQAH@Z 0048a100 f   vtf:S3_quant.obj
 0001:000892e0       ?roundMult@@YANHHPAY02NPANQANQAY02NQAY02HQAH@Z 0048a2e0 f   vtf:S3_quant.obj
 0001:00089e10       ?quantizeAlpha@@YANHHQANQAH1@Z 0048ae10 f   vtf:S3_quant.obj
 0001:0008b741       _vscan_fn                  0048c741 f   LIBCMT:sscanf.obj
 0001:0008b91c       __onexit_nolock            0048c91c f   LIBCMT:onexit.obj
 0001:0008ba90       _swap                      0048ca90 f   LIBCMT:qsort.obj
 0001:0008bac0       _shortsort                 0048cac0 f   LIBCMT:qsort.obj
 0001:0008cf74       ?CatchGuardHandler@@YA?AW4_EXCEPTION_DISPOSITION@@PAUEHExceptionRecord@@PAUCatchGuardRN@@PAX2@Z 0048df74 f   LIBCMT:trnsctrl.obj
 0001:0008d079       ?TranslatorGuardHandler@@YA?AW4_EXCEPTION_DISPOSITION@@PAUEHExceptionRecord@@PAUTranslatorGuardRN@@PAX2@Z 0048e079 f   LIBCMT:trnsctrl.obj
 0001:0008d87a       __initterm                 0048e87a f   LIBCMT:crt0dat.obj
 0001:0008dad9       _doexit                    0048ead9 f   LIBCMT:crt0dat.obj
 0001:0008f1bc       _flsall                    004901bc f   LIBCMT:fflush.obj
 0001:0008f526       _IsRootUNCName             00490526 f   LIBCMT:stati32.obj
 0001:0008f59e       __fullpath_helper          0049059e f   LIBCMT:stati32.obj
 0001:000901a2       __putenv_helper            004911a2 f   LIBCMT:putenv.obj
 0001:000905da       __getenv_s_helper          004915da f   LIBCMT:getenv.obj
 0001:0009066d       __dupenv_s_helper          0049166d f   LIBCMT:getenv.obj
 0001:00091079       _fast_error_exit           00492079 f   LIBCMT:crt0.obj
 0001:0009109d       _check_managed_app         0049209d f   LIBCMT:crt0.obj
 0001:000910de       ___tmainCRTStartup         004920de f   LIBCMT:crt0.obj
 0001:00091818       ?strtoxl@@YAKPAUlocaleinfo_struct@@PBDPAPBDHH@Z 00492818 f   LIBCMT:strtol.obj
 0001:000924f7       _fastcopy_I                004934f7 f   LIBCMT:p4_memcpy.obj
 0001:000927e7       __shift                    004937e7 f   LIBCMT:cvt.obj
 0001:00092820       __cftoe2_l                 00493820 f   LIBCMT:cvt.obj
 0001:00092e08       __cftof2_l                 00493e08 f   LIBCMT:cvt.obj
 0001:0009323b       _fastzero_I                0049423b f   LIBCMT:p4_memset.obj
 0001:00093910       _ValidateLocalCookies      00494910 f   LIBCMT:chandler4.obj
 0001:00093b9b       _write_char                00494b9b f   LIBCMT:output.obj
 0001:00093bce       _write_multi_char          00494bce f   LIBCMT:output.obj
 0001:00093bf2       _write_string              00494bf2 f   LIBCMT:output.obj
 0001:00094ee4       __unwind_handler4          00495ee4 f   LIBCMT:exsup4.obj
 0001:0009560b       ___check_float_string      0049660b f   LIBCMT:input.obj
 0001:0009566c       __hextodec                 0049666c f   LIBCMT:input.obj
 0001:00095684       __inc                      00496684 f   LIBCMT:input.obj
 0001:0009569a       __un_inc                   0049669a f   LIBCMT:input.obj
 0001:000956a7       __whiteout                 004966a7 f   LIBCMT:input.obj
 0001:00096319       ___check_float_string      00497319 f   LIBCMT:inputs.obj
 0001:0009636d       __hextodec                 0049736d f   LIBCMT:inputs.obj
 0001:00096385       __inc                      00497385 f   LIBCMT:inputs.obj
 0001:0009639b       __un_inc                   0049739b f   LIBCMT:inputs.obj
 0001:000963a8       __whiteout                 004973a8 f   LIBCMT:inputs.obj
 0001:000970f8       __use_encode_pointer       004980f8 f   LIBCMT:tidtable.obj
 0001:0009790c       ?CPtoLCID@@YAHH@Z          0049890c f   LIBCMT:mbctype.obj
 0001:0009793b       ?setSBCS@@YAXPAUthreadmbcinfostruct@@@Z 0049893b f   LIBCMT:mbctype.obj
 0001:00097990       ?setSBUpLow@@YAXPAUthreadmbcinfostruct@@@Z 00498990 f   LIBCMT:mbctype.obj
 0001:00097bbe       ?getSystemCP@@YAHH@Z       00498bbe f   LIBCMT:mbctype.obj
 0001:00098263       __copytlocinfo_nolock      00499263 f   LIBCMT:setlocal.obj
 0001:00098287       __updatetlocinfoEx_nolock  00499287 f   LIBCMT:setlocal.obj
 0001:000983a1       _sync_legacy_variables_lk  004993a1 f   LIBCMT:setlocal.obj
 0001:000986f1       __setlocale_get_all        004996f1 f   LIBCMT:setlocal.obj
 0001:00098a36       __setlocale_set_cat        00499a36 f   LIBCMT:setlocal.obj
 0001:00098d2c       __setlocale_nolock         00499d2c f   LIBCMT:setlocal.obj
 0001:0009b3b8       ?strtoxq@@YA_KPAUlocaleinfo_struct@@PBDPAPBDHH@Z 0049c3b8 f   LIBCMT:strtoq.obj
 0001:0009b909       ?ExFilterRethrow@@YAHPAU_EXCEPTION_POINTERS@@@Z 0049c909 f   LIBCMT:frame.obj
 0001:0009bce8       ?IsInExceptionSpec@@YAEPAUEHExceptionRecord@@PBU_s_ESTypeList@@@Z 0049cce8 f   LIBCMT:frame.obj
 0001:0009bd61       ?CallUnexpected@@YAXPBU_s_ESTypeList@@@Z 0049cd61 f   LIBCMT:frame.obj
 0001:0009bd92       __catch$?CallUnexpected@@YAXPBU_s_ESTypeList@@@Z$0 0049cd92 f   LIBCMT:frame.obj
 0001:0009bdaa       ?Is_bad_exception_allowed@@YAEPBU_s_ESTypeList@@@Z 0049cdaa f   LIBCMT:frame.obj
 0001:0009be5c       ?CallCatchBlock@@YAPAXPAUEHExceptionRecord@@PAUEHRegistrationNode@@PAU_CONTEXT@@PBU_s_FuncInfo@@PAXHK@Z 0049ce5c f   LIBCMT:frame.obj
 0001:0009c34b       ?CatchIt@@YAXPAUEHExceptionRecord@@PAUEHRegistrationNode@@PAU_CONTEXT@@PAXPBU_s_FuncInfo@@PBU_s_HandlerType@@PBU_s_CatchableType@@PBU_s_TryBlockMapEntry@@H1E@Z 0049d34b f   LIBCMT:frame.obj
 0001:0009c3b7       ?FindHandlerForForeignException@@YAXPAUEHExceptionRecord@@PAUEHRegistrationNode@@PAU_CONTEXT@@PAXPBU_s_FuncInfo@@HH1@Z 0049d3b7 f   LIBCMT:frame.obj
 0001:0009c4a9       ?FindHandler@@YAXPAUEHExceptionRecord@@PAUEHRegistrationNode@@PAU_CONTEXT@@PAXPBU_s_FuncInfo@@EH1@Z 0049d4a9 f   LIBCMT:frame.obj
 0001:0009da9b       ?strncnt@@YAHPBDH@Z        0049ea9b f   LIBCMT:a_map.obj
 0001:0009dab5       ?__crtLCMapStringA_stat@@YAHPAUlocaleinfo_struct@@KKPBDHPADHHH@Z 0049eab5 f   LIBCMT:a_map.obj
 0001:0009e3cc       _xcptlookup                0049f3cc f   LIBCMT:winxfltr.obj
 0001:0009e590       _ctrlevent_capture@4       0049f590 f   LIBCMT:winsig.obj
 0001:0009e62b       _siglookup                 0049f62b f   LIBCMT:winsig.obj
 0001:0009eb83       ___crtInitCritSecNoSpinCount@8 0049fb83 f   LIBCMT:initcrit.obj
 0001:000a066f       _IsRootUNCName             004a166f f   LIBCMT:stat.obj
 0001:000a06e7       __fullpath_helper          004a16e7 f   LIBCMT:stat.obj
 0001:000a11b1       _wfindenv                  004a21b1 f   LIBCMT:wsetenv.obj
 0001:000a1202       _copy_environ              004a2202 f   LIBCMT:wsetenv.obj
 0001:000a15db       _findenv                   004a25db f   LIBCMT:setenv.obj
 0001:000a1628       _copy_environ              004a2628 f   LIBCMT:setenv.obj
 0001:000a199e       _comexecmd                 004a299e f   LIBCMT:spawnve.obj
 0001:000a1faf       _parse_cmdline             004a2faf f   LIBCMT:stdargv.obj
 0001:000a2740       _write_char                004a3740 f   LIBCMT:woutput.obj
 0001:000a2765       _write_multi_char          004a3765 f   LIBCMT:woutput.obj
 0001:000a278a       _write_string              004a378a f   LIBCMT:woutput.obj
 0001:000a323d       _write_char                004a423d f   LIBCMT:woutputp.obj
 0001:000a3262       _write_multi_char          004a4262 f   LIBCMT:woutputp.obj
 0001:000a3287       _write_string              004a4287 f   LIBCMT:woutputp.obj
 0001:000a4236       ?wcstoxl@@YAKPAUlocaleinfo_struct@@PB_WPAPB_WHH@Z 004a5236 f   LIBCMT:wcstol.obj
 0001:000a44b6       ?wcstoxq@@YA_KPAUlocaleinfo_struct@@PB_WPAPB_WHH@Z 004a54b6 f   LIBCMT:wcstoq.obj
 0001:000a5ef2       ?DebuggerProbe@@YAHK@Z     004a6ef2 f   LIBCMT:error.obj
 0001:000a5f42       ?DebuggerRuntime@@YAHKHPAXPB_W@Z 004a6f42 f   LIBCMT:error.obj
 0001:000a5fae       ?failwithmessage@@YAXPAXHHPBD@Z 004a6fae f   LIBCMT:error.obj
 0001:000a62c5       ?_getMemBlockDataString@@YAXPAD00I@Z 004a72c5 f   LIBCMT:error.obj
 0001:000a65b4       _has_osfxsr_set            004a75b4 f   LIBCMT:cpu_disp.obj
 0001:000a7525       _write_char                004a8525 f   LIBCMT:outputs.obj
 0001:000a7558       _write_multi_char          004a8558 f   LIBCMT:outputs.obj
 0001:000a757c       _write_string              004a857c f   LIBCMT:outputs.obj
 0001:000a809f       _write_char                004a909f f   LIBCMT:outputp.obj
 0001:000a80d2       _write_multi_char          004a90d2 f   LIBCMT:outputp.obj
 0001:000a80f6       _write_string              004a90f6 f   LIBCMT:outputp.obj
 0001:000a90d8       __tsopen_nolock            004aa0d8 f   LIBCMT:open.obj
 0001:000a9dd0       __unwind_handler           004aadd0 f   LIBCMT:exsup.obj
 0001:000aa1e4       ?__crtGetStringTypeA_stat@@YAHPAUlocaleinfo_struct@@KPBDHPAGHHH@Z 004ab1e4 f   LIBCMT:a_str.obj
 0001:000aa40b       __get_lc_time              004ab40b f   LIBCMT:inittime.obj
 0001:000aaa27       _fix_grouping              004aba27 f   LIBCMT:initnum.obj
 0001:000aac62       _fix_grouping              004abc62 f   LIBCMT:initmon.obj
 0001:000ab997       ?_store_str@@YAXPADPAPADPAI@Z 004ac997 f   LIBCMT:strftime.obj
 0001:000ab9b7       ?_store_number@@YAXHPAPADPAI@Z 004ac9b7 f   LIBCMT:strftime.obj
 0001:000ab9ed       ?_store_num@@YAXHHPAPADPAII@Z 004ac9ed f   LIBCMT:strftime.obj
 0001:000aba66       ?_expandtime@@YAHPAUlocaleinfo_struct@@DPBUtm@@PAPADPAIPAU__lc_time_data@@I@Z 004aca66 f   LIBCMT:strftime.obj
 0001:000abe4c       ?_store_winword@@YAHPAUlocaleinfo_struct@@HPBUtm@@PAPADPAIPAU__lc_time_data@@@Z 004ace4c f   LIBCMT:strftime.obj
 0001:000ac596       _TranslateName             004ad596 f   LIBCMT:getqloc.obj
 0001:000ac5f6       _GetLcidFromDefault        004ad5f6 f   LIBCMT:getqloc.obj
 0001:000ac60a       _ProcessCodePage           004ad60a f   LIBCMT:getqloc.obj
 0001:000ac681       _TestDefaultCountry        004ad681 f   LIBCMT:getqloc.obj
 0001:000ac69f       _LcidFromHexString         004ad69f f   LIBCMT:getqloc.obj
 0001:000ac6d1       _GetPrimaryLen             004ad6d1 f   LIBCMT:getqloc.obj
 0001:000ac6ec       _CountryEnumProc@4         004ad6ec f   LIBCMT:getqloc.obj
 0001:000ac782       _TestDefaultLanguage       004ad782 f   LIBCMT:getqloc.obj
 0001:000ac7f4       _LangCountryEnumProc@4     004ad7f4 f   LIBCMT:getqloc.obj
 0001:000ac9c4       _LanguageEnumProc@4        004ad9c4 f   LIBCMT:getqloc.obj
 0001:000aca83       _GetLcidFromCountry        004ada83 f   LIBCMT:getqloc.obj
 0001:000acaaf       _GetLcidFromLangCountry    004adaaf f   LIBCMT:getqloc.obj
 0001:000acb14       _GetLcidFromLanguage       004adb14 f   LIBCMT:getqloc.obj
 0001:000acd33       _cmpResult                 004add33 f   LIBCMT:memcmp.obj
 0001:000acd45       _cmpBYTE                   004add45 f   LIBCMT:memcmp.obj
 0001:000acd5d       _cmpWORD                   004add5d f   LIBCMT:memcmp.obj
 0001:000acd9d       _cmpDWORD                  004add9d f   LIBCMT:memcmp.obj
 0001:000ace15       _unaligned_memcmp          004ade15 f   LIBCMT:memcmp.obj
 0001:000b17d6       ?und_strlen@@YAIPBD@Z      004b27d6 f   LIBCMT:undname.obj
 0001:000b17e4       ?und_strncpy@@YAPADPADPBDI@Z 004b27e4 f   LIBCMT:undname.obj
 0001:000b1804       ?und_strncmp@@YAIPBD0I@Z   004b2804 f   LIBCMT:undname.obj
 0001:000b6446       ?__crtGetLocaleInfoW_stat@@YAHPAUlocaleinfo_struct@@KKPA_WHH@Z 004b7446 f   LIBCMT:w_loc.obj
 0001:000b65bc       ?__crtGetLocaleInfoA_stat@@YAHPAUlocaleinfo_struct@@KKPADHH@Z 004b75bc f   LIBCMT:a_loc.obj
 0001:000b6dff       __get_fname                004b7dff f   LIBCMT:fpexcept.obj
 0001:000b789b       __tzset_nolock             004b889b f   LIBCMT:tzset.obj
 0001:000b7be4       _cvtdate                   004b8be4 f   LIBCMT:tzset.obj
 0001:000b7dd9       __isindst_nolock           004b8dd9 f   LIBCMT:tzset.obj
 0001:000b8ceb       ?strncnt@@YAHPBDH@Z        004b9ceb f   LIBCMT:a_cmp.obj
 0001:000b8d05       ?__crtCompareStringA_stat@@YAHPAUlocaleinfo_struct@@KKPBDH1HH@Z 004b9d05 f   LIBCMT:a_cmp.obj
 0001:000b91ed       ?x_ismbbtype_l@@YAHPAUlocaleinfo_struct@@IHH@Z 004ba1ed f   LIBCMT:ismbbyte.obj
 0001:000b9dcf       ?GetPdbDll@@YAPAUHINSTANCE__@@XZ 004badcf f   LIBCMT:pdblkup.obj
 0001:000baad1       __abstract_cw              004bbad1 f   LIBCMT:ieee87.obj
 0001:000bab65       __hw_cw                    004bbb65 f   LIBCMT:ieee87.obj
 0001:000babf3       __abstract_sw              004bbbf3 f   LIBCMT:ieee87.obj
 0001:000bac31       ___abstract_cw_sse2        004bbc31 f   LIBCMT:ieee87.obj
 0001:000bacce       ___hw_cw_sse2              004bbcce f   LIBCMT:ieee87.obj
 0001:000bad6e       ___abstract_sw_sse2        004bbd6e f   LIBCMT:ieee87.obj
 0001:000badac       ___fpreset_sse2            004bbdac f   LIBCMT:ieee87.obj
 0001:000bae7e       ___statusfp_sse2           004bbe7e f   LIBCMT:ieee87.obj
 0001:000baeb9       ___clearfp_sse2            004bbeb9 f   LIBCMT:ieee87.obj
 0001:000baf04       ___control87_sse2          004bbf04 f   LIBCMT:ieee87.obj
 0001:000bc247       _xtoa_s@20                 004bd247 f   LIBCMT:xtoas.obj
 0001:000bc387       @x64toa_s@24               004bd387 f   LIBCMT:xtoas.obj
 0001:000bc538       ?wcsncnt@@YAHPB_WH@Z       004bd538 f   LIBCMT:w_cmp.obj
 0001:000bc554       ?__crtCompareStringW_stat@@YAHPAUlocaleinfo_struct@@KKPB_WH1HH@Z 004bd554 f   LIBCMT:w_cmp.obj
 0001:000bc9c4       ?__crtGetStringTypeW_stat@@YAHPAUlocaleinfo_struct@@KPB_WHPAGHH@Z 004bd9c4 f   LIBCMT:w_str.obj
 0001:000bd48a       _tidy_global               004be48a f   libcpmt:locale0.obj
 0001:000be5a0       ?GetColorBlockColorsBGRA8888@ImageLoader@@YAXPAUDXTColBlock@1@PAUBGRA8888_t@@111AAG@Z 004bf5a0 f   bitmap:colorconversion.obj
 0001:000be740       ?GetDXTCEncodeType@ImageLoader@@YAKW4ImageFormat@@@Z 004bf740 f   bitmap:colorconversion.obj
 0001:000bf550       ?RGBA8888ToRGBA8888@ImageLoader@@YAXPAE0H@Z 004c0550 f   bitmap:colorconversion.obj
 0001:000bf570       ?RGBA8888ToABGR8888@ImageLoader@@YAXPAE0H@Z 004c0570 f   bitmap:colorconversion.obj
 0001:000bf5b0       ?RGBA8888ToRGB888@ImageLoader@@YAXPAE0H@Z 004c05b0 f   bitmap:colorconversion.obj
 0001:000bf5f0       ?RGBA8888ToBGR888@ImageLoader@@YAXPAE0H@Z 004c05f0 f   bitmap:colorconversion.obj
 0001:000bf630       ?RGBA8888ToI8@ImageLoader@@YAXPAE0H@Z 004c0630 f   bitmap:colorconversion.obj
 0001:000bf6c0       ?RGBA8888ToIA88@ImageLoader@@YAXPAE0H@Z 004c06c0 f   bitmap:colorconversion.obj
 0001:000bf760       ?RGBA8888ToA8@ImageLoader@@YAXPAE0H@Z 004c0760 f   bitmap:colorconversion.obj
 0001:000bf790       ?RGBA8888ToRGB888_BLUESCREEN@ImageLoader@@YAXPAE0H@Z 004c0790 f   bitmap:colorconversion.obj
 0001:000bf7e0       ?RGBA8888ToBGR888_BLUESCREEN@ImageLoader@@YAXPAE0H@Z 004c07e0 f   bitmap:colorconversion.obj
 0001:000bf830       ?RGBA8888ToARGB8888@ImageLoader@@YAXPAE0H@Z 004c0830 f   bitmap:colorconversion.obj
 0001:000bf870       ?RGBA8888ToBGRA8888@ImageLoader@@YAXPAE0H@Z 004c0870 f   bitmap:colorconversion.obj
 0001:000bf8b0       ?RGBA8888ToBGRX8888@ImageLoader@@YAXPAE0H@Z 004c08b0 f   bitmap:colorconversion.obj
 0001:000bf8f0       ?RGBA8888ToBGR565@ImageLoader@@YAXPAE0H@Z 004c08f0 f   bitmap:colorconversion.obj
 0001:000bf960       ?RGBA8888ToBGRX5551@ImageLoader@@YAXPAE0H@Z 004c0960 f   bitmap:colorconversion.obj
 0001:000bf9c0       ?RGBA8888ToBGRA5551@ImageLoader@@YAXPAE0H@Z 004c09c0 f   bitmap:colorconversion.obj
 0001:000bfa30       ?RGBA8888ToBGRA4444@ImageLoader@@YAXPAE0H@Z 004c0a30 f   bitmap:colorconversion.obj
 0001:000bfaa0       ?RGBA8888ToUV88@ImageLoader@@YAXPAE0H@Z 004c0aa0 f   bitmap:colorconversion.obj
 0001:000bfad0       ?RGBA8888ToUVWQ8888@ImageLoader@@YAXPAE0H@Z 004c0ad0 f   bitmap:colorconversion.obj
 0001:000bfaf0       ?RGBA8888ToUVLX8888@ImageLoader@@YAXPAE0H@Z 004c0af0 f   bitmap:colorconversion.obj
 0001:000bfb10       ?ABGR8888ToRGBA8888@ImageLoader@@YAXPAE0H@Z 004c0b10 f   bitmap:colorconversion.obj
 0001:000bfb50       ?RGB888ToRGBA8888@ImageLoader@@YAXPAE0H@Z 004c0b50 f   bitmap:colorconversion.obj
 0001:000bfba0       ?BGR888ToRGBA8888@ImageLoader@@YAXPAE0H@Z 004c0ba0 f   bitmap:colorconversion.obj
 0001:000bfbf0       ?I8ToRGBA8888@ImageLoader@@YAXPAE0H@Z 004c0bf0 f   bitmap:colorconversion.obj
 0001:000bfc30       ?IA88ToRGBA8888@ImageLoader@@YAXPAE0H@Z 004c0c30 f   bitmap:colorconversion.obj
 0001:000bfc70       ?A8ToRGBA8888@ImageLoader@@YAXPAE0H@Z 004c0c70 f   bitmap:colorconversion.obj
 0001:000bfcb0       ?RGB888_BLUESCREENToRGBA8888@ImageLoader@@YAXPAE0H@Z 004c0cb0 f   bitmap:colorconversion.obj
 0001:000bfd10       ?BGR888_BLUESCREENToRGBA8888@ImageLoader@@YAXPAE0H@Z 004c0d10 f   bitmap:colorconversion.obj
 0001:000bfd70       ?ARGB8888ToRGBA8888@ImageLoader@@YAXPAE0H@Z 004c0d70 f   bitmap:colorconversion.obj
 0001:000bfdb0       ?BGRA8888ToRGBA8888@ImageLoader@@YAXPAE0H@Z 004c0db0 f   bitmap:colorconversion.obj
 0001:000bfdf0       ?BGRX8888ToRGBA8888@ImageLoader@@YAXPAE0H@Z 004c0df0 f   bitmap:colorconversion.obj
 0001:000bfe40       ?BGR565ToRGBA8888@ImageLoader@@YAXPAE0H@Z 004c0e40 f   bitmap:colorconversion.obj
 0001:000bfec0       ?BGRX5551ToRGBA8888@ImageLoader@@YAXPAE0H@Z 004c0ec0 f   bitmap:colorconversion.obj
 0001:000bff30       ?BGRA5551ToRGBA8888@ImageLoader@@YAXPAE0H@Z 004c0f30 f   bitmap:colorconversion.obj
 0001:000bffc0       ?BGRA4444ToRGBA8888@ImageLoader@@YAXPAE0H@Z 004c0fc0 f   bitmap:colorconversion.obj
 0001:000c0050       ?UV88ToRGBA8888@ImageLoader@@YAXPAE0H@Z 004c1050 f   bitmap:colorconversion.obj
 0001:000c0090       ?UVWQ8888ToRGBA8888@ImageLoader@@YAXPAE0H@Z 004c1090 f   bitmap:colorconversion.obj
 0001:000c00b0       ?UVLX8888ToRGBA8888@ImageLoader@@YAXPAE0H@Z 004c10b0 f   bitmap:colorconversion.obj
 0001:000c00d0       ?RGBA16161616ToRGBA8888@ImageLoader@@YAXPAE0H@Z 004c10d0 f   bitmap:colorconversion.obj
 0001:000c01a0       ??$DecodeColorBlock@URGBA8888_t@@@ImageLoader@@YAXPAURGBA8888_t@@PAUDXTColBlock@0@HPAUBGRA8888_t@@222@Z 004c11a0 f   bitmap:colorconversion.obj
 0001:000c02e0       ??$DecodeColorBlock@UBGRA8888_t@@@ImageLoader@@YAXPAUBGRA8888_t@@PAUDXTColBlock@0@H0000@Z 004c12e0 f   bitmap:colorconversion.obj
 0001:000c03b0       ??$DecodeColorBlock@URGB888_t@@@ImageLoader@@YAXPAURGB888_t@@PAUDXTColBlock@0@HPAUBGRA8888_t@@222@Z 004c13b0 f   bitmap:colorconversion.obj
 0001:000c04c0       ??$DecodeColorBlock@UBGR888_t@@@ImageLoader@@YAXPAUBGR888_t@@PAUDXTColBlock@0@HPAUBGRA8888_t@@222@Z 004c14c0 f   bitmap:colorconversion.obj
 0001:000c05c0       ??$DecodeColorBlock@UBGR565_t@@@ImageLoader@@YAXPAUBGR565_t@@PAUDXTColBlock@0@HPAUBGRA8888_t@@222@Z 004c15c0 f   bitmap:colorconversion.obj
 0001:000c07b0       ??$DecodeColorBlock@UBGRA5551_t@@@ImageLoader@@YAXPAUBGRA5551_t@@PAUDXTColBlock@0@HPAUBGRA8888_t@@222@Z 004c17b0 f   bitmap:colorconversion.obj
 0001:000c0880       ??$DecodeColorBlock@UBGRA4444_t@@@ImageLoader@@YAXPAUBGRA4444_t@@PAUDXTColBlock@0@HPAUBGRA8888_t@@222@Z 004c1880 f   bitmap:colorconversion.obj
 0001:000c0950       ??$DecodeAlpha3BitLinear@URGBA8888_t@@@ImageLoader@@YAXPAURGBA8888_t@@PAUDXTAlphaBlock3BitLinear@0@H@Z 004c1950 f   bitmap:colorconversion.obj
 0001:000c0c40       ??$DecodeAlpha3BitLinear@UBGRA8888_t@@@ImageLoader@@YAXPAUBGRA8888_t@@PAUDXTAlphaBlock3BitLinear@0@H@Z 004c1c40 f   bitmap:colorconversion.obj
 0001:000c0f30       ??$DecodeAlpha3BitLinear@UBGRA5551_t@@@ImageLoader@@YAXPAUBGRA5551_t@@PAUDXTAlphaBlock3BitLinear@0@H@Z 004c1f30 f   bitmap:colorconversion.obj
 0001:000c1250       ??$DecodeAlpha3BitLinear@UBGRA4444_t@@@ImageLoader@@YAXPAUBGRA4444_t@@PAUDXTAlphaBlock3BitLinear@0@H@Z 004c2250 f   bitmap:colorconversion.obj
 0001:000c15a0       ?GetUserFormatToRGBA8888Func_t@ImageLoader@@YAP6AXPAE0H@ZW4ImageFormat@@@Z 004c25a0 f   bitmap:colorconversion.obj
 0001:000c16a0       ?GetRGBA8888ToUserFormatFunc_t@ImageLoader@@YAP6AXPAE0H@ZW4ImageFormat@@@Z 004c26a0 f   bitmap:colorconversion.obj
 0001:000c1a00       ??$ConvertFromDXT1@URGBA8888_t@@@ImageLoader@@YAXPAEPAURGBA8888_t@@HH@Z 004c2a00 f   bitmap:colorconversion.obj
 0001:000c1b70       ??$ConvertFromDXT1@UBGRA8888_t@@@ImageLoader@@YAXPAEPAUBGRA8888_t@@HH@Z 004c2b70 f   bitmap:colorconversion.obj
 0001:000c1cf0       ??$ConvertFromDXT1@URGB888_t@@@ImageLoader@@YAXPAEPAURGB888_t@@HH@Z 004c2cf0 f   bitmap:colorconversion.obj
 0001:000c1e60       ??$ConvertFromDXT1@UBGR888_t@@@ImageLoader@@YAXPAEPAUBGR888_t@@HH@Z 004c2e60 f   bitmap:colorconversion.obj
 0001:000c1fd0       ??$ConvertFromDXT1@UBGR565_t@@@ImageLoader@@YAXPAEPAUBGR565_t@@HH@Z 004c2fd0 f   bitmap:colorconversion.obj
 0001:000c2130       ??$ConvertFromDXT1@UBGRA5551_t@@@ImageLoader@@YAXPAEPAUBGRA5551_t@@HH@Z 004c3130 f   bitmap:colorconversion.obj
 0001:000c2290       ??$ConvertFromDXT1@UBGRA4444_t@@@ImageLoader@@YAXPAEPAUBGRA4444_t@@HH@Z 004c3290 f   bitmap:colorconversion.obj
 0001:000c23f0       ??$ConvertFromDXT5@URGBA8888_t@@@ImageLoader@@YAXPAEPAURGBA8888_t@@HH@Z 004c33f0 f   bitmap:colorconversion.obj
 0001:000c2570       ??$ConvertFromDXT5@UBGRA8888_t@@@ImageLoader@@YAXPAEPAUBGRA8888_t@@HH@Z 004c3570 f   bitmap:colorconversion.obj
 0001:000c26f0       ??$ConvertFromDXT5IgnoreAlpha@URGB888_t@@@ImageLoader@@YAXPAEPAURGB888_t@@HH@Z 004c36f0 f   bitmap:colorconversion.obj
 0001:000c2860       ??$ConvertFromDXT5IgnoreAlpha@UBGR888_t@@@ImageLoader@@YAXPAEPAUBGR888_t@@HH@Z 004c3860 f   bitmap:colorconversion.obj
 0001:000c29d0       ??$ConvertFromDXT5IgnoreAlpha@UBGR565_t@@@ImageLoader@@YAXPAEPAUBGR565_t@@HH@Z 004c39d0 f   bitmap:colorconversion.obj
 0001:000c2b30       ??$ConvertFromDXT5@UBGRA5551_t@@@ImageLoader@@YAXPAEPAUBGRA5551_t@@HH@Z 004c3b30 f   bitmap:colorconversion.obj
 0001:000c2cb0       ??$ConvertFromDXT5@UBGRA4444_t@@@ImageLoader@@YAXPAEPAUBGRA4444_t@@HH@Z 004c3cb0 f   bitmap:colorconversion.obj
 0001:000c34e0       ?ConstructFloatGammaTable@ImageLoader@@YAXPAMMM@Z 004c44e0 f   bitmap:resample.obj
 0001:000c3780       ?GenerateNiceFilter@ImageLoader@@YAXMMMHPAM0@Z 004c4780 f   bitmap:resample.obj
 0001:000c3bc0       ?Clamp@ImageLoader@@YAEM@Z 004c4bc0 f   bitmap:resample.obj
 0001:000c8824       _xtoa@16                   004c9824 f   LIBCMT:xtoa.obj
 0001:000c88c9       @x64toa@20                 004c98c9 f   LIBCMT:xtoa.obj
 0001:000c8d70       ?_strupr_s_l_stat@@YAHPADIPAUlocaleinfo_struct@@@Z 004c9d70 f   LIBCMT:strupr.obj
 0001:000c8fab       ?wcsncnt@@YAIPB_WI@Z       004c9fab f   LIBCMT:wcstombs.obj
 0001:000c9a43       __tsopen_nolock            004caa43 f   LIBCMT:wopen.obj
 0001:000ca5fd       ?wcsncnt@@YAHPB_WH@Z       004cb5fd f   LIBCMT:w_map.obj
 0001:000ca619       ?__crtLCMapStringW_stat@@YAHPAUlocaleinfo_struct@@KKPB_WHPA_WHH@Z 004cb619 f   LIBCMT:w_map.obj
 0001:000ca8e0       __ehhandler$?_Buynode@?$list@PAV?$vector@GV?$allocator@G@std@@@std@@V?$allocator@PAV?$vector@GV?$allocator@G@std@@@std@@@2@@std@@IAEPAU_Node@?$_List_nod@PAV?$vector@GV?$allocator@G@std@@@std@@V?$allocator@PAV?$vector@GV?$allocator@G@std@@@std@@@2@@2@XZ 004cb8e0 f   mstristrip.obj
 0001:000ca8f0       __ehhandler$?_Buynode@?$list@PAV?$vector@GV?$allocator@G@std@@@std@@V?$allocator@PAV?$vector@GV?$allocator@G@std@@@std@@@2@@std@@IAEPAU_Node@?$_List_nod@PAV?$vector@GV?$allocator@G@std@@@std@@V?$allocator@PAV?$vector@GV?$allocator@G@std@@@std@@@2@@2@PAU342@0ABQAV?$vector@GV?$allocator@G@std@@@2@@Z 004cb8f0 f   mstristrip.obj
 0001:000ca900       __ehhandler$?_Copy@?$basic_string@DU?$char_traits@D@std@@V?$allocator@D@2@@std@@IAEXII@Z 004cb900 f   mstristrip.obj
 0001:000ca910       __ehhandler$?_Construct_n@?$vector@GV?$allocator@G@std@@@std@@QAEXIABG@Z 004cb910 f   mstristrip.obj
 0001:000ca920       __ehhandler$??$_Insert@V?$_Const_iterator@$00@?$list@PAV?$vector@GV?$allocator@G@std@@@std@@V?$allocator@PAV?$vector@GV?$allocator@G@std@@@std@@@2@@std@@@?$list@PAV?$vector@GV?$allocator@G@std@@@std@@V?$allocator@PAV?$vector@GV?$allocator@G@std@@@std@@@2@@std@@QAEXV?$_Iterator@$00@01@V?$_Const_iterator@$00@01@1Uforward_iterator_tag@1@@Z 004cb920 f   mstristrip.obj
 0001:000ca930       __unwindfunclet$??0CUtlBuffer@@QAE@HHH@Z$0 004cb930 f   tier1:utlbuffer.obj
 0001:000ca938       __ehhandler$??0CUtlBuffer@@QAE@HHH@Z 004cb938 f   tier1:utlbuffer.obj
 0001:000ca960       __unwindfunclet$??0CUtlBuffer@@QAE@PBXHH@Z$0 004cb960 f   tier1:utlbuffer.obj
 0001:000ca968       __ehhandler$??0CUtlBuffer@@QAE@PBXHH@Z 004cb968 f   tier1:utlbuffer.obj
 0001:000ca990       __unwindfunclet$??1?$CUtlRBTree@VCStringPoolIndex@CUtlSymbolTable@@GVCLess@2@@@QAE@XZ$0 004cb990 f   tier1:utlsymbol.obj
 0001:000ca99b       __ehhandler$??1?$CUtlRBTree@VCStringPoolIndex@CUtlSymbolTable@@GVCLess@2@@@QAE@XZ 004cb99b f   tier1:utlsymbol.obj
 0001:000ca9c0       __unwindfunclet$??1?$CUtlVector@PAUStringPool_t@CUtlSymbolTable@@V?$CUtlMemory@PAUStringPool_t@CUtlSymbolTable@@@@@@QAE@XZ$0 004cb9c0 f   tier1:utlsymbol.obj
 0001:000ca9c8       __ehhandler$??1?$CUtlVector@PAUStringPool_t@CUtlSymbolTable@@V?$CUtlMemory@PAUStringPool_t@CUtlSymbolTable@@@@@@QAE@XZ 004cb9c8 f   tier1:utlsymbol.obj
 0001:000ca9f0       __unwindfunclet$??0CUtlSymbolTable@@QAE@HH_N@Z$0 004cb9f0 f   tier1:utlsymbol.obj
 0001:000ca9f8       __ehhandler$??0CUtlSymbolTable@@QAE@HH_N@Z 004cb9f8 f   tier1:utlsymbol.obj
 0001:000caa20       __unwindfunclet$??1CUtlSymbolTable@@QAE@XZ$0 004cba20 f   tier1:utlsymbol.obj
 0001:000caa28       __unwindfunclet$??1CUtlSymbolTable@@QAE@XZ$1 004cba28 f   tier1:utlsymbol.obj
 0001:000caa33       __ehhandler$??1CUtlSymbolTable@@QAE@XZ 004cba33 f   tier1:utlsymbol.obj
 0001:000caa50       __unwindfunclet$?Initialize@CUtlSymbol@@KAXXZ$0 004cba50 f   tier1:utlsymbol.obj
 0001:000caa5b       __ehhandler$?Initialize@CUtlSymbol@@KAXXZ 004cba5b f   tier1:utlsymbol.obj
 0001:000caa80       __unwindfunclet$?LoadFromFile@KeyValues@@QAE_NPAVIBaseFileSystem@@PBD1@Z$0 004cba80 f   tier1:KeyValues.obj
 0001:000caa88       __ehhandler$?LoadFromFile@KeyValues@@QAE_NPAVIBaseFileSystem@@PBD1@Z 004cba88 f   tier1:KeyValues.obj
 0001:000caab0       __unwindfunclet$?FindKey@KeyValues@@QAEPAV1@PBD_N@Z$0 004cbab0 f   tier1:KeyValues.obj
 0001:000caabe       __ehhandler$?FindKey@KeyValues@@QAEPAV1@PBD_N@Z 004cbabe f   tier1:KeyValues.obj
 0001:000caaf0       __unwindfunclet$?RecursiveCopyKeyValues@KeyValues@@AAEXAAV1@@Z$0 004cbaf0 f   tier1:KeyValues.obj
 0001:000caafe       __unwindfunclet$?RecursiveCopyKeyValues@KeyValues@@AAEXAAV1@@Z$1 004cbafe f   tier1:KeyValues.obj
 0001:000cab0c       __ehhandler$?RecursiveCopyKeyValues@KeyValues@@AAEXAAV1@@Z 004cbb0c f   tier1:KeyValues.obj
 0001:000cab40       __unwindfunclet$?MakeCopy@KeyValues@@QBEPAV1@XZ$0 004cbb40 f   tier1:KeyValues.obj
 0001:000cab4b       __ehhandler$?MakeCopy@KeyValues@@QBEPAV1@XZ 004cbb4b f   tier1:KeyValues.obj
 0001:000cab70       __unwindfunclet$?CreateKey@KeyValues@@AAEPAV1@PBD@Z$0 004cbb70 f   tier1:KeyValues.obj
 0001:000cab7b       __ehhandler$?CreateKey@KeyValues@@AAEPAV1@PBD@Z 004cbb7b f   tier1:KeyValues.obj
 0001:000caba0       __unwindfunclet$?RecursiveLoadFromBuffer@KeyValues@@AAEXPBDAAVCUtlBuffer@@@Z$0 004cbba0 f   tier1:KeyValues.obj
 0001:000caba8       __unwindfunclet$?RecursiveLoadFromBuffer@KeyValues@@AAEXPBDAAVCUtlBuffer@@@Z$1 004cbba8 f   tier1:KeyValues.obj
 0001:000cabb0       __ehhandler$?RecursiveLoadFromBuffer@KeyValues@@AAEXPBDAAVCUtlBuffer@@@Z 004cbbb0 f   tier1:KeyValues.obj
 0001:000cabd0       __unwindfunclet$?ReadAsBinary@KeyValues@@QAE_NAAVCUtlBuffer@@@Z$0 004cbbd0 f   tier1:KeyValues.obj
 0001:000cabde       __unwindfunclet$?ReadAsBinary@KeyValues@@QAE_NAAVCUtlBuffer@@@Z$1 004cbbde f   tier1:KeyValues.obj
 0001:000cabec       __ehhandler$?ReadAsBinary@KeyValues@@QAE_NAAVCUtlBuffer@@@Z 004cbbec f   tier1:KeyValues.obj
 0001:000cac20       __unwindfunclet$??1?$CUtlVector@PAVKeyValues@@V?$CUtlMemory@PAVKeyValues@@@@@@QAE@XZ$0 004cbc20 f   tier1:KeyValues.obj
 0001:000cac28       __ehhandler$??1?$CUtlVector@PAVKeyValues@@V?$CUtlMemory@PAVKeyValues@@@@@@QAE@XZ 004cbc28 f   tier1:KeyValues.obj
 0001:000cac50       __unwindfunclet$?ParseIncludedKeys@KeyValues@@AAEXPBD0PAVIBaseFileSystem@@0AAV?$CUtlVector@PAVKeyValues@@V?$CUtlMemory@PAVKeyValues@@@@@@@Z$0 004cbc50 f   tier1:KeyValues.obj
 0001:000cac5e       __ehhandler$?ParseIncludedKeys@KeyValues@@AAEXPBD0PAVIBaseFileSystem@@0AAV?$CUtlVector@PAVKeyValues@@V?$CUtlMemory@PAVKeyValues@@@@@@@Z 004cbc5e f   tier1:KeyValues.obj
 0001:000cac90       __unwindfunclet$?LoadFromBuffer@KeyValues@@QAE_NPBDAAVCUtlBuffer@@PAVIBaseFileSystem@@0@Z$0 004cbc90 f   tier1:KeyValues.obj
 0001:000cac98       __unwindfunclet$?LoadFromBuffer@KeyValues@@QAE_NPBDAAVCUtlBuffer@@PAVIBaseFileSystem@@0@Z$1 004cbc98 f   tier1:KeyValues.obj
 0001:000caca3       __ehhandler$?LoadFromBuffer@KeyValues@@QAE_NPBDAAVCUtlBuffer@@PAVIBaseFileSystem@@0@Z 004cbca3 f   tier1:KeyValues.obj
 0001:000cacc0       __unwindfunclet$?LoadFromBuffer@KeyValues@@QAE_NPBD0PAVIBaseFileSystem@@0@Z$0 004cbcc0 f   tier1:KeyValues.obj
 0001:000cacc8       __ehhandler$?LoadFromBuffer@KeyValues@@QAE_NPBD0PAVIBaseFileSystem@@0@Z 004cbcc8 f   tier1:KeyValues.obj
 0001:000cacf0       __unwindfunclet$??0?$basic_streambuf@DU?$char_traits@D@std@@@std@@IAE@XZ$0 004cbcf0 f   tier1:tokenreader.obj
 0001:000cacfb       __ehhandler$??0?$basic_streambuf@DU?$char_traits@D@std@@@std@@IAE@XZ 004cbcfb f   tier1:tokenreader.obj
 0001:000cad20       __unwindfunclet$??0?$ctype@D@std@@QAE@PBF_NI@Z$0 004cbd20 f   tier1:tokenreader.obj
 0001:000cad2b       __ehhandler$??0?$ctype@D@std@@QAE@PBF_NI@Z 004cbd2b f   tier1:tokenreader.obj
 0001:000cad60       __unwindfunclet$?_Getcat@?$ctype@D@std@@SAIPAPBVfacet@locale@2@@Z$0 004cbd60 f   tier1:tokenreader.obj
 0001:000cad6b       __ehhandler$?_Getcat@?$ctype@D@std@@SAIPAPBVfacet@locale@2@@Z 004cbd6b f   tier1:tokenreader.obj
 0001:000cad90       __unwindfunclet$?clear@ios_base@std@@QAEXH_N@Z$0 004cbd90 f   tier1:tokenreader.obj
 0001:000cad98       __unwindfunclet$?clear@ios_base@std@@QAEXH_N@Z$1 004cbd98 f   tier1:tokenreader.obj
 0001:000cada0       __unwindfunclet$?clear@ios_base@std@@QAEXH_N@Z$2 004cbda0 f   tier1:tokenreader.obj
 0001:000cada8       __ehhandler$?clear@ios_base@std@@QAEXH_N@Z 004cbda8 f   tier1:tokenreader.obj
 0001:000cadd0       __unwindfunclet$??$use_facet@V?$ctype@D@std@@@std@@YAABV?$ctype@D@0@ABVlocale@0@@Z$0 004cbdd0 f   tier1:tokenreader.obj
 0001:000cadd8       __ehhandler$??$use_facet@V?$ctype@D@std@@@std@@YAABV?$ctype@D@0@ABVlocale@0@@Z 004cbdd8 f   tier1:tokenreader.obj
 0001:000cae00       __unwindfunclet$?_Ipfx@?$basic_istream@DU?$char_traits@D@std@@@std@@QAE_N_N@Z$2 004cbe00 f   tier1:tokenreader.obj
 0001:000cae08       __ehhandler$?_Ipfx@?$basic_istream@DU?$char_traits@D@std@@@std@@QAE_N_N@Z 004cbe08 f   tier1:tokenreader.obj
 0001:000cae30       __unwindfunclet$?widen@?$basic_ios@DU?$char_traits@D@std@@@std@@QBEDD@Z$0 004cbe30 f   tier1:tokenreader.obj
 0001:000cae38       __ehhandler$?widen@?$basic_ios@DU?$char_traits@D@std@@@std@@QBEDD@Z 004cbe38 f   tier1:tokenreader.obj
 0001:000cae60       __unwindfunclet$??0sentry@?$basic_istream@DU?$char_traits@D@std@@@std@@QAE@AAV12@_N@Z$0 004cbe60 f   tier1:tokenreader.obj
 0001:000cae68       __ehhandler$??0sentry@?$basic_istream@DU?$char_traits@D@std@@@std@@QAE@AAV12@_N@Z 004cbe68 f   tier1:tokenreader.obj
 0001:000cae90       __unwindfunclet$?get@?$basic_istream@DU?$char_traits@D@std@@@std@@QAEHXZ$2 004cbe90 f   tier1:tokenreader.obj
 0001:000cae98       __ehhandler$?get@?$basic_istream@DU?$char_traits@D@std@@@std@@QAEHXZ 004cbe98 f   tier1:tokenreader.obj
 0001:000caec0       __unwindfunclet$?get@?$basic_istream@DU?$char_traits@D@std@@@std@@QAEAAV12@PADHD@Z$2 004cbec0 f   tier1:tokenreader.obj
 0001:000caec8       __ehhandler$?get@?$basic_istream@DU?$char_traits@D@std@@@std@@QAEAAV12@PADHD@Z 004cbec8 f   tier1:tokenreader.obj
 0001:000caef0       __unwindfunclet$?ignore@?$basic_istream@DU?$char_traits@D@std@@@std@@QAEAAV12@HH@Z$2 004cbef0 f   tier1:tokenreader.obj
 0001:000caef8       __ehhandler$?ignore@?$basic_istream@DU?$char_traits@D@std@@@std@@QAEAAV12@HH@Z 004cbef8 f   tier1:tokenreader.obj
 0001:000caf20       __unwindfunclet$?peek@?$basic_istream@DU?$char_traits@D@std@@@std@@QAEHXZ$2 004cbf20 f   tier1:tokenreader.obj
 0001:000caf28       __ehhandler$?peek@?$basic_istream@DU?$char_traits@D@std@@@std@@QAEHXZ 004cbf28 f   tier1:tokenreader.obj
 0001:000caf50       __unwindfunclet$?putback@?$basic_istream@DU?$char_traits@D@std@@@std@@QAEAAV12@D@Z$2 004cbf50 f   tier1:tokenreader.obj
 0001:000caf58       __ehhandler$?putback@?$basic_istream@DU?$char_traits@D@std@@@std@@QAEAAV12@D@Z 004cbf58 f   tier1:tokenreader.obj
 0001:000caf80       __unwindfunclet$??0?$basic_istream@DU?$char_traits@D@std@@@std@@QAE@PAV?$basic_streambuf@DU?$char_traits@D@std@@@1@_N@Z$0 004cbf80 f   tier1:tokenreader.obj
 0001:000caf9c       __ehhandler$??0?$basic_istream@DU?$char_traits@D@std@@@std@@QAE@PAV?$basic_streambuf@DU?$char_traits@D@std@@@1@_N@Z 004cbf9c f   tier1:tokenreader.obj
 0001:000cafc0       __unwindfunclet$?open@?$basic_filebuf@DU?$char_traits@D@std@@@std@@QAEPAV12@PBDHH@Z$0 004cbfc0 f   tier1:tokenreader.obj
 0001:000cafc8       __ehhandler$?open@?$basic_filebuf@DU?$char_traits@D@std@@@std@@QAEPAV12@PBDHH@Z 004cbfc8 f   tier1:tokenreader.obj
 0001:000caff0       __unwindfunclet$??0?$basic_ifstream@DU?$char_traits@D@std@@@std@@QAE@XZ$0 004cbff0 f   tier1:tokenreader.obj
 0001:000cb00c       __unwindfunclet$??0?$basic_ifstream@DU?$char_traits@D@std@@@std@@QAE@XZ$1 004cc00c f   tier1:tokenreader.obj
 0001:000cb017       __ehhandler$??0?$basic_ifstream@DU?$char_traits@D@std@@@std@@QAE@XZ 004cc017 f   tier1:tokenreader.obj
 0001:000cb040       __unwindfunclet$??0TokenReader@@QAE@XZ$0 004cc040 f   tier1:tokenreader.obj
 0001:000cb05f       __ehhandler$??0TokenReader@@QAE@XZ 004cc05f f   tier1:tokenreader.obj
 0001:000cb080       __unwindfunclet$??1?$CUtlVector@Uhash_item_t@CCountedStringPool@@V?$CUtlMemory@Uhash_item_t@CCountedStringPool@@@@@@QAE@XZ$0 004cc080 f   tier1:stringpool.obj
 0001:000cb088       __ehhandler$??1?$CUtlVector@Uhash_item_t@CCountedStringPool@@V?$CUtlMemory@Uhash_item_t@CCountedStringPool@@@@@@QAE@XZ 004cc088 f   tier1:stringpool.obj
 0001:000cb0b0       __unwindfunclet$??1?$CUtlRBTree@PBDGP6A_NABQBD0@Z@@QAE@XZ$0 004cc0b0 f   tier1:stringpool.obj
 0001:000cb0bb       __ehhandler$??1?$CUtlRBTree@PBDGP6A_NABQBD0@Z@@QAE@XZ 004cc0bb f   tier1:stringpool.obj
 0001:000cb0e0       __unwindfunclet$??1CStringPool@@QAE@XZ$0 004cc0e0 f   tier1:stringpool.obj
 0001:000cb0e8       __ehhandler$??1CStringPool@@QAE@XZ 004cc0e8 f   tier1:stringpool.obj
 0001:000cb110       __unwindfunclet$??0CCountedStringPool@@QAE@XZ$0 004cc110 f   tier1:stringpool.obj
 0001:000cb11b       __unwindfunclet$??0CCountedStringPool@@QAE@XZ$1 004cc11b f   tier1:stringpool.obj
 0001:000cb126       __ehhandler$??0CCountedStringPool@@QAE@XZ 004cc126 f   tier1:stringpool.obj
 0001:000cb150       __unwindfunclet$??1CCountedStringPool@@UAE@XZ$0 004cc150 f   tier1:stringpool.obj
 0001:000cb15b       __unwindfunclet$??1CCountedStringPool@@UAE@XZ$1 004cc15b f   tier1:stringpool.obj
 0001:000cb166       __ehhandler$??1CCountedStringPool@@UAE@XZ 004cc166 f   tier1:stringpool.obj
 0001:000cb190       __unwindfunclet$??1ConVar@@UAE@XZ$0 004cc190 f   tier1:convar.obj
 0001:000cb198       __ehhandler$??1ConVar@@UAE@XZ 004cc198 f   tier1:convar.obj
 0001:000cb1c0       __unwindfunclet$??0ConCommand@@QAE@PBDP6AXXZ0HP6AH0QAY0EA@D@Z@Z$0 004cc1c0 f   tier1:convar.obj
 0001:000cb1c8       __ehhandler$??0ConCommand@@QAE@PBDP6AXXZ0HP6AH0QAY0EA@D@Z@Z 004cc1c8 f   tier1:convar.obj
 0001:000cb1f0       __unwindfunclet$??0ConVar@@QAE@PBD0H@Z$0 004cc1f0 f   tier1:convar.obj
 0001:000cb1f8       __ehhandler$??0ConVar@@QAE@PBD0H@Z 004cc1f8 f   tier1:convar.obj
 0001:000cb220       __unwindfunclet$??0ConVar@@QAE@PBD0H0@Z$0 004cc220 f   tier1:convar.obj
 0001:000cb228       __ehhandler$??0ConVar@@QAE@PBD0H0@Z 004cc228 f   tier1:convar.obj
 0001:000cb250       __unwindfunclet$??0ConVar@@QAE@PBD0H0_NM1M@Z$0 004cc250 f   tier1:convar.obj
 0001:000cb258       __ehhandler$??0ConVar@@QAE@PBD0H0_NM1M@Z 004cc258 f   tier1:convar.obj
 0001:000cb280       __unwindfunclet$??0ConVar@@QAE@PBD0H0P6AXPAV0@0@Z@Z$0 004cc280 f   tier1:convar.obj
 0001:000cb288       __ehhandler$??0ConVar@@QAE@PBD0H0P6AXPAV0@0@Z@Z 004cc288 f   tier1:convar.obj
 0001:000cb2b0       __unwindfunclet$??0ConVar@@QAE@PBD0H0_NM1MP6AXPAV0@0@Z@Z$0 004cc2b0 f   tier1:convar.obj
 0001:000cb2b8       __ehhandler$??0ConVar@@QAE@PBD0H0_NM1MP6AXPAV0@0@Z@Z 004cc2b8 f   tier1:convar.obj
 0001:000cb2d3       __ehhandler$?CallUnexpected@@YAXPBU_s_ESTypeList@@@Z 004cc2d3 f   LIBCMT:frame.obj
 0001:000cb2ee       __unwindfunclet$?_Xlen@_String_base@std@@SAXXZ$0 004cc2ee f   libcpmt:string.obj
 0001:000cb2f6       __ehhandler$?_Xlen@_String_base@std@@SAXXZ 004cc2f6 f   libcpmt:string.obj
 0001:000cb311       __unwindfunclet$?_Xran@_String_base@std@@SAXXZ$0 004cc311 f   libcpmt:string.obj
 0001:000cb319       __ehhandler$?_Xran@_String_base@std@@SAXXZ 004cc319 f   libcpmt:string.obj
 0001:000cb334       __unwindfunclet$?_Xinvarg@_String_base@std@@SAXXZ$0 004cc334 f   libcpmt:string.obj
 0001:000cb33c       __ehhandler$?_Xinvarg@_String_base@std@@SAXXZ 004cc33c f   libcpmt:string.obj
 0001:000cb357       __unwindfunclet$?_Locimp_dtor@_Locimp@locale@std@@CAXPAV123@@Z$0 004cc357 f   libcpmt:locale0.obj
 0001:000cb35f       __ehhandler$?_Locimp_dtor@_Locimp@locale@std@@CAXPAV123@@Z 004cc35f f   libcpmt:locale0.obj
 0001:000cb37a       __unwindfunclet$??0_Locimp@locale@std@@AAE@_N@Z$0 004cc37a f   libcpmt:locale0.obj
 0001:000cb382       __ehhandler$??0_Locimp@locale@std@@AAE@_N@Z 004cc382 f   libcpmt:locale0.obj
 0001:000cb39d       __unwindfunclet$??1_Locimp@locale@std@@MAE@XZ$0 004cc39d f   libcpmt:locale0.obj
 0001:000cb3a5       __unwindfunclet$??1_Locimp@locale@std@@MAE@XZ$1 004cc3a5 f   libcpmt:locale0.obj
 0001:000cb3b0       __ehhandler$??1_Locimp@locale@std@@MAE@XZ 004cc3b0 f   libcpmt:locale0.obj
 0001:000cb3cb       __unwindfunclet$?_Init@locale@std@@CAPAV_Locimp@12@XZ$0 004cc3cb f   libcpmt:locale0.obj
 0001:000cb3d3       __unwindfunclet$?_Init@locale@std@@CAPAV_Locimp@12@XZ$1 004cc3d3 f   libcpmt:locale0.obj
 0001:000cb3dd       __ehhandler$?_Init@locale@std@@CAPAV_Locimp@12@XZ 004cc3dd f   libcpmt:locale0.obj
 0001:000cb3f8       __unwindfunclet$?empty@locale@std@@SA?AV12@XZ$0 004cc3f8 f   libcpmt:locale0.obj
 0001:000cb402       __ehhandler$?empty@locale@std@@SA?AV12@XZ 004cc402 f   libcpmt:locale0.obj
 0001:000cb420       __unwindfunclet$?GenerateMipmapLevels@ImageLoader@@YAXPAE0HHHW4ImageFormat@@MMH@Z$0 004cc420 f   bitmap:resample.obj
 0001:000cb428       __ehhandler$?GenerateMipmapLevels@ImageLoader@@YAXPAE0HHHW4ImageFormat@@MMH@Z 004cc428 f   bitmap:resample.obj
 0001:000cb450       ??__Es_EnvCubemapToBrushSides@@YAXXZ 004cc450 f   cubemap.obj
 0001:000cb460       ??__Es_DefaultCubemapNames@@YAXXZ 004cc460 f   cubemap.obj
 0001:000cb470       ??__Es_DetailObjectDict@@YAXXZ 004cc470 f   detailObjects.obj
 0001:000cb480       ??__Es_StaticPropLookup@@YAXXZ 004cc480 f   detailObjects.obj
 0001:000cb4d0       ??__Es_DetailObjectDictLump@@YAXXZ 004cc4d0 f   detailObjects.obj
 0001:000cb4e0       ??__Es_DetailObjectLump@@YAXXZ 004cc4e0 f   detailObjects.obj
 0001:000cb4f0       ??__Es_DetailSpriteDictLump@@YAXXZ 004cc4f0 f   detailObjects.obj
 0001:000cb500       ??__EgDispGridList@@YAXXZ  004cc500 f   disp_ivp.obj
 0001:000cb510       ??__Eg_TesselateVerts@@YAXXZ 004cc510 f   disp_powerinfo.obj
 0001:000cb5d0       ??__Eg_VertInfo_5x5@@YAXXZ 004cc5d0 f   disp_powerinfo.obj
 0001:000cb600       ??__Eg_VertInfo_9x9@@YAXXZ 004cc600 f   disp_powerinfo.obj
 0001:000cb630       ??__Eg_VertInfo_17x17@@YAXXZ 004cc630 f   disp_powerinfo.obj
 0001:000cb660       ??__Eg_PowerInfoInitializer@@YAXXZ 004cc660 f   disp_powerinfo.obj
 0001:000cb670       ??__Eg_CoreDispInfos@@YAXXZ 004cc670 f   disp_vbsp.obj
 0001:000cb680       ??__Eg_VertEdgeList@@YAXXZ 004cc680 f   faces.obj
 0001:000cb6c0       ??__Es_WorldPropList@@YAXXZ 004cc6c0 f   ivp.obj
 0001:000cb6d0       ??__Eg_WaterTexInfos@@YAXXZ 004cc6d0 f   ivp.obj
 0001:000cb720       ??__Eg_WaterModels@@YAXXZ  004cc720 f   ivp.obj
 0001:000cb730       ??__Eg_WaterLeafList@@YAXXZ 004cc730 f   ivp.obj
 0001:000cb740       ??__Ebrushsides@@YAXXZ     004cc740 f   map.obj
 0001:000cb790       ??__Eside_brushtextures@@YAXXZ 004cc790 f   map.obj
 0001:000cb7d0       ??__Emapplanes@@YAXXZ      004cc7d0 f   map.obj
 0001:000cb7f0       ??__Eg_NoDynamicShadowSides@@YAXXZ 004cc7f0 f   map.obj
 0001:000cb800       ??__Es_SymbolTable@@YAXXZ  004cc800 f   materialpatch.obj
 0001:000cb820       ??__Es_MapPatchedMatToOriginalMat@@YAXXZ 004cc820 f   materialpatch.obj
 0001:000cb870       ??__Eg_aMapOverlays@@YAXXZ 004cc870 f   overlay.obj
 0001:000cb880       ??__Eg_aMapWaterOverlays@@YAXXZ 004cc880 f   overlay.obj
 0001:000cb890       ??__Es_StaticPropDictLump@@YAXXZ 004cc890 f   StaticProp.obj
 0001:000cb8a0       ??__Es_StaticPropLump@@YAXXZ 004cc8a0 f   StaticProp.obj
 0001:000cb8b0       ??__Es_StaticPropLeafLump@@YAXXZ 004cc8b0 f   StaticProp.obj
 0001:000cb8c0       ??__Es_ModelCollisionCache@@YAXXZ 004cc8c0 f   StaticProp.obj
 0001:000cb910       ??__Es_LightingInfo@@YAXXZ 004cc910 f   StaticProp.obj
 0001:000cb920       ??__Eg_OccluderInfo@@YAXXZ 004cc920 f   vbsp.obj
 0001:000cb930       ??__Eg_ZipUtils@@YAXXZ     004cc930 f   zip_utils.obj
 0001:000cb990       ??__EdlightdataHDR@@YAXXZ  004cc990 f   bsplib.obj
 0001:000cb9a0       ??__EdlightdataLDR@@YAXXZ  004cc9a0 f   bsplib.obj
 0001:000cb9b0       ??__Edentdata@@YAXXZ       004cc9b0 f   bsplib.obj
 0001:000cb9c0       ??__Eg_LeafAmbientLightingLDR@@YAXXZ 004cc9c0 f   bsplib.obj
 0001:000cb9d0       ??__Eg_LeafAmbientLightingHDR@@YAXXZ 004cc9d0 f   bsplib.obj
 0001:000cb9e0       ??__Etexinfo@@YAXXZ        004cc9e0 f   bsplib.obj
 0001:000cb9f0       ??__Eg_dispinfo@@YAXXZ     004cc9f0 f   bsplib.obj
 0001:000cba00       ??__Eg_DispVerts@@YAXXZ    004cca00 f   bsplib.obj
 0001:000cba10       ??__Eg_DispTris@@YAXXZ     004cca10 f   bsplib.obj
 0001:000cba20       ??__Eg_DispLightmapSamplePositions@@YAXXZ 004cca20 f   bsplib.obj
 0001:000cba30       ??__Eg_FaceMacroTextureInfos@@YAXXZ 004cca30 f   bsplib.obj
 0001:000cba40       ??__Eg_TexDataStringData@@YAXXZ 004cca40 f   bsplib.obj
 0001:000cba50       ??__Eg_TexDataStringTable@@YAXXZ 004cca50 f   bsplib.obj
 0001:000cba60       ??__Eg_OccluderData@@YAXXZ 004cca60 f   bsplib.obj
 0001:000cbaa0       ??__Eg_OccluderPolyData@@YAXXZ 004ccaa0 f   bsplib.obj
 0001:000cbae0       ??__Eg_OccluderVertexIndices@@YAXXZ 004ccae0 f   bsplib.obj
 0001:000cbb20       ??__Eg_dLightmapPages@@YAXXZ 004ccb20 f   bsplib.obj
 0001:000cbb30       ??__Eg_dLightmapPageInfos@@YAXXZ 004ccb30 f   bsplib.obj
 0001:000cbb40       ??__Es_GameLumps@@YAXXZ    004ccb40 f   bsplib.obj
 0001:000cbb50       ??__Eg_ClusterLeaves@@YAXXZ 004ccb50 f   bsplib.obj
 0001:000cbb60       ??__E?id@?$codecvt@DDH@std@@2V0locale@2@A@@YAXXZ 004ccb60 f   ChunkFile.obj
 0001:000cbb80       ??__Eg_CleanupFunctions@@YAXXZ 004ccb80 f   cmdlib.obj
 0001:000cbb90       ??__Eg_ExtraSpewHooks@@YAXXZ 004ccb90 f   cmdlib.obj
 0001:000cbba0       ??__Eg_ExitStopper@@YAXXZ  004ccba0 f   cmdlib.obj
 0001:000cbbb0       ??__Eg_CritInit@@YAXXZ     004ccbb0 f   threads.obj
 0001:000cbbc0       ??__Es_StringCharConversion@@YAXXZ 004ccbc0 f   tier1:utlbuffer.obj
 0001:000cbc20       ??__Es_NoEscConversion@@YAXXZ 004ccc20 f   tier1:utlbuffer.obj
 0001:000cbc50       ??__Eg_CleanupSymbolTable@@YAXXZ 004ccc50 f   tier1:utlsymbol.obj
 0001:000cbc60       ??__Eg_CountedStringPool@@YAXXZ 004ccc60 f   tier1:stringpool.obj
 0001:000cbc80       ??__Edumpcountedstrings_command@@YAXXZ 004ccc80 f   tier1:stringpool.obj
 0001:000cbcb0       ??__Evec2_origin@@YAXXZ    004cccb0 f   tier2:tier2.obj
 0001:000cbd00       ??__Evec2_invalid@@YAXXZ   004ccd00 f   tier2:tier2.obj
 0001:000cbd50       ??__Einitlocks@std@@YAXXZ  004ccd50 f   libcpmt:xlock.obj
 0001:000cbd66       ??__Eclassic_locale@std@@YAXXZ 004ccd66 f   libcpmt:locale0.obj
 0001:000cbd72       ??__Einitlocks@std@@YAXXZ  004ccd72 f   libcpmt:iosptrs.obj
 0001:000cbd88       ??__Einit_atexit@@YAXXZ    004ccd88 f   libcpmt:iosptrs.obj
 0001:000cbda0       ??__Fs_DefaultCubemapNames@@YAXXZ 004ccda0 f   cubemap.obj
 0001:000cbdb0       ??__Fs_EnvCubemapToBrushSides@@YAXXZ 004ccdb0 f   cubemap.obj
 0001:000cbdc0       ??__Fs_DetailObjectDictLump@@YAXXZ 004ccdc0 f   detailObjects.obj
 0001:000cbdd0       ??__Fs_DetailObjectLump@@YAXXZ 004ccdd0 f   detailObjects.obj
 0001:000cbde0       ??__Fs_DetailSpriteDictLump@@YAXXZ 004ccde0 f   detailObjects.obj
 0001:000cbdf0       ??__Fs_StaticPropLookup@@YAXXZ 004ccdf0 f   detailObjects.obj
 0001:000cbe40       ??__Fs_DetailObjectDict@@YAXXZ 004cce40 f   detailObjects.obj
 0001:000cbe50       ??__FgDispGridList@@YAXXZ  004cce50 f   disp_ivp.obj
 0001:000cbe60       ??__Fg_CoreDispInfos@@YAXXZ 004cce60 f   disp_vbsp.obj
 0001:000cbe70       ??__Fg_VertEdgeList@@YAXXZ 004cce70 f   faces.obj
 0001:000cbee0       ??__Fg_WaterModels@@YAXXZ  004ccee0 f   ivp.obj
 0001:000cbef0       ??__Fs_WorldPropList@@YAXXZ 004ccef0 f   ivp.obj
 0001:000cbf00       ??__Fg_WaterTexInfos@@YAXXZ 004ccf00 f   ivp.obj
 0001:000cbf50       ??__Fg_WaterLeafList@@YAXXZ 004ccf50 f   ivp.obj
 0001:000cbf60       ??__Fg_NoDynamicShadowSides@@YAXXZ 004ccf60 f   map.obj
 0001:000cbf70       ??__Fbrushsides@@YAXXZ     004ccf70 f   map.obj
 0001:000cc010       ??__Fs_SymbolTable@@YAXXZ  004cd010 f   materialpatch.obj
 0001:000cc020       ??__Fs_MapPatchedMatToOriginalMat@@YAXXZ 004cd020 f   materialpatch.obj
 0001:000cc070       ??__Fg_aMapOverlays@@YAXXZ 004cd070 f   overlay.obj
 0001:000cc080       ??__Fg_aMapWaterOverlays@@YAXXZ 004cd080 f   overlay.obj
 0001:000cc090       ??__Fs_StaticPropDictLump@@YAXXZ 004cd090 f   StaticProp.obj
 0001:000cc0a0       ??__Fs_StaticPropLump@@YAXXZ 004cd0a0 f   StaticProp.obj
 0001:000cc0b0       ??__Fs_StaticPropLeafLump@@YAXXZ 004cd0b0 f   StaticProp.obj
 0001:000cc0c0       ??__Fs_LightingInfo@@YAXXZ 004cd0c0 f   StaticProp.obj
 0001:000cc0d0       ??__Fs_ModelCollisionCache@@YAXXZ 004cd0d0 f   StaticProp.obj
 0001:000cc120       ??__Fg_OccluderInfo@@YAXXZ 004cd120 f   vbsp.obj
 0001:000cc130       ??__Fg_ZipUtils@@YAXXZ     004cd130 f   zip_utils.obj
 0001:000cc190       ??__FdlightdataHDR@@YAXXZ  004cd190 f   bsplib.obj
 0001:000cc1a0       ??__FdlightdataLDR@@YAXXZ  004cd1a0 f   bsplib.obj
 0001:000cc1b0       ??__Fdentdata@@YAXXZ       004cd1b0 f   bsplib.obj
 0001:000cc1c0       ??__Fg_LeafAmbientLightingLDR@@YAXXZ 004cd1c0 f   bsplib.obj
 0001:000cc1d0       ??__Fg_LeafAmbientLightingHDR@@YAXXZ 004cd1d0 f   bsplib.obj
 0001:000cc1e0       ??__Fg_DispLightmapSamplePositions@@YAXXZ 004cd1e0 f   bsplib.obj
 0001:000cc1f0       ??__Fg_TexDataStringData@@YAXXZ 004cd1f0 f   bsplib.obj
 0001:000cc200       ??__Fg_TexDataStringTable@@YAXXZ 004cd200 f   bsplib.obj
 0001:000cc210       ??__Fg_OccluderData@@YAXXZ 004cd210 f   bsplib.obj
 0001:000cc220       ??__Fg_OccluderPolyData@@YAXXZ 004cd220 f   bsplib.obj
 0001:000cc230       ??__Fg_OccluderVertexIndices@@YAXXZ 004cd230 f   bsplib.obj
 0001:000cc240       ??__Ftexinfo@@YAXXZ        004cd240 f   bsplib.obj
 0001:000cc250       ??__Fg_dispinfo@@YAXXZ     004cd250 f   bsplib.obj
 0001:000cc260       ??__Fg_DispVerts@@YAXXZ    004cd260 f   bsplib.obj
 0001:000cc270       ??__Fg_DispTris@@YAXXZ     004cd270 f   bsplib.obj
 0001:000cc280       ??__Fg_FaceMacroTextureInfos@@YAXXZ 004cd280 f   bsplib.obj
 0001:000cc290       ??__Fg_dLightmapPages@@YAXXZ 004cd290 f   bsplib.obj
 0001:000cc2a0       ??__Fg_dLightmapPageInfos@@YAXXZ 004cd2a0 f   bsplib.obj
 0001:000cc2b0       ??__Fs_GameLumps@@YAXXZ    004cd2b0 f   bsplib.obj
 0001:000cc300       ??__Fg_ClusterLeaves@@YAXXZ 004cd300 f   bsplib.obj
 0001:000cc310       ??__Fg_ExitStopper@@YAXXZ  004cd310 f   cmdlib.obj
 0001:000cc330       ??__Fg_CleanupFunctions@@YAXXZ 004cd330 f   cmdlib.obj
 0001:000cc380       ??__Fg_ExtraSpewHooks@@YAXXZ 004cd380 f   cmdlib.obj
 0001:000cc3d0       ??__Fbuf@?1??CmdLib_FPrintf@@YAXPAXPBDZZ@YAXXZ 004cd3d0 f   cmdlib.obj
 0001:000cc3e0       ??__Fg_CleanupSymbolTable@@YAXXZ 004cd3e0 f   tier1:utlsymbol.obj
 0001:000cc420       ??__Fdumpcountedstrings_command@@YAXXZ 004cd420 f   tier1:stringpool.obj
 0001:000cc430       ??__Fg_CountedStringPool@@YAXXZ 004cd430 f   tier1:stringpool.obj
 0001:000cc43a       ??__Finitlocks@std@@YAXXZ  004cd43a f   libcpmt:xlock.obj
 0001:000cc444       ??__Fclassic_locale@std@@YAXXZ 004cd444 f   libcpmt:locale0.obj
 0001:000cc44e       ??__Finitlocks@std@@YAXXZ  004cd44e f   libcpmt:iosptrs.obj
 0001:000cc458       ??__Finit_atexit@@YAXXZ    004cd458 f   libcpmt:iosptrs.obj
