 vbsp

 Timestamp is 66ee94ce (Sat Sep 21 16:41:34 2024)

 Preferred load address is 00400000

 Start         Length     Name                   Class
 0001:00000000 000ca8d8H .text                   CODE
 0001:000ca8e0 00000b63H .text$x                 CODE
 0001:000cb450 00000944H .text$yc                CODE
 0001:000cbda0 000006c2H .text$yd                CODE
 0002:00000000 0000025cH .idata$5                DATA
 0002:0000025c 00000004H .CRT$XCA                DATA
 0002:00000260 0000000cH .CRT$XCC                DATA
 0002:0000026c 00000108H .CRT$XCU                DATA
 0002:00000374 00000004H .CRT$XCZ                DATA
 0002:00000378 00000004H .CRT$XIA                DATA
 0002:0000037c 00000014H .CRT$XIC                DATA
 0002:00000390 00000004H .CRT$XIY                DATA
 0002:00000394 00000004H .CRT$XIZ                DATA
 0002:00000398 00000004H .CRT$XPA                DATA
 0002:0000039c 00000004H .CRT$XPX                DATA
 0002:000003a0 00000004H .CRT$XPXA               DATA
 0002:000003a4 00000004H .CRT$XPZ                DATA
 0002:000003a8 00000004H .CRT$XTA                DATA
 0002:000003ac 00000004H .CRT$XTZ                DATA
 0002:000003b0 00014394H .rdata                  DATA
 0002:00014744 00000054H .rdata$debug            DATA
 0002:00014798 00001354H .rdata$r                DATA
 0002:00015aec 00000004H .rtc$IAA                DATA
 0002:00015af0 00000000H .rtc$IMZ                DATA
 0002:00015af0 00000004H .rtc$IZZ                DATA
 0002:00015af4 00000004H .rtc$TAA                DATA
 0002:00015af8 00000000H .rtc$TMZ                DATA
 0002:00015af8 00000004H .rtc$TZZ                DATA
 0002:00015b00 00001c94H .xdata$x                DATA
 0002:00017794 00000050H .idata$2                DATA
 0002:000177e4 00000014H .idata$3                DATA
 0002:000177f8 0000025cH .idata$4                DATA
 0002:00017a54 00000b18H .idata$6                DATA
 0002:00018570 0000004bH .edata                  DATA
 0003:00000000 00003980H .data                   DATA
 0003:00003980 06d22778H .bss                    DATA

  Address         Publics by Value              Rva+Base       Lib:Object

 0000:00000000       ___safe_se_handler_table   00000000     <absolute>
 0000:00000000       ___safe_se_handler_count   00000000     <absolute>
 0000:00000000       __except_list              00000000     <absolute>
 0000:00000000       ___ImageBase               00400000     <linker-defined>
 0001:00000000       ??2@YAPAXIPAX@Z            00401000 f i brushbsp.obj
 0001:00000010       ?UtlMemory_CalcNewAllocationCount@@YAHHHHH@Z 00401010 f i brushbsp.obj
 0001:00000050       ?V_memmove@@YAXPAXPBXH@Z   00401050 f i brushbsp.obj
 0001:00000060       ??0Vector2D@@QAE@MM@Z      00401060 f i brushbsp.obj
 0001:00000080       ??0Vector@@QAE@XZ          00401080 f i brushbsp.obj
 0001:00000090       ??0Vector@@QAE@MMM@Z       00401090 f i brushbsp.obj
 0001:000000b0       ?VectorClear@@YAXAAVVector@@@Z 004010b0 f i brushbsp.obj
 0001:000000c0       ??AVector@@QAEAAMH@Z       004010c0 f i brushbsp.obj
 0001:000000d0       ??AVector@@QBEMH@Z         004010d0 f i brushbsp.obj
 0001:000000e0       ?VectorCopy@@YAXABVVector@@AAV1@@Z 004010e0 f i brushbsp.obj
 0001:00000100       ??ZVector@@QAEAAV0@ABV0@@Z 00401100 f i brushbsp.obj
 0001:00000130       ?VectorAdd@@YAXABVVector@@0AAV1@@Z 00401130 f i brushbsp.obj
 0001:00000160       ?VectorSubtract@@YAXABVVector@@0AAV1@@Z 00401160 f i brushbsp.obj
 0001:00000190       ?VectorMultiply@@YAXABVVector@@MAAV1@@Z 00401190 f i brushbsp.obj
 0001:000001c0       ??_H@YGXPAXIHP6EPAX0@Z@Z   004011c0 f i brushbsp.obj
 0001:00000200       ?DotProduct@@YAMABVVector@@0@Z 00401200 f i brushbsp.obj
 0001:00000230       ?VectorLength@@YAMABVVector@@@Z 00401230 f i brushbsp.obj
 0001:00000270       ??GVector@@QBE?AV0@XZ      00401270 f i brushbsp.obj
 0001:00000290       ??HVector@@QBE?AV0@ABV0@@Z 00401290 f i brushbsp.obj
 0001:000002c0       ??DVector@@QBE?AV0@M@Z     004012c0 f i brushbsp.obj
 0001:000002f0       ??D@YA?AVVector@@MABV0@@Z  004012f0 f i brushbsp.obj
 0001:00000320       ?FindBrushInTree@@YAXPAUnode_t@@H@Z 00401320 f   brushbsp.obj
 0001:00000380       ?DrawBrushList@@YAXPAUbspbrush_t@@PAUnode_t@@@Z 00401380 f   brushbsp.obj
 0001:000003e0       ?WriteBrushList@@YAXPADPAUbspbrush_t@@H@Z 004013e0 f   brushbsp.obj
 0001:00000470       ?PrintBrush@@YAXPAUbspbrush_t@@@Z 00401470 f   brushbsp.obj
 0001:000004c0       ?BoundBrush@@YAXPAUbspbrush_t@@@Z 004014c0 f   brushbsp.obj
 0001:00000550       ?PointInsideBrush@@YA?AVVector@@PAUbspbrush_t@@@Z 00401550 f   brushbsp.obj
 0001:00000840       ?CreateBrushWindings@@YAXPAUbspbrush_t@@@Z 00401840 f   brushbsp.obj
 0001:000009e0       ?BrushVolume@@YAMPAUbspbrush_t@@@Z 004019e0 f   brushbsp.obj
 0001:00000ac0       ?CountBrushList@@YAHPAUbspbrush_t@@@Z 00401ac0 f   brushbsp.obj
 0001:00000ae0       ?AllocTree@@YAPAUtree_t@@XZ 00401ae0 f   brushbsp.obj
 0001:00000b10       ?AllocNode@@YAPAUnode_t@@XZ 00401b10 f   brushbsp.obj
 0001:00000b50       ?AllocBrush@@YAPAUbspbrush_t@@H@Z 00401b50 f   brushbsp.obj
 0001:00000ba0       ?FreeBrush@@YAXPAUbspbrush_t@@@Z 00401ba0 f   brushbsp.obj
 0001:00000bf0       ?FreeBrushList@@YAXPAUbspbrush_t@@@Z 00401bf0 f   brushbsp.obj
 0001:00000c20       ?CopyBrush@@YAPAUbspbrush_t@@PAU1@@Z 00401c20 f   brushbsp.obj
 0001:00000cb0       ?PointInLeaf@@YAPAUnode_t@@PAU1@AAVVector@@@Z 00401cb0 f   brushbsp.obj
 0001:00000d20       ?BrushBspBoxOnPlaneSide@@YAHABVVector@@0PAUdplane_t@@@Z 00401d20 f   brushbsp.obj
 0001:00000e70       ?QuickTestBrushToPlanenum@@YAHPAUbspbrush_t@@HPAH@Z 00401e70 f   brushbsp.obj
 0001:00000f10       ?TestBrushToPlanenum@@YAHPAUbspbrush_t@@HPAH11@Z 00401f10 f   brushbsp.obj
 0001:00001390       ?WindingIsTiny@@YAHPAUwinding_t@@@Z 00402390 f   brushbsp.obj
 0001:00001460       ?WindingIsHuge@@YAHPAUwinding_t@@@Z 00402460 f   brushbsp.obj
 0001:000014e0       ?LeafNode@@YAXPAUnode_t@@PAUbspbrush_t@@@Z 004024e0 f   brushbsp.obj
 0001:00001550       ?RemoveAreaPortalBrushes_R@@YAXPAUnode_t@@@Z 00402550 f   brushbsp.obj
 0001:000015a0       ?CheckPlaneAgainstParents@@YAXHPAUnode_t@@@Z 004025a0 f   brushbsp.obj
 0001:000015e0       ?BrushMostlyOnSide@@YAHPAUbspbrush_t@@PAUplane_t@@@Z 004025e0 f   brushbsp.obj
 0001:00001880       ?Count@?$CUtlVector@HV?$CUtlMemory@H@@@@QBEHXZ 00402880 f i brushbsp.obj
 0001:00001890       ?Base@?$CUtlMemory@H@@QBEPBHXZ 00402890 f i brushbsp.obj
 0001:000018a0       ?Base@?$CUtlMemory@H@@QAEPAHXZ 004028a0 f i brushbsp.obj
 0001:000018b0       ??$Destruct@H@@YAXPAH@Z    004028b0 f i brushbsp.obj
 0001:000018c0       ??$Construct@H@@YAXPAH@Z   004028c0 f i brushbsp.obj
 0001:000018d0       ?NumAllocated@?$CUtlMemory@H@@QBEHXZ 004028d0 f i brushbsp.obj
 0001:000018e0       ?IsExternallyAllocated@?$CUtlMemory@H@@QBE_NXZ 004028e0 f i brushbsp.obj
 0001:000018f0       ?BrushFromBounds@@YAPAUbspbrush_t@@AAVVector@@0@Z 004028f0 f   brushbsp.obj
 0001:000019f0       ?Base@?$CUtlVector@HV?$CUtlMemory@H@@@@QBEPBHXZ 004029f0 f i brushbsp.obj
 0001:00001a00       ?Base@?$CUtlVector@HV?$CUtlMemory@H@@@@QAEPAHXZ 00402a00 f i brushbsp.obj
 0001:00001a10       ?Element@?$CUtlVector@HV?$CUtlMemory@H@@@@QAEAAHH@Z 00402a10 f i brushbsp.obj
 0001:00001a20       ?ShiftElementsRight@?$CUtlVector@HV?$CUtlMemory@H@@@@IAEXHH@Z 00402a20 f i brushbsp.obj
 0001:00001a60       ?ResetDbgInfo@?$CUtlVector@HV?$CUtlMemory@H@@@@IAEXXZ 00402a60 f i brushbsp.obj
 0001:00001a70       ?Grow@?$CUtlMemory@H@@QAEXH@Z 00402a70 f i brushbsp.obj
 0001:00001ae0       ??A?$CUtlVector@HV?$CUtlMemory@H@@@@QAEAAHH@Z 00402ae0 f i brushbsp.obj
 0001:00001af0       ?RemoveAll@?$CUtlVector@HV?$CUtlMemory@H@@@@QAEXXZ 00402af0 f i brushbsp.obj
 0001:00001b00       ?GrowVector@?$CUtlVector@HV?$CUtlMemory@H@@@@IAEXH@Z 00402b00 f i brushbsp.obj
 0001:00001b30       ?InsertMultipleBefore@?$CUtlVector@HV?$CUtlMemory@H@@@@QAEHHHPBH@Z 00402b30 f i brushbsp.obj
 0001:00001bd0       ?AddMultipleToTail@?$CUtlVector@HV?$CUtlMemory@H@@@@QAEHHPBH@Z 00402bd0 f i brushbsp.obj
 0001:00001bf0       ?SetCount@?$CUtlVector@HV?$CUtlMemory@H@@@@QAEXH@Z 00402bf0 f i brushbsp.obj
 0001:00001c10       ?SetSize@?$CUtlVector@HV?$CUtlMemory@H@@@@QAEXH@Z 00402c10 f i brushbsp.obj
 0001:00001c30       ?CopyArray@?$CUtlVector@HV?$CUtlMemory@H@@@@QAEXPBHH@Z 00402c30 f i brushbsp.obj
 0001:00001c70       ??4?$CUtlVector@HV?$CUtlMemory@H@@@@QAEAAV0@ABV0@@Z 00402c70 f i brushbsp.obj
 0001:00001c90       ??4side_t@@QAEAAU0@ABU0@@Z 00402c90 f i brushbsp.obj
 0001:00001d20       ?SplitBrush@@YAXPAUbspbrush_t@@HPAPAU1@1@Z 00402d20 f   brushbsp.obj
 0001:00002570       ?SplitBrushList@@YAXPAUbspbrush_t@@PAUnode_t@@PAPAU1@2@Z 00403570 f   brushbsp.obj
 0001:00002650       ?CheckPlaneAgainstVolume@@YAHHPAUnode_t@@@Z 00403650 f   brushbsp.obj
 0001:000026b0       ?SelectSplitSide@@YAPAUside_t@@PAUbspbrush_t@@PAUnode_t@@@Z 004036b0 f   brushbsp.obj
 0001:000029a0       ?BuildTree_r@@YAPAUnode_t@@PAU1@PAUbspbrush_t@@@Z 004039a0 f   brushbsp.obj
 0001:00002ac0       ?BrushBSP@@YAPAUtree_t@@PAUbspbrush_t@@AAVVector@@1@Z 00403ac0 f   brushbsp.obj
 0001:00002c80       ?FloatBits@@YAAAKAAM@Z     00403c80 f i CollisionUtils.obj
 0001:00002c90       ?BitsToFloat@@YAMK@Z       00403c90 f i CollisionUtils.obj
 0001:00002ca0       ?FloatAbsBits@@YAKM@Z      00403ca0 f i CollisionUtils.obj
 0001:00002cb0       ?FloatMakePositive@@YAMM@Z 00403cb0 f i CollisionUtils.obj
 0001:00002cd0       _fabsf                     00403cd0 f i CollisionUtils.obj
 0001:00002ce0       _sqrtf                     00403ce0 f i CollisionUtils.obj
 0001:00002d00       ?sqrt@@YAMM@Z              00403d00 f i CollisionUtils.obj
 0001:00002d20       ??0Vector2D@@QAE@XZ        00403d20 f i CollisionUtils.obj
 0001:00002d30       ??AVector2D@@QAEAAMH@Z     00403d30 f i CollisionUtils.obj
 0001:00002d40       ??AVector2D@@QBEMH@Z       00403d40 f i CollisionUtils.obj
 0001:00002d50       ?Vector2DSubtract@@YAXABVVector2D@@0AAV1@@Z 00403d50 f i CollisionUtils.obj
 0001:00002d70       ?Vector2DMA@@YAXABVVector2D@@M0AAV1@@Z 00403d70 f i CollisionUtils.obj
 0001:00002da0       ?Vector2DLerp@@YAXABVVector2D@@0MAAV1@@Z 00403da0 f i CollisionUtils.obj
 0001:00002dd0       ?LengthSqr@Vector@@QBEMXZ  00403dd0 f i CollisionUtils.obj
 0001:00002e00       ?Init@Vector@@QAEXMMM@Z    00403e00 f i CollisionUtils.obj
 0001:00002e20       ??4Vector@@QAEAAV0@ABV0@@Z 00403e20 f i CollisionUtils.obj
 0001:00002e40       ?Base@Vector@@QAEPAMXZ     00403e40 f i CollisionUtils.obj
 0001:00002e50       ?Base@Vector@@QBEPBMXZ     00403e50 f i CollisionUtils.obj
 0001:00002e60       ?Negate@Vector@@QAEXXZ     00403e60 f i CollisionUtils.obj
 0001:00002e80       ??YVector@@QAEAAV0@ABV0@@Z 00403e80 f i CollisionUtils.obj
 0001:00002eb0       ??XVector@@QAEAAV0@M@Z     00403eb0 f i CollisionUtils.obj
 0001:00002ee0       ?VectorLerp@@YAXABVVector@@0MAAV1@@Z 00403ee0 f i CollisionUtils.obj
 0001:00002f20       ?Dot@Vector@@QBEMABV1@@Z   00403f20 f i CollisionUtils.obj
 0001:00002f50       ?CrossProduct@@YAXABVVector@@0AAV1@@Z 00403f50 f i CollisionUtils.obj
 0001:00002f90       ?DotProductAbs@@YAMABVVector@@0@Z 00403f90 f i CollisionUtils.obj
 0001:00003000       ?Length@Vector@@QBEMXZ     00404000 f i CollisionUtils.obj
 0001:00003030       ?VectorAbs@@YAXABVVector@@AAV1@@Z 00404030 f i CollisionUtils.obj
 0001:00003090       ??GVector@@QBE?AV0@ABV0@@Z 00404090 f i CollisionUtils.obj
 0001:000030c0       ?Cross@Vector@@QBE?AV1@ABV1@@Z 004040c0 f i CollisionUtils.obj
 0001:00003100       ??8QAngle@@QBE_NABV0@@Z    00404100 f i CollisionUtils.obj
 0001:00003140       ?VectorNormalize@@YAMAAVVector@@@Z 00404140 f i CollisionUtils.obj
 0001:00003150       ??0matrix3x4_t@@QAE@XZ     00404150 f i CollisionUtils.obj
 0001:00003160       ??Amatrix3x4_t@@QAEPAMH@Z  00404160 f i CollisionUtils.obj
 0001:00003170       ??Amatrix3x4_t@@QBEPBMH@Z  00404170 f i CollisionUtils.obj
 0001:00003180       ?DotProduct@@YAMPBM0@Z     00404180 f i CollisionUtils.obj
 0001:000031b0       ?VectorCopy@@YAXPBMPAM@Z   004041b0 f i CollisionUtils.obj
 0001:000031d0       ?InvRSquared@@YAMPBM@Z     004041d0 f i CollisionUtils.obj
 0001:000031e0       ?InvRSquared@@YAMABVVector@@@Z 004041e0 f i CollisionUtils.obj
 0001:000031f0       ?MatrixRowDotProduct@@YAMABUmatrix3x4_t@@HABVVector@@@Z 004041f0 f i CollisionUtils.obj
 0001:00003220       ?MatrixColumnDotProduct@@YAMABUmatrix3x4_t@@HABVVector@@@Z 00404220 f i CollisionUtils.obj
 0001:00003250       ?VectorRotate@@YAXABVVector@@ABUmatrix3x4_t@@AAV1@@Z 00404250 f i CollisionUtils.obj
 0001:00003260       ?VectorIRotate@@YAXABVVector@@ABUmatrix3x4_t@@AAV1@@Z 00404260 f i CollisionUtils.obj
 0001:00003270       ?VectorTransform@@YAXABVVector@@ABUmatrix3x4_t@@AAV1@@Z 00404270 f i CollisionUtils.obj
 0001:00003280       ?VectorITransform@@YAXABVVector@@ABUmatrix3x4_t@@AAV1@@Z 00404280 f i CollisionUtils.obj
 0001:00003290       ?BoxOnPlaneSide@@YAHABVVector@@0PBUcplane_t@@@Z 00404290 f i CollisionUtils.obj
 0001:000032a0       ?MatrixITransformPlane@@YAXABUmatrix3x4_t@@ABUcplane_t@@AAU2@@Z 004042a0 f i CollisionUtils.obj
 0001:00003330       ??0cplane_t@@QAE@XZ        00404330 f i CollisionUtils.obj
 0001:00003340       ?AsVector3D@Vector4D@@QBEABVVector@@XZ 00404340 f i CollisionUtils.obj
 0001:00003440       ?IntersectRayWithTriangle@@YAMABURay_t@@ABVVector@@11_N@Z 00404440 f   CollisionUtils.obj
 0001:00003720       ?ComputeIntersectionBarycentricCoordinates@@YA_NABURay_t@@ABVVector@@11AAM2PAM@Z 00404720 f   CollisionUtils.obj
 0001:00003940       ?IntersectTriangleWithPlaneBarycentric@@YAHABVVector@@00ABVVector4D@@PAVVector2D@@@Z 00404940 f   CollisionUtils.obj
 0001:00003ad0       ?IsSphereIntersectingSphere@@YA_NABVVector@@M0M@Z 00404ad0 f   CollisionUtils.obj
 0001:00003b50       ?IsBoxIntersectingSphere@@YA_NABVVector@@00M@Z 00404b50 f   CollisionUtils.obj
 0001:00003c30       ?IsBoxIntersectingSphereExtents@@YA_NABVVector@@00M@Z 00404c30 f   CollisionUtils.obj
 0001:00003d20       ?IsCircleIntersectingRectangle@@YA_NABVVector2D@@00M@Z 00404d20 f   CollisionUtils.obj
 0001:00003dd0       ?IntersectInfiniteRayWithSphere@@YA_NABVVector@@00MPAM1@Z 00404dd0 f   CollisionUtils.obj
 0001:00003f60       ?IntersectRayWithSphere@@YA_NABVVector@@00MPAM1@Z 00404f60 f   CollisionUtils.obj
 0001:00003fe0       ?IsPointInBox@@YA_NABVVector@@00@Z 00404fe0 f   CollisionUtils.obj
 0001:00004050       ?IsPointInCone@@YA_NABVVector@@00MM@Z 00405050 f   CollisionUtils.obj
 0001:000040e0       ?IsBoxIntersectingBox@@YA_NABVVector@@000@Z 004050e0 f   CollisionUtils.obj
 0001:00004160       ?IsBoxIntersectingBoxExtents@@YA_NABVVector@@000@Z 00405160 f   CollisionUtils.obj
 0001:00004230       ?IsBoxIntersectingRay@@YI_NABVVector@@000M@Z 00405230 f   CollisionUtils.obj
 0001:000043a0       ?IsBoxIntersectingRay@@YI_NABVVector@@0000M@Z 004053a0 f   CollisionUtils.obj
 0001:00004500       ?IsBoxIntersectingRay@@YI_NABVVector@@0ABURay_t@@M@Z 00405500 f   CollisionUtils.obj
 0001:00004610       ?IntersectRayWithRay@@YA_NABURay_t@@0AAM1@Z 00405610 f   CollisionUtils.obj
 0001:00004920       ?IntersectRayWithPlane@@YAMABURay_t@@ABUcplane_t@@@Z 00405920 f   CollisionUtils.obj
 0001:00004990       ?IntersectRayWithPlane@@YAMABVVector@@0ABUcplane_t@@@Z 00405990 f   CollisionUtils.obj
 0001:00004a10       ?IntersectRayWithPlane@@YAMABVVector@@00M@Z 00405a10 f   CollisionUtils.obj
 0001:00004a90       ?IntersectRayWithAAPlane@@YAMABVVector@@0HMM@Z 00405a90 f   CollisionUtils.obj
 0001:00004af0       ?IntersectRayWithBox@@YA_NABVVector@@000MPAUBoxTraceInfo_t@@@Z 00405af0 f   CollisionUtils.obj
 0001:00004ca0       ?IntersectRayWithBox@@YA_NABVVector@@000MPAVCBaseTrace@@@Z 00405ca0 f   CollisionUtils.obj
 0001:00004e50       ?IntersectRayWithBox@@YA_NABURay_t@@ABVVector@@1MPAVCBaseTrace@@@Z 00405e50 f   CollisionUtils.obj
 0001:00004f40       ?IntersectRayWithOBB@@YA_NABVVector@@0ABUmatrix3x4_t@@00MPAUBoxTraceInfo_t@@@Z 00405f40 f   CollisionUtils.obj
 0001:00004fa0       ?ComputeSupportMap@@YAXABVVector@@00QAM@Z 00405fa0 f i CollisionUtils.obj
 0001:00005050       ?ComputeSupportMap@@YAXABVVector@@HH00QAM@Z 00406050 f i CollisionUtils.obj
 0001:000050e0       ?GetNonMajorAxes@@YAXABVVector@@AAVVector2D@@@Z 004060e0 f   CollisionUtils.obj
 0001:000051c0       ??0Ray_t@@QAE@XZ           004061c0 f i CollisionUtils.obj
 0001:000051d0       ?ResolveQuadratic@@YAXNNVVector@@00000HAAN1@Z 004061d0 f   CollisionUtils.obj
 0001:00005450       ?PointInQuadFromBarycentric@@YAXABVVector@@000ABVVector2D@@AAV1@@Z 00406450 f   CollisionUtils.obj
 0001:00005530       ?TexCoordInQuadFromBarycentric@@YAXABVVector2D@@0000AAV1@@Z 00406530 f   CollisionUtils.obj
 0001:000055e0       ?ComputePointFromBarycentric@@YAXABVVector@@00MMAAV1@@Z 004065e0 f   CollisionUtils.obj
 0001:00005660       ?ComputePointFromBarycentric@@YAXABVVector2D@@00MMAAV1@@Z 00406660 f   CollisionUtils.obj
 0001:00006140       ?ComputeSeparatingPlane@@YA_NABVVector@@ABVQAngle@@000100MPAUcplane_t@@@Z 00407140 f   CollisionUtils.obj
 0001:00006260       ?IsRayIntersectingOBB@@YA_NABURay_t@@ABVVector@@ABVQAngle@@11@Z 00407260 f   CollisionUtils.obj
 0001:000067f0       ?FindMinMax@@YAXMMMAAM0@Z  004077f0 f i CollisionUtils.obj
 0001:00006850       ?AxisTestEdgeCrossX2@@YA_NMMMMABVVector@@00M@Z 00407850 f i CollisionUtils.obj
 0001:00006900       ?AxisTestEdgeCrossX3@@YA_NMMMMABVVector@@00M@Z 00407900 f i CollisionUtils.obj
 0001:000069b0       ?AxisTestEdgeCrossY2@@YA_NMMMMABVVector@@00M@Z 004079b0 f i CollisionUtils.obj
 0001:00006a60       ?AxisTestEdgeCrossY3@@YA_NMMMMABVVector@@00M@Z 00407a60 f i CollisionUtils.obj
 0001:00006b10       ?AxisTestEdgeCrossZ1@@YA_NMMMMABVVector@@00M@Z 00407b10 f i CollisionUtils.obj
 0001:00006bc0       ?AxisTestEdgeCrossZ2@@YA_NMMMMABVVector@@00M@Z 00407bc0 f i CollisionUtils.obj
 0001:00006c70       ?IsBoxIntersectingTriangle@@YA_NABVVector@@0000ABUcplane_t@@M@Z 00407c70 f   CollisionUtils.obj
 0001:00007240       ?DistToSqr@Vector@@QBEMABV1@@Z 00408240 f i CollisionUtils.obj
 0001:00007290       ??0CBaseTrace@@QAE@XZ      00408290 f i CollisionUtils.obj
 0001:000072a0       ??0CGameTrace@@QAE@XZ      004082a0 f i CollisionUtils.obj
 0001:000072b0       ?IsRayIntersectingSphere@@YA_NABVVector@@00MM@Z 004082b0 f   CollisionUtils.obj
 0001:000073d0       ?IsOBBIntersectingOBB@@YA_NABVVector@@ABVQAngle@@000100M@Z 004083d0 f   CollisionUtils.obj
 0001:00007420       ?IntersectRayWithOBB@@YA_NABVVector@@0ABUmatrix3x4_t@@00MPAVCBaseTrace@@@Z 00408420 f   CollisionUtils.obj
 0001:00007800       ?IntersectRayWithOBB@@YA_NABVVector@@00ABVQAngle@@00MPAVCBaseTrace@@@Z 00408800 f   CollisionUtils.obj
 0001:00007900       ?IntersectRayWithOBB@@YA_NABURay_t@@ABUmatrix3x4_t@@ABVVector@@2MPAVCBaseTrace@@@Z 00408900 f   CollisionUtils.obj
 0001:000081b0       ?IntersectRayWithOBB@@YA_NABURay_t@@ABVVector@@ABVQAngle@@11MPAVCBaseTrace@@@Z 004091b0 f   CollisionUtils.obj
 0001:000082e0       ?QuadWithParallelEdges@@YA?AW4QuadBarycentricRetval_t@@ABVVector@@0M0M0AAVVector2D@@@Z 004092e0 f   CollisionUtils.obj
 0001:000084c0       ?PointInQuadToBarycentric@@YA?AW4QuadBarycentricRetval_t@@ABVVector@@0000AAVVector2D@@@Z 004094c0 f   CollisionUtils.obj
 0001:00008ce0       ?SplitBrush2@@YAXPAUbspbrush_t@@HPAPAU1@1@Z 00409ce0 f   csg.obj
 0001:00008cf0       ?SubtractBrush@@YAPAUbspbrush_t@@PAU1@0@Z 00409cf0 f   csg.obj
 0001:00008da0       ?IntersectBrush@@YAPAUbspbrush_t@@PAU1@0@Z 00409da0 f   csg.obj
 0001:00008e20       ?BrushesDisjoint@@YAHPAUbspbrush_t@@0@Z 00409e20 f   csg.obj
 0001:00008ed0       ?ClipBrushToBox@@YAPAUbspbrush_t@@PAU1@ABVVector@@1@Z 00409ed0 f   csg.obj
 0001:000091c0       ?MakeBspBrushList@@YAPAUbspbrush_t@@HHABVVector@@0H@Z 0040a1c0 f   csg.obj
 0001:00009250       ?MakeBspBrushList@@YAPAUbspbrush_t@@PAPAUmapbrush_t@@HABVVector@@1@Z 0040a250 f   csg.obj
 0001:000092c0       ?AddBrushListToTail@@YAPAUbspbrush_t@@PAU1@0@Z 0040a2c0 f   csg.obj
 0001:000092f0       ?CullList@@YAPAUbspbrush_t@@PAU1@0@Z 0040a2f0 f   csg.obj
 0001:00009330       ?PrintBrushContentsToString@@YAXHPADH@Z 0040a330 f   csg.obj
 0001:000095c0       ?PrintBrushContents@@YAXH@Z 0040a5c0 f   csg.obj
 0001:00009600       ?BrushGE@@YAHPAUbspbrush_t@@0@Z 0040a600 f   csg.obj
 0001:00009650       ?ChopBrushes@@YAPAUbspbrush_t@@PAU1@@Z 0040a650 f   csg.obj
 0001:00009990       ?Base@?$CUtlMemory@Utexinfo_s@@@@QAEPAUtexinfo_s@@XZ 0040a990 f i csg.obj
 0001:000099a0       ?Base@?$CUtlVector@Utexinfo_s@@V?$CUtlMemory@Utexinfo_s@@@@@@QAEPAUtexinfo_s@@XZ 0040a9a0 f i csg.obj
 0001:000099b0       ??A?$CUtlVector@Utexinfo_s@@V?$CUtlMemory@Utexinfo_s@@@@@@QAEAAUtexinfo_s@@H@Z 0040a9b0 f i csg.obj
 0001:000099c0       ?CopyMatchingTexinfos@@YAXPAUside_t@@HPBUbspbrush_t@@@Z 0040a9c0 f   csg.obj
 0001:00009b00       ?FixupAreaportalWaterBrushes@@YAXPAUbspbrush_t@@@Z 0040ab00 f   csg.obj
 0001:00009ba0       ?WriteBrushMap@@YAXPADPAUbspbrush_t@@@Z 0040aba0 f   csg.obj
 0001:00009d60       ?V_stricmp@@YAHPBD0@Z      0040ad60 f i cubemap.obj
 0001:00009d70       ?V_strlower@@YAPADPAD@Z    0040ad70 f i cubemap.obj
 0001:00009d80       ?VectorScale@@YAXABVVector@@MAAV1@@Z 0040ad80 f i cubemap.obj
 0001:00009db0       ?NormalizeInPlace@Vector@@QAEMXZ 0040adb0 f i cubemap.obj
 0001:00009dc0       ??0MaterialPatchInfo_t@@QAE@XZ 0040adc0 f i cubemap.obj
 0001:00009dd0       ?TellPut@CUtlBuffer@@QBEHXZ 0040add0 f i cubemap.obj
 0001:00009e00       ?SideHasCubemapAndWasntManuallyReferenced@@YA_NH@Z 0040ae00 f i cubemap.obj
 0001:00009e30       ?Cubemap_InsertSample@@YAXABVVector@@H@Z 0040ae30 f   cubemap.obj
 0001:00009fa0       ?VTFNameToHDRVTFName@@YAXPBDPADH_N@Z 0040afa0 f   cubemap.obj
 0001:00009ff0       ?GeneratePatchedName@@YAXPBDABUPatchInfo_t@@_NPADH@Z 0040aff0 f i cubemap.obj
 0001:0000a2a0       ?Cubemap_ResetCubemapSideData@@YAXXZ 0040b2a0 f   cubemap.obj
 0001:0000a2c0       ?DoesMaterialOrDependentsUseEnvmap@@YA_NPBD@Z 0040b2c0 f   cubemap.obj
 0001:0000a310       ?Cubemap_FindClosestCubemap@@YAHABVVector@@PAUside_t@@@Z 0040b310 f   cubemap.obj
 0001:0000a630       ?Cubemap_ClearUnusedTexInfos@@YAXXZ 0040b630 f   cubemap.obj
 0001:0000a640       ?Base@?$CUtlMemory@E@@QAEPAEXZ 0040b640 f i cubemap.obj
 0001:0000a650       ?IsExternallyAllocated@?$CUtlMemory@E@@QBE_NXZ 0040b650 f i cubemap.obj
 0001:0000a660       ?Count@?$CUtlVector@PADV?$CUtlMemory@PAD@@@@QBEHXZ 0040b660 f i cubemap.obj
 0001:0000a670       ?InvalidIndex@?$CUtlRBTree@UCubemapInfo_t@@GP6A_NABU1@0@Z@@SAGXZ 0040b670 f i cubemap.obj
 0001:0000a680       ?Base@?$CUtlMemory@V?$CUtlVector@HV?$CUtlMemory@H@@@@@@QAEPAV?$CUtlVector@HV?$CUtlMemory@H@@@@XZ 0040b680 f i cubemap.obj
 0001:0000a690       ?Base@?$CUtlMemory@PAD@@QAEPAPADXZ 0040b690 f i cubemap.obj
 0001:0000a6a0       ?Base@?$CUtlMemory@UNode_t@?$CUtlRBTree@UCubemapInfo_t@@GP6A_NABU1@0@Z@@@@QAEPAUNode_t@?$CUtlRBTree@UCubemapInfo_t@@GP6A_NABU1@0@Z@@XZ 0040b6a0 f i cubemap.obj
 0001:0000a6b0       ??$CopyConstruct@UCubemapInfo_t@@@@YAXPAUCubemapInfo_t@@ABU0@@Z 0040b6b0 f i cubemap.obj
 0001:0000a6d0       ?Base@?$CUtlMemory@UentitySideList_t@@@@QAEPAUentitySideList_t@@XZ 0040b6d0 f i cubemap.obj
 0001:0000a6e0       ?ValidateGrowSize@?$CUtlMemory@V?$CUtlVector@HV?$CUtlMemory@H@@@@@@IAEXXZ 0040b6e0 f i cubemap.obj
 0001:0000a6f0       ?ValidateGrowSize@?$CUtlMemory@PAD@@IAEXXZ 0040b6f0 f i cubemap.obj
 0001:0000a700       ?ValidateGrowSize@?$CUtlMemory@UNode_t@?$CUtlRBTree@UCubemapInfo_t@@GP6A_NABU1@0@Z@@@@IAEXXZ 0040b700 f i cubemap.obj
 0001:0000a710       ?ValidateGrowSize@?$CUtlMemory@UentitySideList_t@@@@IAEXXZ 0040b710 f i cubemap.obj
 0001:0000a720       ??$CopyConstruct@Utexinfo_s@@@@YAXPAUtexinfo_s@@ABU0@@Z 0040b720 f i cubemap.obj
 0001:0000a740       ??$CopyConstruct@H@@YAXPAHABH@Z 0040b740 f i cubemap.obj
 0001:0000a760       ??$Construct@PAD@@YAXPAPAD@Z 0040b760 f i cubemap.obj
 0001:0000a770       ??A?$CUtlMemory@UNode_t@?$CUtlRBTree@UCubemapInfo_t@@GP6A_NABU1@0@Z@@@@QBEABUNode_t@?$CUtlRBTree@UCubemapInfo_t@@GP6A_NABU1@0@Z@@H@Z 0040b770 f i cubemap.obj
 0001:0000a780       ??A?$CUtlMemory@UNode_t@?$CUtlRBTree@UCubemapInfo_t@@GP6A_NABU1@0@Z@@@@QAEAAUNode_t@?$CUtlRBTree@UCubemapInfo_t@@GP6A_NABU1@0@Z@@H@Z 0040b780 f i cubemap.obj
 0001:0000a790       ??$Destruct@UCubemapInfo_t@@@@YAXPAUCubemapInfo_t@@@Z 0040b790 f i cubemap.obj
 0001:0000a7a0       ??$Destruct@UentitySideList_t@@@@YAXPAUentitySideList_t@@@Z 0040b7a0 f i cubemap.obj
 0001:0000a7b0       ?NumAllocated@?$CUtlMemory@Utexinfo_s@@@@QBEHXZ 0040b7b0 f i cubemap.obj
 0001:0000a7c0       ?NumAllocated@?$CUtlMemory@V?$CUtlVector@HV?$CUtlMemory@H@@@@@@QBEHXZ 0040b7c0 f i cubemap.obj
 0001:0000a7d0       ?IsExternallyAllocated@?$CUtlMemory@V?$CUtlVector@HV?$CUtlMemory@H@@@@@@QBE_NXZ 0040b7d0 f i cubemap.obj
 0001:0000a7e0       ??$Destruct@PAD@@YAXPAPAD@Z 0040b7e0 f i cubemap.obj
 0001:0000a7f0       ?NumAllocated@?$CUtlMemory@PAD@@QBEHXZ 0040b7f0 f i cubemap.obj
 0001:0000a800       ?IsExternallyAllocated@?$CUtlMemory@PAD@@QBE_NXZ 0040b800 f i cubemap.obj
 0001:0000a810       ?Links@?$CUtlRBTree@UCubemapInfo_t@@GP6A_NABU1@0@Z@@IAEAAULinks_t@1@G@Z 0040b810 f i cubemap.obj
 0001:0000a820       ?IsIdxValid@?$CUtlMemory@UNode_t@?$CUtlRBTree@UCubemapInfo_t@@GP6A_NABU1@0@Z@@@@QBE_NH@Z 0040b820 f i cubemap.obj
 0001:0000a840       ?NumAllocated@?$CUtlMemory@UNode_t@?$CUtlRBTree@UCubemapInfo_t@@GP6A_NABU1@0@Z@@@@QBEHXZ 0040b840 f i cubemap.obj
 0001:0000a850       ?IsExternallyAllocated@?$CUtlMemory@UNode_t@?$CUtlRBTree@UCubemapInfo_t@@GP6A_NABU1@0@Z@@@@QBE_NXZ 0040b850 f i cubemap.obj
 0001:0000a860       ??$Construct@UCubemapInfo_t@@@@YAXPAUCubemapInfo_t@@@Z 0040b860 f i cubemap.obj
 0001:0000a870       ??$Construct@UentitySideList_t@@@@YAXPAUentitySideList_t@@@Z 0040b870 f i cubemap.obj
 0001:0000a880       ?IsExternallyAllocated@?$CUtlMemory@UentitySideList_t@@@@QBE_NXZ 0040b880 f i cubemap.obj
 0001:0000a890       ?IsExternallyAllocated@?$CUtlMemory@Utexinfo_s@@@@QBE_NXZ 0040b890 f i cubemap.obj
 0001:0000a8a0       ?IsRoot@?$CUtlRBTree@UCubemapInfo_t@@GP6A_NABU1@0@Z@@QBE_NG@Z 0040b8a0 f i cubemap.obj
 0001:0000a8c0       ?SetColor@?$CUtlRBTree@UCubemapInfo_t@@GP6A_NABU1@0@Z@@IAEXGW4NodeColor_t@1@@Z 0040b8c0 f i cubemap.obj
 0001:0000a8e0       ?NumAllocated@?$CUtlMemory@UentitySideList_t@@@@QBEHXZ 0040b8e0 f i cubemap.obj
 0001:0000a8f0       ?Grow@?$CUtlMemory@UentitySideList_t@@@@QAEXH@Z 0040b8f0 f i cubemap.obj
 0001:0000a960       ?ValidateGrowSize@?$CUtlMemory@H@@IAEXXZ 0040b960 f i cubemap.obj
 0001:0000a970       ?Purge@?$CUtlMemory@H@@QAEXXZ 0040b970 f i cubemap.obj
 0001:0000a9a0       ?SetParent@?$CUtlRBTree@UCubemapInfo_t@@GP6A_NABU1@0@Z@@IAEXGG@Z 0040b9a0 f i cubemap.obj
 0001:0000a9c0       ?SetLeftChild@?$CUtlRBTree@UCubemapInfo_t@@GP6A_NABU1@0@Z@@IAEXGG@Z 0040b9c0 f i cubemap.obj
 0001:0000a9e0       ?SetRightChild@?$CUtlRBTree@UCubemapInfo_t@@GP6A_NABU1@0@Z@@IAEXGG@Z 0040b9e0 f i cubemap.obj
 0001:0000aa00       ?Base@CUtlBuffer@@QAEPAXXZ 0040ba00 f i cubemap.obj
 0001:0000aa10       ?Purge@?$CUtlMemory@E@@QAEXXZ 0040ba10 f i cubemap.obj
 0001:0000aa40       ?Base@?$CUtlVector@V?$CUtlVector@HV?$CUtlMemory@H@@@@V?$CUtlMemory@V?$CUtlVector@HV?$CUtlMemory@H@@@@@@@@QAEPAV?$CUtlVector@HV?$CUtlMemory@H@@@@XZ 0040ba40 f i cubemap.obj
 0001:0000aa50       ?ResetDbgInfo@?$CUtlVector@V?$CUtlVector@HV?$CUtlMemory@H@@@@V?$CUtlMemory@V?$CUtlVector@HV?$CUtlMemory@H@@@@@@@@IAEXXZ 0040ba50 f i cubemap.obj
 0001:0000aa60       ?Base@?$CUtlVector@PADV?$CUtlMemory@PAD@@@@QAEPAPADXZ 0040ba60 f i cubemap.obj
 0001:0000aa70       ?ResetDbgInfo@?$CUtlVector@PADV?$CUtlMemory@PAD@@@@IAEXXZ 0040ba70 f i cubemap.obj
 0001:0000aa80       ?ResetDbgInfo@?$CUtlRBTree@UCubemapInfo_t@@GP6A_NABU1@0@Z@@IAEXXZ 0040ba80 f i cubemap.obj
 0001:0000aa90       ?Base@?$CUtlVector@UentitySideList_t@@V?$CUtlMemory@UentitySideList_t@@@@@@QAEPAUentitySideList_t@@XZ 0040ba90 f i cubemap.obj
 0001:0000aaa0       ?ResetDbgInfo@?$CUtlVector@UentitySideList_t@@V?$CUtlMemory@UentitySideList_t@@@@@@IAEXXZ 0040baa0 f i cubemap.obj
 0001:0000aab0       ??0?$CUtlMemory@V?$CUtlVector@HV?$CUtlMemory@H@@@@@@QAE@HH@Z 0040bab0 f i cubemap.obj
 0001:0000aaf0       ??0?$CUtlMemory@PAD@@QAE@HH@Z 0040baf0 f i cubemap.obj
 0001:0000ab30       ?Element@?$CUtlRBTree@UCubemapInfo_t@@GP6A_NABU1@0@Z@@QBEABUCubemapInfo_t@@G@Z 0040bb30 f i cubemap.obj
 0001:0000ab50       ?Element@?$CUtlRBTree@UCubemapInfo_t@@GP6A_NABU1@0@Z@@QAEAAUCubemapInfo_t@@G@Z 0040bb50 f i cubemap.obj
 0001:0000ab70       ??0?$CUtlMemory@UNode_t@?$CUtlRBTree@UCubemapInfo_t@@GP6A_NABU1@0@Z@@@@QAE@HH@Z 0040bb70 f i cubemap.obj
 0001:0000abb0       ??0?$CUtlMemory@UentitySideList_t@@@@QAE@HH@Z 0040bbb0 f i cubemap.obj
 0001:0000abf0       ?Element@?$CUtlVector@Utexinfo_s@@V?$CUtlMemory@Utexinfo_s@@@@@@QAEAAUtexinfo_s@@H@Z 0040bbf0 f i cubemap.obj
 0001:0000ac00       ?ShiftElementsRight@?$CUtlVector@Utexinfo_s@@V?$CUtlMemory@Utexinfo_s@@@@@@IAEXHH@Z 0040bc00 f i cubemap.obj
 0001:0000ac50       ?Element@?$CUtlVector@V?$CUtlVector@HV?$CUtlMemory@H@@@@V?$CUtlMemory@V?$CUtlVector@HV?$CUtlMemory@H@@@@@@@@QAEAAV?$CUtlVector@HV?$CUtlMemory@H@@@@H@Z 0040bc50 f i cubemap.obj
 0001:0000ac60       ?ShiftElementsRight@?$CUtlVector@V?$CUtlVector@HV?$CUtlMemory@H@@@@V?$CUtlMemory@V?$CUtlVector@HV?$CUtlMemory@H@@@@@@@@IAEXHH@Z 0040bc60 f i cubemap.obj
 0001:0000aca0       ?Purge@?$CUtlMemory@V?$CUtlVector@HV?$CUtlMemory@H@@@@@@QAEXXZ 0040bca0 f i cubemap.obj
 0001:0000acd0       ?Element@?$CUtlVector@PADV?$CUtlMemory@PAD@@@@QAEAAPADH@Z 0040bcd0 f i cubemap.obj
 0001:0000ace0       ?RemoveAll@?$CUtlVector@PADV?$CUtlMemory@PAD@@@@QAEXXZ 0040bce0 f i cubemap.obj
 0001:0000acf0       ?ShiftElementsRight@?$CUtlVector@PADV?$CUtlMemory@PAD@@@@IAEXHH@Z 0040bcf0 f i cubemap.obj
 0001:0000ad30       ?Purge@?$CUtlMemory@PAD@@QAEXXZ 0040bd30 f i cubemap.obj
 0001:0000ad60       ?Links@?$CUtlRBTree@UCubemapInfo_t@@GP6A_NABU1@0@Z@@IBEABULinks_t@1@G@Z 0040bd60 f i cubemap.obj
 0001:0000adc0       ?Purge@?$CUtlMemory@UNode_t@?$CUtlRBTree@UCubemapInfo_t@@GP6A_NABU1@0@Z@@@@QAEXXZ 0040bdc0 f i cubemap.obj
 0001:0000adf0       ?Element@?$CUtlVector@UentitySideList_t@@V?$CUtlMemory@UentitySideList_t@@@@@@QAEAAUentitySideList_t@@H@Z 0040bdf0 f i cubemap.obj
 0001:0000ae00       ?Purge@?$CUtlMemory@UentitySideList_t@@@@QAEXXZ 0040be00 f i cubemap.obj
 0001:0000ae30       ?ResetDbgInfo@?$CUtlVector@Utexinfo_s@@V?$CUtlMemory@Utexinfo_s@@@@@@IAEXXZ 0040be30 f i cubemap.obj
 0001:0000ae40       ?Grow@?$CUtlMemory@Utexinfo_s@@@@QAEXH@Z 0040be40 f i cubemap.obj
 0001:0000aec0       ?Grow@?$CUtlMemory@V?$CUtlVector@HV?$CUtlMemory@H@@@@@@QAEXH@Z 0040bec0 f i cubemap.obj
 0001:0000af30       ?Grow@?$CUtlMemory@PAD@@QAEXH@Z 0040bf30 f i cubemap.obj
 0001:0000afa0       ?Grow@?$CUtlMemory@UNode_t@?$CUtlRBTree@UCubemapInfo_t@@GP6A_NABU1@0@Z@@@@QAEXH@Z 0040bfa0 f i cubemap.obj
 0001:0000b010       ?GrowVector@?$CUtlVector@UentitySideList_t@@V?$CUtlMemory@UentitySideList_t@@@@@@IAEXH@Z 0040c010 f i cubemap.obj
 0001:0000b040       ?ShiftElementsRight@?$CUtlVector@UentitySideList_t@@V?$CUtlMemory@UentitySideList_t@@@@@@IAEXHH@Z 0040c040 f i cubemap.obj
 0001:0000b080       ??0?$CUtlMemory@H@@QAE@HH@Z 0040c080 f i cubemap.obj
 0001:0000b0c0       ??1?$CUtlMemory@H@@QAE@XZ  0040c0c0 f i cubemap.obj
 0001:0000b0f0       ?Parent@?$CUtlRBTree@UCubemapInfo_t@@GP6A_NABU1@0@Z@@QBEGG@Z 0040c0f0 f i cubemap.obj
 0001:0000b110       ?IsRed@?$CUtlRBTree@UCubemapInfo_t@@GP6A_NABU1@0@Z@@IBE_NG@Z 0040c110 f i cubemap.obj
 0001:0000b130       ?Color@?$CUtlRBTree@UCubemapInfo_t@@GP6A_NABU1@0@Z@@IBE?AW4NodeColor_t@1@G@Z 0040c130 f i cubemap.obj
 0001:0000b150       ??1?$CUtlMemory@E@@QAE@XZ  0040c150 f i cubemap.obj
 0001:0000b180       ??A?$CUtlVector@V?$CUtlVector@HV?$CUtlMemory@H@@@@V?$CUtlMemory@V?$CUtlVector@HV?$CUtlMemory@H@@@@@@@@QAEAAV?$CUtlVector@HV?$CUtlMemory@H@@@@H@Z 0040c180 f i cubemap.obj
 0001:0000b190       ??A?$CUtlVector@PADV?$CUtlMemory@PAD@@@@QAEAAPADH@Z 0040c190 f i cubemap.obj
 0001:0000b1a0       ??A?$CUtlRBTree@UCubemapInfo_t@@GP6A_NABU1@0@Z@@QAEAAUCubemapInfo_t@@G@Z 0040c1a0 f i cubemap.obj
 0001:0000b1c0       ??A?$CUtlVector@UentitySideList_t@@V?$CUtlMemory@UentitySideList_t@@@@@@QAEAAUentitySideList_t@@H@Z 0040c1c0 f i cubemap.obj
 0001:0000b1d0       ??1?$CUtlMemory@V?$CUtlVector@HV?$CUtlMemory@H@@@@@@QAE@XZ 0040c1d0 f i cubemap.obj
 0001:0000b200       ?Purge@?$CUtlVector@PADV?$CUtlMemory@PAD@@@@QAEXXZ 0040c200 f i cubemap.obj
 0001:0000b250       ??1?$CUtlMemory@PAD@@QAE@XZ 0040c250 f i cubemap.obj
 0001:0000b280       ?LeftChild@?$CUtlRBTree@UCubemapInfo_t@@GP6A_NABU1@0@Z@@QBEGG@Z 0040c280 f i cubemap.obj
 0001:0000b290       ?RightChild@?$CUtlRBTree@UCubemapInfo_t@@GP6A_NABU1@0@Z@@QBEGG@Z 0040c290 f i cubemap.obj
 0001:0000b2b0       ?FindInsertionPosition@?$CUtlRBTree@UCubemapInfo_t@@GP6A_NABU1@0@Z@@IAEXABUCubemapInfo_t@@AAGAA_N@Z 0040c2b0 f i cubemap.obj
 0001:0000b3c0       ??1?$CUtlMemory@UNode_t@?$CUtlRBTree@UCubemapInfo_t@@GP6A_NABU1@0@Z@@@@QAE@XZ 0040c3c0 f i cubemap.obj
 0001:0000b3f0       ?RemoveAll@?$CUtlVector@UentitySideList_t@@V?$CUtlMemory@UentitySideList_t@@@@@@QAEXXZ 0040c3f0 f i cubemap.obj
 0001:0000b400       ?Purge@?$CUtlVector@UentitySideList_t@@V?$CUtlMemory@UentitySideList_t@@@@@@QAEXXZ 0040c400 f i cubemap.obj
 0001:0000b450       ??1?$CUtlMemory@UentitySideList_t@@@@QAE@XZ 0040c450 f i cubemap.obj
 0001:0000b480       ?GrowVector@?$CUtlVector@Utexinfo_s@@V?$CUtlMemory@Utexinfo_s@@@@@@IAEXH@Z 0040c480 f i cubemap.obj
 0001:0000b4b0       ?GrowVector@?$CUtlVector@V?$CUtlVector@HV?$CUtlMemory@H@@@@V?$CUtlMemory@V?$CUtlVector@HV?$CUtlMemory@H@@@@@@@@IAEXH@Z 0040c4b0 f i cubemap.obj
 0001:0000b4e0       ?GrowVector@?$CUtlVector@PADV?$CUtlMemory@PAD@@@@IAEXH@Z 0040c4e0 f i cubemap.obj
 0001:0000b510       ?IsValidIndex@?$CUtlRBTree@UCubemapInfo_t@@GP6A_NABU1@0@Z@@QBE_NG@Z 0040c510 f i cubemap.obj
 0001:0000b540       ?NewNode@?$CUtlRBTree@UCubemapInfo_t@@GP6A_NABU1@0@Z@@QAEGXZ 0040c540 f i cubemap.obj
 0001:0000b5a0       ?InsertMultipleBefore@?$CUtlVector@UentitySideList_t@@V?$CUtlMemory@UentitySideList_t@@@@@@QAEHHHPBUentitySideList_t@@@Z 0040c5a0 f i cubemap.obj
 0001:0000b640       ??0?$CUtlVector@HV?$CUtlMemory@H@@@@QAE@HH@Z 0040c640 f i cubemap.obj
 0001:0000b690       ?IsLeftChild@?$CUtlRBTree@UCubemapInfo_t@@GP6A_NABU1@0@Z@@QBE_NG@Z 0040c690 f i cubemap.obj
 0001:0000b6c0       ?IsRightChild@?$CUtlRBTree@UCubemapInfo_t@@GP6A_NABU1@0@Z@@QBE_NG@Z 0040c6c0 f i cubemap.obj
 0001:0000b6f0       ?RotateLeft@?$CUtlRBTree@UCubemapInfo_t@@GP6A_NABU1@0@Z@@IAEXG@Z 0040c6f0 f i cubemap.obj
 0001:0000b7e0       ?RotateRight@?$CUtlRBTree@UCubemapInfo_t@@GP6A_NABU1@0@Z@@IAEXG@Z 0040c7e0 f i cubemap.obj
 0001:0000b8e0       ?Purge@?$CUtlVector@HV?$CUtlMemory@H@@@@QAEXXZ 0040c8e0 f i cubemap.obj
 0001:0000b930       ??1CUtlBuffer@@QAE@XZ      0040c930 f i cubemap.obj
 0001:0000b960       ??0?$CUtlVector@V?$CUtlVector@HV?$CUtlMemory@H@@@@V?$CUtlMemory@V?$CUtlVector@HV?$CUtlMemory@H@@@@@@@@QAE@HH@Z 0040c960 f i cubemap.obj
 0001:0000b9b0       ??0?$CUtlVector@PADV?$CUtlMemory@PAD@@@@QAE@HH@Z 0040c9b0 f i cubemap.obj
 0001:0000ba00       ??1?$CUtlVector@PADV?$CUtlMemory@PAD@@@@QAE@XZ 0040ca00 f i cubemap.obj
 0001:0000ba70       ??0?$CUtlRBTree@UCubemapInfo_t@@GP6A_NABU1@0@Z@@QAE@HHABQ6A_NABUCubemapInfo_t@@0@Z@Z 0040ca70 f i cubemap.obj
 0001:0000bad0       ?Find@?$CUtlRBTree@UCubemapInfo_t@@GP6A_NABU1@0@Z@@QBEGABUCubemapInfo_t@@@Z 0040cad0 f i cubemap.obj
 0001:0000bbd0       ??0?$CUtlVector@UentitySideList_t@@V?$CUtlMemory@UentitySideList_t@@@@@@QAE@HH@Z 0040cbd0 f i cubemap.obj
 0001:0000bc20       ??1?$CUtlVector@UentitySideList_t@@V?$CUtlMemory@UentitySideList_t@@@@@@QAE@XZ 0040cc20 f i cubemap.obj
 0001:0000bc90       ?InsertBefore@?$CUtlVector@Utexinfo_s@@V?$CUtlMemory@Utexinfo_s@@@@@@QAEHHABUtexinfo_s@@@Z 0040cc90 f i cubemap.obj
 0001:0000bd10       ?InsertBefore@?$CUtlVector@HV?$CUtlMemory@H@@@@QAEHHABH@Z 0040cd10 f i cubemap.obj
 0001:0000bd80       ?InsertBefore@?$CUtlVector@PADV?$CUtlMemory@PAD@@@@QAEHH@Z 0040cd80 f i cubemap.obj
 0001:0000bde0       ?Purge@?$CUtlRBTree@UCubemapInfo_t@@GP6A_NABU1@0@Z@@QAEXXZ 0040cde0 f i cubemap.obj
 0001:0000be80       ?AddMultipleToTail@?$CUtlVector@UentitySideList_t@@V?$CUtlMemory@UentitySideList_t@@@@@@QAEHHPBUentitySideList_t@@@Z 0040ce80 f i cubemap.obj
 0001:0000bea0       ??$Construct@V?$CUtlVector@HV?$CUtlMemory@H@@@@@@YAXPAV?$CUtlVector@HV?$CUtlMemory@H@@@@@Z 0040cea0 f i cubemap.obj
 0001:0000bec0       ?InsertRebalance@?$CUtlRBTree@UCubemapInfo_t@@GP6A_NABU1@0@Z@@IAEXG@Z 0040cec0 f i cubemap.obj
 0001:0000c4a0       ??1?$CUtlVector@HV?$CUtlMemory@H@@@@QAE@XZ 0040d4a0 f i cubemap.obj
 0001:0000c7e0       ?CreateDefaultCubemaps@@YAX_N@Z 0040d7e0 f   cubemap.obj
 0001:0000cb90       ?Cubemap_CreateDefaultCubemaps@@YAXXZ 0040db90 f   cubemap.obj
 0001:0000cbb0       ?AddToTail@?$CUtlVector@Utexinfo_s@@V?$CUtlMemory@Utexinfo_s@@@@@@QAEHABUtexinfo_s@@@Z 0040dbb0 f i cubemap.obj
 0001:0000cbd0       ?AddToTail@?$CUtlVector@HV?$CUtlMemory@H@@@@QAEHABH@Z 0040dbd0 f i cubemap.obj
 0001:0000cbf0       ?AddToTail@?$CUtlVector@PADV?$CUtlMemory@PAD@@@@QAEHXZ 0040dbf0 f i cubemap.obj
 0001:0000cc00       ??1?$CUtlRBTree@UCubemapInfo_t@@GP6A_NABU1@0@Z@@QAE@XZ 0040dc00 f i cubemap.obj
 0001:0000cc40       ?SetCount@?$CUtlVector@UentitySideList_t@@V?$CUtlMemory@UentitySideList_t@@@@@@QAEXH@Z 0040dc40 f i cubemap.obj
 0001:0000cc60       ?InsertBefore@?$CUtlVector@V?$CUtlVector@HV?$CUtlMemory@H@@@@V?$CUtlMemory@V?$CUtlVector@HV?$CUtlMemory@H@@@@@@@@QAEHH@Z 0040dc60 f i cubemap.obj
 0001:0000cce0       ?LinkToParent@?$CUtlRBTree@UCubemapInfo_t@@GP6A_NABU1@0@Z@@IAEXGG_N@Z 0040dce0 f i cubemap.obj
 0001:0000cd50       ??_G?$CUtlVector@HV?$CUtlMemory@H@@@@QAEPAXI@Z 0040dd50 f i cubemap.obj
 0001:0000d000       ?Cubemap_FixupBrushSidesMaterials@@YAXXZ 0040e000 f   cubemap.obj
 0001:0000d100       ?Cubemap_AddUnreferencedCubemaps@@YAXXZ 0040e100 f   cubemap.obj
 0001:0000d290       ?AddToTail@?$CUtlVector@V?$CUtlVector@HV?$CUtlMemory@H@@@@V?$CUtlMemory@V?$CUtlVector@HV?$CUtlMemory@H@@@@@@@@QAEHXZ 0040e290 f i cubemap.obj
 0001:0000d2a0       ?InsertAt@?$CUtlRBTree@UCubemapInfo_t@@GP6A_NABU1@0@Z@@IAEGG_N@Z 0040e2a0 f i cubemap.obj
 0001:0000d2d0       ??$Destruct@V?$CUtlVector@HV?$CUtlMemory@H@@@@@@YAXPAV?$CUtlVector@HV?$CUtlMemory@H@@@@@Z 0040e2d0 f i cubemap.obj
 0001:0000d2e0       ?Cubemap_SaveBrushSides@@YAXPBD@Z 0040e2e0 f   cubemap.obj
 0001:0000d3e0       ?Insert@?$CUtlRBTree@UCubemapInfo_t@@GP6A_NABU1@0@Z@@QAEGABUCubemapInfo_t@@@Z 0040e3e0 f i cubemap.obj
 0001:0000d450       ?RemoveAll@?$CUtlVector@V?$CUtlVector@HV?$CUtlMemory@H@@@@V?$CUtlMemory@V?$CUtlVector@HV?$CUtlMemory@H@@@@@@@@QAEXXZ 0040e450 f i cubemap.obj
 0001:0000d4e0       ?Cubemap_InitCubemapSideData@@YAXXZ 0040e4e0 f   cubemap.obj
 0001:0000d660       ?Cubemap_AttachDefaultCubemapToSpecularSides@@YAXXZ 0040e660 f   cubemap.obj
 0001:0000d7d0       ?Purge@?$CUtlVector@V?$CUtlVector@HV?$CUtlMemory@H@@@@V?$CUtlMemory@V?$CUtlVector@HV?$CUtlMemory@H@@@@@@@@QAEXXZ 0040e7d0 f i cubemap.obj
 0001:0000d810       ??1?$CUtlVector@V?$CUtlVector@HV?$CUtlMemory@H@@@@V?$CUtlMemory@V?$CUtlVector@HV?$CUtlMemory@H@@@@@@@@QAE@XZ 0040e810 f i cubemap.obj
 0001:0000d870       ?CopyFace@@YAPAUface_t@@PAU1@@Z 0040e870 f   detail.obj
 0001:0000d8a0       ?AddBrushToLeaf@@YAXPAUnode_t@@PAUbspbrush_t@@@Z 0040e8a0 f   detail.obj
 0001:0000d8c0       ?MergeBrush_r@@YAXPAUnode_t@@PAUbspbrush_t@@@Z 0040e8c0 f   detail.obj
 0001:0000d940       ?MergeFace_r@@YA_NPAUnode_t@@PAUface_t@@1@Z 0040e940 f   detail.obj
 0001:0000daf0       ?FilterFacesIntoTree@@YAPAUface_t@@PAUtree_t@@PAU1@@Z 0040eaf0 f   detail.obj
 0001:0000db80       ?TryMergeFaceList@@YAXPAPAUface_t@@@Z 0040eb80 f   detail.obj
 0001:0000dc90       ?FilterBrushesIntoTree@@YAXPAUtree_t@@PAUbspbrush_t@@@Z 0040ec90 f   detail.obj
 0001:0000dcc0       ?BrushBoxOverlap@@YA_NPAUbspbrush_t@@0@Z 0040ecc0 f   detail.obj
 0001:0000dd20       ?MakeBrushFace@@YAPAUface_t@@PAUside_t@@PAUwinding_t@@@Z 0040ed20 f   detail.obj
 0001:0000dd80       ?FindOriginalSide@@YAPAUside_t@@PAUmapbrush_t@@PAU1@@Z 0040ed80 f   detail.obj
 0001:0000de80       ?Size@?$CUtlVector@HV?$CUtlMemory@H@@@@QBEHXZ 0040ee80 f i detail.obj
 0001:0000de90       ?Count@?$CUtlVector@PAUbspbrush_t@@V?$CUtlMemory@PAUbspbrush_t@@@@@@QBEHXZ 0040ee90 f i detail.obj
 0001:0000dea0       ?Base@?$CUtlMemory@PAUbspbrush_t@@@@QBEPBQAUbspbrush_t@@XZ 0040eea0 f i detail.obj
 0001:0000deb0       ?Base@?$CUtlMemory@PAUbspbrush_t@@@@QAEPAPAUbspbrush_t@@XZ 0040eeb0 f i detail.obj
 0001:0000dec0       ??$Destruct@PAUbspbrush_t@@@@YAXPAPAUbspbrush_t@@@Z 0040eec0 f i detail.obj
 0001:0000ded0       ?ValidateGrowSize@?$CUtlMemory@PAUbspbrush_t@@@@IAEXXZ 0040eed0 f i detail.obj
 0001:0000dee0       ??$CopyConstruct@PAUbspbrush_t@@@@YAXPAPAUbspbrush_t@@ABQAU0@@Z 0040eee0 f i detail.obj
 0001:0000df00       ?NumAllocated@?$CUtlMemory@PAUbspbrush_t@@@@QBEHXZ 0040ef00 f i detail.obj
 0001:0000df10       ?IsExternallyAllocated@?$CUtlMemory@PAUbspbrush_t@@@@QBE_NXZ 0040ef10 f i detail.obj
 0001:0000df20       ?Base@?$CUtlVector@PAUbspbrush_t@@V?$CUtlMemory@PAUbspbrush_t@@@@@@QBEPBQAUbspbrush_t@@XZ 0040ef20 f i detail.obj
 0001:0000df30       ?Base@?$CUtlVector@PAUbspbrush_t@@V?$CUtlMemory@PAUbspbrush_t@@@@@@QAEPAPAUbspbrush_t@@XZ 0040ef30 f i detail.obj
 0001:0000df40       ?Element@?$CUtlVector@PAUbspbrush_t@@V?$CUtlMemory@PAUbspbrush_t@@@@@@QAEAAPAUbspbrush_t@@H@Z 0040ef40 f i detail.obj
 0001:0000df50       ??0?$CUtlMemory@PAUbspbrush_t@@@@QAE@HH@Z 0040ef50 f i detail.obj
 0001:0000df90       ?ShiftElementsRight@?$CUtlVector@PAUbspbrush_t@@V?$CUtlMemory@PAUbspbrush_t@@@@@@IAEXHH@Z 0040ef90 f i detail.obj
 0001:0000dfd0       ?Purge@?$CUtlMemory@PAUbspbrush_t@@@@QAEXXZ 0040efd0 f i detail.obj
 0001:0000e000       ?Grow@?$CUtlMemory@PAUbspbrush_t@@@@QAEXH@Z 0040f000 f i detail.obj
 0001:0000e070       ??A?$CUtlVector@PAUbspbrush_t@@V?$CUtlMemory@PAUbspbrush_t@@@@@@QBEABQAUbspbrush_t@@H@Z 0040f070 f i detail.obj
 0001:0000e080       ?RemoveAll@?$CUtlVector@PAUbspbrush_t@@V?$CUtlMemory@PAUbspbrush_t@@@@@@QAEXXZ 0040f080 f i detail.obj
 0001:0000e090       ?ResetDbgInfo@?$CUtlVector@PAUbspbrush_t@@V?$CUtlMemory@PAUbspbrush_t@@@@@@IAEXXZ 0040f090 f i detail.obj
 0001:0000e0a0       ?Purge@?$CUtlVector@PAUbspbrush_t@@V?$CUtlMemory@PAUbspbrush_t@@@@@@QAEXXZ 0040f0a0 f i detail.obj
 0001:0000e0f0       ??1?$CUtlMemory@PAUbspbrush_t@@@@QAE@XZ 0040f0f0 f i detail.obj
 0001:0000e120       ?GrowVector@?$CUtlVector@PAUbspbrush_t@@V?$CUtlMemory@PAUbspbrush_t@@@@@@IAEXH@Z 0040f120 f i detail.obj
 0001:0000e150       ??0?$CUtlVector@PAUbspbrush_t@@V?$CUtlMemory@PAUbspbrush_t@@@@@@QAE@HH@Z 0040f150 f i detail.obj
 0001:0000e1a0       ??1?$CUtlVector@PAUbspbrush_t@@V?$CUtlMemory@PAUbspbrush_t@@@@@@QAE@XZ 0040f1a0 f i detail.obj
 0001:0000e210       ?InsertBefore@?$CUtlVector@PAUbspbrush_t@@V?$CUtlMemory@PAUbspbrush_t@@@@@@QAEHHABQAUbspbrush_t@@@Z 0040f210 f i detail.obj
 0001:0000e280       ?AddToHead@?$CUtlVector@HV?$CUtlMemory@H@@@@QAEHABH@Z 0040f280 f i detail.obj
 0001:0000e290       ?AddToTail@?$CUtlVector@PAUbspbrush_t@@V?$CUtlMemory@PAUbspbrush_t@@@@@@QAEHABQAUbspbrush_t@@@Z 0040f290 f i detail.obj
 0001:0000e2b0       ?ClipFaceToBrush@@YA_NPAUface_t@@PAUbspbrush_t@@PAPAU1@@Z 0040f2b0 f   detail.obj
 0001:0000e5d0       ?GetListOfCutBrushes@@YAHAAV?$CUtlVector@PAUbspbrush_t@@V?$CUtlMemory@PAUbspbrush_t@@@@@@PAUbspbrush_t@@1@Z 0040f5d0 f   detail.obj
 0001:0000e720       ?ComputeVisibleBrushSides@@YAPAUface_t@@PAUbspbrush_t@@@Z 0040f720 f   detail.obj
 0001:0000e900       ?MergeDetailTree@@YAPAUface_t@@PAUtree_t@@HH@Z 0040f900 f   detail.obj
 0001:0000ea40       ?fabs@@YAMM@Z              0040fa40 f i detailObjects.obj
 0001:0000ea50       ??0CUtlSymbol@@QAE@XZ      0040fa50 f i detailObjects.obj
 0001:0000ea60       ??0CUtlSymbol@@QAE@ABV0@@Z 0040fa60 f i detailObjects.obj
 0001:0000ea70       ??4CUtlSymbol@@QAEAAV0@ABV0@@Z 0040fa70 f i detailObjects.obj
 0001:0000ea80       ??8CUtlSymbol@@QBE_NABV0@@Z 0040fa80 f i detailObjects.obj
 0001:0000eaa0       ??BCUtlSymbol@@QBE?BGXZ    0040faa0 f i detailObjects.obj
 0001:0000eab0       ??0Vector2D@@QAE@ABV0@@Z   0040fab0 f i detailObjects.obj
 0001:0000ead0       ?Init@Vector2D@@QAEXMM@Z   0040fad0 f i detailObjects.obj
 0001:0000eae0       ??4Vector2D@@QAEAAV0@ABV0@@Z 0040fae0 f i detailObjects.obj
 0001:0000eb00       ??_0Vector2D@@QAEAAV0@M@Z  0040fb00 f i detailObjects.obj
 0001:0000eb30       ?VectorDivide@@YAXABVVector@@MAAV1@@Z 0040fb30 f i detailObjects.obj
 0001:0000eb70       ??0QAngle@@QAE@XZ          0040fb70 f i detailObjects.obj
 0001:0000eb80       ?Init@QAngle@@QAEXMMM@Z    0040fb80 f i detailObjects.obj
 0001:0000eba0       ?VectorCopy@@YAXABVQAngle@@AAV1@@Z 0040fba0 f i detailObjects.obj
 0001:0000ebc0       ??0VMatrix@@QAE@XZ         0040fbc0 f i detailObjects.obj
 0001:0000ebd0       ?SetForward@VMatrix@@QAEXABVVector@@@Z 0040fbd0 f i detailObjects.obj
 0001:0000ebf0       ?SetLeft@VMatrix@@QAEXABVVector@@@Z 0040fbf0 f i detailObjects.obj
 0001:0000ec10       ?SetUp@VMatrix@@QAEXABVVector@@@Z 0040fc10 f i detailObjects.obj
 0001:0000ec30       ?SetBasisVectors@VMatrix@@QAEXABVVector@@00@Z 0040fc30 f i detailObjects.obj
 0001:0000ec80       ?SetTranslation@VMatrix@@QAEXABVVector@@@Z 0040fc80 f i detailObjects.obj
 0001:0000eca0       ?IsText@CUtlBuffer@@QBE_NXZ 0040fca0 f i detailObjects.obj
 0001:0000ecb0       ??8DetailObject_t@@QBE_NABU0@@Z 0040fcb0 f i detailObjects.obj
 0001:0000ed70       ??0DetailSpriteDictLump_t@@QAE@XZ 0040fd70 f i detailObjects.obj
 0001:0000ede0       ??0StaticPropLookup_t@@QAE@XZ 0040fde0 f i detailObjects.obj
 0001:0000ef80       ??A?$CUtlMemory@E@@QAEAAEH@Z 0040ff80 f i detailObjects.obj
 0001:0000ef90       ?Count@?$CUtlVector@UDetailModel_t@@V?$CUtlMemory@UDetailModel_t@@@@@@QBEHXZ 0040ff90 f i detailObjects.obj
 0001:0000efa0       ?Count@?$CUtlVector@UDetailObjectGroup_t@@V?$CUtlMemory@UDetailObjectGroup_t@@@@@@QBEHXZ 0040ffa0 f i detailObjects.obj
 0001:0000efb0       ?InvalidIndex@?$CUtlRBTree@UStaticPropLookup_t@@GP6A_NABU1@0@Z@@SAGXZ 0040ffb0 f i detailObjects.obj
 0001:0000efc0       ?Base@?$CUtlMemory@UDetailObjectDictLump_t@@@@QAEPAUDetailObjectDictLump_t@@XZ 0040ffc0 f i detailObjects.obj
 0001:0000efd0       ?Count@?$CUtlVector@UDetailObjectDictLump_t@@V?$CUtlMemory@UDetailObjectDictLump_t@@@@@@QBEHXZ 0040ffd0 f i detailObjects.obj
 0001:0000efe0       ?Base@?$CUtlMemory@UDetailObjectLump_t@@@@QAEPAUDetailObjectLump_t@@XZ 0040ffe0 f i detailObjects.obj
 0001:0000eff0       ?Count@?$CUtlVector@UDetailObjectLump_t@@V?$CUtlMemory@UDetailObjectLump_t@@@@@@QBEHXZ 0040fff0 f i detailObjects.obj
 0001:0000f000       ?Base@?$CUtlMemory@UDetailSpriteDictLump_t@@@@QAEPAUDetailSpriteDictLump_t@@XZ 00410000 f i detailObjects.obj
 0001:0000f010       ?Count@?$CUtlVector@UDetailSpriteDictLump_t@@V?$CUtlMemory@UDetailSpriteDictLump_t@@@@@@QBEHXZ 00410010 f i detailObjects.obj
 0001:0000f020       ?Base@?$CUtlMemory@UDetailObjectGroup_t@@@@QBEPBUDetailObjectGroup_t@@XZ 00410020 f i detailObjects.obj
 0001:0000f030       ?Base@?$CUtlMemory@UDetailObjectGroup_t@@@@QAEPAUDetailObjectGroup_t@@XZ 00410030 f i detailObjects.obj
 0001:0000f040       ?Count@?$CUtlVector@UDetailObject_t@@V?$CUtlMemory@UDetailObject_t@@@@@@QBEHXZ 00410040 f i detailObjects.obj
 0001:0000f050       ?Base@?$CUtlMemory@UDetailObject_t@@@@QAEPAUDetailObject_t@@XZ 00410050 f i detailObjects.obj
 0001:0000f060       ?Base@?$CUtlMemory@UNode_t@?$CUtlRBTree@UStaticPropLookup_t@@GP6A_NABU1@0@Z@@@@QAEPAUNode_t@?$CUtlRBTree@UStaticPropLookup_t@@GP6A_NABU1@0@Z@@XZ 00410060 f i detailObjects.obj
 0001:0000f070       ?Base@?$CUtlMemory@UDetailModel_t@@@@QBEPBUDetailModel_t@@XZ 00410070 f i detailObjects.obj
 0001:0000f080       ?Base@?$CUtlMemory@UDetailModel_t@@@@QAEPAUDetailModel_t@@XZ 00410080 f i detailObjects.obj
 0001:0000f090       ??0StaticPropLookup_t@@QAE@ABU0@@Z 00410090 f i detailObjects.obj
 0001:0000f0b0       ?ValidateGrowSize@?$CUtlMemory@UDetailObjectGroup_t@@@@IAEXXZ 004100b0 f i detailObjects.obj
 0001:0000f0c0       ?ValidateGrowSize@?$CUtlMemory@UDetailObject_t@@@@IAEXXZ 004100c0 f i detailObjects.obj
 0001:0000f0d0       ?ValidateGrowSize@?$CUtlMemory@UNode_t@?$CUtlRBTree@UStaticPropLookup_t@@GP6A_NABU1@0@Z@@@@IAEXXZ 004100d0 f i detailObjects.obj
 0001:0000f0e0       ?ValidateGrowSize@?$CUtlMemory@UDetailObjectDictLump_t@@@@IAEXXZ 004100e0 f i detailObjects.obj
 0001:0000f0f0       ?ValidateGrowSize@?$CUtlMemory@UDetailObjectLump_t@@@@IAEXXZ 004100f0 f i detailObjects.obj
 0001:0000f100       ?ValidateGrowSize@?$CUtlMemory@UDetailSpriteDictLump_t@@@@IAEXXZ 00410100 f i detailObjects.obj
 0001:0000f110       ?Base@?$CUtlMemory@UDetailObject_t@@@@QBEPBUDetailObject_t@@XZ 00410110 f i detailObjects.obj
 0001:0000f120       ??A?$CUtlMemory@UNode_t@?$CUtlRBTree@UStaticPropLookup_t@@GP6A_NABU1@0@Z@@@@QBEABUNode_t@?$CUtlRBTree@UStaticPropLookup_t@@GP6A_NABU1@0@Z@@H@Z 00410120 f i detailObjects.obj
 0001:0000f130       ??A?$CUtlMemory@UNode_t@?$CUtlRBTree@UStaticPropLookup_t@@GP6A_NABU1@0@Z@@@@QAEAAUNode_t@?$CUtlRBTree@UStaticPropLookup_t@@GP6A_NABU1@0@Z@@H@Z 00410130 f i detailObjects.obj
 0001:0000f140       ??$Destruct@UStaticPropLookup_t@@@@YAXPAUStaticPropLookup_t@@@Z 00410140 f i detailObjects.obj
 0001:0000f150       ??$CopyConstruct@UDetailObjectDictLump_t@@@@YAXPAUDetailObjectDictLump_t@@ABU0@@Z 00410150 f i detailObjects.obj
 0001:0000f170       ??0DetailModel_t@@QAE@XZ   00410170 f i detailObjects.obj
 0001:0000f180       ??0DetailObjectLump_t@@QAE@XZ 00410180 f i detailObjects.obj
 0001:0000f190       ??0DetailSpriteDictLump_t@@QAE@ABU0@@Z 00410190 f i detailObjects.obj
 0001:0000f1d0       ?NumAllocated@?$CUtlMemory@UDetailModel_t@@@@QBEHXZ 004101d0 f i detailObjects.obj
 0001:0000f1e0       ?NumAllocated@?$CUtlMemory@UDetailObjectGroup_t@@@@QBEHXZ 004101e0 f i detailObjects.obj
 0001:0000f1f0       ?IsExternallyAllocated@?$CUtlMemory@UDetailObjectGroup_t@@@@QBE_NXZ 004101f0 f i detailObjects.obj
 0001:0000f200       ?NumAllocated@?$CUtlMemory@UDetailObject_t@@@@QBEHXZ 00410200 f i detailObjects.obj
 0001:0000f210       ?IsExternallyAllocated@?$CUtlMemory@UDetailObject_t@@@@QBE_NXZ 00410210 f i detailObjects.obj
 0001:0000f220       ?Links@?$CUtlRBTree@UStaticPropLookup_t@@GP6A_NABU1@0@Z@@IAEAAULinks_t@1@G@Z 00410220 f i detailObjects.obj
 0001:0000f240       ?IsIdxValid@?$CUtlMemory@UNode_t@?$CUtlRBTree@UStaticPropLookup_t@@GP6A_NABU1@0@Z@@@@QBE_NH@Z 00410240 f i detailObjects.obj
 0001:0000f260       ?NumAllocated@?$CUtlMemory@UNode_t@?$CUtlRBTree@UStaticPropLookup_t@@GP6A_NABU1@0@Z@@@@QBEHXZ 00410260 f i detailObjects.obj
 0001:0000f270       ?IsExternallyAllocated@?$CUtlMemory@UNode_t@?$CUtlRBTree@UStaticPropLookup_t@@GP6A_NABU1@0@Z@@@@QBE_NXZ 00410270 f i detailObjects.obj
 0001:0000f280       ??$Construct@UStaticPropLookup_t@@@@YAXPAUStaticPropLookup_t@@@Z 00410280 f i detailObjects.obj
 0001:0000f290       ?NumAllocated@?$CUtlMemory@UDetailObjectDictLump_t@@@@QBEHXZ 00410290 f i detailObjects.obj
 0001:0000f2a0       ?IsExternallyAllocated@?$CUtlMemory@UDetailObjectDictLump_t@@@@QBE_NXZ 004102a0 f i detailObjects.obj
 0001:0000f2b0       ??$Destruct@UDetailObjectDictLump_t@@@@YAXPAUDetailObjectDictLump_t@@@Z 004102b0 f i detailObjects.obj
 0001:0000f2c0       ?NumAllocated@?$CUtlMemory@UDetailObjectLump_t@@@@QBEHXZ 004102c0 f i detailObjects.obj
 0001:0000f2d0       ?IsExternallyAllocated@?$CUtlMemory@UDetailObjectLump_t@@@@QBE_NXZ 004102d0 f i detailObjects.obj
 0001:0000f2e0       ??$Destruct@UDetailObjectLump_t@@@@YAXPAUDetailObjectLump_t@@@Z 004102e0 f i detailObjects.obj
 0001:0000f2f0       ?NumAllocated@?$CUtlMemory@UDetailSpriteDictLump_t@@@@QBEHXZ 004102f0 f i detailObjects.obj
 0001:0000f300       ?IsExternallyAllocated@?$CUtlMemory@UDetailSpriteDictLump_t@@@@QBE_NXZ 00410300 f i detailObjects.obj
 0001:0000f310       ??$Destruct@UDetailSpriteDictLump_t@@@@YAXPAUDetailSpriteDictLump_t@@@Z 00410310 f i detailObjects.obj
 0001:0000f320       ?IsExternallyAllocated@?$CUtlMemory@UDetailModel_t@@@@QBE_NXZ 00410320 f i detailObjects.obj
 0001:0000f330       ?IsRoot@?$CUtlRBTree@UStaticPropLookup_t@@GP6A_NABU1@0@Z@@QBE_NG@Z 00410330 f i detailObjects.obj
 0001:0000f350       ?SetColor@?$CUtlRBTree@UStaticPropLookup_t@@GP6A_NABU1@0@Z@@IAEXGW4NodeColor_t@1@@Z 00410350 f i detailObjects.obj
 0001:0000f370       ?ValidateGrowSize@?$CUtlMemory@UDetailModel_t@@@@IAEXXZ 00410370 f i detailObjects.obj
 0001:0000f380       ?Purge@?$CUtlMemory@UDetailModel_t@@@@QAEXXZ 00410380 f i detailObjects.obj
 0001:0000f3b0       ?SetParent@?$CUtlRBTree@UStaticPropLookup_t@@GP6A_NABU1@0@Z@@IAEXGG@Z 004103b0 f i detailObjects.obj
 0001:0000f3d0       ?SetLeftChild@?$CUtlRBTree@UStaticPropLookup_t@@GP6A_NABU1@0@Z@@IAEXGG@Z 004103d0 f i detailObjects.obj
 0001:0000f3f0       ?SetRightChild@?$CUtlRBTree@UStaticPropLookup_t@@GP6A_NABU1@0@Z@@IAEXGG@Z 004103f0 f i detailObjects.obj
 0001:0000f410       ??$Destruct@UDetailModel_t@@@@YAXPAUDetailModel_t@@@Z 00410410 f i detailObjects.obj
 0001:0000f420       ?PeekPut@CUtlBuffer@@QAEPAXH@Z 00410420 f i detailObjects.obj
 0001:0000f430       ?PutLittleEndianData@CUtlBuffer@@IAEXHPAX@Z 00410430 f i detailObjects.obj
 0001:0000f470       ?Base@?$CUtlVector@UDetailObjectDictLump_t@@V?$CUtlMemory@UDetailObjectDictLump_t@@@@@@QAEPAUDetailObjectDictLump_t@@XZ 00410470 f i detailObjects.obj
 0001:0000f480       ?Base@?$CUtlVector@UDetailObjectLump_t@@V?$CUtlMemory@UDetailObjectLump_t@@@@@@QAEPAUDetailObjectLump_t@@XZ 00410480 f i detailObjects.obj
 0001:0000f490       ?Base@?$CUtlVector@UDetailSpriteDictLump_t@@V?$CUtlMemory@UDetailSpriteDictLump_t@@@@@@QAEPAUDetailSpriteDictLump_t@@XZ 00410490 f i detailObjects.obj
 0001:0000f4a0       ??A?$CUtlVector@UDetailObjectDictLump_t@@V?$CUtlMemory@UDetailObjectDictLump_t@@@@@@QAEAAUDetailObjectDictLump_t@@H@Z 004104a0 f i detailObjects.obj
 0001:0000f4b0       ??A?$CUtlVector@UDetailObjectLump_t@@V?$CUtlMemory@UDetailObjectLump_t@@@@@@QAEAAUDetailObjectLump_t@@H@Z 004104b0 f i detailObjects.obj
 0001:0000f4c0       ??A?$CUtlVector@UDetailSpriteDictLump_t@@V?$CUtlMemory@UDetailSpriteDictLump_t@@@@@@QAEAAUDetailSpriteDictLump_t@@H@Z 004104c0 f i detailObjects.obj
 0001:0000f4d0       ?Base@?$CUtlVector@UDetailModel_t@@V?$CUtlMemory@UDetailModel_t@@@@@@QAEPAUDetailModel_t@@XZ 004104d0 f i detailObjects.obj
 0001:0000f4e0       ?Base@?$CUtlVector@UDetailModel_t@@V?$CUtlMemory@UDetailModel_t@@@@@@QBEPBUDetailModel_t@@XZ 004104e0 f i detailObjects.obj
 0001:0000f4f0       ?Base@?$CUtlVector@UDetailObjectGroup_t@@V?$CUtlMemory@UDetailObjectGroup_t@@@@@@QAEPAUDetailObjectGroup_t@@XZ 004104f0 f i detailObjects.obj
 0001:0000f500       ?Base@?$CUtlVector@UDetailObjectGroup_t@@V?$CUtlMemory@UDetailObjectGroup_t@@@@@@QBEPBUDetailObjectGroup_t@@XZ 00410500 f i detailObjects.obj
 0001:0000f510       ?ResetDbgInfo@?$CUtlVector@UDetailObjectGroup_t@@V?$CUtlMemory@UDetailObjectGroup_t@@@@@@IAEXXZ 00410510 f i detailObjects.obj
 0001:0000f520       ?Base@?$CUtlVector@UDetailObject_t@@V?$CUtlMemory@UDetailObject_t@@@@@@QAEPAUDetailObject_t@@XZ 00410520 f i detailObjects.obj
 0001:0000f530       ?ResetDbgInfo@?$CUtlVector@UDetailObject_t@@V?$CUtlMemory@UDetailObject_t@@@@@@IAEXXZ 00410530 f i detailObjects.obj
 0001:0000f540       ?ResetDbgInfo@?$CUtlRBTree@UStaticPropLookup_t@@GP6A_NABU1@0@Z@@IAEXXZ 00410540 f i detailObjects.obj
 0001:0000f550       ?ResetDbgInfo@?$CUtlVector@UDetailObjectDictLump_t@@V?$CUtlMemory@UDetailObjectDictLump_t@@@@@@IAEXXZ 00410550 f i detailObjects.obj
 0001:0000f560       ?ResetDbgInfo@?$CUtlVector@UDetailObjectLump_t@@V?$CUtlMemory@UDetailObjectLump_t@@@@@@IAEXXZ 00410560 f i detailObjects.obj
 0001:0000f570       ?ResetDbgInfo@?$CUtlVector@UDetailSpriteDictLump_t@@V?$CUtlMemory@UDetailSpriteDictLump_t@@@@@@IAEXXZ 00410570 f i detailObjects.obj
 0001:0000f580       ??$PutTypeBin@H@CUtlBuffer@@IAEXH@Z 00410580 f i detailObjects.obj
 0001:0000f5d0       ??0?$CUtlMemory@UDetailObjectGroup_t@@@@QAE@HH@Z 004105d0 f i detailObjects.obj
 0001:0000f610       ??0?$CUtlMemory@UDetailObject_t@@@@QAE@HH@Z 00410610 f i detailObjects.obj
 0001:0000f660       ?Element@?$CUtlRBTree@UStaticPropLookup_t@@GP6A_NABU1@0@Z@@QBEABUStaticPropLookup_t@@G@Z 00410660 f i detailObjects.obj
 0001:0000f680       ?Element@?$CUtlRBTree@UStaticPropLookup_t@@GP6A_NABU1@0@Z@@QAEAAUStaticPropLookup_t@@G@Z 00410680 f i detailObjects.obj
 0001:0000f6a0       ??0?$CUtlMemory@UNode_t@?$CUtlRBTree@UStaticPropLookup_t@@GP6A_NABU1@0@Z@@@@QAE@HH@Z 004106a0 f i detailObjects.obj
 0001:0000f6e0       ??$CopyConstruct@UStaticPropLookup_t@@@@YAXPAUStaticPropLookup_t@@ABU0@@Z 004106e0 f i detailObjects.obj
 0001:0000f700       ??0?$CUtlMemory@UDetailObjectDictLump_t@@@@QAE@HH@Z 00410700 f i detailObjects.obj
 0001:0000f740       ??0?$CUtlMemory@UDetailObjectLump_t@@@@QAE@HH@Z 00410740 f i detailObjects.obj
 0001:0000f780       ??0?$CUtlMemory@UDetailSpriteDictLump_t@@@@QAE@HH@Z 00410780 f i detailObjects.obj
 0001:0000f7c0       ?Base@?$CUtlVector@UDetailObject_t@@V?$CUtlMemory@UDetailObject_t@@@@@@QBEPBUDetailObject_t@@XZ 004107c0 f i detailObjects.obj
 0001:0000f7d0       ?Element@?$CUtlVector@UDetailModel_t@@V?$CUtlMemory@UDetailModel_t@@@@@@QAEAAUDetailModel_t@@H@Z 004107d0 f i detailObjects.obj
 0001:0000f7f0       ?ShiftElementsRight@?$CUtlVector@UDetailModel_t@@V?$CUtlMemory@UDetailModel_t@@@@@@IAEXHH@Z 004107f0 f i detailObjects.obj
 0001:0000f840       ??$Construct@UDetailModel_t@@@@YAXPAUDetailModel_t@@@Z 00410840 f i detailObjects.obj
 0001:0000f850       ?Element@?$CUtlVector@UDetailObjectGroup_t@@V?$CUtlMemory@UDetailObjectGroup_t@@@@@@QAEAAUDetailObjectGroup_t@@H@Z 00410850 f i detailObjects.obj
 0001:0000f860       ?ShiftElementsRight@?$CUtlVector@UDetailObjectGroup_t@@V?$CUtlMemory@UDetailObjectGroup_t@@@@@@IAEXHH@Z 00410860 f i detailObjects.obj
 0001:0000f8b0       ?Purge@?$CUtlMemory@UDetailObjectGroup_t@@@@QAEXXZ 004108b0 f i detailObjects.obj
 0001:0000f8e0       ?Element@?$CUtlVector@UDetailObject_t@@V?$CUtlMemory@UDetailObject_t@@@@@@QAEAAUDetailObject_t@@H@Z 004108e0 f i detailObjects.obj
 0001:0000f900       ?ShiftElementsRight@?$CUtlVector@UDetailObject_t@@V?$CUtlMemory@UDetailObject_t@@@@@@IAEXHH@Z 00410900 f i detailObjects.obj
 0001:0000f960       ?Purge@?$CUtlMemory@UDetailObject_t@@@@QAEXXZ 00410960 f i detailObjects.obj
 0001:0000f990       ?Links@?$CUtlRBTree@UStaticPropLookup_t@@GP6A_NABU1@0@Z@@IBEABULinks_t@1@G@Z 00410990 f i detailObjects.obj
 0001:0000f9f0       ?Purge@?$CUtlMemory@UNode_t@?$CUtlRBTree@UStaticPropLookup_t@@GP6A_NABU1@0@Z@@@@QAEXXZ 004109f0 f i detailObjects.obj
 0001:0000fa20       ?Purge@?$CUtlMemory@UDetailObjectDictLump_t@@@@QAEXXZ 00410a20 f i detailObjects.obj
 0001:0000fa50       ?Element@?$CUtlVector@UDetailObjectDictLump_t@@V?$CUtlMemory@UDetailObjectDictLump_t@@@@@@QAEAAUDetailObjectDictLump_t@@H@Z 00410a50 f i detailObjects.obj
 0001:0000fa60       ?RemoveAll@?$CUtlVector@UDetailObjectDictLump_t@@V?$CUtlMemory@UDetailObjectDictLump_t@@@@@@QAEXXZ 00410a60 f i detailObjects.obj
 0001:0000fa70       ?ShiftElementsRight@?$CUtlVector@UDetailObjectDictLump_t@@V?$CUtlMemory@UDetailObjectDictLump_t@@@@@@IAEXHH@Z 00410a70 f i detailObjects.obj
 0001:0000fab0       ?Purge@?$CUtlMemory@UDetailObjectLump_t@@@@QAEXXZ 00410ab0 f i detailObjects.obj
 0001:0000fae0       ?Element@?$CUtlVector@UDetailObjectLump_t@@V?$CUtlMemory@UDetailObjectLump_t@@@@@@QAEAAUDetailObjectLump_t@@H@Z 00410ae0 f i detailObjects.obj
 0001:0000faf0       ?RemoveAll@?$CUtlVector@UDetailObjectLump_t@@V?$CUtlMemory@UDetailObjectLump_t@@@@@@QAEXXZ 00410af0 f i detailObjects.obj
 0001:0000fb00       ?ShiftElementsRight@?$CUtlVector@UDetailObjectLump_t@@V?$CUtlMemory@UDetailObjectLump_t@@@@@@IAEXHH@Z 00410b00 f i detailObjects.obj
 0001:0000fb40       ??$Construct@UDetailObjectLump_t@@@@YAXPAUDetailObjectLump_t@@@Z 00410b40 f i detailObjects.obj
 0001:0000fb50       ?Purge@?$CUtlMemory@UDetailSpriteDictLump_t@@@@QAEXXZ 00410b50 f i detailObjects.obj
 0001:0000fb80       ?Element@?$CUtlVector@UDetailSpriteDictLump_t@@V?$CUtlMemory@UDetailSpriteDictLump_t@@@@@@QAEAAUDetailSpriteDictLump_t@@H@Z 00410b80 f i detailObjects.obj
 0001:0000fb90       ?RemoveAll@?$CUtlVector@UDetailSpriteDictLump_t@@V?$CUtlMemory@UDetailSpriteDictLump_t@@@@@@QAEXXZ 00410b90 f i detailObjects.obj
 0001:0000fba0       ?ShiftElementsRight@?$CUtlVector@UDetailSpriteDictLump_t@@V?$CUtlMemory@UDetailSpriteDictLump_t@@@@@@IAEXHH@Z 00410ba0 f i detailObjects.obj
 0001:0000fbe0       ??$CopyConstruct@UDetailSpriteDictLump_t@@@@YAXPAUDetailSpriteDictLump_t@@ABU0@@Z 00410be0 f i detailObjects.obj
 0001:0000fc20       ?ResetDbgInfo@?$CUtlVector@UDetailModel_t@@V?$CUtlMemory@UDetailModel_t@@@@@@IAEXXZ 00410c20 f i detailObjects.obj
 0001:0000fc30       ?Grow@?$CUtlMemory@UDetailModel_t@@@@QAEXH@Z 00410c30 f i detailObjects.obj
 0001:0000fcc0       ?Grow@?$CUtlMemory@UDetailObjectGroup_t@@@@QAEXH@Z 00410cc0 f i detailObjects.obj
 0001:0000fd40       ?Grow@?$CUtlMemory@UDetailObject_t@@@@QAEXH@Z 00410d40 f i detailObjects.obj
 0001:0000fdd0       ?Grow@?$CUtlMemory@UNode_t@?$CUtlRBTree@UStaticPropLookup_t@@GP6A_NABU1@0@Z@@@@QAEXH@Z 00410dd0 f i detailObjects.obj
 0001:0000fe40       ?Grow@?$CUtlMemory@UDetailObjectDictLump_t@@@@QAEXH@Z 00410e40 f i detailObjects.obj
 0001:0000feb0       ?Grow@?$CUtlMemory@UDetailObjectLump_t@@@@QAEXH@Z 00410eb0 f i detailObjects.obj
 0001:0000ff20       ?Grow@?$CUtlMemory@UDetailSpriteDictLump_t@@@@QAEXH@Z 00410f20 f i detailObjects.obj
 0001:0000ff90       ??0?$CUtlMemory@UDetailModel_t@@@@QAE@HH@Z 00410f90 f i detailObjects.obj
 0001:0000ffd0       ??1?$CUtlMemory@UDetailModel_t@@@@QAE@XZ 00410fd0 f i detailObjects.obj
 0001:00010000       ?Parent@?$CUtlRBTree@UStaticPropLookup_t@@GP6A_NABU1@0@Z@@QBEGG@Z 00411000 f i detailObjects.obj
 0001:00010020       ?IsRed@?$CUtlRBTree@UStaticPropLookup_t@@GP6A_NABU1@0@Z@@IBE_NG@Z 00411020 f i detailObjects.obj
 0001:00010040       ?Color@?$CUtlRBTree@UStaticPropLookup_t@@GP6A_NABU1@0@Z@@IBE?AW4NodeColor_t@1@G@Z 00411040 f i detailObjects.obj
 0001:00010060       ?RemoveAll@?$CUtlVector@UDetailModel_t@@V?$CUtlMemory@UDetailModel_t@@@@@@QAEXXZ 00411060 f i detailObjects.obj
 0001:00010070       ??$PutType@H@CUtlBuffer@@IAEXHPBD@Z 00411070 f i detailObjects.obj
 0001:000100a0       ??A?$CUtlVector@UDetailModel_t@@V?$CUtlMemory@UDetailModel_t@@@@@@QBEABUDetailModel_t@@H@Z 004110a0 f i detailObjects.obj
 0001:000100c0       ??A?$CUtlVector@UDetailModel_t@@V?$CUtlMemory@UDetailModel_t@@@@@@QAEAAUDetailModel_t@@H@Z 004110c0 f i detailObjects.obj
 0001:000100e0       ??A?$CUtlVector@UDetailObjectGroup_t@@V?$CUtlMemory@UDetailObjectGroup_t@@@@@@QBEABUDetailObjectGroup_t@@H@Z 004110e0 f i detailObjects.obj
 0001:000100f0       ??A?$CUtlVector@UDetailObjectGroup_t@@V?$CUtlMemory@UDetailObjectGroup_t@@@@@@QAEAAUDetailObjectGroup_t@@H@Z 004110f0 f i detailObjects.obj
 0001:00010100       ??A?$CUtlVector@UDetailObject_t@@V?$CUtlMemory@UDetailObject_t@@@@@@QAEAAUDetailObject_t@@H@Z 00411100 f i detailObjects.obj
 0001:00010120       ??A?$CUtlRBTree@UStaticPropLookup_t@@GP6A_NABU1@0@Z@@QAEAAUStaticPropLookup_t@@G@Z 00411120 f i detailObjects.obj
 0001:00010140       ??1?$CUtlMemory@UDetailObjectGroup_t@@@@QAE@XZ 00411140 f i detailObjects.obj
 0001:00010170       ?Element@?$CUtlVector@UDetailObject_t@@V?$CUtlMemory@UDetailObject_t@@@@@@QBEABUDetailObject_t@@H@Z 00411170 f i detailObjects.obj
 0001:00010190       ??1?$CUtlMemory@UDetailObject_t@@@@QAE@XZ 00411190 f i detailObjects.obj
 0001:000101c0       ?LeftChild@?$CUtlRBTree@UStaticPropLookup_t@@GP6A_NABU1@0@Z@@QBEGG@Z 004111c0 f i detailObjects.obj
 0001:000101d0       ?RightChild@?$CUtlRBTree@UStaticPropLookup_t@@GP6A_NABU1@0@Z@@QBEGG@Z 004111d0 f i detailObjects.obj
 0001:000101f0       ?FindInsertionPosition@?$CUtlRBTree@UStaticPropLookup_t@@GP6A_NABU1@0@Z@@IAEXABUStaticPropLookup_t@@AAGAA_N@Z 004111f0 f i detailObjects.obj
 0001:00010300       ??1?$CUtlMemory@UNode_t@?$CUtlRBTree@UStaticPropLookup_t@@GP6A_NABU1@0@Z@@@@QAE@XZ 00411300 f i detailObjects.obj
 0001:00010330       ??1?$CUtlMemory@UDetailObjectDictLump_t@@@@QAE@XZ 00411330 f i detailObjects.obj
 0001:00010360       ?Purge@?$CUtlVector@UDetailObjectDictLump_t@@V?$CUtlMemory@UDetailObjectDictLump_t@@@@@@QAEXXZ 00411360 f i detailObjects.obj
 0001:000103b0       ??1?$CUtlMemory@UDetailObjectLump_t@@@@QAE@XZ 004113b0 f i detailObjects.obj
 0001:000103e0       ?Purge@?$CUtlVector@UDetailObjectLump_t@@V?$CUtlMemory@UDetailObjectLump_t@@@@@@QAEXXZ 004113e0 f i detailObjects.obj
 0001:00010430       ??1?$CUtlMemory@UDetailSpriteDictLump_t@@@@QAE@XZ 00411430 f i detailObjects.obj
 0001:00010460       ?Purge@?$CUtlVector@UDetailSpriteDictLump_t@@V?$CUtlMemory@UDetailSpriteDictLump_t@@@@@@QAEXXZ 00411460 f i detailObjects.obj
 0001:000104b0       ?GrowVector@?$CUtlVector@UDetailModel_t@@V?$CUtlMemory@UDetailModel_t@@@@@@IAEXH@Z 004114b0 f i detailObjects.obj
 0001:000104e0       ?GrowVector@?$CUtlVector@UDetailObjectGroup_t@@V?$CUtlMemory@UDetailObjectGroup_t@@@@@@IAEXH@Z 004114e0 f i detailObjects.obj
 0001:00010510       ?GrowVector@?$CUtlVector@UDetailObject_t@@V?$CUtlMemory@UDetailObject_t@@@@@@IAEXH@Z 00411510 f i detailObjects.obj
 0001:00010540       ?IsValidIndex@?$CUtlRBTree@UStaticPropLookup_t@@GP6A_NABU1@0@Z@@QBE_NG@Z 00411540 f i detailObjects.obj
 0001:00010570       ?NewNode@?$CUtlRBTree@UStaticPropLookup_t@@GP6A_NABU1@0@Z@@QAEGXZ 00411570 f i detailObjects.obj
 0001:000105e0       ?GrowVector@?$CUtlVector@UDetailObjectDictLump_t@@V?$CUtlMemory@UDetailObjectDictLump_t@@@@@@IAEXH@Z 004115e0 f i detailObjects.obj
 0001:00010610       ?GrowVector@?$CUtlVector@UDetailObjectLump_t@@V?$CUtlMemory@UDetailObjectLump_t@@@@@@IAEXH@Z 00411610 f i detailObjects.obj
 0001:00010640       ?GrowVector@?$CUtlVector@UDetailSpriteDictLump_t@@V?$CUtlMemory@UDetailSpriteDictLump_t@@@@@@IAEXH@Z 00411640 f i detailObjects.obj
 0001:00010670       ??0?$CUtlVector@UDetailModel_t@@V?$CUtlMemory@UDetailModel_t@@@@@@QAE@HH@Z 00411670 f i detailObjects.obj
 0001:000106c0       ?Purge@?$CUtlVector@UDetailModel_t@@V?$CUtlMemory@UDetailModel_t@@@@@@QAEXXZ 004116c0 f i detailObjects.obj
 0001:00010710       ?IsLeftChild@?$CUtlRBTree@UStaticPropLookup_t@@GP6A_NABU1@0@Z@@QBE_NG@Z 00411710 f i detailObjects.obj
 0001:00010740       ?IsRightChild@?$CUtlRBTree@UStaticPropLookup_t@@GP6A_NABU1@0@Z@@QBE_NG@Z 00411740 f i detailObjects.obj
 0001:00010770       ?RotateLeft@?$CUtlRBTree@UStaticPropLookup_t@@GP6A_NABU1@0@Z@@IAEXG@Z 00411770 f i detailObjects.obj
 0001:00010870       ?RotateRight@?$CUtlRBTree@UStaticPropLookup_t@@GP6A_NABU1@0@Z@@IAEXG@Z 00411870 f i detailObjects.obj
 0001:00010970       ?PutInt@CUtlBuffer@@QAEXH@Z 00411970 f i detailObjects.obj
 0001:00010ca0       ??0?$CUtlVector@UDetailObjectGroup_t@@V?$CUtlMemory@UDetailObjectGroup_t@@@@@@QAE@HH@Z 00411ca0 f i detailObjects.obj
 0001:00010cf0       ??0?$CUtlVector@UDetailObject_t@@V?$CUtlMemory@UDetailObject_t@@@@@@QAE@HH@Z 00411cf0 f i detailObjects.obj
 0001:00010d40       ?Find@?$CUtlVector@UDetailObject_t@@V?$CUtlMemory@UDetailObject_t@@@@@@QBEHABUDetailObject_t@@@Z 00411d40 f i detailObjects.obj
 0001:00010d70       ??0?$CUtlRBTree@UStaticPropLookup_t@@GP6A_NABU1@0@Z@@QAE@HHABQ6A_NABUStaticPropLookup_t@@0@Z@Z 00411d70 f i detailObjects.obj
 0001:00010de0       ?Find@?$CUtlRBTree@UStaticPropLookup_t@@GP6A_NABU1@0@Z@@QBEGABUStaticPropLookup_t@@@Z 00411de0 f i detailObjects.obj
 0001:00010ef0       ??0?$CUtlVector@UDetailObjectDictLump_t@@V?$CUtlMemory@UDetailObjectDictLump_t@@@@@@QAE@HH@Z 00411ef0 f i detailObjects.obj
 0001:00010f40       ??1?$CUtlVector@UDetailObjectDictLump_t@@V?$CUtlMemory@UDetailObjectDictLump_t@@@@@@QAE@XZ 00411f40 f i detailObjects.obj
 0001:00010fb0       ??0?$CUtlVector@UDetailObjectLump_t@@V?$CUtlMemory@UDetailObjectLump_t@@@@@@QAE@HH@Z 00411fb0 f i detailObjects.obj
 0001:00011000       ??1?$CUtlVector@UDetailObjectLump_t@@V?$CUtlMemory@UDetailObjectLump_t@@@@@@QAE@XZ 00412000 f i detailObjects.obj
 0001:00011070       ??0?$CUtlVector@UDetailSpriteDictLump_t@@V?$CUtlMemory@UDetailSpriteDictLump_t@@@@@@QAE@HH@Z 00412070 f i detailObjects.obj
 0001:000110c0       ??1?$CUtlVector@UDetailSpriteDictLump_t@@V?$CUtlMemory@UDetailSpriteDictLump_t@@@@@@QAE@XZ 004120c0 f i detailObjects.obj
 0001:00011130       ?InsertBefore@?$CUtlVector@UDetailModel_t@@V?$CUtlMemory@UDetailModel_t@@@@@@QAEHH@Z 00412130 f i detailObjects.obj
 0001:000111b0       ?Purge@?$CUtlRBTree@UStaticPropLookup_t@@GP6A_NABU1@0@Z@@QAEXXZ 004121b0 f i detailObjects.obj
 0001:00011250       ?InsertBefore@?$CUtlVector@UDetailObjectDictLump_t@@V?$CUtlMemory@UDetailObjectDictLump_t@@@@@@QAEHHABUDetailObjectDictLump_t@@@Z 00412250 f i detailObjects.obj
 0001:000112c0       ?InsertBefore@?$CUtlVector@UDetailObjectLump_t@@V?$CUtlMemory@UDetailObjectLump_t@@@@@@QAEHH@Z 004122c0 f i detailObjects.obj
 0001:00011320       ?InsertBefore@?$CUtlVector@UDetailSpriteDictLump_t@@V?$CUtlMemory@UDetailSpriteDictLump_t@@@@@@QAEHHABUDetailSpriteDictLump_t@@@Z 00412320 f i detailObjects.obj
 0001:000113c0       ??1?$CUtlVector@UDetailModel_t@@V?$CUtlMemory@UDetailModel_t@@@@@@QAE@XZ 004123c0 f i detailObjects.obj
 0001:00011430       ?InsertRebalance@?$CUtlRBTree@UStaticPropLookup_t@@GP6A_NABU1@0@Z@@IAEXG@Z 00412430 f i detailObjects.obj
 0001:000119a0       ??1DetailObjectGroup_t@@QAE@XZ 004129a0 f i detailObjects.obj
 0001:000119b0       ?AddToTail@?$CUtlVector@UDetailModel_t@@V?$CUtlMemory@UDetailModel_t@@@@@@QAEHXZ 004129b0 f i detailObjects.obj
 0001:000119c0       ??1?$CUtlRBTree@UStaticPropLookup_t@@GP6A_NABU1@0@Z@@QAE@XZ 004129c0 f i detailObjects.obj
 0001:00011a00       ?AddToTail@?$CUtlVector@UDetailObjectDictLump_t@@V?$CUtlMemory@UDetailObjectDictLump_t@@@@@@QAEHABUDetailObjectDictLump_t@@@Z 00412a00 f i detailObjects.obj
 0001:00011a20       ?AddToTail@?$CUtlVector@UDetailObjectLump_t@@V?$CUtlMemory@UDetailObjectLump_t@@@@@@QAEHXZ 00412a20 f i detailObjects.obj
 0001:00011a30       ?AddToTail@?$CUtlVector@UDetailSpriteDictLump_t@@V?$CUtlMemory@UDetailSpriteDictLump_t@@@@@@QAEHABUDetailSpriteDictLump_t@@@Z 00412a30 f i detailObjects.obj
 0001:00011a50       ?LinkToParent@?$CUtlRBTree@UStaticPropLookup_t@@GP6A_NABU1@0@Z@@IAEXGG_N@Z 00412a50 f i detailObjects.obj
 0001:00011ac0       ??0DetailObjectGroup_t@@QAE@XZ 00412ac0 f i detailObjects.obj
 0001:00011ae0       ??_GDetailObjectGroup_t@@QAEPAXI@Z 00412ae0 f i detailObjects.obj
 0001:00011ea0       ?InsertAt@?$CUtlRBTree@UStaticPropLookup_t@@GP6A_NABU1@0@Z@@IAEGG_N@Z 00412ea0 f i detailObjects.obj
 0001:00011ed0       ??$Construct@UDetailObjectGroup_t@@@@YAXPAUDetailObjectGroup_t@@@Z 00412ed0 f i detailObjects.obj
 0001:00011ef0       ??$Destruct@UDetailObjectGroup_t@@@@YAXPAUDetailObjectGroup_t@@@Z 00412ef0 f i detailObjects.obj
 0001:00011f00       ?Insert@?$CUtlRBTree@UStaticPropLookup_t@@GP6A_NABU1@0@Z@@QAEGABUStaticPropLookup_t@@@Z 00412f00 f i detailObjects.obj
 0001:00011f70       ?InsertBefore@?$CUtlVector@UDetailObjectGroup_t@@V?$CUtlMemory@UDetailObjectGroup_t@@@@@@QAEHH@Z 00412f70 f i detailObjects.obj
 0001:00011ff0       ?RemoveAll@?$CUtlVector@UDetailObjectGroup_t@@V?$CUtlMemory@UDetailObjectGroup_t@@@@@@QAEXXZ 00412ff0 f i detailObjects.obj
 0001:00012980       ?InsertAfter@?$CUtlVector@UDetailObjectGroup_t@@V?$CUtlMemory@UDetailObjectGroup_t@@@@@@QAEHH@Z 00413980 f i detailObjects.obj
 0001:00012990       ?Purge@?$CUtlVector@UDetailObjectGroup_t@@V?$CUtlMemory@UDetailObjectGroup_t@@@@@@QAEXXZ 00413990 f i detailObjects.obj
 0001:00012f40       ??1?$CUtlVector@UDetailObjectGroup_t@@V?$CUtlMemory@UDetailObjectGroup_t@@@@@@QAE@XZ 00413f40 f i detailObjects.obj
 0001:00012fa0       ??0DetailObject_t@@QAE@XZ  00413fa0 f i detailObjects.obj
 0001:00012fc0       ??1DetailObject_t@@QAE@XZ  00413fc0 f i detailObjects.obj
 0001:00012fd0       ??$Construct@UDetailObject_t@@@@YAXPAUDetailObject_t@@@Z 00413fd0 f i detailObjects.obj
 0001:00012ff0       ??_GDetailObject_t@@QAEPAXI@Z 00413ff0 f i detailObjects.obj
 0001:00013020       ?EmitDetailModels@@YAXXZ   00414020 f   detailObjects.obj
 0001:000133e0       ?EmitDetailObjects@@YAXXZ  004143e0 f   detailObjects.obj
 0001:00013420       ?InsertBefore@?$CUtlVector@UDetailObject_t@@V?$CUtlMemory@UDetailObject_t@@@@@@QAEHH@Z 00414420 f i detailObjects.obj
 0001:000134b0       ??$Destruct@UDetailObject_t@@@@YAXPAUDetailObject_t@@@Z 004144b0 f i detailObjects.obj
 0001:000134c0       ?AddToTail@?$CUtlVector@UDetailObject_t@@V?$CUtlMemory@UDetailObject_t@@@@@@QAEHXZ 004144c0 f i detailObjects.obj
 0001:000134d0       ?RemoveAll@?$CUtlVector@UDetailObject_t@@V?$CUtlMemory@UDetailObject_t@@@@@@QAEXXZ 004144d0 f i detailObjects.obj
 0001:00013640       ?LoadEmitDetailObjectDictionary@@YAXPBD@Z 00414640 f   detailObjects.obj
 0001:00013690       ?Purge@?$CUtlVector@UDetailObject_t@@V?$CUtlMemory@UDetailObject_t@@@@@@QAEXXZ 00414690 f i detailObjects.obj
 0001:000136d0       ??1?$CUtlVector@UDetailObject_t@@V?$CUtlMemory@UDetailObject_t@@@@@@QAE@XZ 004146d0 f i detailObjects.obj
 0001:00013730       ??0CVertIndex@@QAE@XZ      00414730 f i disp_common.obj
 0001:00013740       ??0CVertIndex@@QAE@FF@Z    00414740 f i disp_common.obj
 0001:00013760       ?Init@CVertIndex@@QAEXFF@Z 00414760 f i disp_common.obj
 0001:00013780       ??ACVertIndex@@QAEAAFF@Z   00414780 f i disp_common.obj
 0001:00013790       ??ACVertIndex@@QBEABFF@Z   00414790 f i disp_common.obj
 0001:000137a0       ??YCVertIndex@@QAEXABV0@@Z 004147a0 f i disp_common.obj
 0001:000137c0       ??ZCVertIndex@@QAEXABV0@@Z 004147c0 f i disp_common.obj
 0001:000137e0       ??9CVertIndex@@QBE_NABV0@@Z 004147e0 f i disp_common.obj
 0001:00013810       ?VectorsAreEqual@@YA_NABVVector@@0M@Z 00414810 f i disp_common.obj
 0001:000138a0       ?VectorMin@@YAXABVVector@@0AAV1@@Z 004148a0 f i disp_common.obj
 0001:00013920       ?VectorMax@@YAXABVVector@@0AAV1@@Z 00414920 f i disp_common.obj
 0001:000139a0       ?GetNeighborIndex@CDispSubNeighbor@@QBEGXZ 004149a0 f i disp_common.obj
 0001:000139b0       ?GetSpan@CDispSubNeighbor@@QBE?AW4NeighborSpan@@XZ 004149b0 f i disp_common.obj
 0001:000139c0       ?GetNeighborSpan@CDispSubNeighbor@@QBE?AW4NeighborSpan@@XZ 004149c0 f i disp_common.obj
 0001:000139d0       ?GetNeighborOrientation@CDispSubNeighbor@@QBE?AW4NeighborOrientation@@XZ 004149d0 f i disp_common.obj
 0001:000139e0       ?IsValid@CDispSubNeighbor@@QBE_NXZ 004149e0 f i disp_common.obj
 0001:000139f0       ?SetInvalid@CDispSubNeighbor@@QAEXXZ 004149f0 f i disp_common.obj
 0001:00013a00       ?SetInvalid@CDispNeighbor@@QAEXXZ 00414a00 f i disp_common.obj
 0001:00013a10       ?SetInvalid@CDispCornerNeighbors@@QAEXXZ 00414a10 f i disp_common.obj
 0001:00013a20       ?GetVertIndex@CDispSubEdgeIterator@@QBEABVCVertIndex@@XZ 00414a20 f i disp_common.obj
 0001:00013a30       ?GetNBVertIndex@CDispSubEdgeIterator@@QBEABVCVertIndex@@XZ 00414a30 f i disp_common.obj
 0001:00013a40       ?GetNeighbor@CDispSubEdgeIterator@@QBEPAVCDispUtilsHelper@@XZ 00414a40 f i disp_common.obj
 0001:00013a50       ?GetVertIndex@CDispEdgeIterator@@QBEABVCVertIndex@@XZ 00414a50 f i disp_common.obj
 0001:00013a60       ?GetNBVertIndex@CDispEdgeIterator@@QBEABVCVertIndex@@XZ 00414a60 f i disp_common.obj
 0001:00013a70       ?GetCurrentNeighbor@CDispEdgeIterator@@QBEPAVCDispUtilsHelper@@XZ 00414a70 f i disp_common.obj
 0001:00013a80       ?GetPower@CPowerInfo@@QBEHXZ 00414a80 f i disp_common.obj
 0001:00013a90       ?GetSideLength@CPowerInfo@@QBEHXZ 00414a90 f i disp_common.obj
 0001:00013aa0       ?GetMidPoint@CPowerInfo@@QBEHXZ 00414aa0 f i disp_common.obj
 0001:00013ab0       ?GetCornerNeighbors@CCoreDispSurface@@QBEPBVCDispCornerNeighbors@@H@Z 00414ab0 f i disp_common.obj
 0001:00013ad0       ?GetEdgeNeighbor@CCoreDispSurface@@QBEPBVCDispNeighbor@@H@Z 00414ad0 f i disp_common.obj
 0001:00013af0       ?GetPoint@CCoreDispSurface@@QBEXHAAVVector@@@Z 00414af0 f i disp_common.obj
 0001:00013b20       ?GetPoint@CCoreDispSurface@@QBEABVVector@@H@Z 00414b20 f i disp_common.obj
 0001:00013b30       ?FromDispUtils@CCoreDispInfo@@SAPAV1@PAVCDispUtilsHelper@@@Z 00414b30 f i disp_common.obj
 0001:00013b40       ?GetSurface@CCoreDispInfo@@QAEPAVCCoreDispSurface@@XZ 00414b40 f i disp_common.obj
 0001:00013b50       ?GetSurface@CCoreDispInfo@@QBEPBVCCoreDispSurface@@XZ 00414b50 f i disp_common.obj
 0001:00013b60       ?GetCornerPointIndex@CCoreDispInfo@@QBEABVCVertIndex@@H@Z 00414b60 f i disp_common.obj
 0001:00013b80       ?GetCornerNeighbors@CCoreDispInfo@@QBEPBVCDispCornerNeighbors@@H@Z 00414b80 f i disp_common.obj
 0001:00013ba0       ?GetEdgeNeighbor@CCoreDispInfo@@QBEPBVCDispNeighbor@@H@Z 00414ba0 f i disp_common.obj
 0001:00013bc0       ?GetListIndex@CCoreDispInfo@@QAEHXZ 00414bc0 f i disp_common.obj
 0001:00013bd0       ?GetAllowedVerts@CCoreDispInfo@@QAEAAV?$CBitVec@$0BCB@@@XZ 00414bd0 f i disp_common.obj
 0001:00013be0       ?GetVert@CCoreDispInfo@@QBEABVVector@@H@Z 00414be0 f i disp_common.obj
 0001:00013c00       ??0CNodeVert@@QAE@XZ       00414c00 f i disp_common.obj
 0001:00013c10       ??0CNodeVert@@QAE@HH@Z     00414c10 f i disp_common.obj
 0001:00013c30       ??ACNodeVert@@QAEAAHH@Z    00414c30 f i disp_common.obj
 0001:00013c40       ??ACNodeVert@@QBEABHH@Z    00414c40 f i disp_common.obj
 0001:00013ca0       ?GetEdgeIndexFromPoint@@YAHABVCVertIndex@@H@Z 00414ca0 f   disp_common.obj
 0001:00013cf0       ?GetCornerIndexFromPoint@@YAHABVCVertIndex@@H@Z 00414cf0 f   disp_common.obj
 0001:00013d50       ?GetSubNeighborIndex@@YAHPAVCDispUtilsHelper@@HABVCVertIndex@@@Z 00414d50 f   disp_common.obj
 0001:00013dd0       ?SetupSpan@@YAXHHW4NeighborSpan@@AAVCVertIndex@@1@Z 00414dd0 f   disp_common.obj
 0001:00013e90       ??0CDispSubEdgeIterator@@QAE@XZ 00414e90 f   disp_common.obj
 0001:00013eb0       ?Next@CDispSubEdgeIterator@@QAE_NXZ 00414eb0 f   disp_common.obj
 0001:00013ef0       ?IsLastVert@CDispSubEdgeIterator@@QBE_NXZ 00414ef0 f   disp_common.obj
 0001:00013f10       ??0CDispEdgeIterator@@QAE@PAVCDispUtilsHelper@@H@Z 00414f10 f   disp_common.obj
 0001:00013f40       ??0CDispCircumferenceIterator@@QAE@H@Z 00414f40 f   disp_common.obj
 0001:00013f60       ?Next@CDispCircumferenceIterator@@QAE_NXZ 00414f60 f   disp_common.obj
 0001:00014210       ?GetPower@CDispUtilsHelper@@QBEHXZ 00415210 f   disp_common.obj
 0001:00014220       ?GetSideLength@CDispUtilsHelper@@QBEHXZ 00415220 f   disp_common.obj
 0001:00014230       ?GetCornerPointIndex@CDispUtilsHelper@@QBEABVCVertIndex@@H@Z 00415230 f   disp_common.obj
 0001:00014250       ?VertIndexToInt@CDispUtilsHelper@@QBEHABVCVertIndex@@@Z 00415250 f   disp_common.obj
 0001:00014270       ?GetEdgeMidPoint@CDispUtilsHelper@@QBE?AVCVertIndex@@H@Z 00415270 f   disp_common.obj
 0001:000142f0       ?DispCommon_GetNumTriIndices@@YAHH@Z 004152f0 f   disp_common.obj
 0001:00014310       ?DispCommon_GenerateTriIndices@@YAXHPAG@Z 00415310 f   disp_common.obj
 0001:00014350       ?ClearNeighborData@@YAXPAVCCoreDispInfo@@@Z 00415350 f   disp_common.obj
 0001:00014390       ?GetDispBox@@YAXPAVCCoreDispInfo@@AAVCDispBox@@@Z 00415390 f   disp_common.obj
 0001:00014470       ?DoBBoxesTouch@@YA_NABVCDispBox@@0@Z 00415470 f i disp_common.obj
 0001:000144c0       ?FindEdge@@YA_NPAVCCoreDispInfo@@ABVVector@@1AAH@Z 004154c0 f   disp_common.obj
 0001:00014550       ?NeighborSpanFlip@@YA?AW4NeighborSpan@@HW41@@Z 00415550 f   disp_common.obj
 0001:00014570       ?AddNeighbor@@YAXPAVCCoreDispInfo@@HHW4NeighborSpan@@0H1@Z 00415570 f   disp_common.obj
 0001:00014660       ?SetupEdgeNeighbors@@YAXPAVCCoreDispInfo@@0@Z 00415660 f   disp_common.obj
 0001:00014910       ?HasEdgeNeighbor@@YA_NPBVCCoreDispInfo@@H@Z 00415910 f   disp_common.obj
 0001:00014980       ?IsCorner@@YAHABVCVertIndex@@H@Z 00415980 f   disp_common.obj
 0001:000149d0       ?SetAll@?$CBitVec@$0BCB@@@QAEXH@Z 004159d0 f i disp_common.obj
 0001:00014a00       ?Get@?$CBitVec@$0BCB@@@QBEKK@Z 00415a00 f i disp_common.obj
 0001:00014a20       ?Clear@?$CBitVec@$0BCB@@@QAEXK@Z 00415a20 f i disp_common.obj
 0001:00014a40       ?Base@?$CUtlMemory@VCDispBox@@@@QAEPAVCDispBox@@XZ 00415a40 f i disp_common.obj
 0001:00014a50       ?ValidateGrowSize@?$CUtlMemory@VCDispBox@@@@IAEXXZ 00415a50 f i disp_common.obj
 0001:00014a60       ??$Destruct@VCDispBox@@@@YAXPAVCDispBox@@@Z 00415a60 f i disp_common.obj
 0001:00014a70       ?IsExternallyAllocated@?$CUtlMemory@VCDispBox@@@@QBE_NXZ 00415a70 f i disp_common.obj
 0001:00014a80       ??4CDispBox@@QAEAAV0@ABV0@@Z 00415a80 f i disp_common.obj
 0001:00014ab0       ??0CDispBox@@QAE@XZ        00415ab0 f i disp_common.obj
 0001:00014ac0       ?NumAllocated@?$CUtlMemory@VCDispBox@@@@QBEHXZ 00415ac0 f i disp_common.obj
 0001:00014ad0       ?Grow@?$CUtlMemory@VCDispBox@@@@QAEXH@Z 00415ad0 f i disp_common.obj
 0001:00014b50       ?GetCornerPoint@CCoreDispInfo@@QBEABVVector@@H@Z 00415b50 f i disp_common.obj
 0001:00014ba0       ?GetNeighborEdgePower@@YAHPAVCDispUtilsHelper@@HH@Z 00415ba0 f   disp_common.obj
 0001:00014c10       ?TransformIntoSubNeighbor@@YAPAVCDispUtilsHelper@@PAV1@HHABVCVertIndex@@AAV2@@Z 00415c10 f   disp_common.obj
 0001:00014d20       ?TransformIntoNeighbor@@YAPAVCDispUtilsHelper@@PAV1@HABVCVertIndex@@AAV2@@Z 00415d20 f   disp_common.obj
 0001:00014d80       ?DoesPointHaveAnyNeighbors@@YA_NPAVCDispUtilsHelper@@ABVCVertIndex@@@Z 00415d80 f   disp_common.obj
 0001:00014e40       ?SetupCornerNeighbors@@YAXPAVCCoreDispInfo@@0PAH@Z 00415e40 f   disp_common.obj
 0001:00014fc0       ?VerifyNeighborVertConnection@@YA_NPAVCDispUtilsHelper@@ABVCVertIndex@@PBV1@1H@Z 00415fc0 f   disp_common.obj
 0001:00015080       ?IsVertAllowed@@YA_NPAVCDispUtilsHelper@@ABVCVertIndex@@H@Z 00416080 f   disp_common.obj
 0001:000151a0       ?UnallowVerts_R@@YAXPAVCDispUtilsHelper@@ABVCVertIndex@@AAH@Z 004161a0 f   disp_common.obj
 0001:00015230       ?DisableUnallowedVerts_R@@YAXPAVCDispUtilsHelper@@ABVCVertIndex@@HAAH@Z 00416230 f   disp_common.obj
 0001:000152e0       ?SetupAllowedVerts@@YAXPAPAVCCoreDispInfo@@H@Z 004162e0 f   disp_common.obj
 0001:00015380       ?Base@?$CUtlVector@VCDispBox@@V?$CUtlMemory@VCDispBox@@@@@@QAEPAVCDispBox@@XZ 00416380 f i disp_common.obj
 0001:00015390       ?ResetDbgInfo@?$CUtlVector@VCDispBox@@V?$CUtlMemory@VCDispBox@@@@@@IAEXXZ 00416390 f i disp_common.obj
 0001:000153a0       ??0?$CUtlMemory@VCDispBox@@@@QAE@HH@Z 004163a0 f i disp_common.obj
 0001:000153e0       ?Purge@?$CUtlMemory@VCDispBox@@@@QAEXXZ 004163e0 f i disp_common.obj
 0001:00015410       ?Element@?$CUtlVector@VCDispBox@@V?$CUtlMemory@VCDispBox@@@@@@QAEAAVCDispBox@@H@Z 00416410 f i disp_common.obj
 0001:00015420       ?GrowVector@?$CUtlVector@VCDispBox@@V?$CUtlMemory@VCDispBox@@@@@@IAEXH@Z 00416420 f i disp_common.obj
 0001:00015450       ?ShiftElementsRight@?$CUtlVector@VCDispBox@@V?$CUtlMemory@VCDispBox@@@@@@IAEXHH@Z 00416450 f i disp_common.obj
 0001:000154a0       ??$Construct@VCDispBox@@@@YAXPAVCDispBox@@@Z 004164a0 f i disp_common.obj
 0001:000154b0       ?SetupEdgeIncrements@@YAPAVCDispUtilsHelper@@PAV1@HHAAVCVertIndex@@111AAH2@Z 004164b0 f   disp_common.obj
 0001:00015640       ?Start@CDispSubEdgeIterator@@QAEXPAVCDispUtilsHelper@@HH_N@Z 00416640 f   disp_common.obj
 0001:000156f0       ?Next@CDispEdgeIterator@@QAE_NXZ 004166f0 f   disp_common.obj
 0001:000157b0       ?VerifyNeighborConnections@@YAXPAPAVCCoreDispInfo@@H@Z 004167b0 f   disp_common.obj
 0001:00015990       ??A?$CUtlVector@VCDispBox@@V?$CUtlMemory@VCDispBox@@@@@@QAEAAVCDispBox@@H@Z 00416990 f i disp_common.obj
 0001:000159a0       ??1?$CUtlMemory@VCDispBox@@@@QAE@XZ 004169a0 f i disp_common.obj
 0001:000159d0       ?RemoveAll@?$CUtlVector@VCDispBox@@V?$CUtlMemory@VCDispBox@@@@@@QAEXXZ 004169d0 f i disp_common.obj
 0001:000159e0       ?InsertMultipleBefore@?$CUtlVector@VCDispBox@@V?$CUtlMemory@VCDispBox@@@@@@QAEHHHPBVCDispBox@@@Z 004169e0 f i disp_common.obj
 0001:00015ba0       ??0?$CUtlVector@VCDispBox@@V?$CUtlMemory@VCDispBox@@@@@@QAE@HH@Z 00416ba0 f i disp_common.obj
 0001:00015bf0       ?Purge@?$CUtlVector@VCDispBox@@V?$CUtlMemory@VCDispBox@@@@@@QAEXXZ 00416bf0 f i disp_common.obj
 0001:00015c40       ?AddMultipleToTail@?$CUtlVector@VCDispBox@@V?$CUtlMemory@VCDispBox@@@@@@QAEHHPBVCDispBox@@@Z 00416c40 f i disp_common.obj
 0001:00015c60       ??1?$CUtlVector@VCDispBox@@V?$CUtlMemory@VCDispBox@@@@@@QAE@XZ 00416c60 f i disp_common.obj
 0001:00015cd0       ?SetCount@?$CUtlVector@VCDispBox@@V?$CUtlMemory@VCDispBox@@@@@@QAEXH@Z 00416cd0 f i disp_common.obj
 0001:00015cf0       ?SetSize@?$CUtlVector@VCDispBox@@V?$CUtlMemory@VCDispBox@@@@@@QAEXH@Z 00416cf0 f i disp_common.obj
 0001:00015d10       ?SetupDispBoxes@@YAXPAPAVCCoreDispInfo@@HAAV?$CUtlVector@VCDispBox@@V?$CUtlMemory@VCDispBox@@@@@@@Z 00416d10 f   disp_common.obj
 0001:00015d60       ?FindNeighboringDispSurfs@@YAXPAPAVCCoreDispInfo@@H@Z 00416d60 f   disp_common.obj
 0001:00015ef0       ?GetBoundingBox@CCoreDispNode@@QAEXAAVVector@@0@Z 00416ef0 f i disp_ivp.obj
 0001:00015f20       ?GetVert@CCoreDispInfo@@QBEXHAAVVector@@@Z 00416f20 f i disp_ivp.obj
 0001:00015f50       ?GetAlpha@CCoreDispInfo@@QAEMH@Z 00416f50 f i disp_ivp.obj
 0001:00015f70       ?GetNode@CCoreDispInfo@@QAEPAVCCoreDispNode@@H@Z 00416f70 f i disp_ivp.obj
 0001:00015f80       ?InternalVertIndex@@YAHPBVCPowerInfo@@ABVCVertIndex@@@Z 00416f80 f i disp_ivp.obj
 0001:00015fa0       ?GetNodeInfo@CVBSPTesselateHelper@@QAEAAUDispNodeInfo_t@@H@Z 00416fa0 f i disp_ivp.obj
 0001:00015fb0       ?Disp_GridIndex@@YAHPAVCCoreDispInfo@@@Z 00416fb0 f   disp_ivp.obj
 0001:00016090       ?Count@?$CUtlVector@PAVCCoreDispInfo@@V?$CUtlMemory@PAVCCoreDispInfo@@@@@@QBEHXZ 00417090 f i disp_ivp.obj
 0001:000160a0       ?Base@?$CBitVec@$0BCB@@@QAEPAKXZ 004170a0 f i disp_ivp.obj
 0001:000160b0       ?Count@?$CUtlVector@GV?$CUtlMemory@G@@@@QBEHXZ 004170b0 f i disp_ivp.obj
 0001:000160c0       ?Count@?$CUtlVector@Udisp_grid_t@@V?$CUtlMemory@Udisp_grid_t@@@@@@QBEHXZ 004170c0 f i disp_ivp.obj
 0001:000160d0       ?Base@?$CUtlMemory@G@@QAEPAGXZ 004170d0 f i disp_ivp.obj
 0001:000160e0       ?Base@?$CUtlMemory@Udisp_grid_t@@@@QAEPAUdisp_grid_t@@XZ 004170e0 f i disp_ivp.obj
 0001:000160f0       ?Base@?$CUtlMemory@PAVCCoreDispInfo@@@@QAEPAPAVCCoreDispInfo@@XZ 004170f0 f i disp_ivp.obj
 0001:00016100       ?ValidateGrowSize@?$CUtlMemory@G@@IAEXXZ 00417100 f i disp_ivp.obj
 0001:00016110       ?ValidateGrowSize@?$CUtlMemory@Udisp_grid_t@@@@IAEXXZ 00417110 f i disp_ivp.obj
 0001:00016120       ??$CopyConstruct@G@@YAXPAGABG@Z 00417120 f i disp_ivp.obj
 0001:00016140       ??$CopyConstruct@PAVCPhysCollisionEntry@@@@YAXPAPAVCPhysCollisionEntry@@ABQAV0@@Z 00417140 f i disp_ivp.obj
 0001:00016160       ??$Destruct@G@@YAXPAG@Z    00417160 f i disp_ivp.obj
 0001:00016170       ?NumAllocated@?$CUtlMemory@G@@QBEHXZ 00417170 f i disp_ivp.obj
 0001:00016180       ?IsExternallyAllocated@?$CUtlMemory@G@@QBE_NXZ 00417180 f i disp_ivp.obj
 0001:00016190       ?NumAllocated@?$CUtlMemory@Udisp_grid_t@@@@QBEHXZ 00417190 f i disp_ivp.obj
 0001:000161a0       ?IsExternallyAllocated@?$CUtlMemory@Udisp_grid_t@@@@QBE_NXZ 004171a0 f i disp_ivp.obj
 0001:000161b0       ?Base@?$CUtlMemory@PAVCPhysCollisionEntry@@@@QAEPAPAVCPhysCollisionEntry@@XZ 004171b0 f i disp_ivp.obj
 0001:000161c0       ?NumAllocated@?$CUtlMemory@PAVCPhysCollisionEntry@@@@QBEHXZ 004171c0 f i disp_ivp.obj
 0001:000161d0       ?IsExternallyAllocated@?$CUtlMemory@PAVCPhysCollisionEntry@@@@QBE_NXZ 004171d0 f i disp_ivp.obj
 0001:000161e0       ?BuildOffsetVertIndex@@YA?AVCVertIndex@@ABV1@0H@Z 004171e0 f i disp_ivp.obj
 0001:00016220       ?Base@?$CUtlVector@PAVCCoreDispInfo@@V?$CUtlMemory@PAVCCoreDispInfo@@@@@@QAEPAPAVCCoreDispInfo@@XZ 00417220 f i disp_ivp.obj
 0001:00016230       ?Base@?$CUtlVector@GV?$CUtlMemory@G@@@@QAEPAGXZ 00417230 f i disp_ivp.obj
 0001:00016240       ?ResetDbgInfo@?$CUtlVector@GV?$CUtlMemory@G@@@@IAEXXZ 00417240 f i disp_ivp.obj
 0001:00016250       ?Base@?$CUtlVector@Udisp_grid_t@@V?$CUtlMemory@Udisp_grid_t@@@@@@QAEPAUdisp_grid_t@@XZ 00417250 f i disp_ivp.obj
 0001:00016260       ?ResetDbgInfo@?$CUtlVector@Udisp_grid_t@@V?$CUtlMemory@Udisp_grid_t@@@@@@IAEXXZ 00417260 f i disp_ivp.obj
 0001:00016270       ??0?$CUtlMemory@G@@QAE@HH@Z 00417270 f i disp_ivp.obj
 0001:000162b0       ??0?$CUtlMemory@Udisp_grid_t@@@@QAE@HH@Z 004172b0 f i disp_ivp.obj
 0001:000162f0       ?Element@?$CUtlVector@GV?$CUtlMemory@G@@@@QAEAAGH@Z 004172f0 f i disp_ivp.obj
 0001:00016300       ?RemoveAll@?$CUtlVector@GV?$CUtlMemory@G@@@@QAEXXZ 00417300 f i disp_ivp.obj
 0001:00016310       ?ShiftElementsRight@?$CUtlVector@GV?$CUtlMemory@G@@@@IAEXHH@Z 00417310 f i disp_ivp.obj
 0001:00016350       ?Purge@?$CUtlMemory@G@@QAEXXZ 00417350 f i disp_ivp.obj
 0001:00016380       ?Element@?$CUtlVector@Udisp_grid_t@@V?$CUtlMemory@Udisp_grid_t@@@@@@QAEAAUdisp_grid_t@@H@Z 00417380 f i disp_ivp.obj
 0001:00016390       ?ShiftElementsRight@?$CUtlVector@Udisp_grid_t@@V?$CUtlMemory@Udisp_grid_t@@@@@@IAEXHH@Z 00417390 f i disp_ivp.obj
 0001:000163e0       ?Purge@?$CUtlMemory@Udisp_grid_t@@@@QAEXXZ 004173e0 f i disp_ivp.obj
 0001:00016410       ?Base@?$CUtlVector@PAVCPhysCollisionEntry@@V?$CUtlMemory@PAVCPhysCollisionEntry@@@@@@QAEPAPAVCPhysCollisionEntry@@XZ 00417410 f i disp_ivp.obj
 0001:00016420       ?ResetDbgInfo@?$CUtlVector@PAVCPhysCollisionEntry@@V?$CUtlMemory@PAVCPhysCollisionEntry@@@@@@IAEXXZ 00417420 f i disp_ivp.obj
 0001:00016430       ?Grow@?$CUtlMemory@G@@QAEXH@Z 00417430 f i disp_ivp.obj
 0001:000164a0       ?Grow@?$CUtlMemory@Udisp_grid_t@@@@QAEXH@Z 004174a0 f i disp_ivp.obj
 0001:00016520       ?Grow@?$CUtlMemory@PAVCPhysCollisionEntry@@@@QAEXH@Z 00417520 f i disp_ivp.obj
 0001:00016590       ??A?$CUtlVector@PAVCCoreDispInfo@@V?$CUtlMemory@PAVCCoreDispInfo@@@@@@QAEAAPAVCCoreDispInfo@@H@Z 00417590 f i disp_ivp.obj
 0001:000165a0       ??A?$CUtlVector@GV?$CUtlMemory@G@@@@QAEAAGH@Z 004175a0 f i disp_ivp.obj
 0001:000165b0       ??A?$CUtlVector@Udisp_grid_t@@V?$CUtlMemory@Udisp_grid_t@@@@@@QAEAAUdisp_grid_t@@H@Z 004175b0 f i disp_ivp.obj
 0001:000165c0       ?Purge@?$CUtlVector@GV?$CUtlMemory@G@@@@QAEXXZ 004175c0 f i disp_ivp.obj
 0001:00016610       ??1?$CUtlMemory@G@@QAE@XZ  00417610 f i disp_ivp.obj
 0001:00016640       ??1?$CUtlMemory@Udisp_grid_t@@@@QAE@XZ 00417640 f i disp_ivp.obj
 0001:00016670       ?GrowVector@?$CUtlVector@GV?$CUtlMemory@G@@@@IAEXH@Z 00417670 f i disp_ivp.obj
 0001:000166a0       ?GrowVector@?$CUtlVector@Udisp_grid_t@@V?$CUtlMemory@Udisp_grid_t@@@@@@IAEXH@Z 004176a0 f i disp_ivp.obj
 0001:000166d0       ?Element@?$CUtlVector@PAVCPhysCollisionEntry@@V?$CUtlMemory@PAVCPhysCollisionEntry@@@@@@QAEAAPAVCPhysCollisionEntry@@H@Z 004176d0 f i disp_ivp.obj
 0001:000166e0       ?GrowVector@?$CUtlVector@PAVCPhysCollisionEntry@@V?$CUtlMemory@PAVCPhysCollisionEntry@@@@@@IAEXH@Z 004176e0 f i disp_ivp.obj
 0001:00016710       ?ShiftElementsRight@?$CUtlVector@PAVCPhysCollisionEntry@@V?$CUtlMemory@PAVCPhysCollisionEntry@@@@@@IAEXHH@Z 00417710 f i disp_ivp.obj
 0001:00016750       ?GetMatIDFromDisp@@YAPAXPAUmapdispinfo_t@@@Z 00417750 f   disp_ivp.obj
 0001:00016790       ??0?$CUtlVector@GV?$CUtlMemory@G@@@@QAE@HH@Z 00417790 f i disp_ivp.obj
 0001:000167e0       ??1?$CUtlVector@GV?$CUtlMemory@G@@@@QAE@XZ 004177e0 f i disp_ivp.obj
 0001:00016850       ??0?$CUtlVector@Udisp_grid_t@@V?$CUtlMemory@Udisp_grid_t@@@@@@QAE@HH@Z 00417850 f i disp_ivp.obj
 0001:000168a0       ?InsertBefore@?$CUtlVector@GV?$CUtlMemory@G@@@@QAEHHABG@Z 004178a0 f i disp_ivp.obj
 0001:00016910       ?InsertBefore@?$CUtlVector@PAVCPhysCollisionEntry@@V?$CUtlMemory@PAVCPhysCollisionEntry@@@@@@QAEHHABQAVCPhysCollisionEntry@@@Z 00417910 f i disp_ivp.obj
 0001:00016980       ??1disp_grid_t@@QAE@XZ     00417980 f i disp_ivp.obj
 0001:00016990       ?AddToTail@?$CUtlVector@GV?$CUtlMemory@G@@@@QAEHABG@Z 00417990 f i disp_ivp.obj
 0001:000169b0       ?AddToTail@?$CUtlVector@PAVCPhysCollisionEntry@@V?$CUtlMemory@PAVCPhysCollisionEntry@@@@@@QAEHABQAVCPhysCollisionEntry@@@Z 004179b0 f i disp_ivp.obj
 0001:000169d0       ??0disp_grid_t@@QAE@XZ     004179d0 f i disp_ivp.obj
 0001:000169f0       ??_Gdisp_grid_t@@QAEPAXI@Z 004179f0 f i disp_ivp.obj
 0001:00016a20       ?EndTriangle@CVBSPTesselateHelper@@QAEXXZ 00417a20 f i disp_ivp.obj
 0001:00016a60       ??$Construct@Udisp_grid_t@@@@YAXPAUdisp_grid_t@@@Z 00417a60 f i disp_ivp.obj
 0001:00016a80       ??$Destruct@Udisp_grid_t@@@@YAXPAUdisp_grid_t@@@Z 00417a80 f i disp_ivp.obj
 0001:00016a90       ??$InternalEndTriangle@VCVBSPTesselateHelper@@@@YAXPAVCVBSPTesselateHelper@@ABVCVertIndex@@AAH@Z 00417a90 f i disp_ivp.obj
 0001:00016b00       ?InsertBefore@?$CUtlVector@Udisp_grid_t@@V?$CUtlMemory@Udisp_grid_t@@@@@@QAEHH@Z 00417b00 f i disp_ivp.obj
 0001:00016b80       ?RemoveAll@?$CUtlVector@Udisp_grid_t@@V?$CUtlMemory@Udisp_grid_t@@@@@@QAEXXZ 00417b80 f i disp_ivp.obj
 0001:00016c20       ??$TesselateDisplacementNode@VCVBSPTesselateHelper@@@@YAXPAVCVBSPTesselateHelper@@ABVCVertIndex@@HPAH@Z 00417c20 f i disp_ivp.obj
 0001:00016d60       ?AddToTail@?$CUtlVector@Udisp_grid_t@@V?$CUtlMemory@Udisp_grid_t@@@@@@QAEHXZ 00417d60 f i disp_ivp.obj
 0001:00016d70       ?Purge@?$CUtlVector@Udisp_grid_t@@V?$CUtlMemory@Udisp_grid_t@@@@@@QAEXXZ 00417d70 f i disp_ivp.obj
 0001:00016db0       ??$TesselateDisplacement_R@VCVBSPTesselateHelper@@@@YAXPAVCVBSPTesselateHelper@@ABVCVertIndex@@HH@Z 00417db0 f i disp_ivp.obj
 0001:00016ee0       ?FindOrInsertGrid@@YAAAUdisp_grid_t@@H@Z 00417ee0 f   disp_ivp.obj
 0001:00016f40       ?AddToGrid@@YAXHH@Z        00417f40 f   disp_ivp.obj
 0001:00016f70       ??1?$CUtlVector@Udisp_grid_t@@V?$CUtlMemory@Udisp_grid_t@@@@@@QAE@XZ 00417f70 f i disp_ivp.obj
 0001:00016fd0       ??$TesselateDisplacement@VCVBSPTesselateHelper@@@@YAXPAVCVBSPTesselateHelper@@@Z 00417fd0 f i disp_ivp.obj
 0001:00016ff0       ?Disp_AddCollisionModels@@YAXAAV?$CUtlVector@PAVCPhysCollisionEntry@@V?$CUtlMemory@PAVCPhysCollisionEntry@@@@@@PAUdmodel_t@@H@Z 00417ff0 f   disp_ivp.obj
 0001:00017530       ??HCVertIndex@@QBE?AV0@ABV0@@Z 00418530 f i disp_powerinfo.obj
 0001:00017560       ??GCVertIndex@@QBE?AV0@ABV0@@Z 00418560 f i disp_powerinfo.obj
 0001:00017590       ?IsValid@CVertDependency@@QAE_NXZ 00418590 f i disp_powerinfo.obj
 0001:00017820       ??0CTesselateVert@@QAE@ABVCVertIndex@@H@Z 00418820 f   disp_powerinfo.obj
 0001:00017840       ??0CVertDependency@@QAE@XZ 00418840 f i disp_powerinfo.obj
 0001:00017850       ??0CFourVerts@@QAE@XZ      00418850 f i disp_powerinfo.obj
 0001:00017860       ??0CPowerInfo@@QAE@PAVCVertInfo@@PAVCFourVerts@@11PAVCTwoUShorts@@PAVCTriInfo@@@Z 00418860 f   disp_powerinfo.obj
 0001:00017ba0       ?GetPowerInfo@@YAPBVCPowerInfo@@H@Z 00418ba0 f   disp_powerinfo.obj
 0001:00017bb0       ?GetCornerPointIndex@CPowerInfo@@QBEABVCVertIndex@@H@Z 00418bb0 f   disp_powerinfo.obj
 0001:00017bc0       ??$Square@H@@YAHABH@Z      00418bc0 f i disp_powerinfo.obj
 0001:00017bd0       ??0CVertInfo@@QAE@XZ       00418bd0 f   disp_powerinfo.obj
 0001:00017d90       ?InitPowerInfo@@YAXPAVCPowerInfo@@H@Z 00418d90 f   disp_powerinfo.obj
 0001:00018340       ??0CPowerInfoInitializer@@QAE@XZ 00419340 f i disp_powerinfo.obj
 0001:00018380       ?Vector2DCopy@@YAXABVVector2D@@AAV1@@Z 00419380 f i disp_vbsp.obj
 0001:000183a0       ?GetBarycentricCoords2D@@YAXABVVector2D@@000QAM@Z 004193a0 f i disp_vbsp.obj
 0001:00018440       ?SetPointCount@CCoreDispSurface@@QAEXH@Z 00419440 f i disp_vbsp.obj
 0001:00018460       ?SetPoint@CCoreDispSurface@@QAEXHABVVector@@@Z 00419460 f i disp_vbsp.obj
 0001:00018490       ?SetTexCoord@CCoreDispSurface@@QAEXHABVVector2D@@@Z 00419490 f i disp_vbsp.obj
 0001:000184b0       ?SetLuxelCoord@CCoreDispSurface@@QAEXHHABVVector2D@@@Z 004194b0 f i disp_vbsp.obj
 0001:000184e0       ?SetContents@CCoreDispSurface@@QAEXH@Z 004194e0 f i disp_vbsp.obj
 0001:000184f0       ?SetPointStart@CCoreDispSurface@@QAEXABVVector@@@Z 004194f0 f i disp_vbsp.obj
 0001:00018520       ?SetListIndex@CCoreDispInfo@@QAEXH@Z 00419520 f i disp_vbsp.obj
 0001:00018530       ?GetAllowedVerts@CCoreDispInfo@@QBEABV?$CBitVec@$0BCB@@@XZ 00419530 f i disp_vbsp.obj
 0001:00018540       ?GetPower@CCoreDispInfo@@QBEHXZ 00419540 f i disp_vbsp.obj
 0001:00018550       ?GetWidth@CCoreDispInfo@@QAEHXZ 00419550 f i disp_vbsp.obj
 0001:00018560       ?GetHeight@CCoreDispInfo@@QAEHXZ 00419560 f i disp_vbsp.obj
 0001:00018570       ?GetSize@CCoreDispInfo@@QBEHXZ 00419570 f i disp_vbsp.obj
 0001:00018590       ?SetVert@CCoreDispInfo@@QAEXHABVVector@@@Z 00419590 f i disp_vbsp.obj
 0001:000185c0       ?GetLuxelCoord@CCoreDispInfo@@QBEXHHAAVVector2D@@@Z 004195c0 f i disp_vbsp.obj
 0001:000185f0       ??0mapdispinfo_t@@QAE@XZ   004195f0 f i disp_vbsp.obj
 0001:00018600       ?GetBarycentricCoordsFromLightmapCoords@@YA_NQAVVector2D@@ABV1@QAM@Z 00419600 f   disp_vbsp.obj
 0001:00018680       ?FindTriIndexMapByUV@@YA_NPAVCCoreDispInfo@@ABVVector2D@@AAHQAM@Z 00419680 f   disp_vbsp.obj
 0001:00018770       ?GetDispInfoEntityNum@@YAHPAUmapdispinfo_t@@@Z 00419770 f   disp_vbsp.obj
 0001:00018780       ?ExportCoreDispNeighborData@@YAXPBVCCoreDispInfo@@PAVddispinfo_t@@@Z 00419780 f   disp_vbsp.obj
 0001:00018870       ?DispGetFaceInfo@@YAXPAUmapbrush_t@@@Z 00419870 f   disp_vbsp.obj
 0001:00018960       ?HasDispInfo@@YA_NPAUmapbrush_t@@@Z 00419960 f   disp_vbsp.obj
 0001:00018990       ?Count@?$CUtlVector@EV?$CUtlMemory@E@@@@QBEHXZ 00419990 f i disp_vbsp.obj
 0001:000189a0       ?Base@?$CUtlMemory@Vddispinfo_t@@@@QAEPAVddispinfo_t@@XZ 004199a0 f i disp_vbsp.obj
 0001:000189b0       ?GetNumDWords@?$CBitVec@$0BCB@@@QBEHXZ 004199b0 f i disp_vbsp.obj
 0001:000189c0       ?GetDWord@?$CBitVec@$0BCB@@@QBEKH@Z 004199c0 f i disp_vbsp.obj
 0001:000189d0       ?Base@?$CUtlMemory@_N@@QAEPA_NXZ 004199d0 f i disp_vbsp.obj
 0001:000189e0       ?Count@?$CUtlVector@_NV?$CUtlMemory@_N@@@@QBEHXZ 004199e0 f i disp_vbsp.obj
 0001:000189f0       ?Base@?$CUtlMemory@VVector2D@@@@QAEPAVVector2D@@XZ 004199f0 f i disp_vbsp.obj
 0001:00018a00       ?Base@?$CUtlMemory@PAUdface_t@@@@QAEPAPAUdface_t@@XZ 00419a00 f i disp_vbsp.obj
 0001:00018a10       ?Base@?$CUtlMemory@VCDispVert@@@@QAEPAVCDispVert@@XZ 00419a10 f i disp_vbsp.obj
 0001:00018a20       ?Base@?$CUtlMemory@VCDispTri@@@@QAEPAVCDispTri@@XZ 00419a20 f i disp_vbsp.obj
 0001:00018a30       ?ValidateGrowSize@?$CUtlMemory@PAVCCoreDispInfo@@@@IAEXXZ 00419a30 f i disp_vbsp.obj
 0001:00018a40       ?ValidateGrowSize@?$CUtlMemory@VVector2D@@@@IAEXXZ 00419a40 f i disp_vbsp.obj
 0001:00018a50       ?ValidateGrowSize@?$CUtlMemory@_N@@IAEXXZ 00419a50 f i disp_vbsp.obj
 0001:00018a60       ?ValidateGrowSize@?$CUtlMemory@PAUdface_t@@@@IAEXXZ 00419a60 f i disp_vbsp.obj
 0001:00018a70       ??$CopyConstruct@E@@YAXPAEABE@Z 00419a70 f i disp_vbsp.obj
 0001:00018a90       ?IsExternallyAllocated@?$CUtlMemory@Vddispinfo_t@@@@QBE_NXZ 00419a90 f i disp_vbsp.obj
 0001:00018aa0       ??$Destruct@Vddispinfo_t@@@@YAXPAVddispinfo_t@@@Z 00419aa0 f i disp_vbsp.obj
 0001:00018ab0       ?IsExternallyAllocated@?$CUtlMemory@PAVCCoreDispInfo@@@@QBE_NXZ 00419ab0 f i disp_vbsp.obj
 0001:00018ac0       ??$Construct@PAVCCoreDispInfo@@@@YAXPAPAVCCoreDispInfo@@@Z 00419ac0 f i disp_vbsp.obj
 0001:00018ad0       ??$Destruct@PAVCCoreDispInfo@@@@YAXPAPAVCCoreDispInfo@@@Z 00419ad0 f i disp_vbsp.obj
 0001:00018ae0       ?NumAllocated@?$CUtlMemory@E@@QBEHXZ 00419ae0 f i disp_vbsp.obj
 0001:00018af0       ??$Destruct@VCDispVert@@@@YAXPAVCDispVert@@@Z 00419af0 f i disp_vbsp.obj
 0001:00018b00       ??$Destruct@VCDispTri@@@@YAXPAVCDispTri@@@Z 00419b00 f i disp_vbsp.obj
 0001:00018b10       ?NumAllocated@?$CUtlMemory@PAVCCoreDispInfo@@@@QBEHXZ 00419b10 f i disp_vbsp.obj
 0001:00018b20       ?Grow@?$CUtlMemory@PAVCCoreDispInfo@@@@QAEXH@Z 00419b20 f i disp_vbsp.obj
 0001:00018b90       ??$Destruct@VVector2D@@@@YAXPAVVector2D@@@Z 00419b90 f i disp_vbsp.obj
 0001:00018ba0       ?IsExternallyAllocated@?$CUtlMemory@VVector2D@@@@QBE_NXZ 00419ba0 f i disp_vbsp.obj
 0001:00018bb0       ?IsExternallyAllocated@?$CUtlMemory@_N@@QBE_NXZ 00419bb0 f i disp_vbsp.obj
 0001:00018bc0       ??$Destruct@_N@@YAXPA_N@Z  00419bc0 f i disp_vbsp.obj
 0001:00018bd0       ??$Destruct@PAUdface_t@@@@YAXPAPAUdface_t@@@Z 00419bd0 f i disp_vbsp.obj
 0001:00018be0       ?IsExternallyAllocated@?$CUtlMemory@PAUdface_t@@@@QBE_NXZ 00419be0 f i disp_vbsp.obj
 0001:00018bf0       ??4ddispinfo_t@@QAEAAV0@ABV0@@Z 00419bf0 f i disp_vbsp.obj
 0001:00018d60       ??4CDispVert@@QAEAAV0@ABV0@@Z 00419d60 f i disp_vbsp.obj
 0001:00018d90       ??$Construct@VCDispTri@@@@YAXPAVCDispTri@@@Z 00419d90 f i disp_vbsp.obj
 0001:00018da0       ??$Construct@VVector2D@@@@YAXPAVVector2D@@@Z 00419da0 f i disp_vbsp.obj
 0001:00018db0       ??$Construct@_N@@YAXPA_N@Z 00419db0 f i disp_vbsp.obj
 0001:00018dc0       ??$Construct@PAUdface_t@@@@YAXPAPAUdface_t@@@Z 00419dc0 f i disp_vbsp.obj
 0001:00018dd0       ??0ddispinfo_t@@QAE@XZ     00419dd0 f i disp_vbsp.obj
 0001:00018de0       ??0CDispVert@@QAE@XZ       00419de0 f i disp_vbsp.obj
 0001:00018df0       ?NumAllocated@?$CUtlMemory@Vddispinfo_t@@@@QBEHXZ 00419df0 f i disp_vbsp.obj
 0001:00018e00       ?Grow@?$CUtlMemory@Vddispinfo_t@@@@QAEXH@Z 00419e00 f i disp_vbsp.obj
 0001:00018e70       ?NumAllocated@?$CUtlMemory@VCDispVert@@@@QBEHXZ 00419e70 f i disp_vbsp.obj
 0001:00018e80       ?NumAllocated@?$CUtlMemory@VCDispTri@@@@QBEHXZ 00419e80 f i disp_vbsp.obj
 0001:00018e90       ?NumAllocated@?$CUtlMemory@VVector2D@@@@QBEHXZ 00419e90 f i disp_vbsp.obj
 0001:00018ea0       ?Grow@?$CUtlMemory@VVector2D@@@@QAEXH@Z 00419ea0 f i disp_vbsp.obj
 0001:00018f10       ?NumAllocated@?$CUtlMemory@_N@@QBEHXZ 00419f10 f i disp_vbsp.obj
 0001:00018f20       ?Grow@?$CUtlMemory@_N@@QAEXH@Z 00419f20 f i disp_vbsp.obj
 0001:00018f90       ?NumAllocated@?$CUtlMemory@PAUdface_t@@@@QBEHXZ 00419f90 f i disp_vbsp.obj
 0001:00018fa0       ?Grow@?$CUtlMemory@PAUdface_t@@@@QAEXH@Z 00419fa0 f i disp_vbsp.obj
 0001:00019010       ?IsExternallyAllocated@?$CUtlMemory@VCDispVert@@@@QBE_NXZ 0041a010 f i disp_vbsp.obj
 0001:00019020       ?IsExternallyAllocated@?$CUtlMemory@VCDispTri@@@@QBE_NXZ 0041a020 f i disp_vbsp.obj
 0001:00019030       ?ExportCoreDispAllowedVertList@@YAXPBVCCoreDispInfo@@PAVddispinfo_t@@@Z 0041a030 f   disp_vbsp.obj
 0001:000190c0       ?ExportAllowedVertLists@@YAXPAPAVCCoreDispInfo@@PAVddispinfo_t@@H@Z 0041a0c0 f   disp_vbsp.obj
 0001:00019100       ?Base@?$CUtlVector@Vddispinfo_t@@V?$CUtlMemory@Vddispinfo_t@@@@@@QAEPAVddispinfo_t@@XZ 0041a100 f i disp_vbsp.obj
 0001:00019110       ?Base@?$CUtlVector@_NV?$CUtlMemory@_N@@@@QAEPA_NXZ 0041a110 f i disp_vbsp.obj
 0001:00019120       ??A?$CUtlVector@Vddispinfo_t@@V?$CUtlMemory@Vddispinfo_t@@@@@@QAEAAVddispinfo_t@@H@Z 0041a120 f i disp_vbsp.obj
 0001:00019130       ??A?$CUtlVector@_NV?$CUtlMemory@_N@@@@QAEAA_NH@Z 0041a130 f i disp_vbsp.obj
 0001:00019140       ?Base@?$CUtlVector@EV?$CUtlMemory@E@@@@QAEPAEXZ 0041a140 f i disp_vbsp.obj
 0001:00019150       ?ResetDbgInfo@?$CUtlVector@Vddispinfo_t@@V?$CUtlMemory@Vddispinfo_t@@@@@@IAEXXZ 0041a150 f i disp_vbsp.obj
 0001:00019160       ?Base@?$CUtlVector@VCDispVert@@V?$CUtlMemory@VCDispVert@@@@@@QAEPAVCDispVert@@XZ 0041a160 f i disp_vbsp.obj
 0001:00019170       ?Base@?$CUtlVector@VCDispTri@@V?$CUtlMemory@VCDispTri@@@@@@QAEPAVCDispTri@@XZ 0041a170 f i disp_vbsp.obj
 0001:00019180       ?ResetDbgInfo@?$CUtlVector@PAVCCoreDispInfo@@V?$CUtlMemory@PAVCCoreDispInfo@@@@@@IAEXXZ 0041a180 f i disp_vbsp.obj
 0001:00019190       ?Base@?$CUtlVector@VVector2D@@V?$CUtlMemory@VVector2D@@@@@@QAEPAVVector2D@@XZ 0041a190 f i disp_vbsp.obj
 0001:000191a0       ?ResetDbgInfo@?$CUtlVector@VVector2D@@V?$CUtlMemory@VVector2D@@@@@@IAEXXZ 0041a1a0 f i disp_vbsp.obj
 0001:000191b0       ?ResetDbgInfo@?$CUtlVector@_NV?$CUtlMemory@_N@@@@IAEXXZ 0041a1b0 f i disp_vbsp.obj
 0001:000191c0       ?Base@?$CUtlVector@PAUdface_t@@V?$CUtlMemory@PAUdface_t@@@@@@QAEPAPAUdface_t@@XZ 0041a1c0 f i disp_vbsp.obj
 0001:000191d0       ?ResetDbgInfo@?$CUtlVector@PAUdface_t@@V?$CUtlMemory@PAUdface_t@@@@@@IAEXXZ 0041a1d0 f i disp_vbsp.obj
 0001:000191e0       ?Purge@?$CUtlMemory@Vddispinfo_t@@@@QAEXXZ 0041a1e0 f i disp_vbsp.obj
 0001:00019210       ??0?$CUtlMemory@PAVCCoreDispInfo@@@@QAE@HH@Z 0041a210 f i disp_vbsp.obj
 0001:00019250       ?Purge@?$CUtlMemory@PAVCCoreDispInfo@@@@QAEXXZ 0041a250 f i disp_vbsp.obj
 0001:00019280       ??0?$CUtlMemory@VVector2D@@@@QAE@HH@Z 0041a280 f i disp_vbsp.obj
 0001:000192c0       ??0?$CUtlMemory@_N@@QAE@HH@Z 0041a2c0 f i disp_vbsp.obj
 0001:00019300       ??0?$CUtlMemory@PAUdface_t@@@@QAE@HH@Z 0041a300 f i disp_vbsp.obj
 0001:00019340       ?Element@?$CUtlVector@EV?$CUtlMemory@E@@@@QAEAAEH@Z 0041a340 f i disp_vbsp.obj
 0001:00019350       ?ShiftElementsRight@?$CUtlVector@EV?$CUtlMemory@E@@@@IAEXHH@Z 0041a350 f i disp_vbsp.obj
 0001:00019380       ?Element@?$CUtlVector@Vddispinfo_t@@V?$CUtlMemory@Vddispinfo_t@@@@@@QAEAAVddispinfo_t@@H@Z 0041a380 f i disp_vbsp.obj
 0001:00019390       ?Element@?$CUtlVector@PAVCCoreDispInfo@@V?$CUtlMemory@PAVCCoreDispInfo@@@@@@QAEAAPAVCCoreDispInfo@@H@Z 0041a390 f i disp_vbsp.obj
 0001:000193a0       ?GrowVector@?$CUtlVector@PAVCCoreDispInfo@@V?$CUtlMemory@PAVCCoreDispInfo@@@@@@IAEXH@Z 0041a3a0 f i disp_vbsp.obj
 0001:000193d0       ?ShiftElementsRight@?$CUtlVector@PAVCCoreDispInfo@@V?$CUtlMemory@PAVCCoreDispInfo@@@@@@IAEXHH@Z 0041a3d0 f i disp_vbsp.obj
 0001:00019410       ?Purge@?$CUtlMemory@VVector2D@@@@QAEXXZ 0041a410 f i disp_vbsp.obj
 0001:00019440       ?Purge@?$CUtlMemory@_N@@QAEXXZ 0041a440 f i disp_vbsp.obj
 0001:00019470       ?Purge@?$CUtlMemory@PAUdface_t@@@@QAEXXZ 0041a470 f i disp_vbsp.obj
 0001:000194a0       ?ResetDbgInfo@?$CUtlVector@EV?$CUtlMemory@E@@@@IAEXXZ 0041a4a0 f i disp_vbsp.obj
 0001:000194b0       ?Grow@?$CUtlMemory@E@@QAEXH@Z 0041a4b0 f i disp_vbsp.obj
 0001:00019520       ?Element@?$CUtlVector@VCDispVert@@V?$CUtlMemory@VCDispVert@@@@@@QAEAAVCDispVert@@H@Z 0041a520 f i disp_vbsp.obj
 0001:00019530       ?Element@?$CUtlVector@VCDispTri@@V?$CUtlMemory@VCDispTri@@@@@@QAEAAVCDispTri@@H@Z 0041a530 f i disp_vbsp.obj
 0001:00019540       ?Element@?$CUtlVector@VVector2D@@V?$CUtlMemory@VVector2D@@@@@@QAEAAVVector2D@@H@Z 0041a540 f i disp_vbsp.obj
 0001:00019550       ?Element@?$CUtlVector@_NV?$CUtlMemory@_N@@@@QAEAA_NH@Z 0041a550 f i disp_vbsp.obj
 0001:00019560       ?Element@?$CUtlVector@PAUdface_t@@V?$CUtlMemory@PAUdface_t@@@@@@QAEAAPAUdface_t@@H@Z 0041a560 f i disp_vbsp.obj
 0001:00019570       ?GrowVector@?$CUtlVector@Vddispinfo_t@@V?$CUtlMemory@Vddispinfo_t@@@@@@IAEXH@Z 0041a570 f i disp_vbsp.obj
 0001:000195a0       ?ShiftElementsRight@?$CUtlVector@Vddispinfo_t@@V?$CUtlMemory@Vddispinfo_t@@@@@@IAEXHH@Z 0041a5a0 f i disp_vbsp.obj
 0001:000195f0       ??$Construct@Vddispinfo_t@@@@YAXPAVddispinfo_t@@@Z 0041a5f0 f i disp_vbsp.obj
 0001:00019600       ?ShiftElementsRight@?$CUtlVector@VCDispVert@@V?$CUtlMemory@VCDispVert@@@@@@IAEXHH@Z 0041a600 f i disp_vbsp.obj
 0001:00019640       ??$Construct@VCDispVert@@@@YAXPAVCDispVert@@@Z 0041a640 f i disp_vbsp.obj
 0001:00019650       ?ShiftElementsRight@?$CUtlVector@VCDispTri@@V?$CUtlMemory@VCDispTri@@@@@@IAEXHH@Z 0041a650 f i disp_vbsp.obj
 0001:00019690       ?GrowVector@?$CUtlVector@VVector2D@@V?$CUtlMemory@VVector2D@@@@@@IAEXH@Z 0041a690 f i disp_vbsp.obj
 0001:000196c0       ?ShiftElementsRight@?$CUtlVector@VVector2D@@V?$CUtlMemory@VVector2D@@@@@@IAEXHH@Z 0041a6c0 f i disp_vbsp.obj
 0001:00019700       ?GrowVector@?$CUtlVector@_NV?$CUtlMemory@_N@@@@IAEXH@Z 0041a700 f i disp_vbsp.obj
 0001:00019730       ?ShiftElementsRight@?$CUtlVector@_NV?$CUtlMemory@_N@@@@IAEXHH@Z 0041a730 f i disp_vbsp.obj
 0001:00019760       ?GrowVector@?$CUtlVector@PAUdface_t@@V?$CUtlMemory@PAUdface_t@@@@@@IAEXH@Z 0041a760 f i disp_vbsp.obj
 0001:00019790       ?ShiftElementsRight@?$CUtlVector@PAUdface_t@@V?$CUtlMemory@PAUdface_t@@@@@@IAEXHH@Z 0041a790 f i disp_vbsp.obj
 0001:000197d0       ?ResetDbgInfo@?$CUtlVector@VCDispVert@@V?$CUtlMemory@VCDispVert@@@@@@IAEXXZ 0041a7d0 f i disp_vbsp.obj
 0001:000197e0       ?ResetDbgInfo@?$CUtlVector@VCDispTri@@V?$CUtlMemory@VCDispTri@@@@@@IAEXXZ 0041a7e0 f i disp_vbsp.obj
 0001:000197f0       ?Grow@?$CUtlMemory@VCDispVert@@@@QAEXH@Z 0041a7f0 f i disp_vbsp.obj
 0001:00019860       ?Grow@?$CUtlMemory@VCDispTri@@@@QAEXH@Z 0041a860 f i disp_vbsp.obj
 0001:000198d0       ?ExportNeighborData@@YAXPAPAVCCoreDispInfo@@PAVddispinfo_t@@H@Z 0041a8d0 f   disp_vbsp.obj
 0001:00019920       ??A?$CUtlVector@VCDispVert@@V?$CUtlMemory@VCDispVert@@@@@@QAEAAVCDispVert@@H@Z 0041a920 f i disp_vbsp.obj
 0001:00019930       ??A?$CUtlVector@VCDispTri@@V?$CUtlMemory@VCDispTri@@@@@@QAEAAVCDispTri@@H@Z 0041a930 f i disp_vbsp.obj
 0001:00019940       ??A?$CUtlVector@VVector2D@@V?$CUtlMemory@VVector2D@@@@@@QAEAAVVector2D@@H@Z 0041a940 f i disp_vbsp.obj
 0001:00019950       ??A?$CUtlVector@PAUdface_t@@V?$CUtlMemory@PAUdface_t@@@@@@QAEAAPAUdface_t@@H@Z 0041a950 f i disp_vbsp.obj
 0001:00019960       ?RemoveAll@?$CUtlVector@Vddispinfo_t@@V?$CUtlMemory@Vddispinfo_t@@@@@@QAEXXZ 0041a960 f i disp_vbsp.obj
 0001:00019970       ??1?$CUtlMemory@PAVCCoreDispInfo@@@@QAE@XZ 0041a970 f i disp_vbsp.obj
 0001:000199a0       ?InsertBefore@?$CUtlVector@PAVCCoreDispInfo@@V?$CUtlMemory@PAVCCoreDispInfo@@@@@@QAEHH@Z 0041a9a0 f i disp_vbsp.obj
 0001:00019a00       ?RemoveAll@?$CUtlVector@PAVCCoreDispInfo@@V?$CUtlMemory@PAVCCoreDispInfo@@@@@@QAEXXZ 0041aa00 f i disp_vbsp.obj
 0001:00019a10       ??1?$CUtlMemory@VVector2D@@@@QAE@XZ 0041aa10 f i disp_vbsp.obj
 0001:00019a40       ??1?$CUtlMemory@_N@@QAE@XZ 0041aa40 f i disp_vbsp.obj
 0001:00019a70       ??1?$CUtlMemory@PAUdface_t@@@@QAE@XZ 0041aa70 f i disp_vbsp.obj
 0001:00019aa0       ?GrowVector@?$CUtlVector@EV?$CUtlMemory@E@@@@IAEXH@Z 0041aaa0 f i disp_vbsp.obj
 0001:00019ad0       ?RemoveAll@?$CUtlVector@VCDispVert@@V?$CUtlMemory@VCDispVert@@@@@@QAEXXZ 0041aad0 f i disp_vbsp.obj
 0001:00019ae0       ?RemoveAll@?$CUtlVector@VCDispTri@@V?$CUtlMemory@VCDispTri@@@@@@QAEXXZ 0041aae0 f i disp_vbsp.obj
 0001:00019af0       ?RemoveAll@?$CUtlVector@VVector2D@@V?$CUtlMemory@VVector2D@@@@@@QAEXXZ 0041aaf0 f i disp_vbsp.obj
 0001:00019b00       ?RemoveAll@?$CUtlVector@_NV?$CUtlMemory@_N@@@@QAEXXZ 0041ab00 f i disp_vbsp.obj
 0001:00019b10       ?RemoveAll@?$CUtlVector@PAUdface_t@@V?$CUtlMemory@PAUdface_t@@@@@@QAEXXZ 0041ab10 f i disp_vbsp.obj
 0001:00019b20       ?InsertMultipleBefore@?$CUtlVector@Vddispinfo_t@@V?$CUtlMemory@Vddispinfo_t@@@@@@QAEHHHPBVddispinfo_t@@@Z 0041ab20 f i disp_vbsp.obj
 0001:00019bd0       ?InsertMultipleBefore@?$CUtlVector@VVector2D@@V?$CUtlMemory@VVector2D@@@@@@QAEHHHPBVVector2D@@@Z 0041abd0 f i disp_vbsp.obj
 0001:00019cf0       ?InsertMultipleBefore@?$CUtlVector@_NV?$CUtlMemory@_N@@@@QAEHHHPB_N@Z 0041acf0 f i disp_vbsp.obj
 0001:00019d80       ?InsertMultipleBefore@?$CUtlVector@PAUdface_t@@V?$CUtlMemory@PAUdface_t@@@@@@QAEHHHPBQAUdface_t@@@Z 0041ad80 f i disp_vbsp.obj
 0001:00019e20       ?GrowVector@?$CUtlVector@VCDispVert@@V?$CUtlMemory@VCDispVert@@@@@@IAEXH@Z 0041ae20 f i disp_vbsp.obj
 0001:00019e50       ?GrowVector@?$CUtlVector@VCDispTri@@V?$CUtlMemory@VCDispTri@@@@@@IAEXH@Z 0041ae50 f i disp_vbsp.obj
 0001:00019e80       ?DispMapToCoreDispInfo@@YAXPAUmapdispinfo_t@@PAVCCoreDispInfo@@PAUdface_t@@@Z 0041ae80 f   disp_vbsp.obj
 0001:0001a3c0       ?FindEnclosingTri@@YA_NABVVector2D@@AAV?$CUtlVector@VVector2D@@V?$CUtlMemory@VVector2D@@@@@@AAV?$CUtlVector@GV?$CUtlMemory@G@@@@PAHQAM@Z 0041b3c0 f   disp_vbsp.obj
 0001:0001a480       ?Purge@?$CUtlVector@Vddispinfo_t@@V?$CUtlMemory@Vddispinfo_t@@@@@@QAEXXZ 0041b480 f i disp_vbsp.obj
 0001:0001a4d0       ??0?$CUtlVector@PAVCCoreDispInfo@@V?$CUtlMemory@PAVCCoreDispInfo@@@@@@QAE@HH@Z 0041b4d0 f i disp_vbsp.obj
 0001:0001a520       ?AddToTail@?$CUtlVector@PAVCCoreDispInfo@@V?$CUtlMemory@PAVCCoreDispInfo@@@@@@QAEHXZ 0041b520 f i disp_vbsp.obj
 0001:0001a530       ?Purge@?$CUtlVector@PAVCCoreDispInfo@@V?$CUtlMemory@PAVCCoreDispInfo@@@@@@QAEXXZ 0041b530 f i disp_vbsp.obj
 0001:0001a580       ??0?$CUtlVector@VVector2D@@V?$CUtlMemory@VVector2D@@@@@@QAE@HH@Z 0041b580 f i disp_vbsp.obj
 0001:0001a5d0       ??0?$CUtlVector@_NV?$CUtlMemory@_N@@@@QAE@HH@Z 0041b5d0 f i disp_vbsp.obj
 0001:0001a610       ??0?$CUtlVector@PAUdface_t@@V?$CUtlMemory@PAUdface_t@@@@@@QAE@HH@Z 0041b610 f i disp_vbsp.obj
 0001:0001a660       ?InsertBefore@?$CUtlVector@EV?$CUtlMemory@E@@@@QAEHHABE@Z 0041b660 f i disp_vbsp.obj
 0001:0001a6c0       ?Purge@?$CUtlVector@VVector2D@@V?$CUtlMemory@VVector2D@@@@@@QAEXXZ 0041b6c0 f i disp_vbsp.obj
 0001:0001a710       ?Purge@?$CUtlVector@_NV?$CUtlMemory@_N@@@@QAEXXZ 0041b710 f i disp_vbsp.obj
 0001:0001a760       ?Purge@?$CUtlVector@PAUdface_t@@V?$CUtlMemory@PAUdface_t@@@@@@QAEXXZ 0041b760 f i disp_vbsp.obj
 0001:0001a7b0       ?AddMultipleToTail@?$CUtlVector@Vddispinfo_t@@V?$CUtlMemory@Vddispinfo_t@@@@@@QAEHHPBVddispinfo_t@@@Z 0041b7b0 f i disp_vbsp.obj
 0001:0001a7d0       ?AddMultipleToTail@?$CUtlVector@VVector2D@@V?$CUtlMemory@VVector2D@@@@@@QAEHHPBVVector2D@@@Z 0041b7d0 f i disp_vbsp.obj
 0001:0001a7f0       ?AddMultipleToTail@?$CUtlVector@_NV?$CUtlMemory@_N@@@@QAEHHPB_N@Z 0041b7f0 f i disp_vbsp.obj
 0001:0001a810       ?AddMultipleToTail@?$CUtlVector@PAUdface_t@@V?$CUtlMemory@PAUdface_t@@@@@@QAEHHPBQAUdface_t@@@Z 0041b810 f i disp_vbsp.obj
 0001:0001a830       ?InsertMultipleBefore@?$CUtlVector@VCDispVert@@V?$CUtlMemory@VCDispVert@@@@@@QAEHHHPBVCDispVert@@@Z 0041b830 f i disp_vbsp.obj
 0001:0001a9d0       ?InsertMultipleBefore@?$CUtlVector@VCDispTri@@V?$CUtlMemory@VCDispTri@@@@@@QAEHHHPBVCDispTri@@@Z 0041b9d0 f i disp_vbsp.obj
 0001:0001aa70       ?ComputeDispInfoBounds@@YAXHAAVVector@@0@Z 0041ba70 f   disp_vbsp.obj
 0001:0001ab00       ?AddToTail@?$CUtlVector@EV?$CUtlMemory@E@@@@QAEHABE@Z 0041bb00 f i disp_vbsp.obj
 0001:0001ab20       ??1?$CUtlVector@PAVCCoreDispInfo@@V?$CUtlMemory@PAVCCoreDispInfo@@@@@@QAE@XZ 0041bb20 f i disp_vbsp.obj
 0001:0001ab90       ??1?$CUtlVector@VVector2D@@V?$CUtlMemory@VVector2D@@@@@@QAE@XZ 0041bb90 f i disp_vbsp.obj
 0001:0001ac00       ??1?$CUtlVector@_NV?$CUtlMemory@_N@@@@QAE@XZ 0041bc00 f i disp_vbsp.obj
 0001:0001ac70       ??1?$CUtlVector@PAUdface_t@@V?$CUtlMemory@PAUdface_t@@@@@@QAE@XZ 0041bc70 f i disp_vbsp.obj
 0001:0001ace0       ?SetCount@?$CUtlVector@Vddispinfo_t@@V?$CUtlMemory@Vddispinfo_t@@@@@@QAEXH@Z 0041bce0 f i disp_vbsp.obj
 0001:0001ad00       ?SetCount@?$CUtlVector@VVector2D@@V?$CUtlMemory@VVector2D@@@@@@QAEXH@Z 0041bd00 f i disp_vbsp.obj
 0001:0001ad20       ?SetCount@?$CUtlVector@_NV?$CUtlMemory@_N@@@@QAEXH@Z 0041bd20 f i disp_vbsp.obj
 0001:0001ad70       ?SetCount@?$CUtlVector@PAUdface_t@@V?$CUtlMemory@PAUdface_t@@@@@@QAEXH@Z 0041bd70 f i disp_vbsp.obj
 0001:0001ad90       ?AddMultipleToTail@?$CUtlVector@VCDispVert@@V?$CUtlMemory@VCDispVert@@@@@@QAEHHPBVCDispVert@@@Z 0041bd90 f i disp_vbsp.obj
 0001:0001adb0       ?AddMultipleToTail@?$CUtlVector@VCDispTri@@V?$CUtlMemory@VCDispTri@@@@@@QAEHHPBVCDispTri@@@Z 0041bdb0 f i disp_vbsp.obj
 0001:0001add0       ?CalculateLightmapSamplePositions@@YAXPAVCCoreDispInfo@@PBUdface_t@@AAV?$CUtlVector@EV?$CUtlMemory@E@@@@@Z 0041bdd0 f   disp_vbsp.obj
 0001:0001b1a0       ?SetSize@?$CUtlVector@Vddispinfo_t@@V?$CUtlMemory@Vddispinfo_t@@@@@@QAEXH@Z 0041c1a0 f i disp_vbsp.obj
 0001:0001b1c0       ?SetSize@?$CUtlVector@VVector2D@@V?$CUtlMemory@VVector2D@@@@@@QAEXH@Z 0041c1c0 f i disp_vbsp.obj
 0001:0001b1e0       ?SetSize@?$CUtlVector@_NV?$CUtlMemory@_N@@@@QAEXH@Z 0041c1e0 f i disp_vbsp.obj
 0001:0001b230       ?SetSize@?$CUtlVector@PAUdface_t@@V?$CUtlMemory@PAUdface_t@@@@@@QAEXH@Z 0041c230 f i disp_vbsp.obj
 0001:0001b250       ?SetCount@?$CUtlVector@VCDispVert@@V?$CUtlMemory@VCDispVert@@@@@@QAEXH@Z 0041c250 f i disp_vbsp.obj
 0001:0001b270       ?SetCount@?$CUtlVector@VCDispTri@@V?$CUtlMemory@VCDispTri@@@@@@QAEXH@Z 0041c270 f i disp_vbsp.obj
 0001:0001b290       ?SetSize@?$CUtlVector@VCDispVert@@V?$CUtlMemory@VCDispVert@@@@@@QAEXH@Z 0041c290 f i disp_vbsp.obj
 0001:0001b2b0       ?SetSize@?$CUtlVector@VCDispTri@@V?$CUtlMemory@VCDispTri@@@@@@QAEXH@Z 0041c2b0 f i disp_vbsp.obj
 0001:0001b2d0       ?EmitInitialDispInfos@@YAXXZ 0041c2d0 f   disp_vbsp.obj
 0001:0001b610       ?SnapRemainingVertsToSurface@@YAXPAVCCoreDispInfo@@PAVddispinfo_t@@@Z 0041c610 f   disp_vbsp.obj
 0001:0001bb00       ?SnapRemainingVertsToSurface@@YAXPAPAVCCoreDispInfo@@PAVddispinfo_t@@H@Z 0041cb00 f   disp_vbsp.obj
 0001:0001bb40       ?EmitDispLMAlphaAndNeighbors@@YAXXZ 0041cb40 f   disp_vbsp.obj
 0001:0001bed0       ??_I@YGXPAXIHP6EX0@Z@Z     0041ced0 f i faces.obj
 0001:0001bf10       ?HashVec@@YAIAAVVector@@@Z 0041cf10 f   faces.obj
 0001:0001bf80       ?GetVertexnum@@YAHAAVVector@@@Z 0041cf80 f   faces.obj
 0001:0001c190       ?FindEdgeVerts@@YAXAAVVector@@0@Z 0041d190 f   faces.obj
 0001:0001c280       ?TestEdge@@YAXMMHHH@Z      0041d280 f   faces.obj
 0001:0001c470       ??0face_vert_table_t@@QAE@XZ 0041d470 f i faces.obj
 0001:0001c480       ?AddEdge@face_vert_table_t@@QAEXH@Z 0041d480 f i faces.obj
 0001:0001c4a0       ?HasEdge@face_vert_table_t@@QBE_NH@Z 0041d4a0 f i faces.obj
 0001:0001c4c0       ?IsDiagonal@@YA_NABUface_vert_table_t@@0@Z 0041d4c0 f   faces.obj
 0001:0001c4f0       ?AllocFace@@YAPAUface_t@@XZ 0041d4f0 f   faces.obj
 0001:0001c530       ?NewFaceFromFace@@YAPAUface_t@@PAU1@@Z 0041d530 f   faces.obj
 0001:0001c590       ?FreeFace@@YAXPAUface_t@@@Z 0041d590 f   faces.obj
 0001:0001c5c0       ?FreeFaceList@@YAXPAUface_t@@@Z 0041d5c0 f   faces.obj
 0001:0001c600       ?TryMergeWinding@@YAPAUwinding_t@@PAU1@0AAVVector@@@Z 0041d600 f   faces.obj
 0001:0001ca30       ?FaceOnWaterBrush@@YA_NPAUface_t@@@Z 0041da30 f   faces.obj
 0001:0001ca50       ?AddWindingToPrimverts@@YAHPBUwinding_t@@PAGHH@Z 0041da50 f   faces.obj
 0001:0001cb80       ?Size@?$CUtlVector@GV?$CUtlMemory@G@@@@QBEHXZ 0041db80 f i faces.obj
 0001:0001cb90       ?Base@?$CUtlMemory@Uface_vert_table_t@@@@QBEPBUface_vert_table_t@@XZ 0041db90 f i faces.obj
 0001:0001cba0       ?Base@?$CUtlMemory@Uface_vert_table_t@@@@QAEPAUface_vert_table_t@@XZ 0041dba0 f i faces.obj
 0001:0001cbb0       ?ValidateGrowSize@?$CUtlMemory@Uface_vert_table_t@@@@IAEXXZ 0041dbb0 f i faces.obj
 0001:0001cbc0       ??$Construct@Uface_vert_table_t@@@@YAXPAUface_vert_table_t@@@Z 0041dbc0 f i faces.obj
 0001:0001cbe0       ??$Destruct@Uface_vert_table_t@@@@YAXPAUface_vert_table_t@@@Z 0041dbe0 f i faces.obj
 0001:0001cbf0       ?NumAllocated@?$CUtlMemory@Uface_vert_table_t@@@@QBEHXZ 0041dbf0 f i faces.obj
 0001:0001cc00       ?IsExternallyAllocated@?$CUtlMemory@Uface_vert_table_t@@@@QBE_NXZ 0041dc00 f i faces.obj
 0001:0001cc10       ?FaceFromSuperverts@@YAXPAPAUface_t@@PAU1@H@Z 0041dc10 f   faces.obj
 0001:0001cdb0       ?EmitFaceVertexes@@YAXPAPAUface_t@@PAU1@@Z 0041ddb0 f   faces.obj
 0001:0001cea0       ?EmitNodeFaceVertexes_r@@YAXPAUnode_t@@@Z 0041dea0 f   faces.obj
 0001:0001cef0       ?EmitLeafFaceVertexes@@YAXPAPAUface_t@@@Z 0041def0 f   faces.obj
 0001:0001cf20       ?Base@?$CUtlVector@Uface_vert_table_t@@V?$CUtlMemory@Uface_vert_table_t@@@@@@QAEPAUface_vert_table_t@@XZ 0041df20 f i faces.obj
 0001:0001cf30       ?Base@?$CUtlVector@Uface_vert_table_t@@V?$CUtlMemory@Uface_vert_table_t@@@@@@QBEPBUface_vert_table_t@@XZ 0041df30 f i faces.obj
 0001:0001cf40       ?ResetDbgInfo@?$CUtlVector@Uface_vert_table_t@@V?$CUtlMemory@Uface_vert_table_t@@@@@@IAEXXZ 0041df40 f i faces.obj
 0001:0001cf50       ?Element@?$CUtlVector@HV?$CUtlMemory@H@@@@QBEABHH@Z 0041df50 f i faces.obj
 0001:0001cf60       ??0?$CUtlMemory@Uface_vert_table_t@@@@QAE@HH@Z 0041df60 f i faces.obj
 0001:0001cfa0       ?Element@?$CUtlVector@Uface_vert_table_t@@V?$CUtlMemory@Uface_vert_table_t@@@@@@QAEAAUface_vert_table_t@@H@Z 0041dfa0 f i faces.obj
 0001:0001cfb0       ?RemoveAll@?$CUtlVector@Uface_vert_table_t@@V?$CUtlMemory@Uface_vert_table_t@@@@@@QAEXXZ 0041dfb0 f i faces.obj
 0001:0001cfc0       ?ShiftElementsRight@?$CUtlVector@Uface_vert_table_t@@V?$CUtlMemory@Uface_vert_table_t@@@@@@IAEXHH@Z 0041dfc0 f i faces.obj
 0001:0001d000       ?Purge@?$CUtlMemory@Uface_vert_table_t@@@@QAEXXZ 0041e000 f i faces.obj
 0001:0001d030       ?Grow@?$CUtlMemory@Uface_vert_table_t@@@@QAEXH@Z 0041e030 f i faces.obj
 0001:0001d0a0       ??A?$CUtlVector@HV?$CUtlMemory@H@@@@QBEABHH@Z 0041e0a0 f i faces.obj
 0001:0001d0b0       ?Find@?$CUtlVector@HV?$CUtlMemory@H@@@@QBEHABH@Z 0041e0b0 f i faces.obj
 0001:0001d0e0       ??A?$CUtlVector@Uface_vert_table_t@@V?$CUtlMemory@Uface_vert_table_t@@@@@@QBEABUface_vert_table_t@@H@Z 0041e0e0 f i faces.obj
 0001:0001d0f0       ??A?$CUtlVector@Uface_vert_table_t@@V?$CUtlMemory@Uface_vert_table_t@@@@@@QAEAAUface_vert_table_t@@H@Z 0041e0f0 f i faces.obj
 0001:0001d100       ?Purge@?$CUtlVector@Uface_vert_table_t@@V?$CUtlMemory@Uface_vert_table_t@@@@@@QAEXXZ 0041e100 f i faces.obj
 0001:0001d150       ??1?$CUtlMemory@Uface_vert_table_t@@@@QAE@XZ 0041e150 f i faces.obj
 0001:0001d180       ?GrowVector@?$CUtlVector@Uface_vert_table_t@@V?$CUtlMemory@Uface_vert_table_t@@@@@@IAEXH@Z 0041e180 f i faces.obj
 0001:0001d1b0       ?GetEdge2_InitOptimizedList@@YAXXZ 0041e1b0 f   faces.obj
 0001:0001d1e0       ?IntSort@@YAXAAV?$CUtlVector@HV?$CUtlMemory@H@@@@@Z 0041e1e0 f   faces.obj
 0001:0001d230       ?OverlaysAreEqual@@YA_NPAUface_t@@0@Z 0041e230 f   faces.obj
 0001:0001d2b0       ?TryMerge@@YAPAUface_t@@PAU1@0AAVVector@@@Z 0041e2b0 f   faces.obj
 0001:0001d380       ?MergeFaceList@@YAXPAPAUface_t@@@Z 0041e380 f   faces.obj
 0001:0001d410       ?SubdivideFace@@YAXPAPAUface_t@@PAU1@@Z 0041e410 f   faces.obj
 0001:0001d760       ?SubdivideFaceList@@YAXPAPAUface_t@@@Z 0041e760 f   faces.obj
 0001:0001d8f0       ?FaceFromPortal@@YAPAUface_t@@PAUportal_t@@H@Z 0041e8f0 f   faces.obj
 0001:0001da80       ?MakeFaces_r@@YAXPAUnode_t@@@Z 0041ea80 f   faces.obj
 0001:0001db30       ?MakeFaces@@YAXPAUnode_t@@@Z 0041eb30 f   faces.obj
 0001:0001db90       ??0?$CUtlVector@Uface_vert_table_t@@V?$CUtlMemory@Uface_vert_table_t@@@@@@QAE@HH@Z 0041eb90 f i faces.obj
 0001:0001dbe0       ??1?$CUtlVector@Uface_vert_table_t@@V?$CUtlMemory@Uface_vert_table_t@@@@@@QAE@XZ 0041ebe0 f i faces.obj
 0001:0001dc50       ?InsertMultipleBefore@?$CUtlVector@Uface_vert_table_t@@V?$CUtlMemory@Uface_vert_table_t@@@@@@QAEHHHPBUface_vert_table_t@@@Z 0041ec50 f i faces.obj
 0001:0001dd20       ??_F?$CUtlVector@HV?$CUtlMemory@H@@@@QAEXXZ 0041ed20 f i faces.obj
 0001:0001dd40       ?AddMultipleToTail@?$CUtlVector@Uface_vert_table_t@@V?$CUtlMemory@Uface_vert_table_t@@@@@@QAEHHPBUface_vert_table_t@@@Z 0041ed40 f i faces.obj
 0001:0001dd60       ?Triangulate_r@@YAXAAV?$CUtlVector@HV?$CUtlMemory@H@@@@ABV1@ABV?$CUtlVector@Uface_vert_table_t@@V?$CUtlMemory@Uface_vert_table_t@@@@@@@Z 0041ed60 f   faces.obj
 0001:0001e100       ?FixFaceEdges@@YAXPAPAUface_t@@PAU1@@Z 0041f100 f   faces.obj
 0001:0001e570       ?FixEdges_r@@YAXPAUnode_t@@@Z 0041f570 f   faces.obj
 0001:0001e5c0       ?FixLeafFaceEdges@@YAXPAPAUface_t@@@Z 0041f5c0 f   faces.obj
 0001:0001e5f0       ?FixTjuncs@@YAPAUface_t@@PAUnode_t@@PAU1@@Z 0041f5f0 f   faces.obj
 0001:0001e770       ?AddEdge@@YAHHHPAUface_t@@@Z 0041f770 f   faces.obj
 0001:0001e810       ?GetEdge2@@YAHHHPAUface_t@@@Z 0041f810 f   faces.obj
 0001:0001f0a0       ?SubdivideFaceBySubdivSize@@YAXPAUface_t@@@Z 004200a0 f   faces.obj
 0001:0001f190       ?SplitSubdividedFaces_Node_r@@YAXPAUnode_t@@@Z 00420190 f   faces.obj
 0001:0001f1f0       ?SplitSubdividedFaces@@YAXPAUface_t@@PAUnode_t@@@Z 004201f0 f   faces.obj
 0001:0001f230       ?PortalVisibleSides@@YAHPAUportal_t@@@Z 00420230 f   glfile.obj
 0001:0001f270       ?OutputWinding@@YAXPAUwinding_t@@PAX@Z 00420270 f   glfile.obj
 0001:0001f310       ?OutputPortal@@YAXPAUportal_t@@PAX@Z 00420310 f   glfile.obj
 0001:0001f380       ?WriteGLView_r@@YAXPAUnode_t@@PAX@Z 00420380 f   glfile.obj
 0001:0001f3d0       ?WriteGLViewFaces_r@@YAXPAUnode_t@@PAX@Z 004203d0 f   glfile.obj
 0001:0001f430       ?WriteGLView@@YAXPAUtree_t@@PAD@Z 00420430 f   glfile.obj
 0001:0001f4e0       ?WriteGLViewFaces@@YAXPAUtree_t@@PBD@Z 004204e0 f   glfile.obj
 0001:0001f590       ?CopyToArray@Vector@@QBEXPAM@Z 00420590 f i ivp.obj
 0001:0001f5b0       ?CrossProduct@@YA?AVVector@@ABV1@0@Z 004205b0 f i ivp.obj
 0001:0001f5f0       ?Defaults@convertconvexparams_t@@QAEXXZ 004205f0 f i ivp.obj
 0001:0001f610       ?DumpCollideToGlView@@YAXPAVCPhysCollide@@PBD@Z 00420610 f   ivp.obj
 0001:0001f740       ??0CPhysCollisionEntry@@QAE@PAVCPhysCollide@@@Z 00420740 f   ivp.obj
 0001:0001f760       ?GetCollisionBinarySize@CPhysCollisionEntry@@QAEIXZ 00420760 f   ivp.obj
 0001:0001f780       ?WriteCollisionBinary@CPhysCollisionEntry@@QAEIPAD@Z 00420780 f   ivp.obj
 0001:0001f7a0       ??0CPhysCollisionEntrySolid@@QAE@PAVCPhysCollide@@PBDM@Z 004207a0 f   ivp.obj
 0001:0001f7e0       ??0CPhysCollisionEntryStaticSolid@@QAE@PAVCPhysCollide@@H@Z 004207e0 f   ivp.obj
 0001:0001f800       ??0CPhysCollisionEntryStaticMesh@@QAE@PAVCPhysCollide@@PBD@Z 00420800 f   ivp.obj
 0001:0001f820       ??0CPhysCollisionEntryFluid@@QAE@PAVCPhysCollide@@PBDMABVVector@@MH@Z 00420820 f   ivp.obj
 0001:0001f8a0       ??1CPhysCollisionEntryFluid@@QAE@XZ 004208a0 f   ivp.obj
 0001:0001f8c0       ?ReferenceBrush@CPlaneList@@QAEXH@Z 004208c0 f   ivp.obj
 0001:0001f8e0       ?IsBrushReferenced@CPlaneList@@QAE_NH@Z 004208e0 f   ivp.obj
 0001:0001f8f0       ?GetFirstBrushSide@CPlaneList@@QAEHXZ 004208f0 f   ivp.obj
 0001:0001f9c0       ?WaterLessFunc@@YA_NABUWaterTexInfo@@0@Z 004209c0 f   ivp.obj
 0001:0001f9e0       ?GetWaterTextureName@@YAXPBD0HPAD@Z 004209e0 f   ivp.obj
 0001:0001fa40       ?EmitWaterMaterialFile@@YAXPAUWaterTexInfo@@@Z 00420a40 f   ivp.obj
 0001:0001fac0       ??0WaterTexInfo@@QAE@XZ    00420ac0 f i ivp.obj
 0001:0001fc70       ?FirstWaterTexinfo@@YAHPAUbspbrush_t@@H@Z 00420c70 f   ivp.obj
 0001:0001fcd0       ??0waterleaf_t@@QAE@XZ     00420cd0 f i ivp.obj
 0001:0001fce0       ??0watermodel_t@@QAE@XZ    00420ce0 f i ivp.obj
 0001:0001fcf0       ??4waterleaf_t@@QAEAAU0@ABU0@@Z 00420cf0 f i ivp.obj
 0001:00020000       ?Base@?$CUtlMemory@D@@QAEPADXZ 00421000 f i ivp.obj
 0001:00020010       ?Count@?$CUtlVector@DV?$CUtlMemory@D@@@@QBEHXZ 00421010 f i ivp.obj
 0001:00020020       ?Base@?$CUtlMemory@Ulistplane_t@@@@QAEPAUlistplane_t@@XZ 00421020 f i ivp.obj
 0001:00020030       ?Count@?$CUtlVector@Ulistplane_t@@V?$CUtlMemory@Ulistplane_t@@@@@@QBEHXZ 00421030 f i ivp.obj
 0001:00020040       ?Base@?$CUtlMemory@PAVCPhysConvex@@@@QAEPAPAVCPhysConvex@@XZ 00421040 f i ivp.obj
 0001:00020050       ?Count@?$CUtlVector@PAVCPhysConvex@@V?$CUtlMemory@PAVCPhysConvex@@@@@@QBEHXZ 00421050 f i ivp.obj
 0001:00020060       ?InvalidIndex@?$CUtlRBTree@UWaterTexInfo@@HP6A_NABU1@0@Z@@SAHXZ 00421060 f i ivp.obj
 0001:00020070       ?Count@?$CUtlVector@Uwaterleaf_t@@V?$CUtlMemory@Uwaterleaf_t@@@@@@QBEHXZ 00421070 f i ivp.obj
 0001:00020080       ?Count@?$CUtlVector@PAUnode_t@@V?$CUtlMemory@PAUnode_t@@@@@@QBEHXZ 00421080 f i ivp.obj
 0001:00020090       ??0?$CBitVec@$0BAAAA@@@QAE@XZ 00421090 f i ivp.obj
 0001:000200b0       ?Get@?$CBitVec@$0BAAAA@@@QBEKK@Z 004210b0 f i ivp.obj
 0001:000200d0       ?Set@?$CBitVec@$0BAAAA@@@QAEXK@Z 004210d0 f i ivp.obj
 0001:000200f0       ?Count@?$CUtlVector@Uwatermodel_t@@V?$CUtlMemory@Uwatermodel_t@@@@@@QBEHXZ 004210f0 f i ivp.obj
 0001:00020100       ?Count@?$CUtlVector@PAVCPhysCollisionEntry@@V?$CUtlMemory@PAVCPhysCollisionEntry@@@@@@QBEHXZ 00421100 f i ivp.obj
 0001:00020110       ?Base@?$CUtlMemory@UNode_t@?$CUtlRBTree@UWaterTexInfo@@HP6A_NABU1@0@Z@@@@QAEPAUNode_t@?$CUtlRBTree@UWaterTexInfo@@HP6A_NABU1@0@Z@@XZ 00421110 f i ivp.obj
 0001:00020120       ?Base@?$CUtlMemory@Uwaterleaf_t@@@@QAEPAUwaterleaf_t@@XZ 00421120 f i ivp.obj
 0001:00020130       ??$CopyConstruct@Uwaterleaf_t@@@@YAXPAUwaterleaf_t@@ABU0@@Z 00421130 f i ivp.obj
 0001:00020150       ?Base@?$CUtlMemory@PAUnode_t@@@@QAEPAPAUnode_t@@XZ 00421150 f i ivp.obj
 0001:00020160       ??$Destruct@PAUnode_t@@@@YAXPAPAUnode_t@@@Z 00421160 f i ivp.obj
 0001:00020170       ?Base@?$CUtlMemory@Uwatermodel_t@@@@QAEPAUwatermodel_t@@XZ 00421170 f i ivp.obj
 0001:00020180       ??0WaterTexInfo@@QAE@ABU0@@Z 00421180 f i ivp.obj
 0001:000201b0       ?ValidateGrowSize@?$CUtlMemory@D@@IAEXXZ 004211b0 f i ivp.obj
 0001:000201c0       ?ValidateGrowSize@?$CUtlMemory@Ulistplane_t@@@@IAEXXZ 004211c0 f i ivp.obj
 0001:000201d0       ?ValidateGrowSize@?$CUtlMemory@PAVCPhysConvex@@@@IAEXXZ 004211d0 f i ivp.obj
 0001:000201e0       ?ValidateGrowSize@?$CUtlMemory@UNode_t@?$CUtlRBTree@UWaterTexInfo@@HP6A_NABU1@0@Z@@@@IAEXXZ 004211e0 f i ivp.obj
 0001:000201f0       ?ValidateGrowSize@?$CUtlMemory@Uwaterleaf_t@@@@IAEXXZ 004211f0 f i ivp.obj
 0001:00020200       ?ValidateGrowSize@?$CUtlMemory@PAUnode_t@@@@IAEXXZ 00421200 f i ivp.obj
 0001:00020210       ?ValidateGrowSize@?$CUtlMemory@Uwatermodel_t@@@@IAEXXZ 00421210 f i ivp.obj
 0001:00020220       ?ValidateGrowSize@?$CUtlMemory@PAVCPhysCollisionEntry@@@@IAEXXZ 00421220 f i ivp.obj
 0001:00020230       ??$Construct@D@@YAXPAD@Z   00421230 f i ivp.obj
 0001:00020240       ??$CopyConstruct@Ulistplane_t@@@@YAXPAUlistplane_t@@ABU0@@Z 00421240 f i ivp.obj
 0001:00020270       ??$CopyConstruct@PAVCPhysConvex@@@@YAXPAPAVCPhysConvex@@ABQAV0@@Z 00421270 f i ivp.obj
 0001:00020290       ??A?$CUtlMemory@UNode_t@?$CUtlRBTree@UWaterTexInfo@@HP6A_NABU1@0@Z@@@@QBEABUNode_t@?$CUtlRBTree@UWaterTexInfo@@HP6A_NABU1@0@Z@@H@Z 00421290 f i ivp.obj
 0001:000202b0       ??A?$CUtlMemory@UNode_t@?$CUtlRBTree@UWaterTexInfo@@HP6A_NABU1@0@Z@@@@QAEAAUNode_t@?$CUtlRBTree@UWaterTexInfo@@HP6A_NABU1@0@Z@@H@Z 004212b0 f i ivp.obj
 0001:000202d0       ??$Destruct@UWaterTexInfo@@@@YAXPAUWaterTexInfo@@@Z 004212d0 f i ivp.obj
 0001:000202e0       ?NumAllocated@?$CUtlMemory@Uwaterleaf_t@@@@QBEHXZ 004212e0 f i ivp.obj
 0001:000202f0       ??$CopyConstruct@PAUnode_t@@@@YAXPAPAUnode_t@@ABQAU0@@Z 004212f0 f i ivp.obj
 0001:00020310       ??$CopyConstruct@Uwatermodel_t@@@@YAXPAUwatermodel_t@@ABU0@@Z 00421310 f i ivp.obj
 0001:00020330       ?NumAllocated@?$CUtlMemory@D@@QBEHXZ 00421330 f i ivp.obj
 0001:00020340       ?IsExternallyAllocated@?$CUtlMemory@D@@QBE_NXZ 00421340 f i ivp.obj
 0001:00020350       ??$Destruct@D@@YAXPAD@Z    00421350 f i ivp.obj
 0001:00020360       ?NumAllocated@?$CUtlMemory@Ulistplane_t@@@@QBEHXZ 00421360 f i ivp.obj
 0001:00020370       ?IsExternallyAllocated@?$CUtlMemory@Ulistplane_t@@@@QBE_NXZ 00421370 f i ivp.obj
 0001:00020380       ??$Destruct@Ulistplane_t@@@@YAXPAUlistplane_t@@@Z 00421380 f i ivp.obj
 0001:00020390       ?NumAllocated@?$CUtlMemory@PAVCPhysConvex@@@@QBEHXZ 00421390 f i ivp.obj
 0001:000203a0       ?IsExternallyAllocated@?$CUtlMemory@PAVCPhysConvex@@@@QBE_NXZ 004213a0 f i ivp.obj
 0001:000203b0       ??$Destruct@PAVCPhysConvex@@@@YAXPAPAVCPhysConvex@@@Z 004213b0 f i ivp.obj
 0001:000203c0       ?Links@?$CUtlRBTree@UWaterTexInfo@@HP6A_NABU1@0@Z@@IAEAAULinks_t@1@H@Z 004213c0 f i ivp.obj
 0001:000203e0       ?IsIdxValid@?$CUtlMemory@UNode_t@?$CUtlRBTree@UWaterTexInfo@@HP6A_NABU1@0@Z@@@@QBE_NH@Z 004213e0 f i ivp.obj
 0001:00020400       ?NumAllocated@?$CUtlMemory@UNode_t@?$CUtlRBTree@UWaterTexInfo@@HP6A_NABU1@0@Z@@@@QBEHXZ 00421400 f i ivp.obj
 0001:00020410       ?IsExternallyAllocated@?$CUtlMemory@UNode_t@?$CUtlRBTree@UWaterTexInfo@@HP6A_NABU1@0@Z@@@@QBE_NXZ 00421410 f i ivp.obj
 0001:00020420       ??$Construct@UWaterTexInfo@@@@YAXPAUWaterTexInfo@@@Z 00421420 f i ivp.obj
 0001:00020440       ??$Destruct@Uwaterleaf_t@@@@YAXPAUwaterleaf_t@@@Z 00421440 f i ivp.obj
 0001:00020450       ?IsExternallyAllocated@?$CUtlMemory@Uwaterleaf_t@@@@QBE_NXZ 00421450 f i ivp.obj
 0001:00020460       ?NumAllocated@?$CUtlMemory@PAUnode_t@@@@QBEHXZ 00421460 f i ivp.obj
 0001:00020470       ?IsExternallyAllocated@?$CUtlMemory@PAUnode_t@@@@QBE_NXZ 00421470 f i ivp.obj
 0001:00020480       ??$Destruct@Uwatermodel_t@@@@YAXPAUwatermodel_t@@@Z 00421480 f i ivp.obj
 0001:00020490       ?NumAllocated@?$CUtlMemory@Uwatermodel_t@@@@QBEHXZ 00421490 f i ivp.obj
 0001:000204a0       ?IsExternallyAllocated@?$CUtlMemory@Uwatermodel_t@@@@QBE_NXZ 004214a0 f i ivp.obj
 0001:000204b0       ??$Destruct@PAVCPhysCollisionEntry@@@@YAXPAPAVCPhysCollisionEntry@@@Z 004214b0 f i ivp.obj
 0001:000204c0       ?IsRoot@?$CUtlRBTree@UWaterTexInfo@@HP6A_NABU1@0@Z@@QBE_NH@Z 004214c0 f i ivp.obj
 0001:000204d0       ?SetColor@?$CUtlRBTree@UWaterTexInfo@@HP6A_NABU1@0@Z@@IAEXHW4NodeColor_t@1@@Z 004214d0 f i ivp.obj
 0001:000204f0       ?SetParent@?$CUtlRBTree@UWaterTexInfo@@HP6A_NABU1@0@Z@@IAEXHH@Z 004214f0 f i ivp.obj
 0001:00020510       ?SetLeftChild@?$CUtlRBTree@UWaterTexInfo@@HP6A_NABU1@0@Z@@IAEXHH@Z 00421510 f i ivp.obj
 0001:00020530       ?SetRightChild@?$CUtlRBTree@UWaterTexInfo@@HP6A_NABU1@0@Z@@IAEXHH@Z 00421530 f i ivp.obj
 0001:00020550       ?GetSize@CTextBuffer@@QAEHXZ 00421550 f i ivp.obj
 0001:00020560       ?Base@?$CUtlVector@DV?$CUtlMemory@D@@@@QAEPADXZ 00421560 f i ivp.obj
 0001:00020570       ?Base@?$CUtlVector@Ulistplane_t@@V?$CUtlMemory@Ulistplane_t@@@@@@QAEPAUlistplane_t@@XZ 00421570 f i ivp.obj
 0001:00020580       ?Base@?$CUtlVector@PAVCPhysConvex@@V?$CUtlMemory@PAVCPhysConvex@@@@@@QAEPAPAVCPhysConvex@@XZ 00421580 f i ivp.obj
 0001:00020590       ?ResetDbgInfo@?$CUtlVector@DV?$CUtlMemory@D@@@@IAEXXZ 00421590 f i ivp.obj
 0001:000205a0       ?ResetDbgInfo@?$CUtlVector@Ulistplane_t@@V?$CUtlMemory@Ulistplane_t@@@@@@IAEXXZ 004215a0 f i ivp.obj
 0001:000205b0       ?ResetDbgInfo@?$CUtlVector@PAVCPhysConvex@@V?$CUtlMemory@PAVCPhysConvex@@@@@@IAEXXZ 004215b0 f i ivp.obj
 0001:000205c0       ?ResetDbgInfo@?$CUtlRBTree@UWaterTexInfo@@HP6A_NABU1@0@Z@@IAEXXZ 004215c0 f i ivp.obj
 0001:000205d0       ?Base@?$CUtlVector@Uwaterleaf_t@@V?$CUtlMemory@Uwaterleaf_t@@@@@@QAEPAUwaterleaf_t@@XZ 004215d0 f i ivp.obj
 0001:000205e0       ?ResetDbgInfo@?$CUtlVector@Uwaterleaf_t@@V?$CUtlMemory@Uwaterleaf_t@@@@@@IAEXXZ 004215e0 f i ivp.obj
 0001:000205f0       ?Base@?$CUtlVector@PAUnode_t@@V?$CUtlMemory@PAUnode_t@@@@@@QAEPAPAUnode_t@@XZ 004215f0 f i ivp.obj
 0001:00020600       ?ResetDbgInfo@?$CUtlVector@PAUnode_t@@V?$CUtlMemory@PAUnode_t@@@@@@IAEXXZ 00421600 f i ivp.obj
 0001:00020610       ?Base@?$CUtlVector@Uwatermodel_t@@V?$CUtlMemory@Uwatermodel_t@@@@@@QAEPAUwatermodel_t@@XZ 00421610 f i ivp.obj
 0001:00020620       ?ResetDbgInfo@?$CUtlVector@Uwatermodel_t@@V?$CUtlMemory@Uwatermodel_t@@@@@@IAEXXZ 00421620 f i ivp.obj
 0001:00020630       ??0?$CUtlMemory@D@@QAE@HH@Z 00421630 f i ivp.obj
 0001:00020670       ??0?$CUtlMemory@Ulistplane_t@@@@QAE@HH@Z 00421670 f i ivp.obj
 0001:000206b0       ??0?$CUtlMemory@PAVCPhysConvex@@@@QAE@HH@Z 004216b0 f i ivp.obj
 0001:000206f0       ?Element@?$CUtlRBTree@UWaterTexInfo@@HP6A_NABU1@0@Z@@QBEABUWaterTexInfo@@H@Z 004216f0 f i ivp.obj
 0001:00020710       ?Element@?$CUtlRBTree@UWaterTexInfo@@HP6A_NABU1@0@Z@@QAEAAUWaterTexInfo@@H@Z 00421710 f i ivp.obj
 0001:00020730       ??0?$CUtlMemory@UNode_t@?$CUtlRBTree@UWaterTexInfo@@HP6A_NABU1@0@Z@@@@QAE@HH@Z 00421730 f i ivp.obj
 0001:00020780       ??$CopyConstruct@UWaterTexInfo@@@@YAXPAUWaterTexInfo@@ABU0@@Z 00421780 f i ivp.obj
 0001:000207b0       ?Element@?$CUtlVector@Uwaterleaf_t@@V?$CUtlMemory@Uwaterleaf_t@@@@@@QAEAAUwaterleaf_t@@H@Z 004217b0 f i ivp.obj
 0001:000207c0       ?ShiftElementsRight@?$CUtlVector@Uwaterleaf_t@@V?$CUtlMemory@Uwaterleaf_t@@@@@@IAEXHH@Z 004217c0 f i ivp.obj
 0001:00020800       ??0?$CUtlMemory@Uwaterleaf_t@@@@QAE@HH@Z 00421800 f i ivp.obj
 0001:00020840       ?Element@?$CUtlVector@PAUnode_t@@V?$CUtlMemory@PAUnode_t@@@@@@QAEAAPAUnode_t@@H@Z 00421840 f i ivp.obj
 0001:00020850       ??0?$CUtlMemory@PAUnode_t@@@@QAE@HH@Z 00421850 f i ivp.obj
 0001:00020890       ??0?$CUtlMemory@Uwatermodel_t@@@@QAE@HH@Z 00421890 f i ivp.obj
 0001:000208d0       ??0?$CUtlMemory@PAVCPhysCollisionEntry@@@@QAE@HH@Z 004218d0 f i ivp.obj
 0001:00020910       ?Purge@?$CUtlMemory@D@@QAEXXZ 00421910 f i ivp.obj
 0001:00020940       ?Element@?$CUtlVector@DV?$CUtlMemory@D@@@@QAEAADH@Z 00421940 f i ivp.obj
 0001:00020950       ?RemoveAll@?$CUtlVector@DV?$CUtlMemory@D@@@@QAEXXZ 00421950 f i ivp.obj
 0001:00020960       ?ShiftElementsRight@?$CUtlVector@DV?$CUtlMemory@D@@@@IAEXHH@Z 00421960 f i ivp.obj
 0001:00020990       ?Purge@?$CUtlMemory@Ulistplane_t@@@@QAEXXZ 00421990 f i ivp.obj
 0001:000209c0       ?Element@?$CUtlVector@Ulistplane_t@@V?$CUtlMemory@Ulistplane_t@@@@@@QAEAAUlistplane_t@@H@Z 004219c0 f i ivp.obj
 0001:000209d0       ?RemoveAll@?$CUtlVector@Ulistplane_t@@V?$CUtlMemory@Ulistplane_t@@@@@@QAEXXZ 004219d0 f i ivp.obj
 0001:000209e0       ?ShiftElementsRight@?$CUtlVector@Ulistplane_t@@V?$CUtlMemory@Ulistplane_t@@@@@@IAEXHH@Z 004219e0 f i ivp.obj
 0001:00020a20       ?Purge@?$CUtlMemory@PAVCPhysConvex@@@@QAEXXZ 00421a20 f i ivp.obj
 0001:00020a50       ?Element@?$CUtlVector@PAVCPhysConvex@@V?$CUtlMemory@PAVCPhysConvex@@@@@@QAEAAPAVCPhysConvex@@H@Z 00421a50 f i ivp.obj
 0001:00020a60       ?RemoveAll@?$CUtlVector@PAVCPhysConvex@@V?$CUtlMemory@PAVCPhysConvex@@@@@@QAEXXZ 00421a60 f i ivp.obj
 0001:00020a70       ?ShiftElementsRight@?$CUtlVector@PAVCPhysConvex@@V?$CUtlMemory@PAVCPhysConvex@@@@@@IAEXHH@Z 00421a70 f i ivp.obj
 0001:00020ab0       ?Links@?$CUtlRBTree@UWaterTexInfo@@HP6A_NABU1@0@Z@@IBEABULinks_t@1@H@Z 00421ab0 f i ivp.obj
 0001:00020b00       ?Purge@?$CUtlMemory@UNode_t@?$CUtlRBTree@UWaterTexInfo@@HP6A_NABU1@0@Z@@@@QAEXXZ 00421b00 f i ivp.obj
 0001:00020b30       ?RemoveAll@?$CUtlVector@Uwaterleaf_t@@V?$CUtlMemory@Uwaterleaf_t@@@@@@QAEXXZ 00421b30 f i ivp.obj
 0001:00020b40       ?Grow@?$CUtlMemory@Uwaterleaf_t@@@@QAEXH@Z 00421b40 f i ivp.obj
 0001:00020bb0       ?Purge@?$CUtlMemory@Uwaterleaf_t@@@@QAEXXZ 00421bb0 f i ivp.obj
 0001:00020be0       ?ShiftElementsRight@?$CUtlVector@PAUnode_t@@V?$CUtlMemory@PAUnode_t@@@@@@IAEXHH@Z 00421be0 f i ivp.obj
 0001:00020c20       ?Purge@?$CUtlMemory@PAUnode_t@@@@QAEXXZ 00421c20 f i ivp.obj
 0001:00020c50       ?Element@?$CUtlVector@Uwatermodel_t@@V?$CUtlMemory@Uwatermodel_t@@@@@@QAEAAUwatermodel_t@@H@Z 00421c50 f i ivp.obj
 0001:00020c70       ?RemoveAll@?$CUtlVector@Uwatermodel_t@@V?$CUtlMemory@Uwatermodel_t@@@@@@QAEXXZ 00421c70 f i ivp.obj
 0001:00020c80       ?ShiftElementsRight@?$CUtlVector@Uwatermodel_t@@V?$CUtlMemory@Uwatermodel_t@@@@@@IAEXHH@Z 00421c80 f i ivp.obj
 0001:00020cd0       ?Purge@?$CUtlMemory@Uwatermodel_t@@@@QAEXXZ 00421cd0 f i ivp.obj
 0001:00020d00       ?RemoveAll@?$CUtlVector@PAVCPhysCollisionEntry@@V?$CUtlMemory@PAVCPhysCollisionEntry@@@@@@QAEXXZ 00421d00 f i ivp.obj
 0001:00020d10       ?Purge@?$CUtlMemory@PAVCPhysCollisionEntry@@@@QAEXXZ 00421d10 f i ivp.obj
 0001:00020d40       ?Grow@?$CUtlMemory@D@@QAEXH@Z 00421d40 f i ivp.obj
 0001:00020db0       ?Grow@?$CUtlMemory@Ulistplane_t@@@@QAEXH@Z 00421db0 f i ivp.obj
 0001:00020e20       ?Grow@?$CUtlMemory@PAVCPhysConvex@@@@QAEXH@Z 00421e20 f i ivp.obj
 0001:00020e90       ?Grow@?$CUtlMemory@UNode_t@?$CUtlRBTree@UWaterTexInfo@@HP6A_NABU1@0@Z@@@@QAEXH@Z 00421e90 f i ivp.obj
 0001:00020f20       ?Grow@?$CUtlMemory@PAUnode_t@@@@QAEXH@Z 00421f20 f i ivp.obj
 0001:00020f90       ?Grow@?$CUtlMemory@Uwatermodel_t@@@@QAEXH@Z 00421f90 f i ivp.obj
 0001:00021020       ?Parent@?$CUtlRBTree@UWaterTexInfo@@HP6A_NABU1@0@Z@@QBEHH@Z 00422020 f i ivp.obj
 0001:00021030       ?IsRed@?$CUtlRBTree@UWaterTexInfo@@HP6A_NABU1@0@Z@@IBE_NH@Z 00422030 f i ivp.obj
 0001:00021050       ?Color@?$CUtlRBTree@UWaterTexInfo@@HP6A_NABU1@0@Z@@IBE?AW4NodeColor_t@1@H@Z 00422050 f i ivp.obj
 0001:00021060       ?GetData@CTextBuffer@@QAEPADXZ 00422060 f i ivp.obj
 0001:00021070       ?DumpCollideToPHY@@YAXPAVCPhysCollide@@PAVCTextBuffer@@PBD@Z 00422070 f   ivp.obj
 0001:00021140       ?DumpCollideFileName@CPhysCollisionEntry@@IAEXPBDHPAVCTextBuffer@@@Z 00422140 f   ivp.obj
 0001:000211b0       ?DumpCollide@CPhysCollisionEntrySolid@@UAEXPAVCTextBuffer@@HH@Z 004221b0 f   ivp.obj
 0001:000211d0       ?DumpCollide@CPhysCollisionEntryStaticSolid@@UAEXPAVCTextBuffer@@HH@Z 004221d0 f   ivp.obj
 0001:00021220       ?DumpCollide@CPhysCollisionEntryStaticMesh@@UAEXPAVCTextBuffer@@HH@Z 00422220 f   ivp.obj
 0001:00021270       ?DumpCollide@CPhysCollisionEntryFluid@@UAEXPAVCTextBuffer@@HH@Z 00422270 f   ivp.obj
 0001:000212c0       ??A?$CUtlRBTree@UWaterTexInfo@@HP6A_NABU1@0@Z@@QAEAAUWaterTexInfo@@H@Z 004222c0 f i ivp.obj
 0001:000212e0       ??A?$CUtlVector@Uwaterleaf_t@@V?$CUtlMemory@Uwaterleaf_t@@@@@@QAEAAUwaterleaf_t@@H@Z 004222e0 f i ivp.obj
 0001:000212f0       ??A?$CUtlVector@PAUnode_t@@V?$CUtlMemory@PAUnode_t@@@@@@QAEAAPAUnode_t@@H@Z 004222f0 f i ivp.obj
 0001:00021300       ?RemoveAll@?$CUtlVector@PAUnode_t@@V?$CUtlMemory@PAUnode_t@@@@@@QAEXXZ 00422300 f i ivp.obj
 0001:00021310       ??A?$CUtlVector@Uwatermodel_t@@V?$CUtlMemory@Uwatermodel_t@@@@@@QAEAAUwatermodel_t@@H@Z 00422310 f i ivp.obj
 0001:00021330       ??A?$CUtlVector@PAVCPhysCollisionEntry@@V?$CUtlMemory@PAVCPhysCollisionEntry@@@@@@QAEAAPAVCPhysCollisionEntry@@H@Z 00422330 f i ivp.obj
 0001:00021340       ??1?$CUtlMemory@D@@QAE@XZ  00422340 f i ivp.obj
 0001:00021370       ?Purge@?$CUtlVector@DV?$CUtlMemory@D@@@@QAEXXZ 00422370 f i ivp.obj
 0001:000213c0       ??1?$CUtlMemory@Ulistplane_t@@@@QAE@XZ 004223c0 f i ivp.obj
 0001:000213f0       ?Purge@?$CUtlVector@Ulistplane_t@@V?$CUtlMemory@Ulistplane_t@@@@@@QAEXXZ 004223f0 f i ivp.obj
 0001:00021440       ??1?$CUtlMemory@PAVCPhysConvex@@@@QAE@XZ 00422440 f i ivp.obj
 0001:00021470       ?Purge@?$CUtlVector@PAVCPhysConvex@@V?$CUtlMemory@PAVCPhysConvex@@@@@@QAEXXZ 00422470 f i ivp.obj
 0001:000214c0       ?LeftChild@?$CUtlRBTree@UWaterTexInfo@@HP6A_NABU1@0@Z@@QBEHH@Z 004224c0 f i ivp.obj
 0001:000214d0       ?RightChild@?$CUtlRBTree@UWaterTexInfo@@HP6A_NABU1@0@Z@@QBEHH@Z 004224d0 f i ivp.obj
 0001:000214e0       ?FindInsertionPosition@?$CUtlRBTree@UWaterTexInfo@@HP6A_NABU1@0@Z@@IAEXABUWaterTexInfo@@AAHAA_N@Z 004224e0 f i ivp.obj
 0001:000215d0       ??1?$CUtlMemory@UNode_t@?$CUtlRBTree@UWaterTexInfo@@HP6A_NABU1@0@Z@@@@QAE@XZ 004225d0 f i ivp.obj
 0001:00021600       ?Purge@?$CUtlVector@Uwaterleaf_t@@V?$CUtlMemory@Uwaterleaf_t@@@@@@QAEXXZ 00422600 f i ivp.obj
 0001:00021650       ?GrowVector@?$CUtlVector@Uwaterleaf_t@@V?$CUtlMemory@Uwaterleaf_t@@@@@@IAEXH@Z 00422650 f i ivp.obj
 0001:00021680       ??1?$CUtlMemory@Uwaterleaf_t@@@@QAE@XZ 00422680 f i ivp.obj
 0001:000216b0       ?Purge@?$CUtlVector@PAUnode_t@@V?$CUtlMemory@PAUnode_t@@@@@@QAEXXZ 004226b0 f i ivp.obj
 0001:00021700       ??1?$CUtlMemory@PAUnode_t@@@@QAE@XZ 00422700 f i ivp.obj
 0001:00021730       ?Purge@?$CUtlVector@Uwatermodel_t@@V?$CUtlMemory@Uwatermodel_t@@@@@@QAEXXZ 00422730 f i ivp.obj
 0001:00021780       ??1?$CUtlMemory@Uwatermodel_t@@@@QAE@XZ 00422780 f i ivp.obj
 0001:000217b0       ?Purge@?$CUtlVector@PAVCPhysCollisionEntry@@V?$CUtlMemory@PAVCPhysCollisionEntry@@@@@@QAEXXZ 004227b0 f i ivp.obj
 0001:00021800       ??1?$CUtlMemory@PAVCPhysCollisionEntry@@@@QAE@XZ 00422800 f i ivp.obj
 0001:00021830       ?GrowVector@?$CUtlVector@DV?$CUtlMemory@D@@@@IAEXH@Z 00422830 f i ivp.obj
 0001:00021860       ?GrowVector@?$CUtlVector@Ulistplane_t@@V?$CUtlMemory@Ulistplane_t@@@@@@IAEXH@Z 00422860 f i ivp.obj
 0001:00021890       ?GrowVector@?$CUtlVector@PAVCPhysConvex@@V?$CUtlMemory@PAVCPhysConvex@@@@@@IAEXH@Z 00422890 f i ivp.obj
 0001:000218c0       ?IsValidIndex@?$CUtlRBTree@UWaterTexInfo@@HP6A_NABU1@0@Z@@QBE_NH@Z 004228c0 f i ivp.obj
 0001:000218f0       ?NewNode@?$CUtlRBTree@UWaterTexInfo@@HP6A_NABU1@0@Z@@QAEHXZ 004228f0 f i ivp.obj
 0001:00021950       ?GrowVector@?$CUtlVector@PAUnode_t@@V?$CUtlMemory@PAUnode_t@@@@@@IAEXH@Z 00422950 f i ivp.obj
 0001:00021980       ?GrowVector@?$CUtlVector@Uwatermodel_t@@V?$CUtlMemory@Uwatermodel_t@@@@@@IAEXH@Z 00422980 f i ivp.obj
 0001:000219b0       ?IsLeftChild@?$CUtlRBTree@UWaterTexInfo@@HP6A_NABU1@0@Z@@QBE_NH@Z 004229b0 f i ivp.obj
 0001:000219e0       ?IsRightChild@?$CUtlRBTree@UWaterTexInfo@@HP6A_NABU1@0@Z@@QBE_NH@Z 004229e0 f i ivp.obj
 0001:00021a10       ?RotateLeft@?$CUtlRBTree@UWaterTexInfo@@HP6A_NABU1@0@Z@@IAEXH@Z 00422a10 f i ivp.obj
 0001:00021b00       ?RotateRight@?$CUtlRBTree@UWaterTexInfo@@HP6A_NABU1@0@Z@@IAEXH@Z 00422b00 f i ivp.obj
 0001:00021c00       ?IsLeafReferenced@CPlaneList@@QAE_NH@Z 00422c00 f   ivp.obj
 0001:00021d70       ??0?$CUtlVector@DV?$CUtlMemory@D@@@@QAE@HH@Z 00422d70 f i ivp.obj
 0001:00021db0       ??1?$CUtlVector@DV?$CUtlMemory@D@@@@QAE@XZ 00422db0 f i ivp.obj
 0001:00021e20       ??0?$CUtlVector@Ulistplane_t@@V?$CUtlMemory@Ulistplane_t@@@@@@QAE@HH@Z 00422e20 f i ivp.obj
 0001:00021e70       ??1?$CUtlVector@Ulistplane_t@@V?$CUtlMemory@Ulistplane_t@@@@@@QAE@XZ 00422e70 f i ivp.obj
 0001:00021ee0       ??0?$CUtlVector@PAVCPhysConvex@@V?$CUtlMemory@PAVCPhysConvex@@@@@@QAE@HH@Z 00422ee0 f i ivp.obj
 0001:00021f30       ??1?$CUtlVector@PAVCPhysConvex@@V?$CUtlMemory@PAVCPhysConvex@@@@@@QAE@XZ 00422f30 f i ivp.obj
 0001:00021fa0       ??0?$CUtlRBTree@UWaterTexInfo@@HP6A_NABU1@0@Z@@QAE@HHABQ6A_NABUWaterTexInfo@@0@Z@Z 00422fa0 f i ivp.obj
 0001:00022010       ?Find@?$CUtlRBTree@UWaterTexInfo@@HP6A_NABU1@0@Z@@QBEHABUWaterTexInfo@@@Z 00423010 f i ivp.obj
 0001:00022100       ??0?$CUtlVector@Uwaterleaf_t@@V?$CUtlMemory@Uwaterleaf_t@@@@@@QAE@HH@Z 00423100 f i ivp.obj
 0001:00022150       ??1?$CUtlVector@Uwaterleaf_t@@V?$CUtlMemory@Uwaterleaf_t@@@@@@QAE@XZ 00423150 f i ivp.obj
 0001:000221c0       ?InsertBefore@?$CUtlVector@Uwaterleaf_t@@V?$CUtlMemory@Uwaterleaf_t@@@@@@QAEHHABUwaterleaf_t@@@Z 004231c0 f i ivp.obj
 0001:00022230       ??0?$CUtlVector@PAUnode_t@@V?$CUtlMemory@PAUnode_t@@@@@@QAE@HH@Z 00423230 f i ivp.obj
 0001:00022280       ??1?$CUtlVector@PAUnode_t@@V?$CUtlMemory@PAUnode_t@@@@@@QAE@XZ 00423280 f i ivp.obj
 0001:000222f0       ??0?$CUtlVector@Uwatermodel_t@@V?$CUtlMemory@Uwatermodel_t@@@@@@QAE@HH@Z 004232f0 f i ivp.obj
 0001:00022340       ??1?$CUtlVector@Uwatermodel_t@@V?$CUtlMemory@Uwatermodel_t@@@@@@QAE@XZ 00423340 f i ivp.obj
 0001:000223b0       ??0?$CUtlVector@PAVCPhysCollisionEntry@@V?$CUtlMemory@PAVCPhysCollisionEntry@@@@@@QAE@HH@Z 004233b0 f i ivp.obj
 0001:00022400       ??1?$CUtlVector@PAVCPhysCollisionEntry@@V?$CUtlMemory@PAVCPhysCollisionEntry@@@@@@QAE@XZ 00423400 f i ivp.obj
 0001:00022470       ?InsertMultipleBefore@?$CUtlVector@DV?$CUtlMemory@D@@@@QAEHHHPBD@Z 00423470 f i ivp.obj
 0001:00022500       ?InsertBefore@?$CUtlVector@Ulistplane_t@@V?$CUtlMemory@Ulistplane_t@@@@@@QAEHHABUlistplane_t@@@Z 00423500 f i ivp.obj
 0001:00022580       ?InsertBefore@?$CUtlVector@PAVCPhysConvex@@V?$CUtlMemory@PAVCPhysConvex@@@@@@QAEHHABQAVCPhysConvex@@@Z 00423580 f i ivp.obj
 0001:000225f0       ?Purge@?$CUtlRBTree@UWaterTexInfo@@HP6A_NABU1@0@Z@@QAEXXZ 004235f0 f i ivp.obj
 0001:00022680       ?InsertBefore@?$CUtlVector@PAUnode_t@@V?$CUtlMemory@PAUnode_t@@@@@@QAEHHABQAUnode_t@@@Z 00423680 f i ivp.obj
 0001:000226f0       ?InsertBefore@?$CUtlVector@Uwatermodel_t@@V?$CUtlMemory@Uwatermodel_t@@@@@@QAEHHABUwatermodel_t@@@Z 004236f0 f i ivp.obj
 0001:00022770       ?InsertRebalance@?$CUtlRBTree@UWaterTexInfo@@HP6A_NABU1@0@Z@@IAEXH@Z 00423770 f i ivp.obj
 0001:00022d90       ??0CTextBuffer@@QAE@XZ     00423d90 f   ivp.obj
 0001:00022db0       ??1CTextBuffer@@QAE@XZ     00423db0 f   ivp.obj
 0001:00022e50       ?RemapWorldMaterial@@YAHH@Z 00423e50 f   ivp.obj
 0001:00022e70       ?ReferenceLeaf@CPlaneList@@QAEXH@Z 00423e70 f   ivp.obj
 0001:00022e90       ??_F?$CUtlVector@PAVCPhysCollisionEntry@@V?$CUtlMemory@PAVCPhysCollisionEntry@@@@@@QAEXXZ 00423e90 f i ivp.obj
 0001:00022eb0       ??_GCTextBuffer@@QAEPAXI@Z 00423eb0 f i ivp.obj
 0001:00022ed0       ?AddMultipleToTail@?$CUtlVector@DV?$CUtlMemory@D@@@@QAEHHPBD@Z 00423ed0 f i ivp.obj
 0001:00022ef0       ?AddToTail@?$CUtlVector@Ulistplane_t@@V?$CUtlMemory@Ulistplane_t@@@@@@QAEHABUlistplane_t@@@Z 00423ef0 f i ivp.obj
 0001:00022f10       ?AddToTail@?$CUtlVector@PAVCPhysConvex@@V?$CUtlMemory@PAVCPhysConvex@@@@@@QAEHABQAVCPhysConvex@@@Z 00423f10 f i ivp.obj
 0001:00022f30       ??1?$CUtlRBTree@UWaterTexInfo@@HP6A_NABU1@0@Z@@QAE@XZ 00423f30 f i ivp.obj
 0001:00022f70       ?AddToTail@?$CUtlVector@Uwaterleaf_t@@V?$CUtlMemory@Uwaterleaf_t@@@@@@QAEHABUwaterleaf_t@@@Z 00423f70 f i ivp.obj
 0001:00022f90       ?AddToTail@?$CUtlVector@PAUnode_t@@V?$CUtlMemory@PAUnode_t@@@@@@QAEHABQAUnode_t@@@Z 00423f90 f i ivp.obj
 0001:00022fb0       ?AddToTail@?$CUtlVector@Uwatermodel_t@@V?$CUtlMemory@Uwatermodel_t@@@@@@QAEHABUwatermodel_t@@@Z 00423fb0 f i ivp.obj
 0001:00022fd0       ?LinkToParent@?$CUtlRBTree@UWaterTexInfo@@HP6A_NABU1@0@Z@@IAEXHH_N@Z 00423fd0 f i ivp.obj
 0001:00023040       ?CopyData@CTextBuffer@@AAEXPBDH@Z 00424040 f   ivp.obj
 0001:000230f0       ??0CPlaneList@@QAE@MM@Z    004240f0 f   ivp.obj
 0001:00023180       ??1CPlaneList@@QAE@XZ      00424180 f   ivp.obj
 0001:000231a0       ?AddConvex@CPlaneList@@QAEXPAVCPhysConvex@@@Z 004241a0 f   ivp.obj
 0001:000231e0       ?BuildConvexForBrush@CPlaneList@@AAEPAVCPhysConvex@@HMPAVCPhysCollide@@M@Z 004241e0 f   ivp.obj
 0001:00023410       ?AddBrushes@CPlaneList@@QAEHXZ 00424410 f   ivp.obj
 0001:00023530       ?EnumLeaves_r@@YAXAAV?$CUtlVector@PAUnode_t@@V?$CUtlMemory@PAUnode_t@@@@@@PAUnode_t@@H@Z 00424530 f   ivp.obj
 0001:000241e0       ?InsertAt@?$CUtlRBTree@UWaterTexInfo@@HP6A_NABU1@0@Z@@IAEHH_N@Z 004251e0 f i ivp.obj
 0001:00024210       ?WriteText@CTextBuffer@@QAEXPBD@Z 00425210 f   ivp.obj
 0001:00024240       ?WriteIntKey@CTextBuffer@@QAEXPBDH@Z 00425240 f   ivp.obj
 0001:000242d0       ?WriteFloatKey@CTextBuffer@@QAEXPBDM@Z 004252d0 f   ivp.obj
 0001:00024370       ?WriteFloatArrayKey@CTextBuffer@@QAEXPBDPBMH@Z 00425370 f   ivp.obj
 0001:00024490       ?CopyStringQuotes@CTextBuffer@@QAEXPBD@Z 00425490 f   ivp.obj
 0001:00024560       ?Terminate@CTextBuffer@@QAEXXZ 00425560 f   ivp.obj
 0001:000245c0       ?WriteToTextBuffer@CPhysCollisionEntryStaticSolid@@UAEXPAVCTextBuffer@@HH@Z 004255c0 f   ivp.obj
 0001:00024610       ?WriteToTextBuffer@CPhysCollisionEntryStaticMesh@@UAEXPAVCTextBuffer@@HH@Z 00425610 f   ivp.obj
 0001:00024650       ?EmitPhysCollision@@YAXXZ  00425650 f   ivp.obj
 0001:00024bc0       ?Insert@?$CUtlRBTree@UWaterTexInfo@@HP6A_NABU1@0@Z@@QAEHABUWaterTexInfo@@@Z 00425bc0 f i ivp.obj
 0001:00024c40       ?WriteStringKey@CTextBuffer@@QAEXPBD0@Z 00425c40 f   ivp.obj
 0001:00024d00       ?WriteToTextBuffer@CPhysCollisionEntrySolid@@UAEXPAVCTextBuffer@@HH@Z 00425d00 f   ivp.obj
 0001:00024d80       ?WriteToTextBuffer@CPhysCollisionEntryFluid@@UAEXPAVCTextBuffer@@HH@Z 00425d80 f   ivp.obj
 0001:00024e40       ?FindOrCreateWaterTexInfo@@YAHPAUtexinfo_s@@M@Z 00425e40 f   ivp.obj
 0001:00024fa0       ?EmitWaterVolumesForBSP@@YAXPAUdmodel_t@@PAUnode_t@@@Z 00425fa0 f   ivp.obj
 0001:00025310       ?LeakFile@@YAXPAUtree_t@@@Z 00426310 f   leakfile.obj
 0001:000254d0       ?AreaportalLeakFile@@YAXPAUtree_t@@PAUportal_t@@1PAUnode_t@@@Z 004264d0 f   leakfile.obj
 0001:00025790       ?V_strlen@@YAHPBD@Z        00426790 f i loadcmdline.obj
 0001:000257b0       ?V_strcpy@@YAXPADPBD@Z     004267b0 f i loadcmdline.obj
 0001:000259c0       ?LoadCmdLineFromFile@@YAXAAHAAPAPADPBD2@Z 004269c0 f   loadcmdline.obj
 0001:00025aa0       ?DeleteCmdLine@@YAXHPAPAD@Z 00426aa0 f   loadcmdline.obj
 0001:00025ae0       ?GenerateLumpFileName@@YAXPBDPADHH@Z 00426ae0 f   lumpfiles.obj
 0001:00025b30       ??0id@locale@std@@QAE@I@Z  00426b30 f i map.obj
 0001:00025b40       _floorf                    00426b40 f i map.obj
 0001:00025b60       ?floor@@YAMM@Z             00426b60 f i map.obj
 0001:00025b80       ??KVector@@QBE?AV0@M@Z     00426b80 f i map.obj
 0001:00025bb0       ?RoundInt@@YAMM@Z          00426bb0 f i map.obj
 0001:00025be0       ??0dplane_t@@QAE@XZ        00426be0 f i map.obj
 0001:00025bf0       ??0brush_texture_t@@QAE@XZ 00426bf0 f i map.obj
 0001:00025c10       ?BrushState@CMapError@@QAEXH@Z 00426c10 f i map.obj
 0001:00025c20       ?BrushSide@CMapError@@QAEXH@Z 00426c20 f i map.obj
 0001:00025c30       ?TextureState@CMapError@@QAEXPBD@Z 00426c30 f i map.obj
 0001:00025c50       ?ClearState@CMapError@@QAEXXZ 00426c50 f i map.obj
 0001:00025c80       ?ReportError@CMapError@@QAEXPBD@Z 00426c80 f i map.obj
 0001:00025cb0       ?ReportWarning@CMapError@@QAEXPBD@Z 00426cb0 f i map.obj
 0001:00025cd0       ??0mapbrush_t@@QAE@XZ      00426cd0 f i map.obj
 0001:00025ce0       ?PlaneTypeForNormal@@YAHAAVVector@@@Z 00426ce0 f   map.obj
 0001:00025df0       ?PlaneEqual@@YAHPAUplane_t@@AAVVector@@MMM@Z 00426df0 f   map.obj
 0001:00025e90       ?AddPlaneToHash@@YAXPAUplane_t@@@Z 00426e90 f   map.obj
 0001:00025ed0       ??4dplane_t@@QAEAAU0@ABU0@@Z 00426ed0 f i map.obj
 0001:00025f00       ?SnapVector@@YA_NAAVVector@@@Z 00426f00 f   map.obj
 0001:00025fa0       ?SnapPlane@@YAXAAVVector@@AAM@Z 00426fa0 f   map.obj
 0001:00026010       ?SnapPlane@@YAXAAVVector@@AAMABV1@22@Z 00427010 f   map.obj
 0001:00026150       ?BrushContents@@YAHPAUmapbrush_t@@@Z 00427150 f   map.obj
 0001:00026190       ?IsAreaPortal@@YA_NPBD@Z   00427190 f   map.obj
 0001:000261c0       ??4brush_texture_t@@QAEAAU0@ABU0@@Z 004271c0 f i map.obj
 0001:00026240       ?MakeBrushWindings@@YAHPAUmapbrush_t@@@Z 00427240 f   map.obj
 0001:000263e0       ?MoveBrushesToWorld@@YAXPAUentity_t@@@Z 004273e0 f   map.obj
 0001:000264a0       ?RemoveContentsDetailFromBrush@@YAXPAUmapbrush_t@@@Z 004274a0 f   map.obj
 0001:000264d0       ?RemoveContentsDetailFromEntity@@YAXPAUentity_t@@@Z 004274d0 f   map.obj
 0001:00026530       ?LoadDispDistancesKeyCallback@@YA?AW4ChunkFileResult_t@@PBD0PAUmapdispinfo_t@@@Z 00427530 f   map.obj
 0001:000265f0       ?LoadDispInfoKeyCallback@@YA?AW4ChunkFileResult_t@@PBD0PAUmapdispinfo_t@@@Z 004275f0 f   map.obj
 0001:00026740       ?LoadDispNormalsKeyCallback@@YA?AW4ChunkFileResult_t@@PBD0PAUmapdispinfo_t@@@Z 00427740 f   map.obj
 0001:00026870       ?LoadDispOffsetsKeyCallback@@YA?AW4ChunkFileResult_t@@PBD0PAUmapdispinfo_t@@@Z 00427870 f   map.obj
 0001:000269a0       ?LoadDispAlphasKeyCallback@@YA?AW4ChunkFileResult_t@@PBD0PAUmapdispinfo_t@@@Z 004279a0 f   map.obj
 0001:00026a60       ?LoadDispTriangleTagsKeyCallback@@YA?AW4ChunkFileResult_t@@PBD0PAUmapdispinfo_t@@@Z 00427a60 f   map.obj
 0001:00026b60       ?SideIDToIndex@@YAHH@Z     00427b60 f   map.obj
 0001:00026b90       ?ConvertSideList@@YAXPAUentity_t@@PAD@Z 00427b90 f   map.obj
 0001:00026d00       ?AddLadderKeys@@YAXPAUentity_t@@@Z 00427d00 f   map.obj
 0001:00026e80       ?EntityByName@@YAPAUentity_t@@PBD@Z 00427e80 f   map.obj
 0001:00026ee0       ?ForceFuncAreaPortalWindowContents@@YAXXZ 00427ee0 f   map.obj
 0001:00026ff0       ?LoadSideKeyCallback@@YA?AW4ChunkFileResult_t@@PBD0PAULoadSide_t@@@Z 00427ff0 f   map.obj
 0001:00027320       ?LoadConnectionsKeyCallback@@YA?AW4ChunkFileResult_t@@PBD0PAULoadEntity_t@@@Z 00428320 f   map.obj
 0001:000273e0       ??0LoadSide_t@@QAE@XZ      004283e0 f i map.obj
 0001:00027400       ?LoadSolidKeyCallback@@YA?AW4ChunkFileResult_t@@PBD0PAUmapbrush_t@@@Z 00428400 f   map.obj
 0001:00027440       ?ParseDispInfoChunk@@YAPAUmapdispinfo_t@@XZ 00428440 f   map.obj
 0001:00027750       ?Count@?$CUtlVector@Umapoverlay_t@@V?$CUtlMemory@Umapoverlay_t@@@@@@QBEHXZ 00428750 f i map.obj
 0001:00027760       ?Base@?$CUtlMemory@Umapoverlay_t@@@@QAEPAUmapoverlay_t@@XZ 00428760 f i map.obj
 0001:00027770       ?NumAllocated@?$CUtlMemory@Umapoverlay_t@@@@QBEHXZ 00428770 f i map.obj
 0001:00027780       ?IsExternallyAllocated@?$CUtlMemory@Umapoverlay_t@@@@QBE_NXZ 00428780 f i map.obj
 0001:00027790       ??0plane_t@@QAE@XZ         00428790 f i map.obj
 0001:000277a0       ??4plane_t@@QAEAAU0@ABU0@@Z 004287a0 f i map.obj
 0001:000277d0       ?LoadDispDistancesCallback@@YA?AW4ChunkFileResult_t@@PAVCChunkFile@@PAUmapdispinfo_t@@@Z 004287d0 f   map.obj
 0001:000277f0       ?LoadDispNormalsCallback@@YA?AW4ChunkFileResult_t@@PAVCChunkFile@@PAUmapdispinfo_t@@@Z 004287f0 f   map.obj
 0001:00027810       ?LoadDispOffsetsCallback@@YA?AW4ChunkFileResult_t@@PAVCChunkFile@@PAUmapdispinfo_t@@@Z 00428810 f   map.obj
 0001:00027830       ?LoadDispAlphasCallback@@YA?AW4ChunkFileResult_t@@PAVCChunkFile@@PAUmapdispinfo_t@@@Z 00428830 f   map.obj
 0001:00027850       ?LoadDispTriangleTagsCallback@@YA?AW4ChunkFileResult_t@@PAVCChunkFile@@PAUmapdispinfo_t@@@Z 00428850 f   map.obj
 0001:00027870       ?LoadConnectionsCallback@@YA?AW4ChunkFileResult_t@@PAVCChunkFile@@PAULoadEntity_t@@@Z 00428870 f   map.obj
 0001:00027890       ?Base@?$CUtlVector@Umapoverlay_t@@V?$CUtlMemory@Umapoverlay_t@@@@@@QAEPAUmapoverlay_t@@XZ 00428890 f i map.obj
 0001:000278a0       ?Element@?$CUtlVector@Umapoverlay_t@@V?$CUtlMemory@Umapoverlay_t@@@@@@QAEAAUmapoverlay_t@@H@Z 004288a0 f i map.obj
 0001:000278b0       ?ShiftElementsRight@?$CUtlVector@Umapoverlay_t@@V?$CUtlMemory@Umapoverlay_t@@@@@@IAEXHH@Z 004288b0 f i map.obj
 0001:00027900       ?ResetDbgInfo@?$CUtlVector@Umapoverlay_t@@V?$CUtlMemory@Umapoverlay_t@@@@@@IAEXXZ 00428900 f i map.obj
 0001:00027910       ?Grow@?$CUtlMemory@Umapoverlay_t@@@@QAEXH@Z 00428910 f i map.obj
 0001:00027980       ?CreateNewFloatPlane@@YAHAAVVector@@M@Z 00428980 f   map.obj
 0001:00027c00       ?FindFloatPlane@@YAHAAVVector@@M@Z 00428c00 f   map.obj
 0001:00027cd0       ?PlaneFromPoints@@YAHABVVector@@00@Z 00428cd0 f   map.obj
 0001:00027dc0       ?LoadDispInfoCallback@@YA?AW4ChunkFileResult_t@@PAVCChunkFile@@PAPAUmapdispinfo_t@@@Z 00428dc0 f   map.obj
 0001:00027ed0       ?LoadSideCallback@@YA?AW4ChunkFileResult_t@@PAVCChunkFile@@PAULoadSide_t@@@Z 00428ed0 f   map.obj
 0001:00028140       ??A?$CUtlVector@Umapoverlay_t@@V?$CUtlMemory@Umapoverlay_t@@@@@@QAEAAUmapoverlay_t@@H@Z 00429140 f i map.obj
 0001:00028150       ?GrowVector@?$CUtlVector@Umapoverlay_t@@V?$CUtlMemory@Umapoverlay_t@@@@@@IAEXH@Z 00429150 f i map.obj
 0001:00028180       ?TestExpandBrushes@@YAXXZ  00429180 f   map.obj
 0001:00028400       ??0mapoverlay_t@@QAE@XZ    00429400 f i map.obj
 0001:00028450       ??0side_t@@QAE@XZ          00429450 f i map.obj
 0001:00028480       ??1side_t@@QAE@XZ          00429480 f i map.obj
 0001:000284a0       ?HandleNoDynamicShadowsEnt@@YA?AW4ChunkFileResult_t@@PAUentity_t@@@Z 004294a0 f   map.obj
 0001:000288f0       ??$Construct@Umapoverlay_t@@@@YAXPAUmapoverlay_t@@@Z 004298f0 f i map.obj
 0001:00028940       ?InsertBefore@?$CUtlVector@Umapoverlay_t@@V?$CUtlMemory@Umapoverlay_t@@@@@@QAEHH@Z 00429940 f i map.obj
 0001:000289f0       ?AddToTail@?$CUtlVector@Umapoverlay_t@@V?$CUtlMemory@Umapoverlay_t@@@@@@QAEHXZ 004299f0 f i map.obj
 0001:00028ab0       ?AddBrushBevels@@YAXPAUmapbrush_t@@@Z 00429ab0 f   map.obj
 0001:00029230       ?LoadSolidCallback@@YA?AW4ChunkFileResult_t@@PAVCChunkFile@@PAULoadEntity_t@@@Z 0042a230 f   map.obj
 0001:00029540       ?LoadEntityCallback@@YA?AW4ChunkFileResult_t@@PAVCChunkFile@@H@Z 0042a540 f   map.obj
 0001:00029a30       ?LoadMapFile@@YAXPBD@Z     0042aa30 f   map.obj
 0001:00029d00       ??0NameTranslationLookup_t@@QAE@XZ 0042ad00 f i materialpatch.obj
 0001:00029d10       ?CreateMaterialPatchRecursive@@YAXPAVKeyValues@@0HPBUMaterialPatchInfo_t@@@Z 0042ad10 f   materialpatch.obj
 0001:00029f60       ?InvalidIndex@?$CUtlRBTree@UNameTranslationLookup_t@@HP6A_NABU1@0@Z@@SAHXZ 0042af60 f i materialpatch.obj
 0001:00029f70       ?Base@?$CUtlMemory@UNode_t@?$CUtlRBTree@UNameTranslationLookup_t@@HP6A_NABU1@0@Z@@@@QAEPAUNode_t@?$CUtlRBTree@UNameTranslationLookup_t@@HP6A_NABU1@0@Z@@XZ 0042af70 f i materialpatch.obj
 0001:00029f80       ??0NameTranslationLookup_t@@QAE@ABU0@@Z 0042af80 f i materialpatch.obj
 0001:00029fa0       ?ValidateGrowSize@?$CUtlMemory@UNode_t@?$CUtlRBTree@UNameTranslationLookup_t@@HP6A_NABU1@0@Z@@@@IAEXXZ 0042afa0 f i materialpatch.obj
 0001:00029fb0       ??A?$CUtlMemory@UNode_t@?$CUtlRBTree@UNameTranslationLookup_t@@HP6A_NABU1@0@Z@@@@QBEABUNode_t@?$CUtlRBTree@UNameTranslationLookup_t@@HP6A_NABU1@0@Z@@H@Z 0042afb0 f i materialpatch.obj
 0001:00029fc0       ??A?$CUtlMemory@UNode_t@?$CUtlRBTree@UNameTranslationLookup_t@@HP6A_NABU1@0@Z@@@@QAEAAUNode_t@?$CUtlRBTree@UNameTranslationLookup_t@@HP6A_NABU1@0@Z@@H@Z 0042afc0 f i materialpatch.obj
 0001:00029fd0       ??$Destruct@UNameTranslationLookup_t@@@@YAXPAUNameTranslationLookup_t@@@Z 0042afd0 f i materialpatch.obj
 0001:00029fe0       ?Links@?$CUtlRBTree@UNameTranslationLookup_t@@HP6A_NABU1@0@Z@@IAEAAULinks_t@1@H@Z 0042afe0 f i materialpatch.obj
 0001:00029ff0       ?IsIdxValid@?$CUtlMemory@UNode_t@?$CUtlRBTree@UNameTranslationLookup_t@@HP6A_NABU1@0@Z@@@@QBE_NH@Z 0042aff0 f i materialpatch.obj
 0001:0002a010       ?NumAllocated@?$CUtlMemory@UNode_t@?$CUtlRBTree@UNameTranslationLookup_t@@HP6A_NABU1@0@Z@@@@QBEHXZ 0042b010 f i materialpatch.obj
 0001:0002a020       ?IsExternallyAllocated@?$CUtlMemory@UNode_t@?$CUtlRBTree@UNameTranslationLookup_t@@HP6A_NABU1@0@Z@@@@QBE_NXZ 0042b020 f i materialpatch.obj
 0001:0002a030       ??$Construct@UNameTranslationLookup_t@@@@YAXPAUNameTranslationLookup_t@@@Z 0042b030 f i materialpatch.obj
 0001:0002a050       ?IsRoot@?$CUtlRBTree@UNameTranslationLookup_t@@HP6A_NABU1@0@Z@@QBE_NH@Z 0042b050 f i materialpatch.obj
 0001:0002a060       ?SetColor@?$CUtlRBTree@UNameTranslationLookup_t@@HP6A_NABU1@0@Z@@IAEXHW4NodeColor_t@1@@Z 0042b060 f i materialpatch.obj
 0001:0002a080       ?SetParent@?$CUtlRBTree@UNameTranslationLookup_t@@HP6A_NABU1@0@Z@@IAEXHH@Z 0042b080 f i materialpatch.obj
 0001:0002a0a0       ?SetLeftChild@?$CUtlRBTree@UNameTranslationLookup_t@@HP6A_NABU1@0@Z@@IAEXHH@Z 0042b0a0 f i materialpatch.obj
 0001:0002a0c0       ?SetRightChild@?$CUtlRBTree@UNameTranslationLookup_t@@HP6A_NABU1@0@Z@@IAEXHH@Z 0042b0c0 f i materialpatch.obj
 0001:0002a0e0       ?ResetDbgInfo@?$CUtlRBTree@UNameTranslationLookup_t@@HP6A_NABU1@0@Z@@IAEXXZ 0042b0e0 f i materialpatch.obj
 0001:0002a0f0       ?Element@?$CUtlRBTree@UNameTranslationLookup_t@@HP6A_NABU1@0@Z@@QBEABUNameTranslationLookup_t@@H@Z 0042b0f0 f i materialpatch.obj
 0001:0002a110       ?Element@?$CUtlRBTree@UNameTranslationLookup_t@@HP6A_NABU1@0@Z@@QAEAAUNameTranslationLookup_t@@H@Z 0042b110 f i materialpatch.obj
 0001:0002a130       ??0?$CUtlMemory@UNode_t@?$CUtlRBTree@UNameTranslationLookup_t@@HP6A_NABU1@0@Z@@@@QAE@HH@Z 0042b130 f i materialpatch.obj
 0001:0002a170       ??$CopyConstruct@UNameTranslationLookup_t@@@@YAXPAUNameTranslationLookup_t@@ABU0@@Z 0042b170 f i materialpatch.obj
 0001:0002a190       ?Links@?$CUtlRBTree@UNameTranslationLookup_t@@HP6A_NABU1@0@Z@@IBEABULinks_t@1@H@Z 0042b190 f i materialpatch.obj
 0001:0002a1e0       ?Purge@?$CUtlMemory@UNode_t@?$CUtlRBTree@UNameTranslationLookup_t@@HP6A_NABU1@0@Z@@@@QAEXXZ 0042b1e0 f i materialpatch.obj
 0001:0002a210       ?Grow@?$CUtlMemory@UNode_t@?$CUtlRBTree@UNameTranslationLookup_t@@HP6A_NABU1@0@Z@@@@QAEXH@Z 0042b210 f i materialpatch.obj
 0001:0002a280       ?Parent@?$CUtlRBTree@UNameTranslationLookup_t@@HP6A_NABU1@0@Z@@QBEHH@Z 0042b280 f i materialpatch.obj
 0001:0002a2d0       ?IsRed@?$CUtlRBTree@UNameTranslationLookup_t@@HP6A_NABU1@0@Z@@IBE_NH@Z 0042b2d0 f i materialpatch.obj
 0001:0002a330       ?Color@?$CUtlRBTree@UNameTranslationLookup_t@@HP6A_NABU1@0@Z@@IBE?AW4NodeColor_t@1@H@Z 0042b330 f i materialpatch.obj
 0001:0002a380       ??A?$CUtlRBTree@UNameTranslationLookup_t@@HP6A_NABU1@0@Z@@QAEAAUNameTranslationLookup_t@@H@Z 0042b380 f i materialpatch.obj
 0001:0002a3a0       ?LeftChild@?$CUtlRBTree@UNameTranslationLookup_t@@HP6A_NABU1@0@Z@@QBEHH@Z 0042b3a0 f i materialpatch.obj
 0001:0002a3f0       ?RightChild@?$CUtlRBTree@UNameTranslationLookup_t@@HP6A_NABU1@0@Z@@QBEHH@Z 0042b3f0 f i materialpatch.obj
 0001:0002a440       ?FindInsertionPosition@?$CUtlRBTree@UNameTranslationLookup_t@@HP6A_NABU1@0@Z@@IAEXABUNameTranslationLookup_t@@AAHAA_N@Z 0042b440 f i materialpatch.obj
 0001:0002a530       ??1?$CUtlMemory@UNode_t@?$CUtlRBTree@UNameTranslationLookup_t@@HP6A_NABU1@0@Z@@@@QAE@XZ 0042b530 f i materialpatch.obj
 0001:0002a560       ?IsValidIndex@?$CUtlRBTree@UNameTranslationLookup_t@@HP6A_NABU1@0@Z@@QBE_NH@Z 0042b560 f i materialpatch.obj
 0001:0002a590       ?NewNode@?$CUtlRBTree@UNameTranslationLookup_t@@HP6A_NABU1@0@Z@@QAEHXZ 0042b590 f i materialpatch.obj
 0001:0002a5f0       ?IsLeftChild@?$CUtlRBTree@UNameTranslationLookup_t@@HP6A_NABU1@0@Z@@QBE_NH@Z 0042b5f0 f i materialpatch.obj
 0001:0002a660       ?IsRightChild@?$CUtlRBTree@UNameTranslationLookup_t@@HP6A_NABU1@0@Z@@QBE_NH@Z 0042b660 f i materialpatch.obj
 0001:0002a690       ?RotateLeft@?$CUtlRBTree@UNameTranslationLookup_t@@HP6A_NABU1@0@Z@@IAEXH@Z 0042b690 f i materialpatch.obj
 0001:0002a7c0       ?RotateRight@?$CUtlRBTree@UNameTranslationLookup_t@@HP6A_NABU1@0@Z@@IAEXH@Z 0042b7c0 f i materialpatch.obj
 0001:0002a8c0       ?LoadKeyValuesFromPackOrFile@@YA_NPBDPAVKeyValues@@@Z 0042b8c0 f   materialpatch.obj
 0001:0002aa80       ?GetValueFromPatchedMaterial@@YA_NPBD0PADH@Z 0042ba80 f   materialpatch.obj
 0001:0002ab40       ??0?$CUtlRBTree@UNameTranslationLookup_t@@HP6A_NABU1@0@Z@@QAE@HHABQ6A_NABUNameTranslationLookup_t@@0@Z@Z 0042bb40 f i materialpatch.obj
 0001:0002abb0       ?Find@?$CUtlRBTree@UNameTranslationLookup_t@@HP6A_NABU1@0@Z@@QBEHABUNameTranslationLookup_t@@@Z 0042bbb0 f i materialpatch.obj
 0001:0002aca0       ?Purge@?$CUtlRBTree@UNameTranslationLookup_t@@HP6A_NABU1@0@Z@@QAEXXZ 0042bca0 f i materialpatch.obj
 0001:0002ad30       ?InsertRebalance@?$CUtlRBTree@UNameTranslationLookup_t@@HP6A_NABU1@0@Z@@IAEXH@Z 0042bd30 f i materialpatch.obj
 0001:0002b270       ?GetOriginalMaterialNameForPatchedMaterial@@YAPBDPBD@Z 0042c270 f   materialpatch.obj
 0001:0002b300       ?DoesMaterialHaveKey@@YA_NPBD0@Z 0042c300 f   materialpatch.obj
 0001:0002b3a0       ?DoesMaterialHaveKeyValuePair@@YA_NPBD00@Z 0042c3a0 f   materialpatch.obj
 0001:0002b440       ?GetValueFromMaterial@@YA_NPBD0PADH@Z 0042c440 f   materialpatch.obj
 0001:0002b500       ?FindOriginalMaterial@@YAPAXPBDPA_N_N@Z 0042c500 f   materialpatch.obj
 0001:0002b530       ??1?$CUtlRBTree@UNameTranslationLookup_t@@HP6A_NABU1@0@Z@@QAE@XZ 0042c530 f i materialpatch.obj
 0001:0002b570       ?LinkToParent@?$CUtlRBTree@UNameTranslationLookup_t@@HP6A_NABU1@0@Z@@IAEXHH_N@Z 0042c570 f i materialpatch.obj
 0001:0002b5e0       ?InsertAt@?$CUtlRBTree@UNameTranslationLookup_t@@HP6A_NABU1@0@Z@@IAEHH_N@Z 0042c5e0 f i materialpatch.obj
 0001:0002b610       ?Insert@?$CUtlRBTree@UNameTranslationLookup_t@@HP6A_NABU1@0@Z@@QAEHABUNameTranslationLookup_t@@@Z 0042c610 f i materialpatch.obj
 0001:0002b670       ?AddNewTranslation@@YAXPBD0@Z 0042c670 f   materialpatch.obj
 0001:0002b6d0       ?CreateMaterialPatch@@YAXPBD0HPBUMaterialPatchInfo_t@@W4MaterialPatchType_t@@@Z 0042c6d0 f   materialpatch.obj
 0001:0002b8c0       ?CreateMaterialPatch@@YAXPBD000W4MaterialPatchType_t@@@Z 0042c8c0 f   materialpatch.obj
 0001:0002b900       ?LoadMaterialReplacementKeys@@YAXPBD0@Z 0042c900 f   materialsub.obj
 0001:0002ba30       ?DeleteMaterialReplacementKeys@@YAXXZ 0042ca30 f   materialsub.obj
 0001:0002ba50       ?ReplaceMaterialName@@YAPBDPBD@Z 0042ca50 f   materialsub.obj
 0001:0002baa0       ?strrchr@@YAPADPADH@Z      0042caa0 f i memoverride.obj
 0001:0002bab0       ?MakeModuleFileName@@YAPBDXZ 0042cab0 f   memoverride.obj
 0001:0002bbe0       _malloc                    0042cbe0 f   memoverride.obj
 0001:0002bc40       _free                      0042cc40 f   memoverride.obj
 0001:0002bc60       _realloc                   0042cc60 f   memoverride.obj
 0001:0002bcc0       _calloc                    0042ccc0 f   memoverride.obj
 0001:0002bd40       __malloc_base              0042cd40 f   memoverride.obj
 0001:0002bda0       __free_base                0042cda0 f   memoverride.obj
 0001:0002bdc0       __realloc_base             0042cdc0 f   memoverride.obj
 0001:0002be20       __realloc_crt              0042ce20 f   memoverride.obj
 0001:0002be80       __recalloc_crt             0042ce80 f   memoverride.obj
 0001:0002bf10       __recalloc                 0042cf10 f   memoverride.obj
 0001:0002bfa0       __malloc_crt               0042cfa0 f   memoverride.obj
 0001:0002c000       __calloc_crt               0042d000 f   memoverride.obj
 0001:0002c080       __heapchk                  0042d080 f   memoverride.obj
 0001:0002c090       __heapmin                  0042d090 f   memoverride.obj
 0001:0002c0a0       __msize                    0042d0a0 f   memoverride.obj
 0001:0002c0c0       _msize                     0042d0c0 f   memoverride.obj
 0001:0002c0e0       __heap_alloc               0042d0e0 f   memoverride.obj
 0001:0002c140       __nh_malloc                0042d140 f   memoverride.obj
 0001:0002c1a0       __expand                   0042d1a0 f   memoverride.obj
 0001:0002c1b0       __get_sbh_threshold        0042d1b0 f   memoverride.obj
 0001:0002c1c0       __set_sbh_threshold        0042d1c0 f   memoverride.obj
 0001:0002c1d0       __heapadd                  0042d1d0 f   memoverride.obj
 0001:0002c1e0       __heapset                  0042d1e0 f   memoverride.obj
 0001:0002c1f0       __heapused                 0042d1f0 f   memoverride.obj
 0001:0002c200       __heapwalk                 0042d200 f   memoverride.obj
 0001:0002c210       _malloc_db                 0042d210 f   memoverride.obj
 0001:0002c230       _free_db                   0042d230 f   memoverride.obj
 0001:0002c250       _realloc_db                0042d250 f   memoverride.obj
 0001:0002c280       __heap_init                0042d280 f   memoverride.obj
 0001:0002c290       __heap_term                0042d290 f   memoverride.obj
 0001:0002c2a0       ??2@YAPAXI@Z               0042d2a0 f   memoverride.obj
 0001:0002c300       ??2@YAPAXIHPBDH@Z          0042d300 f   memoverride.obj
 0001:0002c320       ??3@YAXPAX@Z               0042d320 f   memoverride.obj
 0001:0002c340       ??_U@YAPAXI@Z              0042d340 f   memoverride.obj
 0001:0002c3a0       ??_U@YAPAXIHPBDH@Z         0042d3a0 f   memoverride.obj
 0001:0002c3c0       ??_V@YAXPAX@Z              0042d3c0 f   memoverride.obj
 0001:0002c3e0       ??0CAttibCRT@@QAE@H@Z      0042d3e0 f i memoverride.obj
 0001:0002c410       ??1CAttibCRT@@QAE@XZ       0042d410 f i memoverride.obj
 0001:0002c430       __nh_malloc_dbg            0042d430 f   memoverride.obj
 0001:0002c490       __malloc_dbg               0042d490 f   memoverride.obj
 0001:0002c4f0       __calloc_dbg               0042d4f0 f   memoverride.obj
 0001:0002c560       __realloc_dbg              0042d560 f   memoverride.obj
 0001:0002c5c0       __expand_dbg               0042d5c0 f   memoverride.obj
 0001:0002c5d0       __free_dbg                 0042d5d0 f   memoverride.obj
 0001:0002c620       __msize_dbg                0042d620 f   memoverride.obj
 0001:0002c640       __aligned_malloc_base      0042d640 f   memoverride.obj
 0001:0002c650       __aligned_realloc_base     0042d650 f   memoverride.obj
 0001:0002c670       __aligned_free_base        0042d670 f   memoverride.obj
 0001:0002c690       __aligned_malloc           0042d690 f   memoverride.obj
 0001:0002c6a0       __aligned_free             0042d6a0 f   memoverride.obj
 0001:0002c6c0       __aligned_realloc          0042d6c0 f   memoverride.obj
 0001:0002c6e0       __aligned_offset_malloc    0042d6e0 f   memoverride.obj
 0001:0002c6f0       __aligned_offset_realloc   0042d6f0 f   memoverride.obj
 0001:0002c710       __CrtDumpMemoryLeaks       0042d710 f   memoverride.obj
 0001:0002c720       __CrtSetDumpClient         0042d720 f   memoverride.obj
 0001:0002c730       __CrtSetDbgFlag            0042d730 f   memoverride.obj
 0001:0002c750       ___p__crtDbgFlag           0042d750 f   memoverride.obj
 0001:0002c760       ___p__crtBreakAlloc        0042d760 f   memoverride.obj
 0001:0002c770       __CrtSetDbgBlockType       0042d770 f   memoverride.obj
 0001:0002c780       __CrtSetAllocHook          0042d780 f   memoverride.obj
 0001:0002c790       __CrtSetBreakAlloc         0042d790 f   memoverride.obj
 0001:0002c7b0       __CrtIsValidHeapPointer    0042d7b0 f   memoverride.obj
 0001:0002c7d0       __CrtIsValidPointer        0042d7d0 f   memoverride.obj
 0001:0002c7f0       __CrtCheckMemory           0042d7f0 f   memoverride.obj
 0001:0002c800       __CrtIsMemoryBlock         0042d800 f   memoverride.obj
 0001:0002c810       __CrtMemDifference         0042d810 f   memoverride.obj
 0001:0002c820       __CrtMemDumpStatistics     0042d820 f   memoverride.obj
 0001:0002c830       __CrtMemCheckpoint         0042d830 f   memoverride.obj
 0001:0002c850       __CrtMemDumpAllObjectsSince 0042d850 f   memoverride.obj
 0001:0002c860       __CrtDoForAllClientObjects 0042d860 f   memoverride.obj
 0001:0002c870       __CrtSetReportMode         0042d870 f   memoverride.obj
 0001:0002c890       __CrtSetReportFile         0042d890 f   memoverride.obj
 0001:0002c8b0       __CrtSetReportHook         0042d8b0 f   memoverride.obj
 0001:0002c8d0       __CrtDbgReport             0042d8d0 f   memoverride.obj
 0001:0002c920       __CrtSetCheckCount         0042d920 f   memoverride.obj
 0001:0002c930       __CrtGetCheckCount         0042d930 f   memoverride.obj
 0001:0002c940       __aligned_offset_recalloc_dbg 0042d940 f   memoverride.obj
 0001:0002c9d0       __aligned_recalloc         0042d9d0 f   memoverride.obj
 0001:0002ca00       __aligned_recalloc_dbg     0042da00 f   memoverride.obj
 0001:0002ca30       __aligned_offset_recalloc  0042da30 f   memoverride.obj
 0001:0002ca60       __recalloc_dbg             0042da60 f   memoverride.obj
 0001:0002ca70       __CrtGetReportHook         0042da70 f   memoverride.obj
 0001:0002ca80       __CrtDbgReportW            0042da80 f   memoverride.obj
 0001:0002ca90       __CrtReportBlockType       0042da90 f   memoverride.obj
 0001:0002caa0       __heap_alloc_base          0042daa0 f   memoverride.obj
 0001:0002cab0       __heap_alloc_dbg           0042dab0 f   memoverride.obj
 0001:0002cac0       __free_nolock              0042dac0 f   memoverride.obj
 0001:0002cae0       __free_dbg_nolock          0042dae0 f   memoverride.obj
 0001:0002cb00       __CrtGetAllocHook          0042db00 f   memoverride.obj
 0001:0002cb10       __CrtGetDumpClient         0042db10 f   memoverride.obj
 0001:0002cb20       __aligned_malloc_dbg       0042db20 f   memoverride.obj
 0001:0002cb30       __aligned_realloc_dbg      0042db30 f   memoverride.obj
 0001:0002cb50       __aligned_offset_malloc_dbg 0042db50 f   memoverride.obj
 0001:0002cb60       __aligned_offset_malloc_base 0042db60 f   memoverride.obj
 0001:0002cb70       __aligned_offset_realloc_dbg 0042db70 f   memoverride.obj
 0001:0002cb90       __aligned_free_dbg         0042db90 f   memoverride.obj
 0001:0002cbb0       __CrtSetDebugFillThreshold 0042dbb0 f   memoverride.obj
 0001:0002cbc0       __strdup                   0042dbc0 f   memoverride.obj
 0001:0002cbd0       __wcsdup_dbg               0042dbd0 f   memoverride.obj
 0001:0002cbe0       __wcsdup                   0042dbe0 f   memoverride.obj
 0001:0002cbf0       ?assign@?$char_traits@D@std@@SAXAADABD@Z 0042dbf0 f i mstristrip.obj
 0001:0002cc00       ?length@?$char_traits@D@std@@SAIPBD@Z 0042dc00 f i mstristrip.obj
 0001:0002cc20       ?_Copy_s@?$char_traits@D@std@@SAPADPADIPBDI@Z 0042dc20 f i mstristrip.obj
 0001:0002cc50       ?_Move_s@?$char_traits@D@std@@SAPADPADIPBDI@Z 0042dc50 f i mstristrip.obj
 0001:0002cc80       ??0_Iterator_base@std@@QAE@XZ 0042dc80 f i mstristrip.obj
 0001:0002cc90       ??0bad_alloc@std@@QAE@PBD@Z 0042dc90 f i mstristrip.obj
 0001:0002ccb0       ??1bad_alloc@std@@UAE@XZ   0042dcb0 f i mstristrip.obj
 0001:0002ccc0       ??_Ebad_alloc@std@@UAEPAXI@Z 0042dcc0 f i mstristrip.obj
 0001:0002ccc0       ??_Gbad_alloc@std@@UAEPAXI@Z 0042dcc0 f i mstristrip.obj
 0001:0002ccf0       ?GetNeighborCount@CStripper@@QAEHH@Z 0042dcf0 f i mstristrip.obj
 0001:0002cd60       ??1CVertCache@@QAE@XZ      0042dd60 f i mstristrip.obj
 0001:0002cd70       ?Reset@CVertCache@@QAEXXZ  0042dd70 f i mstristrip.obj
 0001:0002cda0       ?NumCacheHits@CVertCache@@QBEHXZ 0042dda0 f i mstristrip.obj
 0001:0002cdb0       ?CreateStrip@CStripper@@QAEHHHHPAH_N100@Z 0042ddb0 f   mstristrip.obj
 0001:0002d1a0       ?InitTriangleInfo@CStripper@@QAEXHH@Z 0042e1a0 f   mstristrip.obj
 0001:0002d2c0       ??0CStripper@@QAE@HPAY02G@Z 0042e2c0 f   mstristrip.obj
 0001:0002d3a0       ??1CStripper@@QAE@XZ       0042e3a0 f   mstristrip.obj
 0001:0002d3d0       ?Add@CVertCache@@QAE_NHH@Z 0042e3d0 f   mstristrip.obj
 0001:0002d440       ??MSortEntry@@QAE_NABU0@@Z 0042e440 f i mstristrip.obj
 0001:0002d460       ?size@?$vector@GV?$allocator@G@std@@@std@@QBEIXZ 0042e460 f i mstristrip.obj
 0001:0002d480       ??A?$vector@GV?$allocator@G@std@@@std@@QBEABGI@Z 0042e480 f i mstristrip.obj
 0001:0002d4b0       ??A?$vector@GV?$allocator@G@std@@@std@@QAEAAGI@Z 0042e4b0 f i mstristrip.obj
 0001:0002d4e0       ?size@?$list@PAV?$vector@GV?$allocator@G@std@@@std@@V?$allocator@PAV?$vector@GV?$allocator@G@std@@@std@@@2@@std@@QBEIXZ 0042e4e0 f i mstristrip.obj
 0001:0002d4f0       ?empty@?$list@PAV?$vector@GV?$allocator@G@std@@@std@@V?$allocator@PAV?$vector@GV?$allocator@G@std@@@std@@@2@@std@@QBE_NXZ 0042e4f0 f i mstristrip.obj
 0001:0002d500       ?_Myptr@?$basic_string@DU?$char_traits@D@std@@V?$allocator@D@2@@std@@IBEPBDXZ 0042e500 f i mstristrip.obj
 0001:0002d510       ??0?$allocator@G@std@@QAE@XZ 0042e510 f i mstristrip.obj
 0001:0002d520       ?_Nextnode@?$list@PAV?$vector@GV?$allocator@G@std@@@std@@V?$allocator@PAV?$vector@GV?$allocator@G@std@@@std@@@2@@std@@KAAAPAU_Node@?$_List_nod@PAV?$vector@GV?$allocator@G@std@@@std@@V?$allocator@PAV?$vector@GV?$allocator@G@std@@@std@@@2@@2@PAU342@@Z 0042e520 f i mstristrip.obj
 0001:0002d530       ?_Prevnode@?$list@PAV?$vector@GV?$allocator@G@std@@@std@@V?$allocator@PAV?$vector@GV?$allocator@G@std@@@std@@@2@@std@@KAAAPAU_Node@?$_List_nod@PAV?$vector@GV?$allocator@G@std@@@std@@V?$allocator@PAV?$vector@GV?$allocator@G@std@@@std@@@2@@2@PAU342@@Z 0042e530 f i mstristrip.obj
 0001:0002d540       ??0?$allocator@PAV?$vector@GV?$allocator@G@std@@@std@@@std@@QAE@XZ 0042e540 f i mstristrip.obj
 0001:0002d550       ?deallocate@?$allocator@U_Node@?$_List_nod@PAV?$vector@GV?$allocator@G@std@@@std@@V?$allocator@PAV?$vector@GV?$allocator@G@std@@@std@@@2@@std@@@std@@QAEXPAU_Node@?$_List_nod@PAV?$vector@GV?$allocator@G@std@@@std@@V?$allocator@PAV?$vector@GV?$allocator@G@std@@@std@@@2@@2@I@Z 0042e550 f i mstristrip.obj
 0001:0002d560       ??E?$_Const_iterator@$00@?$list@PAV?$vector@GV?$allocator@G@std@@@std@@V?$allocator@PAV?$vector@GV?$allocator@G@std@@@std@@@2@@std@@QAEAAV012@XZ 0042e560 f i mstristrip.obj
 0001:0002d590       ??8?$_Const_iterator@$00@?$list@PAV?$vector@GV?$allocator@G@std@@@std@@V?$allocator@PAV?$vector@GV?$allocator@G@std@@@std@@@2@@std@@QBE_NABV012@@Z 0042e590 f i mstristrip.obj
 0001:0002d5c0       ?_Mynode@?$_Const_iterator@$00@?$list@PAV?$vector@GV?$allocator@G@std@@@std@@V?$allocator@PAV?$vector@GV?$allocator@G@std@@@std@@@2@@std@@QBEPAU_Node@?$_List_nod@PAV?$vector@GV?$allocator@G@std@@@std@@V?$allocator@PAV?$vector@GV?$allocator@G@std@@@std@@@2@@3@XZ 0042e5c0 f i mstristrip.obj
 0001:0002d5d0       ??F?$_Vector_const_iterator@GV?$allocator@G@std@@@std@@QAEAAV01@XZ 0042e5d0 f i mstristrip.obj
 0001:0002d600       ??0?$_Bidit@PAV?$vector@GV?$allocator@G@std@@@std@@HPBQAV12@ABQAV12@@std@@QAE@XZ 0042e600 f i mstristrip.obj
 0001:0002d610       ?size@?$basic_string@DU?$char_traits@D@std@@V?$allocator@D@2@@std@@QBEIXZ 0042e610 f i mstristrip.obj
 0001:0002d620       ?_Myptr@?$basic_string@DU?$char_traits@D@std@@V?$allocator@D@2@@std@@IAEPADXZ 0042e620 f i mstristrip.obj
 0001:0002d630       ??0?$allocator@D@std@@QAE@ABV01@@Z 0042e630 f i mstristrip.obj
 0001:0002d640       ?deallocate@?$allocator@D@std@@QAEXPADI@Z 0042e640 f i mstristrip.obj
 0001:0002d650       ??0?$allocator@G@std@@QAE@ABV01@@Z 0042e650 f i mstristrip.obj
 0001:0002d660       ?deallocate@?$allocator@G@std@@QAEXPAGI@Z 0042e660 f i mstristrip.obj
 0001:0002d670       ?_Myval@?$list@PAV?$vector@GV?$allocator@G@std@@@std@@V?$allocator@PAV?$vector@GV?$allocator@G@std@@@std@@@2@@std@@KAAAPAV?$vector@GV?$allocator@G@std@@@2@PAU_Node@?$_List_nod@PAV?$vector@GV?$allocator@G@std@@@std@@V?$allocator@PAV?$vector@GV?$allocator@G@std@@@std@@@2@@2@@Z 0042e670 f i mstristrip.obj
 0001:0002d680       ??0?$allocator@PAV?$vector@GV?$allocator@G@std@@@std@@@std@@QAE@ABV01@@Z 0042e680 f i mstristrip.obj
 0001:0002d690       ??0?$_Const_iterator@$00@?$list@PAV?$vector@GV?$allocator@G@std@@@std@@V?$allocator@PAV?$vector@GV?$allocator@G@std@@@std@@@2@@std@@QAE@PAU_Node@?$_List_nod@PAV?$vector@GV?$allocator@G@std@@@std@@V?$allocator@PAV?$vector@GV?$allocator@G@std@@@std@@@2@@2@PBV12@@Z 0042e690 f i mstristrip.obj
 0001:0002d6c0       ??0?$_Ranit@GHPBGABG@std@@QAE@XZ 0042e6c0 f i mstristrip.obj
 0001:0002d6d0       ??0?$_String_val@DV?$allocator@D@std@@@std@@IAE@V?$allocator@D@1@@Z 0042e6d0 f i mstristrip.obj
 0001:0002d6e0       ??0?$allocator@D@std@@QAE@XZ 0042e6e0 f i mstristrip.obj
 0001:0002d6f0       ?max_size@?$allocator@D@std@@QBEIXZ 0042e6f0 f i mstristrip.obj
 0001:0002d700       ?max_size@?$allocator@G@std@@QBEIXZ 0042e700 f i mstristrip.obj
 0001:0002d710       ?max_size@?$allocator@PAV?$vector@GV?$allocator@G@std@@@std@@@std@@QBEIXZ 0042e710 f i mstristrip.obj
 0001:0002d720       ?_Inside@?$basic_string@DU?$char_traits@D@std@@V?$allocator@D@2@@std@@IAE_NPBD@Z 0042e720 f i mstristrip.obj
 0001:0002d760       ??$swap@PAV?$vector@GV?$allocator@G@std@@@std@@@std@@YAXAAPAV?$vector@GV?$allocator@G@std@@@0@0@Z 0042e760 f i mstristrip.obj
 0001:0002d780       ??$_Destroy@U_Node@?$_List_nod@PAV?$vector@GV?$allocator@G@std@@@std@@V?$allocator@PAV?$vector@GV?$allocator@G@std@@@std@@@2@@std@@@std@@YAXPAU_Node@?$_List_nod@PAV?$vector@GV?$allocator@G@std@@@std@@V?$allocator@PAV?$vector@GV?$allocator@G@std@@@std@@@2@@0@@Z 0042e780 f i mstristrip.obj
 0001:0002d790       ??$?0PAV?$vector@GV?$allocator@G@std@@@std@@@?$allocator@PAU_Node@?$_List_nod@PAV?$vector@GV?$allocator@G@std@@@std@@V?$allocator@PAV?$vector@GV?$allocator@G@std@@@std@@@2@@std@@@std@@QAE@ABV?$allocator@PAV?$vector@GV?$allocator@G@std@@@std@@@1@@Z 0042e790 f i mstristrip.obj
 0001:0002d7a0       ??$_Allocate@U_Node@?$_List_nod@PAV?$vector@GV?$allocator@G@std@@@std@@V?$allocator@PAV?$vector@GV?$allocator@G@std@@@std@@@2@@std@@@std@@YAPAU_Node@?$_List_nod@PAV?$vector@GV?$allocator@G@std@@@std@@V?$allocator@PAV?$vector@GV?$allocator@G@std@@@std@@@2@@0@IPAU120@@Z 0042e7a0 f i mstristrip.obj
 0001:0002d800       ??$_Construct@PAU_Node@?$_List_nod@PAV?$vector@GV?$allocator@G@std@@@std@@V?$allocator@PAV?$vector@GV?$allocator@G@std@@@std@@@2@@std@@PAU123@@std@@YAXPAPAU_Node@?$_List_nod@PAV?$vector@GV?$allocator@G@std@@@std@@V?$allocator@PAV?$vector@GV?$allocator@G@std@@@std@@@2@@0@ABQAU120@@Z 0042e800 f i mstristrip.obj
 0001:0002d820       ??$_Destroy@PAU_Node@?$_List_nod@PAV?$vector@GV?$allocator@G@std@@@std@@V?$allocator@PAV?$vector@GV?$allocator@G@std@@@std@@@2@@std@@@std@@YAXPAPAU_Node@?$_List_nod@PAV?$vector@GV?$allocator@G@std@@@std@@V?$allocator@PAV?$vector@GV?$allocator@G@std@@@std@@@2@@0@@Z 0042e820 f i mstristrip.obj
 0001:0002d830       ??$_Allocate@G@std@@YAPAGIPAG@Z 0042e830 f i mstristrip.obj
 0001:0002d890       ??$?0PAV?$vector@GV?$allocator@G@std@@@std@@@?$allocator@U_Node@?$_List_nod@PAV?$vector@GV?$allocator@G@std@@@std@@V?$allocator@PAV?$vector@GV?$allocator@G@std@@@std@@@2@@std@@@std@@QAE@ABV?$allocator@PAV?$vector@GV?$allocator@G@std@@@std@@@1@@Z 0042e890 f i mstristrip.obj
 0001:0002d8a0       ??$_Construct@PAV?$vector@GV?$allocator@G@std@@@std@@PAV12@@std@@YAXPAPAV?$vector@GV?$allocator@G@std@@@0@ABQAV10@@Z 0042e8a0 f i mstristrip.obj
 0001:0002d8c0       ??$_Allocate@D@std@@YAPADIPAD@Z 0042e8c0 f i mstristrip.obj
 0001:0002d920       ??0bad_alloc@std@@QAE@ABV01@@Z 0042e920 f i mstristrip.obj
 0001:0002d940       ??$_Iter_cat@V?$_Vector_iterator@GV?$allocator@G@std@@@std@@@std@@YA?AUrandom_access_iterator_tag@0@ABV?$_Vector_iterator@GV?$allocator@G@std@@@0@@Z 0042e940 f i mstristrip.obj
 0001:0002d950       ??$_Iter_cat@V?$_Const_iterator@$00@?$list@PAV?$vector@GV?$allocator@G@std@@@std@@V?$allocator@PAV?$vector@GV?$allocator@G@std@@@std@@@2@@std@@@std@@YA?AUbidirectional_iterator_tag@0@ABV?$_Const_iterator@$00@?$list@PAV?$vector@GV?$allocator@G@std@@@std@@V?$allocator@PAV?$vector@GV?$allocator@G@std@@@std@@@2@@0@@Z 0042e950 f i mstristrip.obj
 0001:0002d960       ??$_Char_traits_cat@U?$char_traits@D@std@@@std@@YA?AU_Secure_char_traits_tag@0@XZ 0042e960 f i mstristrip.obj
 0001:0002d970       ??$copy_s@U?$char_traits@D@std@@@_Traits_helper@std@@YAPADPADIPBDIU_Secure_char_traits_tag@1@@Z 0042e970 f i mstristrip.obj
 0001:0002d9a0       ??$move_s@U?$char_traits@D@std@@@_Traits_helper@std@@YAPADPADIPBDIU_Secure_char_traits_tag@1@@Z 0042e9a0 f i mstristrip.obj
 0001:0002d9d0       ??$_Ptr_cat@PAGPAG@std@@YA?AU_Scalar_ptr_iterator_tag@0@AAPAG0@Z 0042e9d0 f i mstristrip.obj
 0001:0002d9e0       ??$_Destroy_range@GV?$allocator@G@std@@@std@@YAXPAG0AAV?$allocator@G@0@U_Scalar_ptr_iterator_tag@0@@Z 0042e9e0 f i mstristrip.obj
 0001:0002d9f0       ??$_Checked_base@PAUSortEntry@@@std@@YAPAUSortEntry@@AAPAU1@U_Unchanged_checked_iterator_base_type_tag@0@@Z 0042e9f0 f i mstristrip.obj
 0001:0002da00       ?_Checked_iterator_base@?$_Vector_iterator@GV?$allocator@G@std@@@std@@QBEPAGXZ 0042ea00 f i mstristrip.obj
 0001:0002da10       ??0?$pair@PAUSortEntry@@PAU1@@std@@QAE@ABQAUSortEntry@@0@Z 0042ea10 f i mstristrip.obj
 0001:0002da30       ??$swap@G@std@@YAXAAG0@Z   0042ea30 f i mstristrip.obj
 0001:0002da50       ??$_Dist_type@PAUSortEntry@@@std@@YAPAHPAUSortEntry@@@Z 0042ea50 f i mstristrip.obj
 0001:0002da60       ??$_Val_type@PAUSortEntry@@@std@@YAPAUSortEntry@@PAU1@@Z 0042ea60 f i mstristrip.obj
 0001:0002da70       ??$_Iter_cat@PAG@std@@YA?AUrandom_access_iterator_tag@0@ABQAG@Z 0042ea70 f i mstristrip.obj
 0001:0002da80       ??F?$_Const_iterator@$00@?$list@PAV?$vector@GV?$allocator@G@std@@@std@@V?$allocator@PAV?$vector@GV?$allocator@G@std@@@std@@@2@@std@@QAEAAV012@XZ 0042ea80 f i mstristrip.obj
 0001:0002dab0       ??$swap@USortEntry@@@std@@YAXAAUSortEntry@@0@Z 0042eab0 f i mstristrip.obj
 0001:0002dae0       ??$_Fill_n@PAGIG@std@@YAXPAGIABGU_Range_checked_iterator_tag@0@@Z 0042eae0 f i mstristrip.obj
 0001:0002db10       ??$_Push_heap@PAUSortEntry@@HU1@@std@@YAXPAUSortEntry@@HHU1@@Z 0042eb10 f i mstristrip.obj
 0001:0002db60       ??$_Iter_random@PAUSortEntry@@PAU1@@std@@YA?AUrandom_access_iterator_tag@0@ABQAUSortEntry@@0@Z 0042eb60 f i mstristrip.obj
 0001:0002db70       ??$_Ptr_cat@PAUSortEntry@@PAU1@@std@@YA?AU_Nonscalar_ptr_iterator_tag@0@AAPAUSortEntry@@0@Z 0042eb70 f i mstristrip.obj
 0001:0002db80       ??$_Checked_base@PAG@std@@YAPAGAAPAGU_Unchanged_checked_iterator_base_type_tag@0@@Z 0042eb80 f i mstristrip.obj
 0001:0002db90       ??$_Copy_backward_opt@PAUSortEntry@@PAU1@Uforward_iterator_tag@std@@@std@@YAPAUSortEntry@@PAU1@00Uforward_iterator_tag@0@U_Nonscalar_ptr_iterator_tag@0@U_Range_checked_iterator_tag@0@@Z 0042eb90 f i mstristrip.obj
 0001:0002dbc0       ?FIsStripCW@@YA_NABV?$vector@GV?$allocator@G@std@@@std@@@Z 0042ebc0 f i mstristrip.obj
 0001:0002dc00       ?StripLen@@YAHABV?$vector@GV?$allocator@G@std@@@std@@@Z 0042ec00 f i mstristrip.obj
 0001:0002dc20       ??0CVertCache@@QAE@XZ      0042ec20 f i mstristrip.obj
 0001:0002dc50       ??E?$_Iterator@$00@?$list@PAV?$vector@GV?$allocator@G@std@@@std@@V?$allocator@PAV?$vector@GV?$allocator@G@std@@@std@@@2@@std@@QAEAAV012@XZ 0042ec50 f i mstristrip.obj
 0001:0002dc80       ??E?$_Iterator@$00@?$list@PAV?$vector@GV?$allocator@G@std@@@std@@V?$allocator@PAV?$vector@GV?$allocator@G@std@@@std@@@2@@std@@QAE?AV012@H@Z 0042ec80 f i mstristrip.obj
 0001:0002dcc0       ??9?$_Const_iterator@$00@?$list@PAV?$vector@GV?$allocator@G@std@@@std@@V?$allocator@PAV?$vector@GV?$allocator@G@std@@@std@@@2@@std@@QBE_NABV012@@Z 0042ecc0 f i mstristrip.obj
 0001:0002dcf0       ??F?$_Vector_iterator@GV?$allocator@G@std@@@std@@QAEAAV01@XZ 0042ecf0 f i mstristrip.obj
 0001:0002dd20       ??0?$_String_val@DV?$allocator@D@std@@@std@@QAE@ABV01@@Z 0042ed20 f i mstristrip.obj
 0001:0002dd30       ??0?$_Vector_val@GV?$allocator@G@std@@@std@@IAE@V?$allocator@G@1@@Z 0042ed30 f i mstristrip.obj
 0001:0002dd40       ?begin@?$list@PAV?$vector@GV?$allocator@G@std@@@std@@V?$allocator@PAV?$vector@GV?$allocator@G@std@@@std@@@2@@std@@QBE?AV?$_Const_iterator@$00@12@XZ 0042ed40 f i mstristrip.obj
 0001:0002dd60       ?end@?$list@PAV?$vector@GV?$allocator@G@std@@@std@@V?$allocator@PAV?$vector@GV?$allocator@G@std@@@std@@@2@@std@@QBE?AV?$_Const_iterator@$00@12@XZ 0042ed60 f i mstristrip.obj
 0001:0002dd70       ?destroy@?$allocator@U_Node@?$_List_nod@PAV?$vector@GV?$allocator@G@std@@@std@@V?$allocator@PAV?$vector@GV?$allocator@G@std@@@std@@@2@@std@@@std@@QAEXPAU_Node@?$_List_nod@PAV?$vector@GV?$allocator@G@std@@@std@@V?$allocator@PAV?$vector@GV?$allocator@G@std@@@std@@@2@@2@@Z 0042ed70 f i mstristrip.obj
 0001:0002dd80       ??0?$_Iterator@$00@?$list@PAV?$vector@GV?$allocator@G@std@@@std@@V?$allocator@PAV?$vector@GV?$allocator@G@std@@@std@@@2@@std@@QAE@PAU_Node@?$_List_nod@PAV?$vector@GV?$allocator@G@std@@@std@@V?$allocator@PAV?$vector@GV?$allocator@G@std@@@std@@@2@@2@PBV12@@Z 0042ed80 f i mstristrip.obj
 0001:0002ddb0       ??0?$_Const_iterator@$00@?$list@PAV?$vector@GV?$allocator@G@std@@@std@@V?$allocator@PAV?$vector@GV?$allocator@G@std@@@std@@@2@@std@@QAE@XZ 0042edb0 f i mstristrip.obj
 0001:0002ddc0       ??D?$_Const_iterator@$00@?$list@PAV?$vector@GV?$allocator@G@std@@@std@@V?$allocator@PAV?$vector@GV?$allocator@G@std@@@std@@@2@@std@@QBEABQAV?$vector@GV?$allocator@G@std@@@2@XZ 0042edc0 f i mstristrip.obj
 0001:0002ddf0       ?_Eos@?$basic_string@DU?$char_traits@D@std@@V?$allocator@D@2@@std@@IAEXI@Z 0042edf0 f i mstristrip.obj
 0001:0002de10       ?clear@?$list@PAV?$vector@GV?$allocator@G@std@@@std@@V?$allocator@PAV?$vector@GV?$allocator@G@std@@@std@@@2@@std@@QAEXXZ 0042ee10 f i mstristrip.obj
 0001:0002de50       ?allocate@?$allocator@U_Node@?$_List_nod@PAV?$vector@GV?$allocator@G@std@@@std@@V?$allocator@PAV?$vector@GV?$allocator@G@std@@@std@@@2@@std@@@std@@QAEPAU_Node@?$_List_nod@PAV?$vector@GV?$allocator@G@std@@@std@@V?$allocator@PAV?$vector@GV?$allocator@G@std@@@std@@@2@@2@I@Z 0042ee50 f i mstristrip.obj
 0001:0002de70       ?construct@?$allocator@PAU_Node@?$_List_nod@PAV?$vector@GV?$allocator@G@std@@@std@@V?$allocator@PAV?$vector@GV?$allocator@G@std@@@std@@@2@@std@@@std@@QAEXPAPAU_Node@?$_List_nod@PAV?$vector@GV?$allocator@G@std@@@std@@V?$allocator@PAV?$vector@GV?$allocator@G@std@@@std@@@2@@2@ABQAU342@@Z 0042ee70 f i mstristrip.obj
 0001:0002de90       ?destroy@?$allocator@PAU_Node@?$_List_nod@PAV?$vector@GV?$allocator@G@std@@@std@@V?$allocator@PAV?$vector@GV?$allocator@G@std@@@std@@@2@@std@@@std@@QAEXPAPAU_Node@?$_List_nod@PAV?$vector@GV?$allocator@G@std@@@std@@V?$allocator@PAV?$vector@GV?$allocator@G@std@@@std@@@2@@2@@Z 0042ee90 f i mstristrip.obj
 0001:0002dea0       ??0?$_Vector_const_iterator@GV?$allocator@G@std@@@std@@QAE@PAGPBU_Container_base@1@@Z 0042eea0 f i mstristrip.obj
 0001:0002dee0       ?max_size@?$basic_string@DU?$char_traits@D@std@@V?$allocator@D@2@@std@@QBEIXZ 0042eee0 f i mstristrip.obj
 0001:0002def0       ?max_size@?$vector@GV?$allocator@G@std@@@std@@QBEIXZ 0042eef0 f i mstristrip.obj
 0001:0002df00       ?allocate@?$allocator@G@std@@QAEPAGI@Z 0042ef00 f i mstristrip.obj
 0001:0002df20       ?max_size@?$list@PAV?$vector@GV?$allocator@G@std@@@std@@V?$allocator@PAV?$vector@GV?$allocator@G@std@@@std@@@2@@std@@QBEIXZ 0042ef20 f i mstristrip.obj
 0001:0002df30       ??0?$_List_nod@PAV?$vector@GV?$allocator@G@std@@@std@@V?$allocator@PAV?$vector@GV?$allocator@G@std@@@std@@@2@@std@@IAE@V?$allocator@PAV?$vector@GV?$allocator@G@std@@@std@@@1@@Z 0042ef30 f i mstristrip.obj
 0001:0002df40       ?construct@?$allocator@PAV?$vector@GV?$allocator@G@std@@@std@@@std@@QAEXPAPAV?$vector@GV?$allocator@G@std@@@2@ABQAV32@@Z 0042ef40 f i mstristrip.obj
 0001:0002df60       ?allocate@?$allocator@D@std@@QAEPADI@Z 0042ef60 f i mstristrip.obj
 0001:0002df80       ??$copy_s@U?$char_traits@D@std@@@_Traits_helper@std@@YAPADPADIPBDI@Z 0042ef80 f i mstristrip.obj
 0001:0002dfb0       ??$move_s@U?$char_traits@D@std@@@_Traits_helper@std@@YAPADPADIPBDI@Z 0042efb0 f i mstristrip.obj
 0001:0002dfe0       ??$_Destroy_range@GV?$allocator@G@std@@@std@@YAXPAG0AAV?$allocator@G@0@@Z 0042efe0 f i mstristrip.obj
 0001:0002dff0       ??$_Checked_base@PAUSortEntry@@@std@@YAPAUSortEntry@@AAPAU1@@Z 0042eff0 f i mstristrip.obj
 0001:0002e000       ??$_Checked_base@V?$_Vector_iterator@GV?$allocator@G@std@@@std@@U_Different_checked_iterator_base_type_tag@2@@std@@YAPAGAAV?$_Vector_iterator@GV?$allocator@G@std@@@0@U_Different_checked_iterator_base_type_tag@0@@Z 0042f000 f i mstristrip.obj
 0001:0002e010       ??$iter_swap@PAGPAG@std@@YAXPAG0@Z 0042f010 f i mstristrip.obj
 0001:0002e030       ??$iter_swap@PAUSortEntry@@PAU1@@std@@YAXPAUSortEntry@@0@Z 0042f030 f i mstristrip.obj
 0001:0002e060       ??F?$_Iterator@$00@?$list@PAV?$vector@GV?$allocator@G@std@@@std@@V?$allocator@PAV?$vector@GV?$allocator@G@std@@@std@@@2@@std@@QAEAAV012@XZ 0042f060 f i mstristrip.obj
 0001:0002e090       ??$_Med3@PAUSortEntry@@@std@@YAXPAUSortEntry@@00@Z 0042f090 f i mstristrip.obj
 0001:0002e0f0       ??$_Adjust_heap@PAUSortEntry@@HU1@@std@@YAXPAUSortEntry@@HHU1@@Z 0042f0f0 f i mstristrip.obj
 0001:0002e170       ??$_Checked_base@PAG@std@@YAPAGAAPAG@Z 0042f170 f i mstristrip.obj
 0001:0002e180       ??$_Copy_backward_opt@PAUSortEntry@@PAU1@@std@@YAPAUSortEntry@@PAU1@00Urandom_access_iterator_tag@0@U_Nonscalar_ptr_iterator_tag@0@U_Range_checked_iterator_tag@0@@Z 0042f180 f i mstristrip.obj
 0001:0002e1c0       ??$_Pop_heap@PAUSortEntry@@HU1@@std@@YAXPAUSortEntry@@00U1@PAH@Z 0042f1c0 f i mstristrip.obj
 0001:0002e200       ?begin@?$list@PAV?$vector@GV?$allocator@G@std@@@std@@V?$allocator@PAV?$vector@GV?$allocator@G@std@@@std@@@2@@std@@QAE?AV?$_Iterator@$00@12@XZ 0042f200 f i mstristrip.obj
 0001:0002e220       ?end@?$list@PAV?$vector@GV?$allocator@G@std@@@std@@V?$allocator@PAV?$vector@GV?$allocator@G@std@@@std@@@2@@std@@QAE?AV?$_Iterator@$00@12@XZ 0042f220 f i mstristrip.obj
 0001:0002e230       ?erase@?$list@PAV?$vector@GV?$allocator@G@std@@@std@@V?$allocator@PAV?$vector@GV?$allocator@G@std@@@std@@@2@@std@@QAE?AV?$_Iterator@$00@12@V312@@Z 0042f230 f i mstristrip.obj
 0001:0002e290       ??0?$_Iterator@$00@?$list@PAV?$vector@GV?$allocator@G@std@@@std@@V?$allocator@PAV?$vector@GV?$allocator@G@std@@@std@@@2@@std@@QAE@XZ 0042f290 f i mstristrip.obj
 0001:0002e2a0       ??D?$_Iterator@$00@?$list@PAV?$vector@GV?$allocator@G@std@@@std@@V?$allocator@PAV?$vector@GV?$allocator@G@std@@@std@@@2@@std@@QBEAAPAV?$vector@GV?$allocator@G@std@@@2@XZ 0042f2a0 f i mstristrip.obj
 0001:0002e2d0       ?_Tidy@?$basic_string@DU?$char_traits@D@std@@V?$allocator@D@2@@std@@IAEX_NI@Z 0042f2d0 f i mstristrip.obj
 0001:0002e320       ?_Buynode@?$list@PAV?$vector@GV?$allocator@G@std@@@std@@V?$allocator@PAV?$vector@GV?$allocator@G@std@@@std@@@2@@std@@IAEPAU_Node@?$_List_nod@PAV?$vector@GV?$allocator@G@std@@@std@@V?$allocator@PAV?$vector@GV?$allocator@G@std@@@std@@@2@@2@XZ 0042f320 f i mstristrip.obj
 0001:0002e3a0       ?_Tidy@?$list@PAV?$vector@GV?$allocator@G@std@@@std@@V?$allocator@PAV?$vector@GV?$allocator@G@std@@@std@@@2@@std@@IAEXXZ 0042f3a0 f i mstristrip.obj
 0001:0002e3f0       ??0?$_Vector_iterator@GV?$allocator@G@std@@@std@@QAE@PAGPBU_Container_base@1@@Z 0042f3f0 f i mstristrip.obj
 0001:0002e430       ?erase@?$basic_string@DU?$char_traits@D@std@@V?$allocator@D@2@@std@@QAEAAV12@II@Z 0042f430 f i mstristrip.obj
 0001:0002e4c0       ?_Destroy@?$vector@GV?$allocator@G@std@@@std@@IAEXPAG0@Z 0042f4c0 f i mstristrip.obj
 0001:0002e4d0       ?_Buynode@?$list@PAV?$vector@GV?$allocator@G@std@@@std@@V?$allocator@PAV?$vector@GV?$allocator@G@std@@@std@@@2@@std@@IAEPAU_Node@?$_List_nod@PAV?$vector@GV?$allocator@G@std@@@std@@V?$allocator@PAV?$vector@GV?$allocator@G@std@@@std@@@2@@2@PAU342@0ABQAV?$vector@GV?$allocator@G@std@@@2@@Z 0042f4d0 f i mstristrip.obj
 0001:0002e570       ??0?$_List_ptr@PAV?$vector@GV?$allocator@G@std@@@std@@V?$allocator@PAV?$vector@GV?$allocator@G@std@@@std@@@2@@std@@IAE@V?$allocator@PAV?$vector@GV?$allocator@G@std@@@std@@@1@@Z 0042f570 f i mstristrip.obj
 0001:0002e580       ?_Copy@?$basic_string@DU?$char_traits@D@std@@V?$allocator@D@2@@std@@IAEXII@Z 0042f580 f i mstristrip.obj
 0001:0002e6d0       ??$_Checked_base@V?$_Vector_iterator@GV?$allocator@G@std@@@std@@@std@@YAPAGAAV?$_Vector_iterator@GV?$allocator@G@std@@@0@@Z 0042f6d0 f i mstristrip.obj
 0001:0002e6e0       ??$_Reverse@PAG@std@@YAXPAG0Urandom_access_iterator_tag@0@@Z 0042f6e0 f i mstristrip.obj
 0001:0002e710       ??$_Median@PAUSortEntry@@@std@@YAXPAUSortEntry@@00@Z 0042f710 f i mstristrip.obj
 0001:0002e7a0       ??$_Make_heap@PAUSortEntry@@HU1@@std@@YAXPAUSortEntry@@0PAH0@Z 0042f7a0 f i mstristrip.obj
 0001:0002e7f0       ??$_Fill_n@PAGIG@std@@YAXPAGIABGUrandom_access_iterator_tag@0@U_Range_checked_iterator_tag@0@@Z 0042f7f0 f i mstristrip.obj
 0001:0002e820       ??$unchecked_copy_backward@PAUSortEntry@@PAU1@@stdext@@YAPAUSortEntry@@PAU1@00@Z 0042f820 f i mstristrip.obj
 0001:0002e860       ??$_Pop_heap_0@PAUSortEntry@@U1@@std@@YAXPAUSortEntry@@00@Z 0042f860 f i mstristrip.obj
 0001:0002e8a0       ?EstimateStripCost@@YAHPAV?$list@PAV?$vector@GV?$allocator@G@std@@@std@@V?$allocator@PAV?$vector@GV?$allocator@G@std@@@std@@@2@@std@@@Z 0042f8a0 f   mstristrip.obj
 0001:0002e8f0       ??1?$basic_string@DU?$char_traits@D@std@@V?$allocator@D@2@@std@@QAE@XZ 0042f8f0 f i mstristrip.obj
 0001:0002e920       ?begin@?$vector@GV?$allocator@G@std@@@std@@QAE?AV?$_Vector_iterator@GV?$allocator@G@std@@@2@XZ 0042f920 f i mstristrip.obj
 0001:0002e950       ?end@?$vector@GV?$allocator@G@std@@@std@@QAE?AV?$_Vector_iterator@GV?$allocator@G@std@@@2@XZ 0042f950 f i mstristrip.obj
 0001:0002e980       ??1?$list@PAV?$vector@GV?$allocator@G@std@@@std@@V?$allocator@PAV?$vector@GV?$allocator@G@std@@@std@@@2@@std@@QAE@XZ 0042f980 f i mstristrip.obj
 0001:0002e990       ?pop_front@?$list@PAV?$vector@GV?$allocator@G@std@@@std@@V?$allocator@PAV?$vector@GV?$allocator@G@std@@@std@@@2@@std@@QAEXXZ 0042f990 f i mstristrip.obj
 0001:0002e9b0       ?_Tidy@?$vector@GV?$allocator@G@std@@@std@@IAEXXZ 0042f9b0 f i mstristrip.obj
 0001:0002e9e0       ??0?$_List_val@PAV?$vector@GV?$allocator@G@std@@@std@@V?$allocator@PAV?$vector@GV?$allocator@G@std@@@std@@@2@@std@@QAE@V?$allocator@PAV?$vector@GV?$allocator@G@std@@@std@@@1@@Z 0042f9e0 f i mstristrip.obj
 0001:0002e9f0       ?_Grow@?$basic_string@DU?$char_traits@D@std@@V?$allocator@D@2@@std@@IAE_NI_N@Z 0042f9f0 f i mstristrip.obj
 0001:0002eab0       ??$reverse@V?$_Vector_iterator@GV?$allocator@G@std@@@std@@@std@@YAXV?$_Vector_iterator@GV?$allocator@G@std@@@0@0@Z 0042fab0 f i mstristrip.obj
 0001:0002eae0       ??$_Unguarded_partition@PAUSortEntry@@@std@@YA?AU?$pair@PAUSortEntry@@PAU1@@0@PAUSortEntry@@0@Z 0042fae0 f i mstristrip.obj
 0001:0002eca0       ??$make_heap@PAUSortEntry@@@std@@YAXPAUSortEntry@@0@Z 0042fca0 f i mstristrip.obj
 0001:0002ecd0       ??$unchecked_fill_n@PAGIG@stdext@@YAXPAGIABG@Z 0042fcd0 f i mstristrip.obj
 0001:0002ed00       ??$_Insertion_sort1@PAUSortEntry@@U1@@std@@YAXPAUSortEntry@@00@Z 0042fd00 f i mstristrip.obj
 0001:0002ed80       ??$pop_heap@PAUSortEntry@@@std@@YAXPAUSortEntry@@0@Z 0042fd80 f i mstristrip.obj
 0001:0002edd0       ??1logic_error@std@@UAE@XZ 0042fdd0 f i mstristrip.obj
 0001:0002ee10       ?c_str@?$basic_string@DU?$char_traits@D@std@@V?$allocator@D@2@@std@@QBEPBDXZ 0042fe10 f i mstristrip.obj
 0001:0002ee20       ?what@logic_error@std@@UBEPBDXZ 0042fe20 f i mstristrip.obj
 0001:0002ee30       ??_Glogic_error@std@@UAEPAXI@Z 0042fe30 f i mstristrip.obj
 0001:0002ee30       ??_Elogic_error@std@@UAEPAXI@Z 0042fe30 f i mstristrip.obj
 0001:0002ee80       ?FindBestCachedStrip@@YA?AV?$_Iterator@$00@?$list@PAV?$vector@GV?$allocator@G@std@@@std@@V?$allocator@PAV?$vector@GV?$allocator@G@std@@@std@@@2@@std@@PAV23@ABVCVertCache@@@Z 0042fe80 f   mstristrip.obj
 0001:0002f180       ??1?$vector@GV?$allocator@G@std@@@std@@QAE@XZ 00430180 f i mstristrip.obj
 0001:0002f1b0       ??0?$list@PAV?$vector@GV?$allocator@G@std@@@std@@V?$allocator@PAV?$vector@GV?$allocator@G@std@@@std@@@2@@std@@QAE@XZ 004301b0 f i mstristrip.obj
 0001:0002f1d0       ?assign@?$basic_string@DU?$char_traits@D@std@@V?$allocator@D@2@@std@@QAEAAV12@ABV12@II@Z 004301d0 f i mstristrip.obj
 0001:0002f2b0       ?assign@?$basic_string@DU?$char_traits@D@std@@V?$allocator@D@2@@std@@QAEAAV12@PBDI@Z 004302b0 f i mstristrip.obj
 0001:0002f380       ??$_Uninit_fill_n@PAGIGV?$allocator@G@std@@@std@@YAXPAGIABGAAV?$allocator@G@0@U_Scalar_ptr_iterator_tag@0@U_Range_checked_iterator_tag@0@@Z 00430380 f i mstristrip.obj
 0001:0002f3b0       ??$_Insertion_sort@PAUSortEntry@@@std@@YAXPAUSortEntry@@0@Z 004303b0 f i mstristrip.obj
 0001:0002f3d0       ??$_Sort_heap@PAUSortEntry@@@std@@YAXPAUSortEntry@@0@Z 004303d0 f i mstristrip.obj
 0001:0002f420       ??_G?$vector@GV?$allocator@G@std@@@std@@QAEPAXI@Z 00430420 f i mstristrip.obj
 0001:0002f460       ?CreateManyStrips@CStripper@@QAEHPAV?$list@PAV?$vector@GV?$allocator@G@std@@@std@@V?$allocator@PAV?$vector@GV?$allocator@G@std@@@std@@@2@@std@@PAPAG@Z 00430460 f   mstristrip.obj
 0001:0002f6e0       ?CreateLongStrip@CStripper@@QAEHPAV?$list@PAV?$vector@GV?$allocator@G@std@@@std@@V?$allocator@PAV?$vector@GV?$allocator@G@std@@@std@@@2@@std@@PAPAG@Z 004306e0 f   mstristrip.obj
 0001:0002fa60       ??0?$basic_string@DU?$char_traits@D@std@@V?$allocator@D@2@@std@@QAE@ABV01@@Z 00430a60 f i mstristrip.obj
 0001:0002fa90       ?assign@?$basic_string@DU?$char_traits@D@std@@V?$allocator@D@2@@std@@QAEAAV12@PBD@Z 00430a90 f i mstristrip.obj
 0001:0002fac0       ??$unchecked_uninitialized_fill_n@PAGIGV?$allocator@G@std@@@stdext@@YAXPAGIABGAAV?$allocator@G@std@@@Z 00430ac0 f i mstristrip.obj
 0001:0002faf0       ??$sort_heap@PAUSortEntry@@@std@@YAXPAUSortEntry@@0@Z 00430af0 f i mstristrip.obj
 0001:0002fb00       ??0logic_error@std@@QAE@ABV?$basic_string@DU?$char_traits@D@std@@V?$allocator@D@2@@1@@Z 00430b00 f i mstristrip.obj
 0001:0002fb40       ??0length_error@std@@QAE@ABV?$basic_string@DU?$char_traits@D@std@@V?$allocator@D@2@@1@@Z 00430b40 f i mstristrip.obj
 0001:0002fb80       ??1length_error@std@@UAE@XZ 00430b80 f i mstristrip.obj
 0001:0002fbc0       ??_Elength_error@std@@UAEPAXI@Z 00430bc0 f i mstristrip.obj
 0001:0002fbc0       ??_Glength_error@std@@UAEPAXI@Z 00430bc0 f i mstristrip.obj
 0001:0002fc10       ?FreeStripListVerts@@YAXPAV?$list@PAV?$vector@GV?$allocator@G@std@@@std@@V?$allocator@PAV?$vector@GV?$allocator@G@std@@@std@@@2@@std@@@Z 00430c10 f i mstristrip.obj
 0001:0002fcb0       ?_Ufill@?$vector@GV?$allocator@G@std@@@std@@IAEPAGPAGIABG@Z 00430cb0 f i mstristrip.obj
 0001:0002fce0       ??0?$basic_string@DU?$char_traits@D@std@@V?$allocator@D@2@@std@@QAE@PBD@Z 00430ce0 f i mstristrip.obj
 0001:0002fd20       ?_Xlen@?$vector@GV?$allocator@G@std@@@std@@KAXXZ 00430d20 f i mstristrip.obj
 0001:0002fd90       ??0logic_error@std@@QAE@ABV01@@Z 00430d90 f i mstristrip.obj
 0001:0002fdd0       ??0length_error@std@@QAE@ABV01@@Z 00430dd0 f i mstristrip.obj
 0001:0002fe10       ??$_Sort@PAUSortEntry@@H@std@@YAXPAUSortEntry@@0H@Z 00430e10 f i mstristrip.obj
 0001:0002fee0       ?_Buy@?$vector@GV?$allocator@G@std@@@std@@IAE_NI@Z 00430ee0 f i mstristrip.obj
 0001:0002ff30       ?_Incsize@?$list@PAV?$vector@GV?$allocator@G@std@@@std@@V?$allocator@PAV?$vector@GV?$allocator@G@std@@@std@@@2@@std@@IAEXI@Z 00430f30 f i mstristrip.obj
 0001:0002ffc0       ??$sort@PAUSortEntry@@@std@@YAXPAUSortEntry@@0@Z 00430fc0 f i mstristrip.obj
 0001:0002ffe0       ?ComputeVertexPermutation@@YAXHPAGPAHPAPAG@Z 00430fe0 f   mstristrip.obj
 0001:00030110       ?_Construct_n@?$vector@GV?$allocator@G@std@@@std@@QAEXIABG@Z 00431110 f i mstristrip.obj
 0001:000301b0       ?_Insert@?$list@PAV?$vector@GV?$allocator@G@std@@@std@@V?$allocator@PAV?$vector@GV?$allocator@G@std@@@std@@@2@@std@@QAEXV?$_Iterator@$00@12@ABQAV?$vector@GV?$allocator@G@std@@@2@@Z 004311b0 f i mstristrip.obj
 0001:000301f0       ??$_Insert@V?$_Const_iterator@$00@?$list@PAV?$vector@GV?$allocator@G@std@@@std@@V?$allocator@PAV?$vector@GV?$allocator@G@std@@@std@@@2@@std@@@?$list@PAV?$vector@GV?$allocator@G@std@@@std@@V?$allocator@PAV?$vector@GV?$allocator@G@std@@@std@@@2@@std@@QAEXV?$_Iterator@$00@01@V?$_Const_iterator@$00@01@1Uforward_iterator_tag@1@@Z 004311f0 f i mstristrip.obj
 0001:000302e0       ??0?$vector@GV?$allocator@G@std@@@std@@QAE@I@Z 004312e0 f i mstristrip.obj
 0001:00030310       ?push_back@?$list@PAV?$vector@GV?$allocator@G@std@@@std@@V?$allocator@PAV?$vector@GV?$allocator@G@std@@@std@@@2@@std@@QAEXABQAV?$vector@GV?$allocator@G@std@@@2@@Z 00431310 f i mstristrip.obj
 0001:00030350       ??$insert@V?$_Const_iterator@$00@?$list@PAV?$vector@GV?$allocator@G@std@@@std@@V?$allocator@PAV?$vector@GV?$allocator@G@std@@@std@@@2@@std@@@?$list@PAV?$vector@GV?$allocator@G@std@@@std@@V?$allocator@PAV?$vector@GV?$allocator@G@std@@@std@@@2@@std@@QAEXV?$_Iterator@$00@01@V?$_Const_iterator@$00@01@1@Z 00431350 f i mstristrip.obj
 0001:00030380       ?BuildStrips@CStripper@@QAEXPAV?$list@PAV?$vector@GV?$allocator@G@std@@@std@@V?$allocator@PAV?$vector@GV?$allocator@G@std@@@std@@@2@@std@@H_N@Z 00431380 f   mstristrip.obj
 0001:00030630       ??$_Assign@V?$_Const_iterator@$00@?$list@PAV?$vector@GV?$allocator@G@std@@@std@@V?$allocator@PAV?$vector@GV?$allocator@G@std@@@std@@@2@@std@@@?$list@PAV?$vector@GV?$allocator@G@std@@@std@@V?$allocator@PAV?$vector@GV?$allocator@G@std@@@std@@@2@@std@@QAEXV?$_Const_iterator@$00@01@0Uinput_iterator_tag@1@@Z 00431630 f i mstristrip.obj
 0001:00030690       ??$assign@V?$_Const_iterator@$00@?$list@PAV?$vector@GV?$allocator@G@std@@@std@@V?$allocator@PAV?$vector@GV?$allocator@G@std@@@std@@@2@@std@@@?$list@PAV?$vector@GV?$allocator@G@std@@@std@@V?$allocator@PAV?$vector@GV?$allocator@G@std@@@std@@@2@@std@@QAEXV?$_Const_iterator@$00@01@0@Z 00431690 f i mstristrip.obj
 0001:000306c0       ??4?$list@PAV?$vector@GV?$allocator@G@std@@@std@@V?$allocator@PAV?$vector@GV?$allocator@G@std@@@std@@@2@@std@@QAEAAV01@ABV01@@Z 004316c0 f i mstristrip.obj
 0001:000306f0       ?Stripify@@YAHHPAGPAHPAPAG@Z 004316f0 f   mstristrip.obj
 0001:00030830       ?Draw_ClearWindow@@YAXXZ   00431830 f   nodraw.obj
 0001:00030840       ?GLS_BeginScene@@YAXXZ     00431840 f   nodraw.obj
 0001:00030850       ?GLS_Winding@@YAXPAUwinding_t@@H@Z 00431850 f   nodraw.obj
 0001:00030860       ?GLS_EndScene@@YAXXZ       00431860 f   nodraw.obj
 0001:00030870       ?SaveVertexNormals@@YAXXZ  00431870 f   normals.obj
 0001:00030950       ?SetFaceCount@doverlay_t@@QAEXG@Z 00431950 f i overlay.obj
 0001:00030970       ?SetRenderOrder@doverlay_t@@QAEXG@Z 00431970 f i overlay.obj
 0001:00030990       ?SetFaceCount@dwateroverlay_t@@QAEXG@Z 00431990 f i overlay.obj
 0001:000309b0       ?SetRenderOrder@dwateroverlay_t@@QAEXG@Z 004319b0 f i overlay.obj
 0001:000309d0       ?GetSide@@YAPAUside_t@@H@Z 004319d0 f   overlay.obj
 0001:00030a10       ?ValidateGrowSize@?$CUtlMemory@Umapoverlay_t@@@@IAEXXZ 00431a10 f i overlay.obj
 0001:00030a20       ??0?$CUtlMemory@Umapoverlay_t@@@@QAE@HH@Z 00431a20 f i overlay.obj
 0001:00030a60       ?Purge@?$CUtlMemory@Umapoverlay_t@@@@QAEXXZ 00431a60 f i overlay.obj
 0001:00030a90       ??1?$CUtlMemory@Umapoverlay_t@@@@QAE@XZ 00431a90 f i overlay.obj
 0001:00030ac0       ?Overlay_EmitOverlayFace@@YAXPAUmapoverlay_t@@@Z 00431ac0 f   overlay.obj
 0001:00030db0       ?OverlayTransition_EmitOverlayFace@@YAXPAUmapoverlay_t@@@Z 00431db0 f   overlay.obj
 0001:000310a0       ?Overlay_EmitOverlayFaces@@YAXXZ 004320a0 f   overlay.obj
 0001:000310d0       ?OverlayTransition_EmitOverlayFaces@@YAXXZ 004320d0 f   overlay.obj
 0001:00031100       ??0?$CUtlVector@Umapoverlay_t@@V?$CUtlMemory@Umapoverlay_t@@@@@@QAE@HH@Z 00432100 f i overlay.obj
 0001:00031150       ??1mapoverlay_t@@QAE@XZ    00432150 f i overlay.obj
 0001:00031170       ??_Gmapoverlay_t@@QAEPAXI@Z 00432170 f i overlay.obj
 0001:000311a0       ?Overlay_UpdateSideLists@@YAXXZ 004321a0 f   overlay.obj
 0001:000312e0       ?OverlayTransition_UpdateSideLists@@YAXXZ 004322e0 f   overlay.obj
 0001:00031420       ?Overlay_AddFaceToLists@@YAXHPAUside_t@@@Z 00432420 f   overlay.obj
 0001:00031490       ?OverlayTransition_AddFaceToLists@@YAXHPAUside_t@@@Z 00432490 f   overlay.obj
 0001:00031520       ??$Destruct@Umapoverlay_t@@@@YAXPAUmapoverlay_t@@@Z 00432520 f i overlay.obj
 0001:00031540       ?RemoveAll@?$CUtlVector@Umapoverlay_t@@V?$CUtlMemory@Umapoverlay_t@@@@@@QAEXXZ 00432540 f i overlay.obj
 0001:00031660       ?Purge@?$CUtlVector@Umapoverlay_t@@V?$CUtlMemory@Umapoverlay_t@@@@@@QAEXXZ 00432660 f i overlay.obj
 0001:000316a0       ?Overlay_GetFromEntity@@YAXPAUentity_t@@@Z 004326a0 f   overlay.obj
 0001:00031900       ??1?$CUtlVector@Umapoverlay_t@@V?$CUtlMemory@Umapoverlay_t@@@@@@QAE@XZ 00432900 f i overlay.obj
 0001:00031960       ?GetPhysicsFactory@@YAP6APAXPBDPAH@ZXZ 00432960 f   physdll.obj
 0001:000319a0       _PhysicsDLLPath            004329a0 f   physdll.obj
 0001:000319d0       _atan2f                    004329d0 f i portals.obj
 0001:000319f0       _fmodf                     004329f0 f i portals.obj
 0001:00031a10       ?atan2@@YAMMM@Z            00432a10 f i portals.obj
 0001:00031a30       ?fmod@@YAMMM@Z             00432a30 f i portals.obj
 0001:00031a50       ?LengthSqr@Vector2D@@QBEMXZ 00432a50 f i portals.obj
 0001:00031a70       ?DistToSqr@Vector2D@@QBEMABV1@@Z 00432a70 f i portals.obj
 0001:00031ab0       ??GVector2D@@QBE?AV0@ABV0@@Z 00432ab0 f i portals.obj
 0001:00031ad0       ??8Vector@@QBE_NABV0@@Z    00432ad0 f i portals.obj
 0001:00031b10       ?VectorCompare@@YAHABVVector@@0@Z 00432b10 f i portals.obj
 0001:00031b60       ??DVMatrix@@QBE?AVVector@@ABV1@@Z 00432b60 f i portals.obj
 0001:00031bc0       ?Identity@VMatrix@@QAEXXZ  00432bc0 f i portals.obj
 0001:00031bd0       ?AllocPortal@@YAPAUportal_t@@XZ 00432bd0 f   portals.obj
 0001:00031c20       ?FreePortal@@YAXPAUportal_t@@@Z 00432c20 f   portals.obj
 0001:00031c60       ?VisibleContents@@YAHH@Z   00432c60 f   portals.obj
 0001:00031c80       ?ClusterContents@@YAHPAUnode_t@@@Z 00432c80 f   portals.obj
 0001:00031cc0       ?Portal_VisFlood@@YAHPAUportal_t@@@Z 00432cc0 f   portals.obj
 0001:00031da0       ?Portal_EntityFlood@@YAHPAUportal_t@@H@Z 00432da0 f   portals.obj
 0001:00031de0       ?Portal_AreaLeakFlood@@YAHPAUportal_t@@H@Z 00432de0 f   portals.obj
 0001:00031e40       ?AddPortalToNodes@@YAXPAUportal_t@@PAUnode_t@@1@Z 00432e40 f   portals.obj
 0001:00031e90       ?RemovePortalFromNode@@YAXPAUportal_t@@PAUnode_t@@@Z 00432e90 f   portals.obj
 0001:00031f10       ?PrintPortal@@YAXPAUportal_t@@@Z 00432f10 f   portals.obj
 0001:00031f60       ?AreaportalBrushForNode@@YAPAUbspbrush_t@@PAUnode_t@@@Z 00432f60 f   portals.obj
 0001:00031f80       ?BaseWindingForNode@@YAPAUwinding_t@@PAUnode_t@@@Z 00432f80 f   portals.obj
 0001:00032060       ?CalcNodeBounds@@YAXPAUnode_t@@@Z 00433060 f   portals.obj
 0001:000320e0       ?FloodPortals_r@@YAXPAUnode_t@@H@Z 004330e0 f   portals.obj
 0001:00032170       ?FloodAreaLeak_r@@YAXPAUnode_t@@H@Z 00433170 f   portals.obj
 0001:00032220       ?ClearOccupied_r@@YAXPAUnode_t@@@Z 00433220 f   portals.obj
 0001:00032250       ?FloodAreaLeak@@YAXPAUnode_t@@0@Z 00433250 f   portals.obj
 0001:00032270       ?PlaceOccupant@@YAHPAUnode_t@@AAVVector@@PAUentity_t@@@Z 00433270 f   portals.obj
 0001:00032300       ?FloodEntities@@YAHPAUtree_t@@@Z 00433300 f   portals.obj
 0001:000324d0       ?IsAreaportalNode@@YA_NPAUnode_t@@@Z 004334d0 f   portals.obj
 0001:000324e0       ?FloodAreas_r@@YAXPAUnode_t@@PAUportal_t@@@Z 004334e0 f   portals.obj
 0001:000325f0       ?FindAreas_r@@YAXPAUnode_t@@@Z 004335f0 f   portals.obj
 0001:00032650       ?ReportAreaportalLeak@@YAXPAUtree_t@@PAUnode_t@@@Z 00433650 f   portals.obj
 0001:00032770       ?SetAreaPortalAreas_r@@YAXPAUtree_t@@PAUnode_t@@@Z 00433770 f   portals.obj
 0001:00032800       ?AngleOffset@@YAMMM@Z      00433800 f   portals.obj
 0001:00032860       ?FindUniquePoints@@YAHPBVVector2D@@HPAHHM@Z 00433860 f   portals.obj
 0001:00032a50       ?Convex2D@@YAHPBVVector2D@@HPAHH@Z 00433a50 f   portals.obj
 0001:00032ed0       ?SetNodeAreaIndices_R@@YAXPAUnode_t@@@Z 00433ed0 f   portals.obj
 0001:00032f10       ?FloodAreas@@YAXPAUtree_t@@@Z 00433f10 f   portals.obj
 0001:00032f80       ?FillOutside_r@@YAXPAUnode_t@@@Z 00433f80 f   portals.obj
 0001:00032fe0       ?FillOutside@@YAXPAUnode_t@@@Z 00433fe0 f   portals.obj
 0001:000330c0       ?Size@?$CUtlVector@PAUportal_t@@V?$CUtlMemory@PAUportal_t@@@@@@QBEHXZ 004340c0 f i portals.obj
 0001:000330d0       ?Size@?$CUtlVector@VVector@@V?$CUtlMemory@VVector@@@@@@QBEHXZ 004340d0 f i portals.obj
 0001:000330e0       ?Size@?$CUtlVector@VVector2D@@V?$CUtlMemory@VVector2D@@@@@@QBEHXZ 004340e0 f i portals.obj
 0001:000330f0       ?Base@?$CUtlMemory@PAUportal_t@@@@QAEPAPAUportal_t@@XZ 004340f0 f i portals.obj
 0001:00033100       ?Base@?$CUtlMemory@VVector@@@@QAEPAVVector@@XZ 00434100 f i portals.obj
 0001:00033110       ?ValidateGrowSize@?$CUtlMemory@PAUportal_t@@@@IAEXXZ 00434110 f i portals.obj
 0001:00033120       ?ValidateGrowSize@?$CUtlMemory@VVector@@@@IAEXXZ 00434120 f i portals.obj
 0001:00033130       ??$CopyConstruct@PAUportal_t@@@@YAXPAPAUportal_t@@ABQAU0@@Z 00434130 f i portals.obj
 0001:00033150       ??$CopyConstruct@VVector@@@@YAXPAVVector@@ABV0@@Z 00434150 f i portals.obj
 0001:00033170       ??$CopyConstruct@VVector2D@@@@YAXPAVVector2D@@ABV0@@Z 00434170 f i portals.obj
 0001:00033190       ??$Destruct@PAUportal_t@@@@YAXPAPAUportal_t@@@Z 00434190 f i portals.obj
 0001:000331a0       ?NumAllocated@?$CUtlMemory@PAUportal_t@@@@QBEHXZ 004341a0 f i portals.obj
 0001:000331b0       ?IsExternallyAllocated@?$CUtlMemory@PAUportal_t@@@@QBE_NXZ 004341b0 f i portals.obj
 0001:000331c0       ??$Destruct@VVector@@@@YAXPAVVector@@@Z 004341c0 f i portals.obj
 0001:000331d0       ?NumAllocated@?$CUtlMemory@VVector@@@@QBEHXZ 004341d0 f i portals.obj
 0001:000331e0       ?IsExternallyAllocated@?$CUtlMemory@VVector@@@@QBE_NXZ 004341e0 f i portals.obj
 0001:000331f0       ?MakeNodePortal@@YAXPAUnode_t@@@Z 004341f0 f   portals.obj
 0001:000333c0       ??4portal_t@@QAEAAU0@ABU0@@Z 004343c0 f i portals.obj
 0001:00033430       ?Base@?$CUtlVector@PAUportal_t@@V?$CUtlMemory@PAUportal_t@@@@@@QAEPAPAUportal_t@@XZ 00434430 f i portals.obj
 0001:00033440       ?ResetDbgInfo@?$CUtlVector@PAUportal_t@@V?$CUtlMemory@PAUportal_t@@@@@@IAEXXZ 00434440 f i portals.obj
 0001:00033450       ?Base@?$CUtlVector@VVector@@V?$CUtlMemory@VVector@@@@@@QAEPAVVector@@XZ 00434450 f i portals.obj
 0001:00033460       ?ResetDbgInfo@?$CUtlVector@VVector@@V?$CUtlMemory@VVector@@@@@@IAEXXZ 00434460 f i portals.obj
 0001:00033470       ??0?$CUtlMemory@PAUportal_t@@@@QAE@HH@Z 00434470 f i portals.obj
 0001:000334b0       ??0?$CUtlMemory@VVector@@@@QAE@HH@Z 004344b0 f i portals.obj
 0001:000334f0       ?Element@?$CUtlVector@PAUportal_t@@V?$CUtlMemory@PAUportal_t@@@@@@QAEAAPAUportal_t@@H@Z 004344f0 f i portals.obj
 0001:00033500       ?RemoveAll@?$CUtlVector@PAUportal_t@@V?$CUtlMemory@PAUportal_t@@@@@@QAEXXZ 00434500 f i portals.obj
 0001:00033510       ?ShiftElementsRight@?$CUtlVector@PAUportal_t@@V?$CUtlMemory@PAUportal_t@@@@@@IAEXHH@Z 00434510 f i portals.obj
 0001:00033550       ?Purge@?$CUtlMemory@PAUportal_t@@@@QAEXXZ 00434550 f i portals.obj
 0001:00033580       ?Element@?$CUtlVector@VVector@@V?$CUtlMemory@VVector@@@@@@QAEAAVVector@@H@Z 00434580 f i portals.obj
 0001:00033590       ?RemoveAll@?$CUtlVector@VVector@@V?$CUtlMemory@VVector@@@@@@QAEXXZ 00434590 f i portals.obj
 0001:000335a0       ?ShiftElementsRight@?$CUtlVector@VVector@@V?$CUtlMemory@VVector@@@@@@IAEXHH@Z 004345a0 f i portals.obj
 0001:000335e0       ?Purge@?$CUtlMemory@VVector@@@@QAEXXZ 004345e0 f i portals.obj
 0001:00033610       ?Grow@?$CUtlMemory@PAUportal_t@@@@QAEXH@Z 00434610 f i portals.obj
 0001:00033680       ?Grow@?$CUtlMemory@VVector@@@@QAEXH@Z 00434680 f i portals.obj
 0001:000336f0       ?MakeHeadnodePortals@@YAXPAUtree_t@@@Z 004346f0 f   portals.obj
 0001:00033950       ?SplitNodePortals@@YAXPAUnode_t@@@Z 00434950 f   portals.obj
 0001:00033cb0       ?MakeTreePortals_r@@YAXPAUnode_t@@@Z 00434cb0 f   portals.obj
 0001:00033d60       ?MakeTreePortals@@YAXPAUtree_t@@@Z 00434d60 f   portals.obj
 0001:00033d80       ??A?$CUtlVector@PAUportal_t@@V?$CUtlMemory@PAUportal_t@@@@@@QAEAAPAUportal_t@@H@Z 00434d80 f i portals.obj
 0001:00033d90       ??A?$CUtlVector@VVector@@V?$CUtlMemory@VVector@@@@@@QAEAAVVector@@H@Z 00434d90 f i portals.obj
 0001:00033da0       ?Purge@?$CUtlVector@PAUportal_t@@V?$CUtlMemory@PAUportal_t@@@@@@QAEXXZ 00434da0 f i portals.obj
 0001:00033df0       ??1?$CUtlMemory@PAUportal_t@@@@QAE@XZ 00434df0 f i portals.obj
 0001:00033e20       ?Purge@?$CUtlVector@VVector@@V?$CUtlMemory@VVector@@@@@@QAEXXZ 00434e20 f i portals.obj
 0001:00033e70       ??1?$CUtlMemory@VVector@@@@QAE@XZ 00434e70 f i portals.obj
 0001:00033ea0       ?GrowVector@?$CUtlVector@PAUportal_t@@V?$CUtlMemory@PAUportal_t@@@@@@IAEXH@Z 00434ea0 f i portals.obj
 0001:00033ed0       ?GrowVector@?$CUtlVector@VVector@@V?$CUtlMemory@VVector@@@@@@IAEXH@Z 00434ed0 f i portals.obj
 0001:00033f00       ??0?$CUtlVector@PAUportal_t@@V?$CUtlMemory@PAUportal_t@@@@@@QAE@HH@Z 00434f00 f i portals.obj
 0001:00033f50       ??1?$CUtlVector@PAUportal_t@@V?$CUtlMemory@PAUportal_t@@@@@@QAE@XZ 00434f50 f i portals.obj
 0001:00033fc0       ??0?$CUtlVector@VVector@@V?$CUtlMemory@VVector@@@@@@QAE@HH@Z 00434fc0 f i portals.obj
 0001:00034010       ??1?$CUtlVector@VVector@@V?$CUtlMemory@VVector@@@@@@QAE@XZ 00435010 f i portals.obj
 0001:00034080       ?InsertBefore@?$CUtlVector@PAUportal_t@@V?$CUtlMemory@PAUportal_t@@@@@@QAEHHABQAUportal_t@@@Z 00435080 f i portals.obj
 0001:000340f0       ?InsertBefore@?$CUtlVector@VVector@@V?$CUtlMemory@VVector@@@@@@QAEHHABVVector@@@Z 004350f0 f i portals.obj
 0001:00034170       ?InsertBefore@?$CUtlVector@VVector2D@@V?$CUtlMemory@VVector2D@@@@@@QAEHHABVVector2D@@@Z 00435170 f i portals.obj
 0001:000341e0       ?AddToTail@?$CUtlVector@PAUportal_t@@V?$CUtlMemory@PAUportal_t@@@@@@QAEHABQAUportal_t@@@Z 004351e0 f i portals.obj
 0001:00034200       ?AddToTail@?$CUtlVector@VVector@@V?$CUtlMemory@VVector@@@@@@QAEHABVVector@@@Z 00435200 f i portals.obj
 0001:00034220       ?AddToTail@?$CUtlVector@VVector2D@@V?$CUtlMemory@VVector2D@@@@@@QAEHABVVector2D@@@Z 00435220 f i portals.obj
 0001:00034240       ?FindPortalsLeadingToArea_R@@YAXPAUnode_t@@HHPAUplane_t@@AAV?$CUtlVector@PAUportal_t@@V?$CUtlMemory@PAUportal_t@@@@@@@Z 00435240 f   portals.obj
 0001:00034420       ?EmitClipPortalGeometry@@YAXPAUnode_t@@PAUportal_t@@HPAUdareaportal_t@@@Z 00435420 f   portals.obj
 0001:000348c0       ?EmitAreaPortals@@YAXPAUnode_t@@@Z 004358c0 f   portals.obj
 0001:00034ca0       ?FindPortalSide@@YAXPAUportal_t@@@Z 00435ca0 f   portals.obj
 0001:00034e70       ?MarkVisibleSides_r@@YAXPAUnode_t@@@Z 00435e70 f   portals.obj
 0001:00034ee0       ?MarkVisibleSides@@YAXPAUtree_t@@HHH@Z 00435ee0 f   portals.obj
 0001:00034f60       ?MarkVisibleSides@@YAXPAUtree_t@@PAPAUmapbrush_t@@H@Z 00435f60 f   portals.obj
 0001:00034fc0       ?WriteFloat@@YAXPAU_iobuf@@M@Z 00435fc0 f   prtfile.obj
 0001:00035050       ?AddBSPPortal@@YAPAUdportal_t@@PAUportal_t@@AAVVector@@MH@Z 00436050 f   prtfile.obj
 0001:00035140       ?WritePortalFile_r@@YAXPAUnode_t@@@Z 00436140 f   prtfile.obj
 0001:00035310       ?FillLeafNumbers_r@@YAXPAUnode_t@@H@Z 00436310 f   prtfile.obj
 0001:00035350       ?NumberLeafs_r@@YAXPAUnode_t@@@Z 00436350 f   prtfile.obj
 0001:000353e0       ?CreateVisPortals_r@@YAXPAUnode_t@@@Z 004363e0 f   prtfile.obj
 0001:00035420       ?SaveClusters_r@@YAXPAUnode_t@@@Z 00436420 f   prtfile.obj
 0001:00035470       ?SaveClusterPortalList@@YAXXZ 00436470 f   prtfile.obj
 0001:00035520       ?WritePortalFile@@YAXPAUtree_t@@@Z 00436520 f   prtfile.obj
 0001:00035680       ?VectorMultiply@@YAXABVVector@@0AAV1@@Z 00436680 f i ScratchPad3D.obj
 0001:000356b0       ?VectorDivide@@YAXABVVector@@0AAV1@@Z 004366b0 f i ScratchPad3D.obj
 0001:000356e0       ??DVector@@QBE?AV0@ABV0@@Z 004366e0 f i ScratchPad3D.obj
 0001:00035710       ??KVector@@QBE?AV0@ABV0@@Z 00436710 f i ScratchPad3D.obj
 0001:00035740       ??4QAngle@@QAEAAV0@ABV0@@Z 00436740 f i ScratchPad3D.obj
 0001:00035760       ??0CSPColor@@QAE@XZ        00436760 f i ScratchPad3D.obj
 0001:00035770       ??0CSPColor@@QAE@ABVVector@@M@Z 00436770 f i ScratchPad3D.obj
 0001:00035790       ??0CSPColor@@QAE@MMMM@Z    00436790 f i ScratchPad3D.obj
 0001:000357b0       ??1IScratchPad3D@@MAE@XZ   004367b0 f i ScratchPad3D.obj
 0001:000357c0       ??_EIScratchPad3D@@MAEPAXI@Z 004367c0 f i ScratchPad3D.obj
 0001:000357c0       ??_GIScratchPad3D@@MAEPAXI@Z 004367c0 f i ScratchPad3D.obj
 0001:000357e0       ??0CTextParams@@QAE@XZ     004367e0 f i ScratchPad3D.obj
 0001:00035820       ??0CSPVert@@QAE@XZ         00436820 f i ScratchPad3D.obj
 0001:00035830       ??4CSPColor@@QAEAAV0@ABV0@@Z 00436830 f i ScratchPad3D.obj
 0001:00035850       ?Init@VMatrix@@QAEXMMMMMMMMMMMMMMMM@Z 00436850 f i ScratchPad3D.obj
 0001:000358d0       ??0CBaseCommand@CScratchPad3D@@QAE@E@Z 004368d0 f i ScratchPad3D.obj
 0001:000358f0       ?ReleaseCachedRenderData@CBaseCommand@CScratchPad3D@@QAEXXZ 004368f0 f i ScratchPad3D.obj
 0001:00035910       ??0CFileRead@@QAE@PAVIFileSystem@@PAX@Z 00436910 f i ScratchPad3D.obj
 0001:00035930       ?Read@CFileRead@@QAE_NPAXH@Z 00436930 f i ScratchPad3D.obj
 0001:00035960       ?Read@CCommand_Point@CScratchPad3D@@UAEXPAVCFileRead@@@Z 00436960 f   ScratchPad3D.obj
 0001:000359a0       ?Write@CCommand_Point@CScratchPad3D@@UAEXPAVIFileSystem@@PAX@Z 004369a0 f   ScratchPad3D.obj
 0001:000359e0       ?Read@CCommand_Line@CScratchPad3D@@UAEXPAVCFileRead@@@Z 004369e0 f   ScratchPad3D.obj
 0001:00035a10       ?Write@CCommand_Line@CScratchPad3D@@UAEXPAVIFileSystem@@PAX@Z 00436a10 f   ScratchPad3D.obj
 0001:00035a40       ?Read@CCommand_Matrix@CScratchPad3D@@UAEXPAVCFileRead@@@Z 00436a40 f   ScratchPad3D.obj
 0001:00035a70       ?Write@CCommand_Matrix@CScratchPad3D@@UAEXPAVIFileSystem@@PAX@Z 00436a70 f   ScratchPad3D.obj
 0001:00035aa0       ?Read@CCommand_RenderState@CScratchPad3D@@UAEXPAVCFileRead@@@Z 00436aa0 f   ScratchPad3D.obj
 0001:00035ae0       ?Write@CCommand_RenderState@CScratchPad3D@@UAEXPAVIFileSystem@@PAX@Z 00436ae0 f   ScratchPad3D.obj
 0001:00035b20       ??0IScratchPad3D@@QAE@XZ   00436b20 f i ScratchPad3D.obj
 0001:00035b30       ?AutoFlush@CScratchPad3D@@QAEXXZ 00436b30 f   ScratchPad3D.obj
 0001:00035b40       ?Release@CScratchPad3D@@UAEXXZ 00436b40 f   ScratchPad3D.obj
 0001:00035b60       ?GetAutoFlush@CScratchPad3D@@UAE_NXZ 00436b60 f   ScratchPad3D.obj
 0001:00035b70       ?SetAutoFlush@CScratchPad3D@@UAEX_N@Z 00436b70 f   ScratchPad3D.obj
 0001:00035b90       ??4CSPVert@@QAEAAV0@ABV0@@Z 00436b90 f i ScratchPad3D.obj
 0001:00035bd0       ??4CTextParams@@QAEAAV0@ABV0@@Z 00436bd0 f i ScratchPad3D.obj
 0001:00035c40       ?DrawImageBW@CScratchPad3D@@UAEXPBEHHH_N1PAVVector@@@Z 00436c40 f   ScratchPad3D.obj
 0001:00035d00       ?ScratchPad3D_SetupFileSystem@@YAPAVIFileSystem@@XZ 00436d00 f   ScratchPad3D.obj
 0001:00035d40       ?Size@?$CUtlVector@VCSPVert@@V?$CUtlMemory@VCSPVert@@@@@@QBEHXZ 00436d40 f i ScratchPad3D.obj
 0001:00035d50       ?Size@?$CUtlVector@PAVCBaseCommand@CScratchPad3D@@V?$CUtlMemory@PAVCBaseCommand@CScratchPad3D@@@@@@QBEHXZ 00436d50 f i ScratchPad3D.obj
 0001:00035d60       ?Count@?$CUtlVector@VCSPVert@@V?$CUtlMemory@VCSPVert@@@@@@QBEHXZ 00436d60 f i ScratchPad3D.obj
 0001:00035d70       ?Base@?$CUtlMemory@VCSPVert@@@@QAEPAVCSPVert@@XZ 00436d70 f i ScratchPad3D.obj
 0001:00035d80       ??$Destruct@VCSPVert@@@@YAXPAVCSPVert@@@Z 00436d80 f i ScratchPad3D.obj
 0001:00035d90       ?Base@?$CUtlMemory@PAVCBaseCommand@CScratchPad3D@@@@QAEPAPAVCBaseCommand@CScratchPad3D@@XZ 00436d90 f i ScratchPad3D.obj
 0001:00035da0       ??$Destruct@PAVCBaseCommand@CScratchPad3D@@@@YAXPAPAVCBaseCommand@CScratchPad3D@@@Z 00436da0 f i ScratchPad3D.obj
 0001:00035db0       ?ValidateGrowSize@?$CUtlMemory@VCSPVert@@@@IAEXXZ 00436db0 f i ScratchPad3D.obj
 0001:00035dc0       ?ValidateGrowSize@?$CUtlMemory@PAVCBaseCommand@CScratchPad3D@@@@IAEXXZ 00436dc0 f i ScratchPad3D.obj
 0001:00035dd0       ??$Construct@VCSPVert@@@@YAXPAVCSPVert@@@Z 00436dd0 f i ScratchPad3D.obj
 0001:00035de0       ?Base@?$CUtlMemory@VCSPVert@@@@QBEPBVCSPVert@@XZ 00436de0 f i ScratchPad3D.obj
 0001:00035df0       ??$CopyConstruct@PAVCBaseCommand@CScratchPad3D@@@@YAXPAPAVCBaseCommand@CScratchPad3D@@ABQAV01@@Z 00436df0 f i ScratchPad3D.obj
 0001:00035e10       ?NumAllocated@?$CUtlMemory@VCSPVert@@@@QBEHXZ 00436e10 f i ScratchPad3D.obj
 0001:00035e20       ?IsExternallyAllocated@?$CUtlMemory@VCSPVert@@@@QBE_NXZ 00436e20 f i ScratchPad3D.obj
 0001:00035e30       ?NumAllocated@?$CUtlMemory@PAVCBaseCommand@CScratchPad3D@@@@QBEHXZ 00436e30 f i ScratchPad3D.obj
 0001:00035e40       ?IsExternallyAllocated@?$CUtlMemory@PAVCBaseCommand@CScratchPad3D@@@@QBE_NXZ 00436e40 f i ScratchPad3D.obj
 0001:00035e50       ?Init@CSPVert@@QAEXABVVector@@ABVCSPColor@@@Z 00436e50 f i ScratchPad3D.obj
 0001:00035e90       ??1CBaseCommand@CScratchPad3D@@QAE@XZ 00436e90 f i ScratchPad3D.obj
 0001:00035eb0       ??0CCommand_Point@CScratchPad3D@@QAE@XZ 00436eb0 f i ScratchPad3D.obj
 0001:00035ed0       ??0CCommand_Line@CScratchPad3D@@QAE@XZ 00436ed0 f i ScratchPad3D.obj
 0001:00035ef0       ??0CCommand_Matrix@CScratchPad3D@@QAE@XZ 00436ef0 f i ScratchPad3D.obj
 0001:00035f10       ??0CCommand_RenderState@CScratchPad3D@@QAE@XZ 00436f10 f i ScratchPad3D.obj
 0001:00035f30       ??_GCBaseCommand@CScratchPad3D@@QAEPAXI@Z 00436f30 f i ScratchPad3D.obj
 0001:00035f70       ?Base@?$CUtlVector@VCSPVert@@V?$CUtlMemory@VCSPVert@@@@@@QAEPAVCSPVert@@XZ 00436f70 f i ScratchPad3D.obj
 0001:00035f80       ?ResetDbgInfo@?$CUtlVector@VCSPVert@@V?$CUtlMemory@VCSPVert@@@@@@IAEXXZ 00436f80 f i ScratchPad3D.obj
 0001:00035f90       ?Base@?$CUtlVector@PAVCBaseCommand@CScratchPad3D@@V?$CUtlMemory@PAVCBaseCommand@CScratchPad3D@@@@@@QAEPAPAVCBaseCommand@CScratchPad3D@@XZ 00436f90 f i ScratchPad3D.obj
 0001:00035fa0       ?ResetDbgInfo@?$CUtlVector@PAVCBaseCommand@CScratchPad3D@@V?$CUtlMemory@PAVCBaseCommand@CScratchPad3D@@@@@@IAEXXZ 00436fa0 f i ScratchPad3D.obj
 0001:00035fb0       ?Element@?$CUtlVector@VCSPVert@@V?$CUtlMemory@VCSPVert@@@@@@QAEAAVCSPVert@@H@Z 00436fb0 f i ScratchPad3D.obj
 0001:00035fd0       ??0?$CUtlMemory@VCSPVert@@@@QAE@HH@Z 00436fd0 f i ScratchPad3D.obj
 0001:00036020       ??A?$CUtlVector@DV?$CUtlMemory@D@@@@QAEAADH@Z 00437020 f i ScratchPad3D.obj
 0001:00036030       ?Element@?$CUtlVector@PAVCBaseCommand@CScratchPad3D@@V?$CUtlMemory@PAVCBaseCommand@CScratchPad3D@@@@@@QAEAAPAVCBaseCommand@CScratchPad3D@@H@Z 00437030 f i ScratchPad3D.obj
 0001:00036040       ??0?$CUtlMemory@PAVCBaseCommand@CScratchPad3D@@@@QAE@HH@Z 00437040 f i ScratchPad3D.obj
 0001:00036080       ?Base@?$CUtlVector@VCSPVert@@V?$CUtlMemory@VCSPVert@@@@@@QBEPBVCSPVert@@XZ 00437080 f i ScratchPad3D.obj
 0001:00036090       ?ShiftElementsRight@?$CUtlVector@VCSPVert@@V?$CUtlMemory@VCSPVert@@@@@@IAEXHH@Z 00437090 f i ScratchPad3D.obj
 0001:000360f0       ?Purge@?$CUtlMemory@VCSPVert@@@@QAEXXZ 004370f0 f i ScratchPad3D.obj
 0001:00036120       ?ShiftElementsRight@?$CUtlVector@PAVCBaseCommand@CScratchPad3D@@V?$CUtlMemory@PAVCBaseCommand@CScratchPad3D@@@@@@IAEXHH@Z 00437120 f i ScratchPad3D.obj
 0001:00036160       ?Purge@?$CUtlMemory@PAVCBaseCommand@CScratchPad3D@@@@QAEXXZ 00437160 f i ScratchPad3D.obj
 0001:00036190       ?Grow@?$CUtlMemory@VCSPVert@@@@QAEXH@Z 00437190 f i ScratchPad3D.obj
 0001:00036220       ?Grow@?$CUtlMemory@PAVCBaseCommand@CScratchPad3D@@@@QAEXH@Z 00437220 f i ScratchPad3D.obj
 0001:00036290       ??0CSPVert@@QAE@ABVVector@@ABVCSPColor@@@Z 00437290 f i ScratchPad3D.obj
 0001:000362d0       ?Write@CCommand_Text@CScratchPad3D@@UAEXPAVIFileSystem@@PAX@Z 004372d0 f   ScratchPad3D.obj
 0001:00036330       ?DrawWireframeBox@CScratchPad3D@@UAEXABVVector@@00@Z 00437330 f   ScratchPad3D.obj
 0001:00036d00       ??A?$CUtlVector@VCSPVert@@V?$CUtlMemory@VCSPVert@@@@@@QAEAAVCSPVert@@H@Z 00437d00 f i ScratchPad3D.obj
 0001:00036d20       ?RemoveAll@?$CUtlVector@VCSPVert@@V?$CUtlMemory@VCSPVert@@@@@@QAEXXZ 00437d20 f i ScratchPad3D.obj
 0001:00036d30       ??A?$CUtlVector@PAVCBaseCommand@CScratchPad3D@@V?$CUtlMemory@PAVCBaseCommand@CScratchPad3D@@@@@@QAEAAPAVCBaseCommand@CScratchPad3D@@H@Z 00437d30 f i ScratchPad3D.obj
 0001:00036d40       ?RemoveAll@?$CUtlVector@PAVCBaseCommand@CScratchPad3D@@V?$CUtlMemory@PAVCBaseCommand@CScratchPad3D@@@@@@QAEXXZ 00437d40 f i ScratchPad3D.obj
 0001:00036d50       ??A?$CUtlVector@VCSPVert@@V?$CUtlMemory@VCSPVert@@@@@@QBEABVCSPVert@@H@Z 00437d50 f i ScratchPad3D.obj
 0001:00036d70       ?Purge@?$CUtlVector@VCSPVert@@V?$CUtlMemory@VCSPVert@@@@@@QAEXXZ 00437d70 f i ScratchPad3D.obj
 0001:00036dc0       ??1?$CUtlMemory@VCSPVert@@@@QAE@XZ 00437dc0 f i ScratchPad3D.obj
 0001:00036df0       ?Purge@?$CUtlVector@PAVCBaseCommand@CScratchPad3D@@V?$CUtlMemory@PAVCBaseCommand@CScratchPad3D@@@@@@QAEXXZ 00437df0 f i ScratchPad3D.obj
 0001:00036e40       ??1?$CUtlMemory@PAVCBaseCommand@CScratchPad3D@@@@QAE@XZ 00437e40 f i ScratchPad3D.obj
 0001:00036e70       ?GrowVector@?$CUtlVector@VCSPVert@@V?$CUtlMemory@VCSPVert@@@@@@IAEXH@Z 00437e70 f i ScratchPad3D.obj
 0001:00036ea0       ?GrowVector@?$CUtlVector@PAVCBaseCommand@CScratchPad3D@@V?$CUtlMemory@PAVCBaseCommand@CScratchPad3D@@@@@@IAEXH@Z 00437ea0 f i ScratchPad3D.obj
 0001:00036ed0       ?Write@CCommand_Polygon@CScratchPad3D@@UAEXPAVIFileSystem@@PAX@Z 00437ed0 f   ScratchPad3D.obj
 0001:00036f30       ?DeleteCommands@CScratchPad3D@@QAEXXZ 00437f30 f   ScratchPad3D.obj
 0001:00036f80       ?Clear@CScratchPad3D@@UAEXXZ 00437f80 f   ScratchPad3D.obj
 0001:00036fe0       ?Flush@CScratchPad3D@@UAEXXZ 00437fe0 f   ScratchPad3D.obj
 0001:00037080       ??0?$CUtlVector@VCSPVert@@V?$CUtlMemory@VCSPVert@@@@@@QAE@HH@Z 00438080 f i ScratchPad3D.obj
 0001:000370d0       ??1?$CUtlVector@VCSPVert@@V?$CUtlMemory@VCSPVert@@@@@@QAE@XZ 004380d0 f i ScratchPad3D.obj
 0001:00037140       ??0?$CUtlVector@PAVCBaseCommand@CScratchPad3D@@V?$CUtlMemory@PAVCBaseCommand@CScratchPad3D@@@@@@QAE@HH@Z 00438140 f i ScratchPad3D.obj
 0001:00037190       ??1?$CUtlVector@PAVCBaseCommand@CScratchPad3D@@V?$CUtlMemory@PAVCBaseCommand@CScratchPad3D@@@@@@QAE@XZ 00438190 f i ScratchPad3D.obj
 0001:00037200       ?InsertMultipleBefore@?$CUtlVector@VCSPVert@@V?$CUtlMemory@VCSPVert@@@@@@QAEHHHPBVCSPVert@@@Z 00438200 f i ScratchPad3D.obj
 0001:00037460       ?InsertBefore@?$CUtlVector@PAVCBaseCommand@CScratchPad3D@@V?$CUtlMemory@PAVCBaseCommand@CScratchPad3D@@@@@@QAEHHABQAVCBaseCommand@CScratchPad3D@@@Z 00438460 f i ScratchPad3D.obj
 0001:000374d0       ??0CCommand_Polygon@CScratchPad3D@@QAE@XZ 004384d0 f i ScratchPad3D.obj
 0001:00037500       ??0CScratchPad3D@@QAE@PBDPAVIFileSystem@@_N@Z 00438500 f   ScratchPad3D.obj
 0001:00037540       ??1CScratchPad3D@@UAE@XZ   00438540 f i ScratchPad3D.obj
 0001:00037560       ??1CSPVertList@@QAE@XZ     00438560 f i ScratchPad3D.obj
 0001:00037570       ?ScratchPad3D_Create@@YAPAVIScratchPad3D@@PBD@Z 00438570 f   ScratchPad3D.obj
 0001:00037600       ?AddMultipleToTail@?$CUtlVector@VCSPVert@@V?$CUtlMemory@VCSPVert@@@@@@QAEHHPBVCSPVert@@@Z 00438600 f i ScratchPad3D.obj
 0001:00037620       ?AddVectorToTail@?$CUtlVector@VCSPVert@@V?$CUtlMemory@VCSPVert@@@@@@QAEHABV1@@Z 00438620 f i ScratchPad3D.obj
 0001:000376b0       ?AddToTail@?$CUtlVector@PAVCBaseCommand@CScratchPad3D@@V?$CUtlMemory@PAVCBaseCommand@CScratchPad3D@@@@@@QAEHABQAVCBaseCommand@CScratchPad3D@@@Z 004386b0 f i ScratchPad3D.obj
 0001:000376d0       ?SetCount@?$CUtlVector@DV?$CUtlMemory@D@@@@QAEXH@Z 004386d0 f i ScratchPad3D.obj
 0001:00037720       ??0CSPVertList@@QAE@PBVVector@@HVCSPColor@@@Z 00438720 f i ScratchPad3D.obj
 0001:000378d0       ??0CCommand_Text@CScratchPad3D@@QAE@XZ 004388d0 f i ScratchPad3D.obj
 0001:00037930       ?Read@CCommand_Polygon@CScratchPad3D@@UAEXPAVCFileRead@@@Z 00438930 f   ScratchPad3D.obj
 0001:000379a0       ??_GCScratchPad3D@@UAEPAXI@Z 004389a0 f i ScratchPad3D.obj
 0001:000379a0       ??_ECScratchPad3D@@UAEPAXI@Z 004389a0 f i ScratchPad3D.obj
 0001:000379d0       ?DrawRectGeneric@CScratchPad3D@@QAEXHHHMABVVector2D@@0ABVCSPColor@@@Z 004389d0 f   ScratchPad3D.obj
 0001:00037a80       ?LoadCommandsFromFile@CScratchPad3D@@QAE_NXZ 00438a80 f   ScratchPad3D.obj
 0001:00037cc0       ?SetMapping@CScratchPad3D@@UAEXABVVector@@000@Z 00438cc0 f   ScratchPad3D.obj
 0001:00037eb0       ?DrawPoint@CScratchPad3D@@UAEXABVCSPVert@@M@Z 00438eb0 f   ScratchPad3D.obj
 0001:00037f40       ?DrawLine@CScratchPad3D@@UAEXABVCSPVert@@0@Z 00438f40 f   ScratchPad3D.obj
 0001:00038000       ?DrawPolygon@CScratchPad3D@@UAEXABVCSPVertList@@@Z 00439000 f   ScratchPad3D.obj
 0001:00038070       ?DrawRectYZ@CScratchPad3D@@UAEXMABVVector2D@@0ABVCSPColor@@@Z 00439070 f   ScratchPad3D.obj
 0001:000380a0       ?DrawRectXZ@CScratchPad3D@@UAEXMABVVector2D@@0ABVCSPColor@@@Z 004390a0 f   ScratchPad3D.obj
 0001:000380d0       ?DrawRectXY@CScratchPad3D@@UAEXMABVVector2D@@0ABVCSPColor@@@Z 004390d0 f   ScratchPad3D.obj
 0001:00038100       ?SetRenderState@CScratchPad3D@@UAEXW4RenderState@IScratchPad3D@@K@Z 00439100 f   ScratchPad3D.obj
 0001:00038150       ?DrawPolygonsForPixels@CScratchPad3D@@QAEXPAVSPRGBA@@HHHPAVVector@@@Z 00439150 f   ScratchPad3D.obj
 0001:000387b0       ?DrawImageRGBA@CScratchPad3D@@UAEXPAVSPRGBA@@HHH_N1PAVVector@@@Z 004397b0 f   ScratchPad3D.obj
 0001:000388f0       ?SetSize@?$CUtlVector@DV?$CUtlMemory@D@@@@QAEXH@Z 004398f0 f i ScratchPad3D.obj
 0001:00038940       ?CopyArray@?$CUtlVector@DV?$CUtlMemory@D@@@@QAEXPBDH@Z 00439940 f i ScratchPad3D.obj
 0001:000389b0       ?Read@CCommand_Text@CScratchPad3D@@UAEXPAVCFileRead@@@Z 004399b0 f   ScratchPad3D.obj
 0001:00038a60       ?DrawText@CScratchPad3D@@UAEXPBDABVCTextParams@@@Z 00439a60 f   ScratchPad3D.obj
 0001:00038ae0       ??_0Vector@@QAEAAV0@M@Z    00439ae0 f i scratchpad_helpers.obj
 0001:00038b10       ?Count@?$CUtlVector@VVector@@V?$CUtlMemory@VVector@@@@@@QBEHXZ 00439b10 f i scratchpad_helpers.obj
 0001:00038b20       ?ScratchPad_DrawWinding@@YAXPAVIScratchPad3D@@HPAVVector@@V2@2@Z 00439b20 f   scratchpad_helpers.obj
 0001:00038c60       ?ScratchPad_DrawFace@@YAXPAVIScratchPad3D@@PAUdface_t@@HABVCSPColor@@ABVVector@@@Z 00439c60 f   scratchpad_helpers.obj
 0001:00038f80       ?ScratchPad_DrawWorld@@YAXPAVIScratchPad3D@@_NABVCSPColor@@@Z 00439f80 f   scratchpad_helpers.obj
 0001:00039070       ?ScratchPad_DrawWorld@@YAX_NABVCSPColor@@@Z 0043a070 f   scratchpad_helpers.obj
 0001:000390a0       ?strchr@@YAPADPADH@Z       0043a0a0 f i StaticProp.obj
 0001:000390b0       ?V_strcmp@@YAHPBD0@Z       0043a0b0 f i StaticProp.obj
 0001:000390e0       ?pMesh@mstudiomodel_t@@QBEPAUmstudiomesh_t@@H@Z 0043a0e0 f i StaticProp.obj
 0001:000390f0       ?Vertex@mstudio_modelvertexdata_t@@QBEPAUmstudiovertex_t@@H@Z 0043a0f0 f i StaticProp.obj
 0001:00039110       ?Position@mstudio_modelvertexdata_t@@QBEPAVVector@@H@Z 0043a110 f i StaticProp.obj
 0001:00039130       ?pModel@mstudiomesh_t@@QBEPAUmstudiomodel_t@@XZ 0043a130 f i StaticProp.obj
 0001:00039140       ?Position@mstudio_meshvertexdata_t@@QBEPAVVector@@H@Z 0043a140 f i StaticProp.obj
 0001:00039160       ?pModel@mstudiobodyparts_t@@QBEPAUmstudiomodel_t@@H@Z 0043a160 f i StaticProp.obj
 0001:00039180       ?pszName@studiohdr_t@@QBEPBDXZ 0043a180 f i StaticProp.obj
 0001:00039190       ?pBodypart@studiohdr_t@@QBEPAUmstudiobodyparts_t@@H@Z 0043a190 f i StaticProp.obj
 0001:000391b0       ?KeyValueText@studiohdr_t@@QBEPBDXZ 0043a1b0 f i StaticProp.obj
 0001:000391d0       ?Studio_ConvertStudioHdrToNewVersion@@YAXPAUstudiohdr_t@@@Z 0043a1d0 f i StaticProp.obj
 0001:00039200       ?StudioKeyValues@@YA_NPAUstudiohdr_t@@PAVKeyValues@@@Z 0043a200 f   StaticProp.obj
 0001:00039250       ?IsStaticProp@@YA?AW4isstaticprop_ret@@PAUstudiohdr_t@@@Z 0043a250 f   StaticProp.obj
 0001:000392f0       ??0ModelCollisionLookup_t@@QAE@XZ 0043a2f0 f i StaticProp.obj
 0001:00039300       ??0StaticPropBuild_t@@QAE@XZ 0043a300 f i StaticProp.obj
 0001:00039350       ?GetVertexData@mstudiomodel_t@@QAEPBUmstudio_modelvertexdata_t@@XZ 0043a350 f   StaticProp.obj
 0001:00039530       ??A?$CUtlMemory@E@@QBEABEH@Z 0043a530 f i StaticProp.obj
 0001:00039540       ?Base@?$CUtlMemory@UStaticPropDictLump_t@@@@QAEPAUStaticPropDictLump_t@@XZ 0043a540 f i StaticProp.obj
 0001:00039550       ?Size@?$CUtlVector@UStaticPropDictLump_t@@V?$CUtlMemory@UStaticPropDictLump_t@@@@@@QBEHXZ 0043a550 f i StaticProp.obj
 0001:00039560       ?Base@?$CUtlMemory@UStaticPropLump_t@@@@QAEPAUStaticPropLump_t@@XZ 0043a560 f i StaticProp.obj
 0001:00039570       ?Size@?$CUtlVector@UStaticPropLump_t@@V?$CUtlMemory@UStaticPropLump_t@@@@@@QBEHXZ 0043a570 f i StaticProp.obj
 0001:00039580       ?Base@?$CUtlMemory@UStaticPropLeafLump_t@@@@QAEPAUStaticPropLeafLump_t@@XZ 0043a580 f i StaticProp.obj
 0001:00039590       ?Count@?$CUtlVector@UStaticPropLeafLump_t@@V?$CUtlMemory@UStaticPropLeafLump_t@@@@@@QBEHXZ 0043a590 f i StaticProp.obj
 0001:000395a0       ?Size@?$CUtlVector@UStaticPropLeafLump_t@@V?$CUtlMemory@UStaticPropLeafLump_t@@@@@@QBEHXZ 0043a5a0 f i StaticProp.obj
 0001:000395b0       ?InvalidIndex@?$CUtlRBTree@UModelCollisionLookup_t@@GP6A_NABU1@0@Z@@SAGXZ 0043a5b0 f i StaticProp.obj
 0001:000395c0       ?Size@?$CUtlVector@PAVCPhysConvex@@V?$CUtlMemory@PAVCPhysConvex@@@@@@QBEHXZ 0043a5c0 f i StaticProp.obj
 0001:000395d0       ?Base@?$CUtlMemory@UNode_t@?$CUtlRBTree@UModelCollisionLookup_t@@GP6A_NABU1@0@Z@@@@QAEPAUNode_t@?$CUtlRBTree@UModelCollisionLookup_t@@GP6A_NABU1@0@Z@@XZ 0043a5d0 f i StaticProp.obj
 0001:000395e0       ??0ModelCollisionLookup_t@@QAE@ABU0@@Z 0043a5e0 f i StaticProp.obj
 0001:00039600       ?ValidateGrowSize@?$CUtlMemory@UStaticPropDictLump_t@@@@IAEXXZ 0043a600 f i StaticProp.obj
 0001:00039610       ?ValidateGrowSize@?$CUtlMemory@UStaticPropLump_t@@@@IAEXXZ 0043a610 f i StaticProp.obj
 0001:00039620       ?ValidateGrowSize@?$CUtlMemory@UStaticPropLeafLump_t@@@@IAEXXZ 0043a620 f i StaticProp.obj
 0001:00039630       ?ValidateGrowSize@?$CUtlMemory@UNode_t@?$CUtlRBTree@UModelCollisionLookup_t@@GP6A_NABU1@0@Z@@@@IAEXXZ 0043a630 f i StaticProp.obj
 0001:00039640       ??$CopyConstruct@UStaticPropDictLump_t@@@@YAXPAUStaticPropDictLump_t@@ABU0@@Z 0043a640 f i StaticProp.obj
 0001:00039660       ??$CopyConstruct@UStaticPropLeafLump_t@@@@YAXPAUStaticPropLeafLump_t@@ABU0@@Z 0043a660 f i StaticProp.obj
 0001:00039680       ??A?$CUtlMemory@UNode_t@?$CUtlRBTree@UModelCollisionLookup_t@@GP6A_NABU1@0@Z@@@@QBEABUNode_t@?$CUtlRBTree@UModelCollisionLookup_t@@GP6A_NABU1@0@Z@@H@Z 0043a680 f i StaticProp.obj
 0001:00039690       ??A?$CUtlMemory@UNode_t@?$CUtlRBTree@UModelCollisionLookup_t@@GP6A_NABU1@0@Z@@@@QAEAAUNode_t@?$CUtlRBTree@UModelCollisionLookup_t@@GP6A_NABU1@0@Z@@H@Z 0043a690 f i StaticProp.obj
 0001:000396a0       ??$Destruct@UModelCollisionLookup_t@@@@YAXPAUModelCollisionLookup_t@@@Z 0043a6a0 f i StaticProp.obj
 0001:000396b0       ??0StaticPropLump_t@@QAE@XZ 0043a6b0 f i StaticProp.obj
 0001:000396c0       ?NumAllocated@?$CUtlMemory@UStaticPropDictLump_t@@@@QBEHXZ 0043a6c0 f i StaticProp.obj
 0001:000396d0       ?IsExternallyAllocated@?$CUtlMemory@UStaticPropDictLump_t@@@@QBE_NXZ 0043a6d0 f i StaticProp.obj
 0001:000396e0       ??$Destruct@UStaticPropDictLump_t@@@@YAXPAUStaticPropDictLump_t@@@Z 0043a6e0 f i StaticProp.obj
 0001:000396f0       ?NumAllocated@?$CUtlMemory@UStaticPropLump_t@@@@QBEHXZ 0043a6f0 f i StaticProp.obj
 0001:00039700       ?IsExternallyAllocated@?$CUtlMemory@UStaticPropLump_t@@@@QBE_NXZ 0043a700 f i StaticProp.obj
 0001:00039710       ??$Destruct@UStaticPropLump_t@@@@YAXPAUStaticPropLump_t@@@Z 0043a710 f i StaticProp.obj
 0001:00039720       ?NumAllocated@?$CUtlMemory@UStaticPropLeafLump_t@@@@QBEHXZ 0043a720 f i StaticProp.obj
 0001:00039730       ?IsExternallyAllocated@?$CUtlMemory@UStaticPropLeafLump_t@@@@QBE_NXZ 0043a730 f i StaticProp.obj
 0001:00039740       ??$Destruct@UStaticPropLeafLump_t@@@@YAXPAUStaticPropLeafLump_t@@@Z 0043a740 f i StaticProp.obj
 0001:00039750       ?Links@?$CUtlRBTree@UModelCollisionLookup_t@@GP6A_NABU1@0@Z@@IAEAAULinks_t@1@G@Z 0043a750 f i StaticProp.obj
 0001:00039760       ?IsIdxValid@?$CUtlMemory@UNode_t@?$CUtlRBTree@UModelCollisionLookup_t@@GP6A_NABU1@0@Z@@@@QBE_NH@Z 0043a760 f i StaticProp.obj
 0001:00039780       ?NumAllocated@?$CUtlMemory@UNode_t@?$CUtlRBTree@UModelCollisionLookup_t@@GP6A_NABU1@0@Z@@@@QBEHXZ 0043a780 f i StaticProp.obj
 0001:00039790       ?IsExternallyAllocated@?$CUtlMemory@UNode_t@?$CUtlRBTree@UModelCollisionLookup_t@@GP6A_NABU1@0@Z@@@@QBE_NXZ 0043a790 f i StaticProp.obj
 0001:000397a0       ??$Construct@UModelCollisionLookup_t@@@@YAXPAUModelCollisionLookup_t@@@Z 0043a7a0 f i StaticProp.obj
 0001:000397b0       ?IsRoot@?$CUtlRBTree@UModelCollisionLookup_t@@GP6A_NABU1@0@Z@@QBE_NG@Z 0043a7b0 f i StaticProp.obj
 0001:000397d0       ?SetColor@?$CUtlRBTree@UModelCollisionLookup_t@@GP6A_NABU1@0@Z@@IAEXGW4NodeColor_t@1@@Z 0043a7d0 f i StaticProp.obj
 0001:000397f0       ?SetParent@?$CUtlRBTree@UModelCollisionLookup_t@@GP6A_NABU1@0@Z@@IAEXGG@Z 0043a7f0 f i StaticProp.obj
 0001:00039810       ?SetLeftChild@?$CUtlRBTree@UModelCollisionLookup_t@@GP6A_NABU1@0@Z@@IAEXGG@Z 0043a810 f i StaticProp.obj
 0001:00039830       ?SetRightChild@?$CUtlRBTree@UModelCollisionLookup_t@@GP6A_NABU1@0@Z@@IAEXGG@Z 0043a830 f i StaticProp.obj
 0001:00039850       ?GetVertexData@mstudiomesh_t@@QAEPBUmstudio_meshvertexdata_t@@XZ 0043a850 f i StaticProp.obj
 0001:00039870       ?PeekGet@CUtlBuffer@@QBEPBXH@Z 0043a870 f i StaticProp.obj
 0001:00039880       ?LoadStudioModel@@YA_NPBD0AAVCUtlBuffer@@@Z 0043a880 f   StaticProp.obj
 0001:00039c70       ?Base@?$CUtlVector@UStaticPropDictLump_t@@V?$CUtlMemory@UStaticPropDictLump_t@@@@@@QAEPAUStaticPropDictLump_t@@XZ 0043ac70 f i StaticProp.obj
 0001:00039c80       ?Base@?$CUtlVector@UStaticPropLump_t@@V?$CUtlMemory@UStaticPropLump_t@@@@@@QAEPAUStaticPropLump_t@@XZ 0043ac80 f i StaticProp.obj
 0001:00039c90       ?Base@?$CUtlVector@UStaticPropLeafLump_t@@V?$CUtlMemory@UStaticPropLeafLump_t@@@@@@QAEPAUStaticPropLeafLump_t@@XZ 0043ac90 f i StaticProp.obj
 0001:00039ca0       ??A?$CUtlVector@UStaticPropDictLump_t@@V?$CUtlMemory@UStaticPropDictLump_t@@@@@@QAEAAUStaticPropDictLump_t@@H@Z 0043aca0 f i StaticProp.obj
 0001:00039cb0       ??A?$CUtlVector@UStaticPropLump_t@@V?$CUtlMemory@UStaticPropLump_t@@@@@@QAEAAUStaticPropLump_t@@H@Z 0043acb0 f i StaticProp.obj
 0001:00039cd0       ?ResetDbgInfo@?$CUtlVector@UStaticPropDictLump_t@@V?$CUtlMemory@UStaticPropDictLump_t@@@@@@IAEXXZ 0043acd0 f i StaticProp.obj
 0001:00039ce0       ?ResetDbgInfo@?$CUtlVector@UStaticPropLump_t@@V?$CUtlMemory@UStaticPropLump_t@@@@@@IAEXXZ 0043ace0 f i StaticProp.obj
 0001:00039cf0       ?ResetDbgInfo@?$CUtlVector@UStaticPropLeafLump_t@@V?$CUtlMemory@UStaticPropLeafLump_t@@@@@@IAEXXZ 0043acf0 f i StaticProp.obj
 0001:00039d00       ?ResetDbgInfo@?$CUtlRBTree@UModelCollisionLookup_t@@GP6A_NABU1@0@Z@@IAEXXZ 0043ad00 f i StaticProp.obj
 0001:00039d10       ??0?$CUtlMemory@UStaticPropDictLump_t@@@@QAE@HH@Z 0043ad10 f i StaticProp.obj
 0001:00039d50       ??0?$CUtlMemory@UStaticPropLump_t@@@@QAE@HH@Z 0043ad50 f i StaticProp.obj
 0001:00039d90       ??0?$CUtlMemory@UStaticPropLeafLump_t@@@@QAE@HH@Z 0043ad90 f i StaticProp.obj
 0001:00039dd0       ?Element@?$CUtlRBTree@UModelCollisionLookup_t@@GP6A_NABU1@0@Z@@QBEABUModelCollisionLookup_t@@G@Z 0043add0 f i StaticProp.obj
 0001:00039df0       ?Element@?$CUtlRBTree@UModelCollisionLookup_t@@GP6A_NABU1@0@Z@@QAEAAUModelCollisionLookup_t@@G@Z 0043adf0 f i StaticProp.obj
 0001:00039e10       ??0?$CUtlMemory@UNode_t@?$CUtlRBTree@UModelCollisionLookup_t@@GP6A_NABU1@0@Z@@@@QAE@HH@Z 0043ae10 f i StaticProp.obj
 0001:00039e50       ??$CopyConstruct@UModelCollisionLookup_t@@@@YAXPAUModelCollisionLookup_t@@ABU0@@Z 0043ae50 f i StaticProp.obj
 0001:00039e70       ?Purge@?$CUtlMemory@UStaticPropDictLump_t@@@@QAEXXZ 0043ae70 f i StaticProp.obj
 0001:00039ea0       ?Element@?$CUtlVector@UStaticPropDictLump_t@@V?$CUtlMemory@UStaticPropDictLump_t@@@@@@QAEAAUStaticPropDictLump_t@@H@Z 0043aea0 f i StaticProp.obj
 0001:00039eb0       ?RemoveAll@?$CUtlVector@UStaticPropDictLump_t@@V?$CUtlMemory@UStaticPropDictLump_t@@@@@@QAEXXZ 0043aeb0 f i StaticProp.obj
 0001:00039ec0       ?ShiftElementsRight@?$CUtlVector@UStaticPropDictLump_t@@V?$CUtlMemory@UStaticPropDictLump_t@@@@@@IAEXHH@Z 0043aec0 f i StaticProp.obj
 0001:00039f00       ?Purge@?$CUtlMemory@UStaticPropLump_t@@@@QAEXXZ 0043af00 f i StaticProp.obj
 0001:00039f30       ?Element@?$CUtlVector@UStaticPropLump_t@@V?$CUtlMemory@UStaticPropLump_t@@@@@@QAEAAUStaticPropLump_t@@H@Z 0043af30 f i StaticProp.obj
 0001:00039f50       ?RemoveAll@?$CUtlVector@UStaticPropLump_t@@V?$CUtlMemory@UStaticPropLump_t@@@@@@QAEXXZ 0043af50 f i StaticProp.obj
 0001:00039f60       ?ShiftElementsRight@?$CUtlVector@UStaticPropLump_t@@V?$CUtlMemory@UStaticPropLump_t@@@@@@IAEXHH@Z 0043af60 f i StaticProp.obj
 0001:00039fb0       ??$Construct@UStaticPropLump_t@@@@YAXPAUStaticPropLump_t@@@Z 0043afb0 f i StaticProp.obj
 0001:00039fc0       ?Purge@?$CUtlMemory@UStaticPropLeafLump_t@@@@QAEXXZ 0043afc0 f i StaticProp.obj
 0001:00039ff0       ?Element@?$CUtlVector@UStaticPropLeafLump_t@@V?$CUtlMemory@UStaticPropLeafLump_t@@@@@@QAEAAUStaticPropLeafLump_t@@H@Z 0043aff0 f i StaticProp.obj
 0001:0003a000       ?RemoveAll@?$CUtlVector@UStaticPropLeafLump_t@@V?$CUtlMemory@UStaticPropLeafLump_t@@@@@@QAEXXZ 0043b000 f i StaticProp.obj
 0001:0003a010       ?ShiftElementsRight@?$CUtlVector@UStaticPropLeafLump_t@@V?$CUtlMemory@UStaticPropLeafLump_t@@@@@@IAEXHH@Z 0043b010 f i StaticProp.obj
 0001:0003a050       ?Links@?$CUtlRBTree@UModelCollisionLookup_t@@GP6A_NABU1@0@Z@@IBEABULinks_t@1@G@Z 0043b050 f i StaticProp.obj
 0001:0003a0b0       ?Purge@?$CUtlMemory@UNode_t@?$CUtlRBTree@UModelCollisionLookup_t@@GP6A_NABU1@0@Z@@@@QAEXXZ 0043b0b0 f i StaticProp.obj
 0001:0003a0e0       ?Grow@?$CUtlMemory@UStaticPropDictLump_t@@@@QAEXH@Z 0043b0e0 f i StaticProp.obj
 0001:0003a150       ?Grow@?$CUtlMemory@UStaticPropLump_t@@@@QAEXH@Z 0043b150 f i StaticProp.obj
 0001:0003a1e0       ?Grow@?$CUtlMemory@UStaticPropLeafLump_t@@@@QAEXH@Z 0043b1e0 f i StaticProp.obj
 0001:0003a250       ?Grow@?$CUtlMemory@UNode_t@?$CUtlRBTree@UModelCollisionLookup_t@@GP6A_NABU1@0@Z@@@@QAEXH@Z 0043b250 f i StaticProp.obj
 0001:0003a2c0       ?Parent@?$CUtlRBTree@UModelCollisionLookup_t@@GP6A_NABU1@0@Z@@QBEGG@Z 0043b2c0 f i StaticProp.obj
 0001:0003a2e0       ?IsRed@?$CUtlRBTree@UModelCollisionLookup_t@@GP6A_NABU1@0@Z@@IBE_NG@Z 0043b2e0 f i StaticProp.obj
 0001:0003a300       ?Color@?$CUtlRBTree@UModelCollisionLookup_t@@GP6A_NABU1@0@Z@@IBE?AW4NodeColor_t@1@G@Z 0043b300 f i StaticProp.obj
 0001:0003a320       ??A?$CUtlRBTree@UModelCollisionLookup_t@@GP6A_NABU1@0@Z@@QAEAAUModelCollisionLookup_t@@G@Z 0043b320 f i StaticProp.obj
 0001:0003a340       ??1?$CUtlMemory@UStaticPropDictLump_t@@@@QAE@XZ 0043b340 f i StaticProp.obj
 0001:0003a370       ?Purge@?$CUtlVector@UStaticPropDictLump_t@@V?$CUtlMemory@UStaticPropDictLump_t@@@@@@QAEXXZ 0043b370 f i StaticProp.obj
 0001:0003a3c0       ??1?$CUtlMemory@UStaticPropLump_t@@@@QAE@XZ 0043b3c0 f i StaticProp.obj
 0001:0003a3f0       ?Purge@?$CUtlVector@UStaticPropLump_t@@V?$CUtlMemory@UStaticPropLump_t@@@@@@QAEXXZ 0043b3f0 f i StaticProp.obj
 0001:0003a440       ??1?$CUtlMemory@UStaticPropLeafLump_t@@@@QAE@XZ 0043b440 f i StaticProp.obj
 0001:0003a470       ?Purge@?$CUtlVector@UStaticPropLeafLump_t@@V?$CUtlMemory@UStaticPropLeafLump_t@@@@@@QAEXXZ 0043b470 f i StaticProp.obj
 0001:0003a4c0       ?LeftChild@?$CUtlRBTree@UModelCollisionLookup_t@@GP6A_NABU1@0@Z@@QBEGG@Z 0043b4c0 f i StaticProp.obj
 0001:0003a4d0       ?RightChild@?$CUtlRBTree@UModelCollisionLookup_t@@GP6A_NABU1@0@Z@@QBEGG@Z 0043b4d0 f i StaticProp.obj
 0001:0003a4f0       ?FindInsertionPosition@?$CUtlRBTree@UModelCollisionLookup_t@@GP6A_NABU1@0@Z@@IAEXABUModelCollisionLookup_t@@AAGAA_N@Z 0043b4f0 f i StaticProp.obj
 0001:0003a600       ??1?$CUtlMemory@UNode_t@?$CUtlRBTree@UModelCollisionLookup_t@@GP6A_NABU1@0@Z@@@@QAE@XZ 0043b600 f i StaticProp.obj
 0001:0003a630       ?GrowVector@?$CUtlVector@UStaticPropDictLump_t@@V?$CUtlMemory@UStaticPropDictLump_t@@@@@@IAEXH@Z 0043b630 f i StaticProp.obj
 0001:0003a660       ?GrowVector@?$CUtlVector@UStaticPropLump_t@@V?$CUtlMemory@UStaticPropLump_t@@@@@@IAEXH@Z 0043b660 f i StaticProp.obj
 0001:0003a690       ?GrowVector@?$CUtlVector@UStaticPropLeafLump_t@@V?$CUtlMemory@UStaticPropLeafLump_t@@@@@@IAEXH@Z 0043b690 f i StaticProp.obj
 0001:0003a6c0       ?IsValidIndex@?$CUtlRBTree@UModelCollisionLookup_t@@GP6A_NABU1@0@Z@@QBE_NG@Z 0043b6c0 f i StaticProp.obj
 0001:0003a6f0       ?NewNode@?$CUtlRBTree@UModelCollisionLookup_t@@GP6A_NABU1@0@Z@@QAEGXZ 0043b6f0 f i StaticProp.obj
 0001:0003a760       ?IsLeftChild@?$CUtlRBTree@UModelCollisionLookup_t@@GP6A_NABU1@0@Z@@QBE_NG@Z 0043b760 f i StaticProp.obj
 0001:0003a790       ?IsRightChild@?$CUtlRBTree@UModelCollisionLookup_t@@GP6A_NABU1@0@Z@@QBE_NG@Z 0043b790 f i StaticProp.obj
 0001:0003a7c0       ?RotateLeft@?$CUtlRBTree@UModelCollisionLookup_t@@GP6A_NABU1@0@Z@@IAEXG@Z 0043b7c0 f i StaticProp.obj
 0001:0003a8b0       ?RotateRight@?$CUtlRBTree@UModelCollisionLookup_t@@GP6A_NABU1@0@Z@@IAEXG@Z 0043b8b0 f i StaticProp.obj
 0001:0003abb0       ??0?$CUtlVector@UStaticPropDictLump_t@@V?$CUtlMemory@UStaticPropDictLump_t@@@@@@QAE@HH@Z 0043bbb0 f i StaticProp.obj
 0001:0003ac00       ??1?$CUtlVector@UStaticPropDictLump_t@@V?$CUtlMemory@UStaticPropDictLump_t@@@@@@QAE@XZ 0043bc00 f i StaticProp.obj
 0001:0003ac70       ??0?$CUtlVector@UStaticPropLump_t@@V?$CUtlMemory@UStaticPropLump_t@@@@@@QAE@HH@Z 0043bc70 f i StaticProp.obj
 0001:0003acc0       ??1?$CUtlVector@UStaticPropLump_t@@V?$CUtlMemory@UStaticPropLump_t@@@@@@QAE@XZ 0043bcc0 f i StaticProp.obj
 0001:0003ad30       ??0?$CUtlVector@UStaticPropLeafLump_t@@V?$CUtlMemory@UStaticPropLeafLump_t@@@@@@QAE@HH@Z 0043bd30 f i StaticProp.obj
 0001:0003ad80       ??1?$CUtlVector@UStaticPropLeafLump_t@@V?$CUtlMemory@UStaticPropLeafLump_t@@@@@@QAE@XZ 0043bd80 f i StaticProp.obj
 0001:0003adf0       ??0?$CUtlRBTree@UModelCollisionLookup_t@@GP6A_NABU1@0@Z@@QAE@HHABQ6A_NABUModelCollisionLookup_t@@0@Z@Z 0043bdf0 f i StaticProp.obj
 0001:0003ae50       ?Find@?$CUtlRBTree@UModelCollisionLookup_t@@GP6A_NABU1@0@Z@@QBEGABUModelCollisionLookup_t@@@Z 0043be50 f i StaticProp.obj
 0001:0003af50       ?InsertBefore@?$CUtlVector@UStaticPropDictLump_t@@V?$CUtlMemory@UStaticPropDictLump_t@@@@@@QAEHHABUStaticPropDictLump_t@@@Z 0043bf50 f i StaticProp.obj
 0001:0003afc0       ?InsertBefore@?$CUtlVector@UStaticPropLump_t@@V?$CUtlMemory@UStaticPropLump_t@@@@@@QAEHH@Z 0043bfc0 f i StaticProp.obj
 0001:0003b020       ?InsertBefore@?$CUtlVector@UStaticPropLeafLump_t@@V?$CUtlMemory@UStaticPropLeafLump_t@@@@@@QAEHHABUStaticPropLeafLump_t@@@Z 0043c020 f i StaticProp.obj
 0001:0003b090       ?Purge@?$CUtlRBTree@UModelCollisionLookup_t@@GP6A_NABU1@0@Z@@QAEXXZ 0043c090 f i StaticProp.obj
 0001:0003b130       ?InsertRebalance@?$CUtlRBTree@UModelCollisionLookup_t@@GP6A_NABU1@0@Z@@IAEXG@Z 0043c130 f i StaticProp.obj
 0001:0003b710       ?AddToTail@?$CUtlVector@UStaticPropDictLump_t@@V?$CUtlMemory@UStaticPropDictLump_t@@@@@@QAEHABUStaticPropDictLump_t@@@Z 0043c710 f i StaticProp.obj
 0001:0003b730       ?AddToTail@?$CUtlVector@UStaticPropLump_t@@V?$CUtlMemory@UStaticPropLump_t@@@@@@QAEHXZ 0043c730 f i StaticProp.obj
 0001:0003b740       ?AddToTail@?$CUtlVector@UStaticPropLeafLump_t@@V?$CUtlMemory@UStaticPropLeafLump_t@@@@@@QAEHABUStaticPropLeafLump_t@@@Z 0043c740 f i StaticProp.obj
 0001:0003b760       ??1?$CUtlRBTree@UModelCollisionLookup_t@@GP6A_NABU1@0@Z@@QAE@XZ 0043c760 f i StaticProp.obj
 0001:0003b7a0       ?LinkToParent@?$CUtlRBTree@UModelCollisionLookup_t@@GP6A_NABU1@0@Z@@IAEXGG_N@Z 0043c7a0 f i StaticProp.obj
 0001:0003b980       ?ComputeConvexHull@@YAPAVCPhysCollide@@PAUstudiohdr_t@@@Z 0043c980 f   StaticProp.obj
 0001:0003bd40       ?InsertAt@?$CUtlRBTree@UModelCollisionLookup_t@@GP6A_NABU1@0@Z@@IAEGG_N@Z 0043cd40 f i StaticProp.obj
 0001:0003bd70       ?Insert@?$CUtlRBTree@UModelCollisionLookup_t@@GP6A_NABU1@0@Z@@QAEGABUModelCollisionLookup_t@@@Z 0043cd70 f i StaticProp.obj
 0001:0003c150       ?EmitStaticProps@@YAXXZ    0043d150 f   StaticProp.obj
 0001:0003c430       _cosf                      0043d430 f i textures.obj
 0001:0003c450       _sinf                      0043d450 f i textures.obj
 0001:0003c470       ?cos@@YAMM@Z               0043d470 f i textures.obj
 0001:0003c490       ?sin@@YAMM@Z               0043d490 f i textures.obj
 0001:0003c4b0       ?GetTexData@@YAPAUdtexdata_t@@H@Z 0043d4b0 f   textures.obj
 0001:0003c500       ?FindMiptex@@YAHPBD@Z      0043d500 f   textures.obj
 0001:0003cc70       ?TextureAxisFromPlane@@YAXPAUplane_t@@AAVVector@@1@Z 0043dc70 f   textures.obj
 0001:0003ce30       ?GetSurfaceProperties@@YAHPAXPBD@Z 0043de30 f   textures.obj
 0001:0003ceb0       ?GetSurfaceProperties2@@YAHPAXPBD@Z 0043deb0 f   textures.obj
 0001:0003cf20       ?FindAliasedTexData@@YAHPBDPAUdtexdata_t@@@Z 0043df20 f   textures.obj
 0001:0003d0a0       ?FindTexData@@YAHPBD@Z     0043e0a0 f   textures.obj
 0001:0003d100       ?FindOrCreateTexData@@YAHPBD@Z 0043e100 f   textures.obj
 0001:0003d210       ??4dtexdata_t@@QAEAAU0@ABU0@@Z 0043e210 f i textures.obj
 0001:0003d250       ?LoadSurfacePropFile@@YAXPBD@Z 0043e250 f   textures.obj
 0001:0003d2d0       ?LoadSurfaceProperties@@YAXXZ 0043e2d0 f   textures.obj
 0001:0003d380       ?Count@?$CUtlVector@Utexinfo_s@@V?$CUtlMemory@Utexinfo_s@@@@@@QBEHXZ 0043e380 f i textures.obj
 0001:0003d390       ?AddCloneTexData@@YAHPAUdtexdata_t@@PBD@Z 0043e390 f   textures.obj
 0001:0003d420       ?FindTexInfo@@YAHABUtexinfo_s@@@Z 0043e420 f   textures.obj
 0001:0003d500       ?FindOrCreateTexInfo@@YAHABUtexinfo_s@@@Z 0043e500 f   textures.obj
 0001:0003d540       ?TexinfoForBrushTexture@@YAHPAUplane_t@@PAUbrush_texture_t@@ABVVector@@@Z 0043e540 f   textures.obj
 0001:0003d960       ?NodeForPoint@@YAPAUnode_t@@PAU1@AAVVector@@@Z 0043e960 f   tree.obj
 0001:0003d9d0       ?FreeTreePortals_r@@YAXPAUnode_t@@@Z 0043e9d0 f   tree.obj
 0001:0003da40       ?FreeTree_r@@YAXPAUnode_t@@@Z 0043ea40 f   tree.obj
 0001:0003dac0       ?FreeTree@@YAXPAUtree_t@@@Z 0043eac0 f   tree.obj
 0001:0003daf0       ?PrintTree_r@@YAXPAUnode_t@@H@Z 0043eaf0 f   tree.obj
 0001:0003dbc0       ?PruneNodes_r@@YAXPAUnode_t@@@Z 0043ebc0 f   tree.obj
 0001:0003dc80       ?PruneNodes@@YAXPAUnode_t@@@Z 0043ec80 f   tree.obj
 0001:0003dcc0       ?IsErrorMaterial@@YA_NPAVIMaterial@@@Z 0043ecc0 f i utilmatlib.obj
 0001:0003dce0       ?SetFlag@MaterialSystem_Config_t@@QAEXI_N@Z 0043ece0 f i utilmatlib.obj
 0001:0003dd00       ??0MaterialSystem_Config_t@@QAE@XZ 0043ed00 f i utilmatlib.obj
 0001:0003ddb0       ?LoadMaterialSystemInterface@@YAXP6APAXPBDPAH@Z@Z 0043edb0 f   utilmatlib.obj
 0001:0003de60       ?InitMaterialSystem@@YAXPBDP6APAX0PAH@Z@Z 0043ee60 f   utilmatlib.obj
 0001:0003de90       ?ShutdownMaterialSystem@@YAXXZ 0043ee90 f   utilmatlib.obj
 0001:0003deb0       ?FindMaterial@@YAPAXPBDPA_N_N@Z 0043eeb0 f   utilmatlib.obj
 0001:0003df00       ?GetMaterialDimensions@@YAXPAXPAH1@Z 0043ef00 f   utilmatlib.obj
 0001:0003df40       ?GetMaterialReflectivity@@YAXPAXPAM@Z 0043ef40 f   utilmatlib.obj
 0001:0003dfb0       ?GetMaterialShaderPropertyBool@@YAHPAXH@Z 0043efb0 f   utilmatlib.obj
 0001:0003dff0       ?GetMaterialShaderPropertyInt@@YAHPAXH@Z 0043eff0 f   utilmatlib.obj
 0001:0003e030       ?GetMaterialVar@@YAPBDPAXPBD@Z 0043f030 f   utilmatlib.obj
 0001:0003e060       ?GetMaterialShaderName@@YAPBDPAX@Z 0043f060 f   utilmatlib.obj
 0001:0003e070       ?BlockTree@@YAPAUnode_t@@HHHH@Z 0043f070 f   vbsp.obj
 0001:0003e1a0       ?ProcessBlock_Thread@@YAXHH@Z 0043f1a0 f   vbsp.obj
 0001:0003e2d0       ?ProcessSubModel@@YAXXZ    0043f2d0 f   vbsp.obj
 0001:0003e3d0       ?IsFuncOccluder@@YA_NH@Z   0043f3d0 f   vbsp.obj
 0001:0003e410       ?FixupOnlyEntsOccluderEntities@@YAXXZ 0043f410 f   vbsp.obj
 0001:0003e4b0       ?LoadPhysicsDLL@@YAXXZ     0043f4b0 f   vbsp.obj
 0001:0003e4c0       ?PrintCommandLine@@YAXHPAPAD@Z 0043f4c0 f   vbsp.obj
 0001:0003e510       ?Count@?$CUtlVector@Udoccluderdata_t@@V?$CUtlMemory@Udoccluderdata_t@@@@@@QBEHXZ 0043f510 f i vbsp.obj
 0001:0003e520       ?Count@?$CUtlVector@Udoccluderpolydata_t@@V?$CUtlMemory@Udoccluderpolydata_t@@@@@@QBEHXZ 0043f520 f i vbsp.obj
 0001:0003e530       ?Base@?$CUtlMemory@PAUmapbrush_t@@@@QAEPAPAUmapbrush_t@@XZ 0043f530 f i vbsp.obj
 0001:0003e540       ?Count@?$CUtlVector@PAUmapbrush_t@@V?$CUtlMemory@PAUmapbrush_t@@@@@@QBEHXZ 0043f540 f i vbsp.obj
 0001:0003e550       ?Count@?$CUtlVector@PAUside_t@@V?$CUtlMemory@PAUside_t@@@@@@QBEHXZ 0043f550 f i vbsp.obj
 0001:0003e560       ?Count@?$CUtlVector@PAUface_t@@V?$CUtlMemory@PAUface_t@@@@@@QBEHXZ 0043f560 f i vbsp.obj
 0001:0003e570       ??$Destruct@Udoccluderdata_t@@@@YAXPAUdoccluderdata_t@@@Z 0043f570 f i vbsp.obj
 0001:0003e580       ??$Destruct@Udoccluderpolydata_t@@@@YAXPAUdoccluderpolydata_t@@@Z 0043f580 f i vbsp.obj
 0001:0003e590       ?Base@?$CUtlMemory@PAUside_t@@@@QAEPAPAUside_t@@XZ 0043f590 f i vbsp.obj
 0001:0003e5a0       ??$Destruct@PAUside_t@@@@YAXPAPAUside_t@@@Z 0043f5a0 f i vbsp.obj
 0001:0003e5b0       ?Base@?$CUtlMemory@PAUface_t@@@@QAEPAPAUface_t@@XZ 0043f5b0 f i vbsp.obj
 0001:0003e5c0       ?Base@?$CUtlMemory@UOccluderInfo_t@@@@QAEPAUOccluderInfo_t@@XZ 0043f5c0 f i vbsp.obj
 0001:0003e5d0       ?Base@?$CUtlMemory@Udoccluderdata_t@@@@QAEPAUdoccluderdata_t@@XZ 0043f5d0 f i vbsp.obj
 0001:0003e5e0       ?Base@?$CUtlMemory@Udoccluderpolydata_t@@@@QAEPAUdoccluderpolydata_t@@XZ 0043f5e0 f i vbsp.obj
 0001:0003e5f0       ?ValidateGrowSize@?$CUtlMemory@PAUmapbrush_t@@@@IAEXXZ 0043f5f0 f i vbsp.obj
 0001:0003e600       ?ValidateGrowSize@?$CUtlMemory@PAUside_t@@@@IAEXXZ 0043f600 f i vbsp.obj
 0001:0003e610       ?ValidateGrowSize@?$CUtlMemory@PAUface_t@@@@IAEXXZ 0043f610 f i vbsp.obj
 0001:0003e620       ?ValidateGrowSize@?$CUtlMemory@UOccluderInfo_t@@@@IAEXXZ 0043f620 f i vbsp.obj
 0001:0003e630       ??$Construct@Udoccluderpolydata_t@@@@YAXPAUdoccluderpolydata_t@@@Z 0043f630 f i vbsp.obj
 0001:0003e640       ??$CopyConstruct@PAUmapbrush_t@@@@YAXPAPAUmapbrush_t@@ABQAU0@@Z 0043f640 f i vbsp.obj
 0001:0003e660       ??$CopyConstruct@PAUside_t@@@@YAXPAPAUside_t@@ABQAU0@@Z 0043f660 f i vbsp.obj
 0001:0003e680       ??$CopyConstruct@PAUface_t@@@@YAXPAPAUface_t@@ABQAU0@@Z 0043f680 f i vbsp.obj
 0001:0003e6a0       ??$Construct@UOccluderInfo_t@@@@YAXPAUOccluderInfo_t@@@Z 0043f6a0 f i vbsp.obj
 0001:0003e6b0       ??0doccluderdata_t@@QAE@XZ 0043f6b0 f i vbsp.obj
 0001:0003e6c0       ?NumAllocated@?$CUtlMemory@Udoccluderdata_t@@@@QBEHXZ 0043f6c0 f i vbsp.obj
 0001:0003e6d0       ?NumAllocated@?$CUtlMemory@Udoccluderpolydata_t@@@@QBEHXZ 0043f6d0 f i vbsp.obj
 0001:0003e6e0       ?NumAllocated@?$CUtlMemory@PAUmapbrush_t@@@@QBEHXZ 0043f6e0 f i vbsp.obj
 0001:0003e6f0       ?IsExternallyAllocated@?$CUtlMemory@PAUmapbrush_t@@@@QBE_NXZ 0043f6f0 f i vbsp.obj
 0001:0003e700       ??$Destruct@PAUmapbrush_t@@@@YAXPAPAUmapbrush_t@@@Z 0043f700 f i vbsp.obj
 0001:0003e710       ?NumAllocated@?$CUtlMemory@PAUside_t@@@@QBEHXZ 0043f710 f i vbsp.obj
 0001:0003e720       ?IsExternallyAllocated@?$CUtlMemory@PAUside_t@@@@QBE_NXZ 0043f720 f i vbsp.obj
 0001:0003e730       ??$Destruct@PAUface_t@@@@YAXPAPAUface_t@@@Z 0043f730 f i vbsp.obj
 0001:0003e740       ?NumAllocated@?$CUtlMemory@PAUface_t@@@@QBEHXZ 0043f740 f i vbsp.obj
 0001:0003e750       ?IsExternallyAllocated@?$CUtlMemory@PAUface_t@@@@QBE_NXZ 0043f750 f i vbsp.obj
 0001:0003e760       ??$Destruct@UOccluderInfo_t@@@@YAXPAUOccluderInfo_t@@@Z 0043f760 f i vbsp.obj
 0001:0003e770       ?NumAllocated@?$CUtlMemory@UOccluderInfo_t@@@@QBEHXZ 0043f770 f i vbsp.obj
 0001:0003e780       ?IsExternallyAllocated@?$CUtlMemory@UOccluderInfo_t@@@@QBE_NXZ 0043f780 f i vbsp.obj
 0001:0003e790       ?IsExternallyAllocated@?$CUtlMemory@Udoccluderdata_t@@@@QBE_NXZ 0043f790 f i vbsp.obj
 0001:0003e7a0       ?IsExternallyAllocated@?$CUtlMemory@Udoccluderpolydata_t@@@@QBE_NXZ 0043f7a0 f i vbsp.obj
 0001:0003e7b0       ?Base@?$CUtlVector@PAUmapbrush_t@@V?$CUtlMemory@PAUmapbrush_t@@@@@@QAEPAPAUmapbrush_t@@XZ 0043f7b0 f i vbsp.obj
 0001:0003e7c0       ?Base@?$CUtlVector@Udoccluderdata_t@@V?$CUtlMemory@Udoccluderdata_t@@@@@@QAEPAUdoccluderdata_t@@XZ 0043f7c0 f i vbsp.obj
 0001:0003e7d0       ?Base@?$CUtlVector@Udoccluderpolydata_t@@V?$CUtlMemory@Udoccluderpolydata_t@@@@@@QAEPAUdoccluderpolydata_t@@XZ 0043f7d0 f i vbsp.obj
 0001:0003e7e0       ?ResetDbgInfo@?$CUtlVector@PAUmapbrush_t@@V?$CUtlMemory@PAUmapbrush_t@@@@@@IAEXXZ 0043f7e0 f i vbsp.obj
 0001:0003e7f0       ?Base@?$CUtlVector@PAUside_t@@V?$CUtlMemory@PAUside_t@@@@@@QAEPAPAUside_t@@XZ 0043f7f0 f i vbsp.obj
 0001:0003e800       ?ResetDbgInfo@?$CUtlVector@PAUside_t@@V?$CUtlMemory@PAUside_t@@@@@@IAEXXZ 0043f800 f i vbsp.obj
 0001:0003e810       ?Base@?$CUtlVector@PAUface_t@@V?$CUtlMemory@PAUface_t@@@@@@QAEPAPAUface_t@@XZ 0043f810 f i vbsp.obj
 0001:0003e820       ?ResetDbgInfo@?$CUtlVector@PAUface_t@@V?$CUtlMemory@PAUface_t@@@@@@IAEXXZ 0043f820 f i vbsp.obj
 0001:0003e830       ?Base@?$CUtlVector@UOccluderInfo_t@@V?$CUtlMemory@UOccluderInfo_t@@@@@@QAEPAUOccluderInfo_t@@XZ 0043f830 f i vbsp.obj
 0001:0003e840       ?ResetDbgInfo@?$CUtlVector@UOccluderInfo_t@@V?$CUtlMemory@UOccluderInfo_t@@@@@@IAEXXZ 0043f840 f i vbsp.obj
 0001:0003e850       ?Element@?$CUtlVector@Udoccluderdata_t@@V?$CUtlMemory@Udoccluderdata_t@@@@@@QAEAAUdoccluderdata_t@@H@Z 0043f850 f i vbsp.obj
 0001:0003e860       ?Element@?$CUtlVector@Udoccluderpolydata_t@@V?$CUtlMemory@Udoccluderpolydata_t@@@@@@QAEAAUdoccluderpolydata_t@@H@Z 0043f860 f i vbsp.obj
 0001:0003e870       ??0?$CUtlMemory@PAUmapbrush_t@@@@QAE@HH@Z 0043f870 f i vbsp.obj
 0001:0003e8b0       ?Element@?$CUtlVector@PAUside_t@@V?$CUtlMemory@PAUside_t@@@@@@QAEAAPAUside_t@@H@Z 0043f8b0 f i vbsp.obj
 0001:0003e8c0       ??0?$CUtlMemory@PAUside_t@@@@QAE@HH@Z 0043f8c0 f i vbsp.obj
 0001:0003e900       ??0?$CUtlMemory@PAUface_t@@@@QAE@HH@Z 0043f900 f i vbsp.obj
 0001:0003e940       ??0?$CUtlMemory@UOccluderInfo_t@@@@QAE@HH@Z 0043f940 f i vbsp.obj
 0001:0003e980       ?ShiftElementsRight@?$CUtlVector@Udoccluderdata_t@@V?$CUtlMemory@Udoccluderdata_t@@@@@@IAEXHH@Z 0043f980 f i vbsp.obj
 0001:0003e9d0       ??$Construct@Udoccluderdata_t@@@@YAXPAUdoccluderdata_t@@@Z 0043f9d0 f i vbsp.obj
 0001:0003e9e0       ?ShiftElementsRight@?$CUtlVector@Udoccluderpolydata_t@@V?$CUtlMemory@Udoccluderpolydata_t@@@@@@IAEXHH@Z 0043f9e0 f i vbsp.obj
 0001:0003ea20       ?Purge@?$CUtlMemory@PAUmapbrush_t@@@@QAEXXZ 0043fa20 f i vbsp.obj
 0001:0003ea50       ?Element@?$CUtlVector@PAUmapbrush_t@@V?$CUtlMemory@PAUmapbrush_t@@@@@@QAEAAPAUmapbrush_t@@H@Z 0043fa50 f i vbsp.obj
 0001:0003ea60       ?RemoveAll@?$CUtlVector@PAUmapbrush_t@@V?$CUtlMemory@PAUmapbrush_t@@@@@@QAEXXZ 0043fa60 f i vbsp.obj
 0001:0003ea70       ?ShiftElementsRight@?$CUtlVector@PAUmapbrush_t@@V?$CUtlMemory@PAUmapbrush_t@@@@@@IAEXHH@Z 0043fa70 f i vbsp.obj
 0001:0003eab0       ?ShiftElementsRight@?$CUtlVector@PAUside_t@@V?$CUtlMemory@PAUside_t@@@@@@IAEXHH@Z 0043fab0 f i vbsp.obj
 0001:0003eaf0       ?Purge@?$CUtlMemory@PAUside_t@@@@QAEXXZ 0043faf0 f i vbsp.obj
 0001:0003eb20       ?Element@?$CUtlVector@PAUface_t@@V?$CUtlMemory@PAUface_t@@@@@@QAEAAPAUface_t@@H@Z 0043fb20 f i vbsp.obj
 0001:0003eb30       ?RemoveAll@?$CUtlVector@PAUface_t@@V?$CUtlMemory@PAUface_t@@@@@@QAEXXZ 0043fb30 f i vbsp.obj
 0001:0003eb40       ?ShiftElementsRight@?$CUtlVector@PAUface_t@@V?$CUtlMemory@PAUface_t@@@@@@IAEXHH@Z 0043fb40 f i vbsp.obj
 0001:0003eb80       ?Purge@?$CUtlMemory@PAUface_t@@@@QAEXXZ 0043fb80 f i vbsp.obj
 0001:0003ebb0       ?Element@?$CUtlVector@UOccluderInfo_t@@V?$CUtlMemory@UOccluderInfo_t@@@@@@QAEAAUOccluderInfo_t@@H@Z 0043fbb0 f i vbsp.obj
 0001:0003ebc0       ?RemoveAll@?$CUtlVector@UOccluderInfo_t@@V?$CUtlMemory@UOccluderInfo_t@@@@@@QAEXXZ 0043fbc0 f i vbsp.obj
 0001:0003ebd0       ?ShiftElementsRight@?$CUtlVector@UOccluderInfo_t@@V?$CUtlMemory@UOccluderInfo_t@@@@@@IAEXHH@Z 0043fbd0 f i vbsp.obj
 0001:0003ec10       ?Purge@?$CUtlMemory@UOccluderInfo_t@@@@QAEXXZ 0043fc10 f i vbsp.obj
 0001:0003ec40       ?ResetDbgInfo@?$CUtlVector@Udoccluderdata_t@@V?$CUtlMemory@Udoccluderdata_t@@@@@@IAEXXZ 0043fc40 f i vbsp.obj
 0001:0003ec50       ?ResetDbgInfo@?$CUtlVector@Udoccluderpolydata_t@@V?$CUtlMemory@Udoccluderpolydata_t@@@@@@IAEXXZ 0043fc50 f i vbsp.obj
 0001:0003ec60       ?Grow@?$CUtlMemory@Udoccluderdata_t@@@@QAEXH@Z 0043fc60 f i vbsp.obj
 0001:0003ece0       ?Grow@?$CUtlMemory@Udoccluderpolydata_t@@@@QAEXH@Z 0043fce0 f i vbsp.obj
 0001:0003ed50       ?Grow@?$CUtlMemory@PAUmapbrush_t@@@@QAEXH@Z 0043fd50 f i vbsp.obj
 0001:0003edc0       ?Grow@?$CUtlMemory@PAUside_t@@@@QAEXH@Z 0043fdc0 f i vbsp.obj
 0001:0003ee30       ?Grow@?$CUtlMemory@PAUface_t@@@@QAEXH@Z 0043fe30 f i vbsp.obj
 0001:0003eea0       ?Grow@?$CUtlMemory@UOccluderInfo_t@@@@QAEXH@Z 0043fea0 f i vbsp.obj
 0001:0003ef10       ??A?$CUtlVector@Udoccluderdata_t@@V?$CUtlMemory@Udoccluderdata_t@@@@@@QAEAAUdoccluderdata_t@@H@Z 0043ff10 f i vbsp.obj
 0001:0003ef20       ?RemoveAll@?$CUtlVector@Udoccluderdata_t@@V?$CUtlMemory@Udoccluderdata_t@@@@@@QAEXXZ 0043ff20 f i vbsp.obj
 0001:0003ef30       ??A?$CUtlVector@Udoccluderpolydata_t@@V?$CUtlMemory@Udoccluderpolydata_t@@@@@@QAEAAUdoccluderpolydata_t@@H@Z 0043ff30 f i vbsp.obj
 0001:0003ef40       ?RemoveAll@?$CUtlVector@Udoccluderpolydata_t@@V?$CUtlMemory@Udoccluderpolydata_t@@@@@@QAEXXZ 0043ff40 f i vbsp.obj
 0001:0003ef50       ??A?$CUtlVector@PAUside_t@@V?$CUtlMemory@PAUside_t@@@@@@QAEAAPAUside_t@@H@Z 0043ff50 f i vbsp.obj
 0001:0003ef60       ?RemoveAll@?$CUtlVector@PAUside_t@@V?$CUtlMemory@PAUside_t@@@@@@QAEXXZ 0043ff60 f i vbsp.obj
 0001:0003ef70       ??A?$CUtlVector@PAUface_t@@V?$CUtlMemory@PAUface_t@@@@@@QAEAAPAUface_t@@H@Z 0043ff70 f i vbsp.obj
 0001:0003ef80       ??A?$CUtlVector@UOccluderInfo_t@@V?$CUtlMemory@UOccluderInfo_t@@@@@@QAEAAUOccluderInfo_t@@H@Z 0043ff80 f i vbsp.obj
 0001:0003ef90       ??1?$CUtlMemory@PAUmapbrush_t@@@@QAE@XZ 0043ff90 f i vbsp.obj
 0001:0003efc0       ?Purge@?$CUtlVector@PAUmapbrush_t@@V?$CUtlMemory@PAUmapbrush_t@@@@@@QAEXXZ 0043ffc0 f i vbsp.obj
 0001:0003f010       ?Purge@?$CUtlVector@PAUside_t@@V?$CUtlMemory@PAUside_t@@@@@@QAEXXZ 00440010 f i vbsp.obj
 0001:0003f060       ??1?$CUtlMemory@PAUside_t@@@@QAE@XZ 00440060 f i vbsp.obj
 0001:0003f090       ?Purge@?$CUtlVector@PAUface_t@@V?$CUtlMemory@PAUface_t@@@@@@QAEXXZ 00440090 f i vbsp.obj
 0001:0003f0e0       ??1?$CUtlMemory@PAUface_t@@@@QAE@XZ 004400e0 f i vbsp.obj
 0001:0003f110       ?Purge@?$CUtlVector@UOccluderInfo_t@@V?$CUtlMemory@UOccluderInfo_t@@@@@@QAEXXZ 00440110 f i vbsp.obj
 0001:0003f160       ??1?$CUtlMemory@UOccluderInfo_t@@@@QAE@XZ 00440160 f i vbsp.obj
 0001:0003f190       ?GrowVector@?$CUtlVector@Udoccluderdata_t@@V?$CUtlMemory@Udoccluderdata_t@@@@@@IAEXH@Z 00440190 f i vbsp.obj
 0001:0003f1c0       ?GrowVector@?$CUtlVector@Udoccluderpolydata_t@@V?$CUtlMemory@Udoccluderpolydata_t@@@@@@IAEXH@Z 004401c0 f i vbsp.obj
 0001:0003f1f0       ?GrowVector@?$CUtlVector@PAUmapbrush_t@@V?$CUtlMemory@PAUmapbrush_t@@@@@@IAEXH@Z 004401f0 f i vbsp.obj
 0001:0003f220       ?GrowVector@?$CUtlVector@PAUside_t@@V?$CUtlMemory@PAUside_t@@@@@@IAEXH@Z 00440220 f i vbsp.obj
 0001:0003f250       ?GrowVector@?$CUtlVector@PAUface_t@@V?$CUtlMemory@PAUface_t@@@@@@IAEXH@Z 00440250 f i vbsp.obj
 0001:0003f280       ?GrowVector@?$CUtlVector@UOccluderInfo_t@@V?$CUtlMemory@UOccluderInfo_t@@@@@@IAEXH@Z 00440280 f i vbsp.obj
 0001:0003f2b0       ?ComputeOccluderBrushArea@@YAMPAUmapbrush_t@@@Z 004402b0 f   vbsp.obj
 0001:0003f320       ?SetOccluderArea@@YAXHHH@Z 00440320 f   vbsp.obj
 0001:0003f380       ?AssignAreaToOccluder@@YAXHPAUtree_t@@_N@Z 00440380 f   vbsp.obj
 0001:0003f570       ?AssignOccluderAreas@@YAXPAUtree_t@@@Z 00440570 f   vbsp.obj
 0001:0003f5c0       ?MarkNoDynamicShadowSides@@YAXXZ 004405c0 f   vbsp.obj
 0001:0003f620       ??0?$CUtlVector@PAUmapbrush_t@@V?$CUtlMemory@PAUmapbrush_t@@@@@@QAE@HH@Z 00440620 f i vbsp.obj
 0001:0003f670       ??1?$CUtlVector@PAUmapbrush_t@@V?$CUtlMemory@PAUmapbrush_t@@@@@@QAE@XZ 00440670 f i vbsp.obj
 0001:0003f6e0       ??0?$CUtlVector@PAUside_t@@V?$CUtlMemory@PAUside_t@@@@@@QAE@HH@Z 004406e0 f i vbsp.obj
 0001:0003f730       ??1?$CUtlVector@PAUside_t@@V?$CUtlMemory@PAUside_t@@@@@@QAE@XZ 00440730 f i vbsp.obj
 0001:0003f7a0       ??0?$CUtlVector@PAUface_t@@V?$CUtlMemory@PAUface_t@@@@@@QAE@HH@Z 004407a0 f i vbsp.obj
 0001:0003f7f0       ??1?$CUtlVector@PAUface_t@@V?$CUtlMemory@PAUface_t@@@@@@QAE@XZ 004407f0 f i vbsp.obj
 0001:0003f860       ??0?$CUtlVector@UOccluderInfo_t@@V?$CUtlMemory@UOccluderInfo_t@@@@@@QAE@HH@Z 00440860 f i vbsp.obj
 0001:0003f8b0       ??1?$CUtlVector@UOccluderInfo_t@@V?$CUtlMemory@UOccluderInfo_t@@@@@@QAE@XZ 004408b0 f i vbsp.obj
 0001:0003f920       ?InsertBefore@?$CUtlVector@Udoccluderdata_t@@V?$CUtlMemory@Udoccluderdata_t@@@@@@QAEHH@Z 00440920 f i vbsp.obj
 0001:0003f980       ?InsertBefore@?$CUtlVector@Udoccluderpolydata_t@@V?$CUtlMemory@Udoccluderpolydata_t@@@@@@QAEHH@Z 00440980 f i vbsp.obj
 0001:0003f9e0       ?InsertBefore@?$CUtlVector@PAUmapbrush_t@@V?$CUtlMemory@PAUmapbrush_t@@@@@@QAEHHABQAUmapbrush_t@@@Z 004409e0 f i vbsp.obj
 0001:0003fa50       ?InsertBefore@?$CUtlVector@PAUside_t@@V?$CUtlMemory@PAUside_t@@@@@@QAEHHABQAUside_t@@@Z 00440a50 f i vbsp.obj
 0001:0003fac0       ?InsertBefore@?$CUtlVector@PAUface_t@@V?$CUtlMemory@PAUface_t@@@@@@QAEHHABQAUface_t@@@Z 00440ac0 f i vbsp.obj
 0001:0003fb30       ?InsertBefore@?$CUtlVector@UOccluderInfo_t@@V?$CUtlMemory@UOccluderInfo_t@@@@@@QAEHH@Z 00440b30 f i vbsp.obj
 0001:0003fb90       ?ProcessWorldModel@@YAXXZ  00440b90 f   vbsp.obj
 0001:00040010       ?AddToTail@?$CUtlVector@Udoccluderdata_t@@V?$CUtlMemory@Udoccluderdata_t@@@@@@QAEHXZ 00441010 f i vbsp.obj
 0001:00040020       ?AddToTail@?$CUtlVector@Udoccluderpolydata_t@@V?$CUtlMemory@Udoccluderpolydata_t@@@@@@QAEHXZ 00441020 f i vbsp.obj
 0001:00040030       ?AddToTail@?$CUtlVector@PAUmapbrush_t@@V?$CUtlMemory@PAUmapbrush_t@@@@@@QAEHABQAUmapbrush_t@@@Z 00441030 f i vbsp.obj
 0001:00040050       ?AddToTail@?$CUtlVector@PAUside_t@@V?$CUtlMemory@PAUside_t@@@@@@QAEHABQAUside_t@@@Z 00441050 f i vbsp.obj
 0001:00040070       ?AddToTail@?$CUtlVector@PAUface_t@@V?$CUtlMemory@PAUface_t@@@@@@QAEHABQAUface_t@@@Z 00441070 f i vbsp.obj
 0001:00040090       ?AddToTail@?$CUtlVector@UOccluderInfo_t@@V?$CUtlMemory@UOccluderInfo_t@@@@@@QAEHXZ 00441090 f i vbsp.obj
 0001:000407a0       ?ProcessModels@@YAXXZ      004417a0 f   vbsp.obj
 0001:00040840       ?RunVBSP@@YAHHPAPAD@Z      00441840 f   vbsp.obj
 0001:00041680       _main                      00442680 f   vbsp.obj
 0001:00041690       _acosf                     00442690 f i vmatrix.obj
 0001:000416b0       ?acos@@YAMM@Z              004426b0 f i vmatrix.obj
 0001:000416d0       ??AQAngle@@QAEAAMH@Z       004426d0 f i vmatrix.obj
 0001:000416e0       ??AQAngle@@QBEMH@Z         004426e0 f i vmatrix.obj
 0001:000416f0       ??0VPlane@@QAE@XZ          004426f0 f i vmatrix.obj
 0001:00041700       ?GetPointOnPlane@VPlane@@QBE?AVVector@@XZ 00442700 f i vmatrix.obj
 0001:00041730       ??0Vector4D@@QAE@XZ        00442730 f i vmatrix.obj
 0001:00041740       ??AVector4D@@QAEAAMH@Z     00442740 f i vmatrix.obj
 0001:00041750       ??AVector4D@@QBEMH@Z       00442750 f i vmatrix.obj
 0001:00041760       ?AsVector3D@Vector4D@@QAEAAVVector@@XZ 00442760 f i vmatrix.obj
 0001:00041770       ?Vector4DCopy@@YAXABVVector4D@@AAV1@@Z 00442770 f i vmatrix.obj
 0001:00041790       ?SetPlane@Frustum_t@@QAEXHHABVVector@@M@Z 00442790 f i vmatrix.obj
 0001:00041820       ?SinCos@@YAXMPAM0@Z        00442820 f i vmatrix.obj
 0001:00041840       ??AVMatrix@@QAEPAMH@Z      00442840 f i vmatrix.obj
 0001:00041850       ??AVMatrix@@QBEPBMH@Z      00442850 f i vmatrix.obj
 0001:00041860       ?Base@VMatrix@@QAEPAMXZ    00442860 f i vmatrix.obj
 0001:00041870       ?GetBasisVectors@VMatrix@@QBEXAAVVector@@00@Z 00442870 f i vmatrix.obj
 0001:000418f0       ?GetTranslation@VMatrix@@QBEAAVVector@@AAV2@@Z 004428f0 f i vmatrix.obj
 0001:00041910       ?MatrixSetColumn@@YAXAAVVMatrix@@HABVVector@@@Z 00442910 f i vmatrix.obj
 0001:00041930       ?SetupMatrixProjection@@YA?AVVMatrix@@ABVVector@@ABVVPlane@@@Z 00442930 f   vmatrix.obj
 0001:00041a10       ??4VMatrix@@QAEAAV0@ABV0@@Z 00442a10 f   vmatrix.obj
 0001:00041a80       ??8VMatrix@@QBE_NABV0@@Z   00442a80 f   vmatrix.obj
 0001:00041b30       ?MatrixMul@VMatrix@@QBEXABV1@AAV1@@Z 00442b30 f   vmatrix.obj
 0001:00041dc0       ??DVMatrix@@QBE?AV0@ABV0@@Z 00442dc0 f   vmatrix.obj
 0001:00041de0       ?MatrixInverseGeneral@@YA_NABVVMatrix@@AAV1@@Z 00442de0 f   vmatrix.obj
 0001:00042110       ?GetScale@VMatrix@@QBE?AVVector@@XZ 00443110 f   vmatrix.obj
 0001:000421e0       ?NormalizeBasisVectors@VMatrix@@QBE?AV1@XZ 004431e0 f   vmatrix.obj
 0001:00042280       ?IsRotationMatrix@VMatrix@@QBE_NXZ 00443280 f   vmatrix.obj
 0001:00042440       ?SetupMatrixOrgAngles@VMatrix@@QAEXABVVector@@ABVQAngle@@@Z 00443440 f   vmatrix.obj
 0001:000425a0       ?MatrixSetIdentity@@YAXAAVVMatrix@@@Z 004435a0 f   vmatrix.obj
 0001:000425e0       ?MatrixFromAngles@@YAXABVQAngle@@AAVVMatrix@@@Z 004435e0 f   vmatrix.obj
 0001:00042600       ?MatrixToAngles@@YAXABVVMatrix@@AAVQAngle@@@Z 00443600 f   vmatrix.obj
 0001:00042730       ?Swap@@YAXAAM0@Z           00443730 f i vmatrix.obj
 0001:00042750       ?MatrixTranspose@@YAXABVVMatrix@@AAV1@@Z 00443750 f   vmatrix.obj
 0001:00042840       ?MatrixCopy@@YAXABVVMatrix@@AAV1@@Z 00443840 f   vmatrix.obj
 0001:00042860       ?MatrixMultiply@@YAXABVVMatrix@@0AAV1@@Z 00443860 f   vmatrix.obj
 0001:00042ae0       ?Vector4DMultiply@@YAXABVVMatrix@@ABVVector4D@@AAV2@@Z 00443ae0 f   vmatrix.obj
 0001:00042ba0       ?Vector4DMultiplyPosition@@YAXABVVMatrix@@ABVVector@@AAVVector4D@@@Z 00443ba0 f   vmatrix.obj
 0001:00042c60       ?Vector3DMultiply@@YAXABVVMatrix@@ABVVector@@AAV2@@Z 00443c60 f   vmatrix.obj
 0001:00042d00       ?Vector3DMultiplyPositionProjective@@YAXABVVMatrix@@ABVVector@@AAV2@@Z 00443d00 f   vmatrix.obj
 0001:00042e00       ?Vector3DMultiplyProjective@@YAXABVVMatrix@@ABVVector@@AAV2@@Z 00443e00 f   vmatrix.obj
 0001:00042f10       ?Vector4DMultiplyTranspose@@YAXABVVMatrix@@ABVVector4D@@AAV2@@Z 00443f10 f   vmatrix.obj
 0001:00042fe0       ?Vector3DMultiplyTranspose@@YAXABVVMatrix@@ABVVector@@AAV2@@Z 00443fe0 f   vmatrix.obj
 0001:00043080       ?MatrixTransformPlane@@YAXABVVMatrix@@ABUcplane_t@@AAU2@@Z 00444080 f   vmatrix.obj
 0001:00043110       ?MatrixBuildTranslation@@YAXAAVVMatrix@@MMM@Z 00444110 f   vmatrix.obj
 0001:00043160       ?MatrixBuildTranslation@@YAXAAVVMatrix@@ABVVector@@@Z 00444160 f   vmatrix.obj
 0001:000431b0       ?MatrixBuildRotationAboutAxis@@YAXAAVVMatrix@@ABVVector@@M@Z 004441b0 f   vmatrix.obj
 0001:000432e0       ?MatrixBuildRotation@@YAXAAVVMatrix@@ABVVector@@1@Z 004442e0 f   vmatrix.obj
 0001:000434c0       ?MatrixBuildRotateZ@@YAXAAVVMatrix@@M@Z 004444c0 f   vmatrix.obj
 0001:00043540       ?MatrixBuildScale@@YAXAAVVMatrix@@MMM@Z 00444540 f   vmatrix.obj
 0001:00043590       ?MatrixBuildScale@@YAXAAVVMatrix@@ABVVector@@@Z 00444590 f   vmatrix.obj
 0001:00043640       ?CalculateAABBFromProjectionMatrixInverse@@YAXABVVMatrix@@PAVVector@@1@Z 00444640 f   vmatrix.obj
 0001:000437d0       ?CalculateAABBFromProjectionMatrix@@YAXABVVMatrix@@PAVVector@@1@Z 004447d0 f   vmatrix.obj
 0001:00043900       ?FrustumPlanesFromMatrix@@YAXABVVMatrix@@AAVFrustum_t@@@Z 00444900 f   vmatrix.obj
 0001:00043b30       ??0VMatrix@@QAE@MMMMMMMMMMMMMMMM@Z 00444b30 f i vmatrix.obj
 0001:00043bb0       ?TransformPlane@VMatrix@@QBEXABVVPlane@@AAV2@@Z 00444bb0 f i vmatrix.obj
 0001:00043c40       ?SetupMatrixIdentity@@YA?AVVMatrix@@XZ 00444c40 f   vmatrix.obj
 0001:00043c80       ?SetupMatrixTranslation@@YA?AVVMatrix@@ABVVector@@@Z 00444c80 f   vmatrix.obj
 0001:00043cd0       ?SetupMatrixScale@@YA?AVVMatrix@@ABVVector@@@Z 00444cd0 f   vmatrix.obj
 0001:00043d20       ?SetupMatrixReflection@@YA?AVVMatrix@@ABVVPlane@@@Z 00444d20 f   vmatrix.obj
 0001:00043f50       ?SetupMatrixAxisRot@@YA?AVVMatrix@@ABVVector@@M@Z 00444f50 f   vmatrix.obj
 0001:00044080       ?SetupMatrixAngles@@YA?AVVMatrix@@ABVQAngle@@@Z 00445080 f   vmatrix.obj
 0001:000440a0       ?SetupMatrixOrgAngles@@YA?AVVMatrix@@ABVVector@@ABVQAngle@@@Z 004450a0 f   vmatrix.obj
 0001:000440c0       ?InverseGeneral@VMatrix@@QBE_NAAV1@@Z 004450c0 f   vmatrix.obj
 0001:000440e0       ?MatrixInverseTR@@YAXABVVMatrix@@AAV1@@Z 004450e0 f   vmatrix.obj
 0001:00044180       ?InverseTR@VMatrix@@QBEXAAV1@@Z 00445180 f   vmatrix.obj
 0001:000441a0       ?MatrixInverseTranspose@@YAXABVVMatrix@@AAV1@@Z 004451a0 f   vmatrix.obj
 0001:000441c0       ?InverseTR@VMatrix@@QBE?AV1@XZ 004451c0 f   vmatrix.obj
 0001:000441e0       ?Scale@VMatrix@@QAE?AV1@ABVVector@@@Z 004451e0 f   vmatrix.obj
 0001:00044270       ?Transpose@VMatrix@@QBE?AV1@XZ 00445270 f   vmatrix.obj
 0001:000442e0       ?Transpose3x3@VMatrix@@QBE?AV1@XZ 004452e0 f   vmatrix.obj
 0001:00044350       ??DVMatrix@@QBE?AVVPlane@@ABV1@@Z 00445350 f   vmatrix.obj
 0001:00044370       ?MatrixBuildPerspective@@YAXAAVVMatrix@@MMMM@Z 00445370 f   vmatrix.obj
 0001:00044510       ?CalculateSphereFromProjectionMatrixInverse@@YAXABVVMatrix@@PAVVector@@PAM@Z 00445510 f   vmatrix.obj
 0001:00044700       ?CalculateSphereFromProjectionMatrix@@YAXABVVMatrix@@PAVVector@@PAM@Z 00445700 f   vmatrix.obj
 0001:00044730       ?PlaneIntersection@@YA_NABVVPlane@@00AAVVector@@@Z 00445730 f   vmatrix.obj
 0001:00044800       ?MemAlloc_StrDup@@YAPADPBD@Z 00445800 f i writebsp.obj
 0001:00044860       ?StringLessThan@@YA_NABQBD0@Z 00445860 f i writebsp.obj
 0001:000448b0       ?CaselessStringLessThan@@YA_NABQBD0@Z 004458b0 f i writebsp.obj
 0001:000448d0       ?SetNumPrims@dface_t@@QAEXG@Z 004458d0 f i writebsp.obj
 0001:000448f0       ?SetDynamicShadowsEnabled@dface_t@@QAEX_N@Z 004458f0 f i writebsp.obj
 0001:00044910       ?EmitPlanes@@YAXXZ         00445910 f   writebsp.obj
 0001:00044a40       ?EmitMarkFace@@YAXPAUdleaf_t@@PAUface_t@@@Z 00445a40 f   writebsp.obj
 0001:00044af0       ?EmitLeaf@@YAXPAUnode_t@@@Z 00445af0 f   writebsp.obj
 0001:00044cb0       ?CreateOrigFace@@YAHPAUface_t@@@Z 00445cb0 f   writebsp.obj
 0001:00044f10       ?FindOrigFace@@YAHPAUface_t@@@Z 00445f10 f   writebsp.obj
 0001:00044f70       ?FindOrCreateOrigFace@@YAHPAUface_t@@@Z 00445f70 f   writebsp.obj
 0001:00044fa0       ?FreeLeafFaces@@YAXPAUface_t@@@Z 00445fa0 f   writebsp.obj
 0001:00044fd0       ?MarkNoShadowFaces@@YAXXZ  00445fd0 f   writebsp.obj
 0001:00044fe0       ?SetModelNumbers@@YAXXZ    00445fe0 f   writebsp.obj
 0001:00045070       ?SetLightStyles@@YAXXZ     00446070 f   writebsp.obj
 0001:00045200       ?EmitBrushes@@YAXXZ        00446200 f   writebsp.obj
 0001:000453f0       ?BeginBSPFile@@YAXXZ       004463f0 f   writebsp.obj
 0001:00045450       ?EnsurePresenceOfWaterLODControlEntity@@YAXXZ 00446450 f   writebsp.obj
 0001:00045520       ?BeginModel@@YAXXZ         00446520 f   writebsp.obj
 0001:00045620       ?EndModel@@YAXXZ           00446620 f   writebsp.obj
 0001:000456c0       ?PointLeafnum@@YAHPAUdmodel_t@@ABVVector@@@Z 004466c0 f   writebsp.obj
 0001:000456e0       ?Count@?$CUtlVector@Vddispinfo_t@@V?$CUtlMemory@Vddispinfo_t@@@@@@QBEHXZ 004466e0 f i writebsp.obj
 0001:000456f0       ?Count@?$CUtlVector@Udtexdata_t@@V?$CUtlMemory@Udtexdata_t@@@@@@QBEHXZ 004466f0 f i writebsp.obj
 0001:00045700       ??0CKeyLess@?$CUtlMap@PBDHH@@QAE@P6A_NABQBD0@Z@Z 00446700 f i writebsp.obj
 0001:00045710       ??0Node_t@?$CUtlMap@PBDHH@@QAE@XZ 00446710 f i writebsp.obj
 0001:00045720       ??$Destruct@Utexinfo_s@@@@YAXPAUtexinfo_s@@@Z 00446720 f i writebsp.obj
 0001:00045730       ?Base@?$CUtlMemory@Udtexdata_t@@@@QAEPAUdtexdata_t@@XZ 00446730 f i writebsp.obj
 0001:00045740       ?InvalidIndex@?$CUtlRBTree@UNode_t@?$CUtlMap@PBDHH@@HVCKeyLess@2@@@SAHXZ 00446740 f i writebsp.obj
 0001:00045750       ?Base@?$CUtlMemory@VCFaceMacroTextureInfo@@@@QAEPAVCFaceMacroTextureInfo@@XZ 00446750 f i writebsp.obj
 0001:00045760       ?ValidateGrowSize@?$CUtlMemory@Utexinfo_s@@@@IAEXXZ 00446760 f i writebsp.obj
 0001:00045770       ?ValidateGrowSize@?$CUtlMemory@Udtexdata_t@@@@IAEXXZ 00446770 f i writebsp.obj
 0001:00045780       ??7CKeyLess@?$CUtlMap@PBDHH@@QBE_NXZ 00446780 f i writebsp.obj
 0001:00045790       ??RCKeyLess@?$CUtlMap@PBDHH@@QBE_NABUNode_t@1@0@Z 00446790 f i writebsp.obj
 0001:000457b0       ?Base@?$CUtlMemory@UNode_t@?$CUtlRBTree@UNode_t@?$CUtlMap@PBDHH@@HVCKeyLess@2@@@@@QAEPAUNode_t@?$CUtlRBTree@UNode_t@?$CUtlMap@PBDHH@@HVCKeyLess@2@@@XZ 004467b0 f i writebsp.obj
 0001:000457c0       ?ValidateGrowSize@?$CUtlMemory@UNode_t@?$CUtlRBTree@UNode_t@?$CUtlMap@PBDHH@@HVCKeyLess@2@@@@@IAEXXZ 004467c0 f i writebsp.obj
 0001:000457d0       ??0Node_t@?$CUtlMap@PBDHH@@QAE@ABU01@@Z 004467d0 f i writebsp.obj
 0001:000457f0       ??$Destruct@VCFaceMacroTextureInfo@@@@YAXPAVCFaceMacroTextureInfo@@@Z 004467f0 f i writebsp.obj
 0001:00045800       ??$Destruct@Udtexdata_t@@@@YAXPAUdtexdata_t@@@Z 00446800 f i writebsp.obj
 0001:00045810       ?IsExternallyAllocated@?$CUtlMemory@Udtexdata_t@@@@QBE_NXZ 00446810 f i writebsp.obj
 0001:00045820       ??A?$CUtlMemory@UNode_t@?$CUtlRBTree@UNode_t@?$CUtlMap@PBDHH@@HVCKeyLess@2@@@@@QBEABUNode_t@?$CUtlRBTree@UNode_t@?$CUtlMap@PBDHH@@HVCKeyLess@2@@@H@Z 00446820 f i writebsp.obj
 0001:00045830       ??A?$CUtlMemory@UNode_t@?$CUtlRBTree@UNode_t@?$CUtlMap@PBDHH@@HVCKeyLess@2@@@@@QAEAAUNode_t@?$CUtlRBTree@UNode_t@?$CUtlMap@PBDHH@@HVCKeyLess@2@@@H@Z 00446830 f i writebsp.obj
 0001:00045840       ??$Destruct@UNode_t@?$CUtlMap@PBDHH@@@@YAXPAUNode_t@?$CUtlMap@PBDHH@@@Z 00446840 f i writebsp.obj
 0001:00045850       ??$Construct@VCFaceMacroTextureInfo@@@@YAXPAVCFaceMacroTextureInfo@@@Z 00446850 f i writebsp.obj
 0001:00045860       ?Links@?$CUtlRBTree@UNode_t@?$CUtlMap@PBDHH@@HVCKeyLess@2@@@IAEAAULinks_t@1@H@Z 00446860 f i writebsp.obj
 0001:00045870       ?IsIdxValid@?$CUtlMemory@UNode_t@?$CUtlRBTree@UNode_t@?$CUtlMap@PBDHH@@HVCKeyLess@2@@@@@QBE_NH@Z 00446870 f i writebsp.obj
 0001:00045890       ?NumAllocated@?$CUtlMemory@UNode_t@?$CUtlRBTree@UNode_t@?$CUtlMap@PBDHH@@HVCKeyLess@2@@@@@QBEHXZ 00446890 f i writebsp.obj
 0001:000458a0       ?IsExternallyAllocated@?$CUtlMemory@UNode_t@?$CUtlRBTree@UNode_t@?$CUtlMap@PBDHH@@HVCKeyLess@2@@@@@QBE_NXZ 004468a0 f i writebsp.obj
 0001:000458b0       ??$Construct@UNode_t@?$CUtlMap@PBDHH@@@@YAXPAUNode_t@?$CUtlMap@PBDHH@@@Z 004468b0 f i writebsp.obj
 0001:000458c0       ??$Construct@Utexinfo_s@@@@YAXPAUtexinfo_s@@@Z 004468c0 f i writebsp.obj
 0001:000458d0       ?NumAllocated@?$CUtlMemory@VCFaceMacroTextureInfo@@@@QBEHXZ 004468d0 f i writebsp.obj
 0001:000458e0       ?IsRoot@?$CUtlRBTree@UNode_t@?$CUtlMap@PBDHH@@HVCKeyLess@2@@@QBE_NH@Z 004468e0 f i writebsp.obj
 0001:000458f0       ?SetColor@?$CUtlRBTree@UNode_t@?$CUtlMap@PBDHH@@HVCKeyLess@2@@@IAEXHW4NodeColor_t@1@@Z 004468f0 f i writebsp.obj
 0001:00045910       ??0dtexdata_t@@QAE@XZ      00446910 f i writebsp.obj
 0001:00045920       ?IsExternallyAllocated@?$CUtlMemory@VCFaceMacroTextureInfo@@@@QBE_NXZ 00446920 f i writebsp.obj
 0001:00045930       ?NumAllocated@?$CUtlMemory@Udtexdata_t@@@@QBEHXZ 00446930 f i writebsp.obj
 0001:00045940       ?Grow@?$CUtlMemory@Udtexdata_t@@@@QAEXH@Z 00446940 f i writebsp.obj
 0001:000459b0       ?SetParent@?$CUtlRBTree@UNode_t@?$CUtlMap@PBDHH@@HVCKeyLess@2@@@IAEXHH@Z 004469b0 f i writebsp.obj
 0001:000459d0       ?Base@?$CUtlVector@VCFaceMacroTextureInfo@@V?$CUtlMemory@VCFaceMacroTextureInfo@@@@@@QAEPAVCFaceMacroTextureInfo@@XZ 004469d0 f i writebsp.obj
 0001:000459e0       ?Base@?$CUtlVector@Udtexdata_t@@V?$CUtlMemory@Udtexdata_t@@@@@@QAEPAUdtexdata_t@@XZ 004469e0 f i writebsp.obj
 0001:000459f0       ?ResetDbgInfo@?$CUtlVector@Udtexdata_t@@V?$CUtlMemory@Udtexdata_t@@@@@@IAEXXZ 004469f0 f i writebsp.obj
 0001:00045a00       ?InvalidIndex@?$CUtlMap@PBDHH@@SAHXZ 00446a00 f i writebsp.obj
 0001:00045a10       ??0?$CUtlMemory@Utexinfo_s@@@@QAE@HH@Z 00446a10 f i writebsp.obj
 0001:00045a50       ??0?$CUtlMemory@Udtexdata_t@@@@QAE@HH@Z 00446a50 f i writebsp.obj
 0001:00045a90       ?SetLessFunc@?$CUtlRBTree@UNode_t@?$CUtlMap@PBDHH@@HVCKeyLess@2@@@QAEXABVCKeyLess@?$CUtlMap@PBDHH@@@Z 00446a90 f i writebsp.obj
 0001:00045aa0       ?ResetDbgInfo@?$CUtlRBTree@UNode_t@?$CUtlMap@PBDHH@@HVCKeyLess@2@@@IAEXXZ 00446aa0 f i writebsp.obj
 0001:00045ab0       ?Purge@?$CUtlMemory@Utexinfo_s@@@@QAEXXZ 00446ab0 f i writebsp.obj
 0001:00045ae0       ?Purge@?$CUtlMemory@Udtexdata_t@@@@QAEXXZ 00446ae0 f i writebsp.obj
 0001:00045b10       ?Element@?$CUtlRBTree@UNode_t@?$CUtlMap@PBDHH@@HVCKeyLess@2@@@QBEABUNode_t@?$CUtlMap@PBDHH@@H@Z 00446b10 f i writebsp.obj
 0001:00045b30       ?Element@?$CUtlRBTree@UNode_t@?$CUtlMap@PBDHH@@HVCKeyLess@2@@@QAEAAUNode_t@?$CUtlMap@PBDHH@@H@Z 00446b30 f i writebsp.obj
 0001:00045b50       ??0?$CUtlMemory@UNode_t@?$CUtlRBTree@UNode_t@?$CUtlMap@PBDHH@@HVCKeyLess@2@@@@@QAE@HH@Z 00446b50 f i writebsp.obj
 0001:00045b90       ??$CopyConstruct@UNode_t@?$CUtlMap@PBDHH@@@@YAXPAUNode_t@?$CUtlMap@PBDHH@@ABU01@@Z 00446b90 f i writebsp.obj
 0001:00045bb0       ?Key@?$CUtlMap@PBDHH@@QAEAAPBDH@Z 00446bb0 f i writebsp.obj
 0001:00045bd0       ?Element@?$CUtlVector@VCFaceMacroTextureInfo@@V?$CUtlMemory@VCFaceMacroTextureInfo@@@@@@QAEAAVCFaceMacroTextureInfo@@H@Z 00446bd0 f i writebsp.obj
 0001:00045be0       ?Element@?$CUtlVector@Udtexdata_t@@V?$CUtlMemory@Udtexdata_t@@@@@@QAEAAUdtexdata_t@@H@Z 00446be0 f i writebsp.obj
 0001:00045bf0       ?Links@?$CUtlRBTree@UNode_t@?$CUtlMap@PBDHH@@HVCKeyLess@2@@@IBEABULinks_t@1@H@Z 00446bf0 f i writebsp.obj
 0001:00045c40       ?Purge@?$CUtlMemory@UNode_t@?$CUtlRBTree@UNode_t@?$CUtlMap@PBDHH@@HVCKeyLess@2@@@@@QAEXXZ 00446c40 f i writebsp.obj
 0001:00045c70       ?ShiftElementsRight@?$CUtlVector@VCFaceMacroTextureInfo@@V?$CUtlMemory@VCFaceMacroTextureInfo@@@@@@IAEXHH@Z 00446c70 f i writebsp.obj
 0001:00045cb0       ?Parent@?$CUtlRBTree@UNode_t@?$CUtlMap@PBDHH@@HVCKeyLess@2@@@QBEHH@Z 00446cb0 f i writebsp.obj
 0001:00045d00       ?SetLeftChild@?$CUtlRBTree@UNode_t@?$CUtlMap@PBDHH@@HVCKeyLess@2@@@IAEXHH@Z 00446d00 f i writebsp.obj
 0001:00045d20       ?SetRightChild@?$CUtlRBTree@UNode_t@?$CUtlMap@PBDHH@@HVCKeyLess@2@@@IAEXHH@Z 00446d20 f i writebsp.obj
 0001:00045d40       ?Grow@?$CUtlMemory@UNode_t@?$CUtlRBTree@UNode_t@?$CUtlMap@PBDHH@@HVCKeyLess@2@@@@@QAEXH@Z 00446d40 f i writebsp.obj
 0001:00045dc0       ?ResetDbgInfo@?$CUtlVector@VCFaceMacroTextureInfo@@V?$CUtlMemory@VCFaceMacroTextureInfo@@@@@@IAEXXZ 00446dc0 f i writebsp.obj
 0001:00045dd0       ?Grow@?$CUtlMemory@VCFaceMacroTextureInfo@@@@QAEXH@Z 00446dd0 f i writebsp.obj
 0001:00045e40       ?GrowVector@?$CUtlVector@Udtexdata_t@@V?$CUtlMemory@Udtexdata_t@@@@@@IAEXH@Z 00446e40 f i writebsp.obj
 0001:00045e70       ?ShiftElementsRight@?$CUtlVector@Udtexdata_t@@V?$CUtlMemory@Udtexdata_t@@@@@@IAEXHH@Z 00446e70 f i writebsp.obj
 0001:00045eb0       ??$Construct@Udtexdata_t@@@@YAXPAUdtexdata_t@@@Z 00446eb0 f i writebsp.obj
 0001:00045ec0       ?IsRed@?$CUtlRBTree@UNode_t@?$CUtlMap@PBDHH@@HVCKeyLess@2@@@IBE_NH@Z 00446ec0 f i writebsp.obj
 0001:00045f20       ?Color@?$CUtlRBTree@UNode_t@?$CUtlMap@PBDHH@@HVCKeyLess@2@@@IBE?AW4NodeColor_t@1@H@Z 00446f20 f i writebsp.obj
 0001:00045f70       ?EmitFace@@YAXPAUface_t@@H@Z 00446f70 f   writebsp.obj
 0001:00046160       ?EmitLeafFaces@@YAXPAUface_t@@@Z 00447160 f   writebsp.obj
 0001:00046190       ?EmitDrawNode_r@@YAHPAUnode_t@@@Z 00447190 f   writebsp.obj
 0001:00046300       ?FindMatchingBrushSideTexinfo@@YAHHPBUtexinfomap_t@@@Z 00447300 f   writebsp.obj
 0001:00046370       ?WriteBSP@@YAXPAUnode_t@@PAUface_t@@@Z 00447370 f   writebsp.obj
 0001:00046650       ?IsBoxInsideWorld@@YA_NHAAV?$CUtlVector@HV?$CUtlMemory@H@@@@ABVVector@@1@Z 00447650 f   writebsp.obj
 0001:00046710       ?AddDispsToBounds@@YAXHAAV?$CUtlVector@HV?$CUtlMemory@H@@@@AAVVector@@1@Z 00447710 f   writebsp.obj
 0001:00046790       ?RemoveAll@?$CUtlVector@Utexinfo_s@@V?$CUtlMemory@Utexinfo_s@@@@@@QAEXXZ 00447790 f i writebsp.obj
 0001:000467a0       ??A?$CUtlVector@VCFaceMacroTextureInfo@@V?$CUtlMemory@VCFaceMacroTextureInfo@@@@@@QAEAAVCFaceMacroTextureInfo@@H@Z 004477a0 f i writebsp.obj
 0001:000467b0       ??A?$CUtlVector@Udtexdata_t@@V?$CUtlMemory@Udtexdata_t@@@@@@QAEAAUdtexdata_t@@H@Z 004477b0 f i writebsp.obj
 0001:000467c0       ?InvalidIndex@?$CUtlDict@HH@@SAHXZ 004477c0 f i writebsp.obj
 0001:000467d0       ?SetLessFunc@?$CUtlMap@PBDHH@@QAEXP6A_NABQBD0@Z@Z 004477d0 f i writebsp.obj
 0001:000467e0       ??1?$CUtlMemory@Utexinfo_s@@@@QAE@XZ 004477e0 f i writebsp.obj
 0001:00046810       ?Purge@?$CUtlVector@Utexinfo_s@@V?$CUtlMemory@Utexinfo_s@@@@@@QAEXXZ 00447810 f i writebsp.obj
 0001:00046860       ??1?$CUtlMemory@Udtexdata_t@@@@QAE@XZ 00447860 f i writebsp.obj
 0001:00046890       ?RemoveAll@?$CUtlVector@VCFaceMacroTextureInfo@@V?$CUtlMemory@VCFaceMacroTextureInfo@@@@@@QAEXXZ 00447890 f i writebsp.obj
 0001:000468a0       ?RemoveAll@?$CUtlVector@Udtexdata_t@@V?$CUtlMemory@Udtexdata_t@@@@@@QAEXXZ 004478a0 f i writebsp.obj
 0001:000468b0       ?LeftChild@?$CUtlRBTree@UNode_t@?$CUtlMap@PBDHH@@HVCKeyLess@2@@@QBEHH@Z 004478b0 f i writebsp.obj
 0001:00046900       ?RightChild@?$CUtlRBTree@UNode_t@?$CUtlMap@PBDHH@@HVCKeyLess@2@@@QBEHH@Z 00447900 f i writebsp.obj
 0001:00046950       ?FindInsertionPosition@?$CUtlRBTree@UNode_t@?$CUtlMap@PBDHH@@HVCKeyLess@2@@@IAEXABUNode_t@?$CUtlMap@PBDHH@@AAHAA_N@Z 00447950 f i writebsp.obj
 0001:00046a40       ??1?$CUtlMemory@UNode_t@?$CUtlRBTree@UNode_t@?$CUtlMap@PBDHH@@HVCKeyLess@2@@@@@QAE@XZ 00447a40 f i writebsp.obj
 0001:00046a70       ?IsValidIndex@?$CUtlRBTree@UNode_t@?$CUtlMap@PBDHH@@HVCKeyLess@2@@@QBE_NH@Z 00447a70 f i writebsp.obj
 0001:00046aa0       ?NewNode@?$CUtlRBTree@UNode_t@?$CUtlMap@PBDHH@@HVCKeyLess@2@@@QAEHXZ 00447aa0 f i writebsp.obj
 0001:00046af0       ?RemoveAll@?$CUtlRBTree@UNode_t@?$CUtlMap@PBDHH@@HVCKeyLess@2@@@QAEXXZ 00447af0 f i writebsp.obj
 0001:00046b80       ?FirstInorder@?$CUtlRBTree@UNode_t@?$CUtlMap@PBDHH@@HVCKeyLess@2@@@QBEHXZ 00447b80 f i writebsp.obj
 0001:00046c20       ?InsertMultipleBefore@?$CUtlVector@Utexinfo_s@@V?$CUtlMemory@Utexinfo_s@@@@@@QAEHHHPBUtexinfo_s@@@Z 00447c20 f i writebsp.obj
 0001:00046ce0       ?GrowVector@?$CUtlVector@VCFaceMacroTextureInfo@@V?$CUtlMemory@VCFaceMacroTextureInfo@@@@@@IAEXH@Z 00447ce0 f i writebsp.obj
 0001:00046d10       ?InsertMultipleBefore@?$CUtlVector@Udtexdata_t@@V?$CUtlMemory@Udtexdata_t@@@@@@QAEHHHPBUdtexdata_t@@@Z 00447d10 f i writebsp.obj
 0001:00046f20       ?IsRightChild@?$CUtlRBTree@UNode_t@?$CUtlMap@PBDHH@@HVCKeyLess@2@@@QBE_NH@Z 00447f20 f i writebsp.obj
 0001:00046f50       ?IsLeftChild@?$CUtlRBTree@UNode_t@?$CUtlMap@PBDHH@@HVCKeyLess@2@@@QBE_NH@Z 00447f50 f i writebsp.obj
 0001:00046fc0       ?RotateLeft@?$CUtlRBTree@UNode_t@?$CUtlMap@PBDHH@@HVCKeyLess@2@@@IAEXH@Z 00447fc0 f i writebsp.obj
 0001:000470f0       ?RotateRight@?$CUtlRBTree@UNode_t@?$CUtlMap@PBDHH@@HVCKeyLess@2@@@IAEXH@Z 004480f0 f i writebsp.obj
 0001:000471f0       ??0?$CUtlVector@Utexinfo_s@@V?$CUtlMemory@Utexinfo_s@@@@@@QAE@HH@Z 004481f0 f i writebsp.obj
 0001:00047240       ??1?$CUtlVector@Utexinfo_s@@V?$CUtlMemory@Utexinfo_s@@@@@@QAE@XZ 00448240 f i writebsp.obj
 0001:000472b0       ??0?$CUtlVector@Udtexdata_t@@V?$CUtlMemory@Udtexdata_t@@@@@@QAE@HH@Z 004482b0 f i writebsp.obj
 0001:00047300       ?Purge@?$CUtlVector@Udtexdata_t@@V?$CUtlMemory@Udtexdata_t@@@@@@QAEXXZ 00448300 f i writebsp.obj
 0001:00047350       ??0?$CUtlRBTree@UNode_t@?$CUtlMap@PBDHH@@HVCKeyLess@2@@@QAE@HHABVCKeyLess@?$CUtlMap@PBDHH@@@Z 00448350 f i writebsp.obj
 0001:000473c0       ?Find@?$CUtlRBTree@UNode_t@?$CUtlMap@PBDHH@@HVCKeyLess@2@@@QBEHABUNode_t@?$CUtlMap@PBDHH@@@Z 004483c0 f i writebsp.obj
 0001:000474b0       ?Purge@?$CUtlRBTree@UNode_t@?$CUtlMap@PBDHH@@HVCKeyLess@2@@@QAEXXZ 004484b0 f i writebsp.obj
 0001:00047540       ?RemoveAll@?$CUtlMap@PBDHH@@QAEXXZ 00448540 f i writebsp.obj
 0001:00047550       ?FirstInorder@?$CUtlMap@PBDHH@@QBEHXZ 00448550 f i writebsp.obj
 0001:00047560       ?AddMultipleToTail@?$CUtlVector@Utexinfo_s@@V?$CUtlMemory@Utexinfo_s@@@@@@QAEHHPBUtexinfo_s@@@Z 00448560 f i writebsp.obj
 0001:00047580       ?InsertMultipleBefore@?$CUtlVector@VCFaceMacroTextureInfo@@V?$CUtlMemory@VCFaceMacroTextureInfo@@@@@@QAEHHHPBVCFaceMacroTextureInfo@@@Z 00448580 f i writebsp.obj
 0001:00047620       ?AddMultipleToTail@?$CUtlVector@Udtexdata_t@@V?$CUtlMemory@Udtexdata_t@@@@@@QAEHHPBUdtexdata_t@@@Z 00448620 f i writebsp.obj
 0001:00047640       ?NextInorder@?$CUtlRBTree@UNode_t@?$CUtlMap@PBDHH@@HVCKeyLess@2@@@QBEHH@Z 00448640 f i writebsp.obj
 0001:000477d0       ?InsertRebalance@?$CUtlRBTree@UNode_t@?$CUtlMap@PBDHH@@HVCKeyLess@2@@@IAEXH@Z 004487d0 f i writebsp.obj
 0001:00047d10       ??1?$CUtlVector@Udtexdata_t@@V?$CUtlMemory@Udtexdata_t@@@@@@QAE@XZ 00448d10 f i writebsp.obj
 0001:00047d80       ?Find@?$CUtlMap@PBDHH@@QBEHABQBD@Z 00448d80 f i writebsp.obj
 0001:00047da0       ??1?$CUtlRBTree@UNode_t@?$CUtlMap@PBDHH@@HVCKeyLess@2@@@QAE@XZ 00448da0 f i writebsp.obj
 0001:00047de0       ?SetCount@?$CUtlVector@Utexinfo_s@@V?$CUtlMemory@Utexinfo_s@@@@@@QAEXH@Z 00448de0 f i writebsp.obj
 0001:00047e00       ?AddMultipleToTail@?$CUtlVector@VCFaceMacroTextureInfo@@V?$CUtlMemory@VCFaceMacroTextureInfo@@@@@@QAEHHPBVCFaceMacroTextureInfo@@@Z 00448e00 f i writebsp.obj
 0001:00047e20       ?SetCount@?$CUtlVector@Udtexdata_t@@V?$CUtlMemory@Udtexdata_t@@@@@@QAEXH@Z 00448e20 f i writebsp.obj
 0001:00047e40       ?NextInorder@?$CUtlMap@PBDHH@@QBEHH@Z 00448e40 f i writebsp.obj
 0001:00047e50       ?LinkToParent@?$CUtlRBTree@UNode_t@?$CUtlMap@PBDHH@@HVCKeyLess@2@@@IAEXHH_N@Z 00448e50 f i writebsp.obj
 0001:00047fc0       ?ComputeBoundsNoSkybox@@YAXXZ 00448fc0 f   writebsp.obj
 0001:00048160       ?Find@?$CUtlDict@HH@@QBEHPBD@Z 00449160 f i writebsp.obj
 0001:00048190       ??1?$CUtlMap@PBDHH@@QAE@XZ 00449190 f i writebsp.obj
 0001:000481d0       ??0?$CUtlMap@PBDHH@@QAE@HHP6A_NABQBD0@Z@Z 004491d0 f i writebsp.obj
 0001:00048200       ?SetSize@?$CUtlVector@Utexinfo_s@@V?$CUtlMemory@Utexinfo_s@@@@@@QAEXH@Z 00449200 f i writebsp.obj
 0001:00048220       ?SetCount@?$CUtlVector@VCFaceMacroTextureInfo@@V?$CUtlMemory@VCFaceMacroTextureInfo@@@@@@QAEXH@Z 00449220 f i writebsp.obj
 0001:00048240       ?SetSize@?$CUtlVector@Udtexdata_t@@V?$CUtlMemory@Udtexdata_t@@@@@@QAEXH@Z 00449240 f i writebsp.obj
 0001:00048260       ?RemoveAll@?$CUtlDict@HH@@QAEXXZ 00449260 f i writebsp.obj
 0001:000482b0       ?InsertAt@?$CUtlRBTree@UNode_t@?$CUtlMap@PBDHH@@HVCKeyLess@2@@@IAEHH_N@Z 004492b0 f i writebsp.obj
 0001:00048310       ?CopyArray@?$CUtlVector@Utexinfo_s@@V?$CUtlMemory@Utexinfo_s@@@@@@QAEXPBUtexinfo_s@@H@Z 00449310 f i writebsp.obj
 0001:00048360       ?SetSize@?$CUtlVector@VCFaceMacroTextureInfo@@V?$CUtlMemory@VCFaceMacroTextureInfo@@@@@@QAEXH@Z 00449360 f i writebsp.obj
 0001:00048380       ?CopyArray@?$CUtlVector@Udtexdata_t@@V?$CUtlMemory@Udtexdata_t@@@@@@QAEXPBUdtexdata_t@@H@Z 00449380 f i writebsp.obj
 0001:00048540       ??0?$CUtlDict@HH@@QAE@_NHH@Z 00449540 f i writebsp.obj
 0001:00048590       ?Purge@?$CUtlDict@HH@@QAEXXZ 00449590 f i writebsp.obj
 0001:000485a0       ?Insert@?$CUtlRBTree@UNode_t@?$CUtlMap@PBDHH@@HVCKeyLess@2@@@QAEHABUNode_t@?$CUtlMap@PBDHH@@@Z 004495a0 f i writebsp.obj
 0001:000485f0       ?ComapctTexinfoArray@@YAXPAUtexinfomap_t@@@Z 004495f0 f   writebsp.obj
 0001:000486d0       ?CompactTexdataArray@@YAXPAUtexdatamap_t@@@Z 004496d0 f   writebsp.obj
 0001:000488a0       ?CompactTexinfos@@YAXXZ    004498a0 f   writebsp.obj
 0001:00048c70       ??1?$CUtlDict@HH@@QAE@XZ   00449c70 f i writebsp.obj
 0001:00048cb0       ?Insert@?$CUtlMap@PBDHH@@QAEHABQBDABH@Z 00449cb0 f i writebsp.obj
 0001:00048d20       ?Insert@?$CUtlDict@HH@@QAEHPBDABH@Z 00449d20 f i writebsp.obj
 0001:00048d50       ?DiscoverMacroTextures@@YAXXZ 00449d50 f   writebsp.obj
 0001:00048eb0       ?EndBSPFile@@YAXXZ         00449eb0 f   writebsp.obj
 0001:00048f60       ?TellGet@CUtlBuffer@@QBEHXZ 00449f60 f i zip_utils.obj
 0001:00048f70       ??0IWriteStream@@QAE@XZ    00449f70 f i zip_utils.obj
 0001:00048f80       ??0CFileStream@@QAE@PAU_iobuf@@@Z 00449f80 f i zip_utils.obj
 0001:00048fa0       ?Put@CFileStream@@UAEXPBXH@Z 00449fa0 f i zip_utils.obj
 0001:00048fc0       ?Tell@CFileStream@@UAEHXZ  00449fc0 f i zip_utils.obj
 0001:00048fd0       ??0CZipEntry@CZipFile@@QAE@XZ 00449fd0 f   zip_utils.obj
 0001:00049000       ??0CZipEntry@CZipFile@@QAE@ABV01@@Z 0044a000 f   zip_utils.obj
 0001:00049060       ??1CZipEntry@CZipFile@@QAE@XZ 0044a060 f   zip_utils.obj
 0001:00049070       ?ZipFileLessFunc@CZipEntry@CZipFile@@SA_NABV12@0@Z 0044a070 f   zip_utils.obj
 0001:00049090       ?ForceAlignment@CZipFile@@QAEX_NI@Z 0044a090 f   zip_utils.obj
 0001:000490b0       ?GetAlignment@CZipFile@@QAEIXZ 0044a0b0 f   zip_utils.obj
 0001:000490c0       ??0TmpFileInfo_t@CZipFile@@QAE@XZ 0044a0c0 f i zip_utils.obj
 0001:00049130       ?CalculatePadding@CZipFile@@AAEGIH@Z 0044a130 f   zip_utils.obj
 0001:00049160       ?SetAlignment@@YAXAAPAXAAI@Z 0044a160 f   zip_utils.obj
 0001:000491a0       ??0IZip@@QAE@XZ            0044a1a0 f i zip_utils.obj
 0001:000491b0       ?ForceAlignment@CZip@@UAEX_NI@Z 0044a1b0 f   zip_utils.obj
 0001:000491d0       ?GetAlignment@CZip@@UAEIXZ 0044a1d0 f   zip_utils.obj
 0001:000491e0       ?InvalidIndex@?$CUtlRBTree@VCZipEntry@CZipFile@@HP6A_NABV12@0@Z@@SAHXZ 0044a1e0 f i zip_utils.obj
 0001:000491f0       ?Base@?$CUtlMemory@UNode_t@?$CUtlRBTree@VCZipEntry@CZipFile@@HP6A_NABV12@0@Z@@@@QAEPAUNode_t@?$CUtlRBTree@VCZipEntry@CZipFile@@HP6A_NABV12@0@Z@@XZ 0044a1f0 f i zip_utils.obj
 0001:00049200       ??$CopyConstruct@VCZipEntry@CZipFile@@@@YAXPAVCZipEntry@CZipFile@@ABV01@@Z 0044a200 f i zip_utils.obj
 0001:00049220       ??_GCZipEntry@CZipFile@@QAEPAXI@Z 0044a220 f i zip_utils.obj
 0001:00049250       ?ValidateGrowSize@?$CUtlMemory@UNode_t@?$CUtlRBTree@VCZipEntry@CZipFile@@HP6A_NABV12@0@Z@@@@IAEXXZ 0044a250 f i zip_utils.obj
 0001:00049260       ??A?$CUtlMemory@UNode_t@?$CUtlRBTree@VCZipEntry@CZipFile@@HP6A_NABV12@0@Z@@@@QBEABUNode_t@?$CUtlRBTree@VCZipEntry@CZipFile@@HP6A_NABV12@0@Z@@H@Z 0044a260 f i zip_utils.obj
 0001:00049270       ??A?$CUtlMemory@UNode_t@?$CUtlRBTree@VCZipEntry@CZipFile@@HP6A_NABV12@0@Z@@@@QAEAAUNode_t@?$CUtlRBTree@VCZipEntry@CZipFile@@HP6A_NABV12@0@Z@@H@Z 0044a270 f i zip_utils.obj
 0001:00049280       ?IsIdxValid@?$CUtlMemory@UNode_t@?$CUtlRBTree@VCZipEntry@CZipFile@@HP6A_NABV12@0@Z@@@@QBE_NH@Z 0044a280 f i zip_utils.obj
 0001:000492a0       ?IsRoot@?$CUtlRBTree@VCZipEntry@CZipFile@@HP6A_NABV12@0@Z@@QBE_NH@Z 0044a2a0 f i zip_utils.obj
 0001:000492b0       ?NumAllocated@?$CUtlMemory@UNode_t@?$CUtlRBTree@VCZipEntry@CZipFile@@HP6A_NABV12@0@Z@@@@QBEHXZ 0044a2b0 f i zip_utils.obj
 0001:000492c0       ?IsExternallyAllocated@?$CUtlMemory@UNode_t@?$CUtlRBTree@VCZipEntry@CZipFile@@HP6A_NABV12@0@Z@@@@QBE_NXZ 0044a2c0 f i zip_utils.obj
 0001:000492d0       ??$Construct@VCZipEntry@CZipFile@@@@YAXPAVCZipEntry@CZipFile@@@Z 0044a2d0 f i zip_utils.obj
 0001:00049310       ?WasLastCharacterCR@CUtlBuffer@@IAE_NXZ 0044a310 f i zip_utils.obj
 0001:00049340       ??0CBufferStream@@QAE@AAVCUtlBuffer@@@Z 0044a340 f i zip_utils.obj
 0001:00049360       ?Put@CBufferStream@@UAEXPBXH@Z 0044a360 f i zip_utils.obj
 0001:00049370       ?Tell@CBufferStream@@UAEHXZ 0044a370 f i zip_utils.obj
 0001:00049380       ??$PutTypeBin@D@CUtlBuffer@@IAEXD@Z 0044a380 f i zip_utils.obj
 0001:000493b0       ?ResetDbgInfo@?$CUtlRBTree@VCZipEntry@CZipFile@@HP6A_NABV12@0@Z@@IAEXXZ 0044a3b0 f i zip_utils.obj
 0001:000493c0       ?Element@?$CUtlRBTree@VCZipEntry@CZipFile@@HP6A_NABV12@0@Z@@QBEABVCZipEntry@CZipFile@@H@Z 0044a3c0 f i zip_utils.obj
 0001:000493e0       ?Element@?$CUtlRBTree@VCZipEntry@CZipFile@@HP6A_NABV12@0@Z@@QAEAAVCZipEntry@CZipFile@@H@Z 0044a3e0 f i zip_utils.obj
 0001:00049400       ??0?$CUtlMemory@UNode_t@?$CUtlRBTree@VCZipEntry@CZipFile@@HP6A_NABV12@0@Z@@@@QAE@HH@Z 0044a400 f i zip_utils.obj
 0001:00049440       ??$Destruct@VCZipEntry@CZipFile@@@@YAXPAVCZipEntry@CZipFile@@@Z 0044a440 f i zip_utils.obj
 0001:00049450       ?Links@?$CUtlRBTree@VCZipEntry@CZipFile@@HP6A_NABV12@0@Z@@IAEAAULinks_t@1@H@Z 0044a450 f i zip_utils.obj
 0001:00049460       ?Links@?$CUtlRBTree@VCZipEntry@CZipFile@@HP6A_NABV12@0@Z@@IBEABULinks_t@1@H@Z 0044a460 f i zip_utils.obj
 0001:000494b0       ?Purge@?$CUtlMemory@UNode_t@?$CUtlRBTree@VCZipEntry@CZipFile@@HP6A_NABV12@0@Z@@@@QAEXXZ 0044a4b0 f i zip_utils.obj
 0001:000494e0       ?SetParent@?$CUtlRBTree@VCZipEntry@CZipFile@@HP6A_NABV12@0@Z@@IAEXHH@Z 0044a4e0 f i zip_utils.obj
 0001:00049500       ?Color@?$CUtlRBTree@VCZipEntry@CZipFile@@HP6A_NABV12@0@Z@@IBE?AW4NodeColor_t@1@H@Z 0044a500 f i zip_utils.obj
 0001:00049550       ?SetColor@?$CUtlRBTree@VCZipEntry@CZipFile@@HP6A_NABV12@0@Z@@IAEXHW4NodeColor_t@1@@Z 0044a550 f i zip_utils.obj
 0001:00049570       ?Grow@?$CUtlMemory@UNode_t@?$CUtlRBTree@VCZipEntry@CZipFile@@HP6A_NABV12@0@Z@@@@QAEXH@Z 0044a570 f i zip_utils.obj
 0001:000495e0       ?IsRed@?$CUtlRBTree@VCZipEntry@CZipFile@@HP6A_NABV12@0@Z@@IBE_NH@Z 0044a5e0 f i zip_utils.obj
 0001:00049640       ?IsBlack@?$CUtlRBTree@VCZipEntry@CZipFile@@HP6A_NABV12@0@Z@@IBE_NH@Z 0044a640 f i zip_utils.obj
 0001:000496a0       ?PutTabs@CUtlBuffer@@IAEXXZ 0044a6a0 f i zip_utils.obj
 0001:000496f0       ?PutChar@CUtlBuffer@@QAEXD@Z 0044a6f0 f i zip_utils.obj
 0001:00049870       ??A?$CUtlRBTree@VCZipEntry@CZipFile@@HP6A_NABV12@0@Z@@QAEAAVCZipEntry@CZipFile@@H@Z 0044a870 f i zip_utils.obj
 0001:00049890       ?Parent@?$CUtlRBTree@VCZipEntry@CZipFile@@HP6A_NABV12@0@Z@@QBEHH@Z 0044a890 f i zip_utils.obj
 0001:000498e0       ?LeftChild@?$CUtlRBTree@VCZipEntry@CZipFile@@HP6A_NABV12@0@Z@@QBEHH@Z 0044a8e0 f i zip_utils.obj
 0001:00049930       ?RightChild@?$CUtlRBTree@VCZipEntry@CZipFile@@HP6A_NABV12@0@Z@@QBEHH@Z 0044a930 f i zip_utils.obj
 0001:00049980       ?IsRightChild@?$CUtlRBTree@VCZipEntry@CZipFile@@HP6A_NABV12@0@Z@@QBE_NH@Z 0044a980 f i zip_utils.obj
 0001:00049a30       ?IsValidIndex@?$CUtlRBTree@VCZipEntry@CZipFile@@HP6A_NABV12@0@Z@@QBE_NH@Z 0044aa30 f i zip_utils.obj
 0001:00049a60       ?Purge@?$CUtlRBTree@VCZipEntry@CZipFile@@HP6A_NABV12@0@Z@@QAEXXZ 0044aa60 f i zip_utils.obj
 0001:00049b20       ?SetLeftChild@?$CUtlRBTree@VCZipEntry@CZipFile@@HP6A_NABV12@0@Z@@IAEXHH@Z 0044ab20 f i zip_utils.obj
 0001:00049b40       ?SetRightChild@?$CUtlRBTree@VCZipEntry@CZipFile@@HP6A_NABV12@0@Z@@IAEXHH@Z 0044ab40 f i zip_utils.obj
 0001:00049b60       ?FindInsertionPosition@?$CUtlRBTree@VCZipEntry@CZipFile@@HP6A_NABV12@0@Z@@IAEXABVCZipEntry@CZipFile@@AAHAA_N@Z 0044ab60 f i zip_utils.obj
 0001:00049c50       ??1?$CUtlMemory@UNode_t@?$CUtlRBTree@VCZipEntry@CZipFile@@HP6A_NABV12@0@Z@@@@QAE@XZ 0044ac50 f i zip_utils.obj
 0001:00049c80       ?NewNode@?$CUtlRBTree@VCZipEntry@CZipFile@@HP6A_NABV12@0@Z@@QAEHXZ 0044ac80 f i zip_utils.obj
 0001:00049d10       ?FreeNode@?$CUtlRBTree@VCZipEntry@CZipFile@@HP6A_NABV12@0@Z@@QAEXH@Z 0044ad10 f i zip_utils.obj
 0001:00049d50       ?IsLeftChild@?$CUtlRBTree@VCZipEntry@CZipFile@@HP6A_NABV12@0@Z@@QBE_NH@Z 0044ad50 f i zip_utils.obj
 0001:00049e00       ?RotateLeft@?$CUtlRBTree@VCZipEntry@CZipFile@@HP6A_NABV12@0@Z@@IAEXH@Z 0044ae00 f i zip_utils.obj
 0001:00049f70       ?RotateRight@?$CUtlRBTree@VCZipEntry@CZipFile@@HP6A_NABV12@0@Z@@IAEXH@Z 0044af70 f i zip_utils.obj
 0001:0004a0f0       ??0?$CUtlRBTree@VCZipEntry@CZipFile@@HP6A_NABV12@0@Z@@QAE@HHABQ6A_NABVCZipEntry@CZipFile@@0@Z@Z 0044b0f0 f i zip_utils.obj
 0001:0004a150       ??1?$CUtlRBTree@VCZipEntry@CZipFile@@HP6A_NABV12@0@Z@@QAE@XZ 0044b150 f i zip_utils.obj
 0001:0004a190       ?Find@?$CUtlRBTree@VCZipEntry@CZipFile@@HP6A_NABV12@0@Z@@QBEHABVCZipEntry@CZipFile@@@Z 0044b190 f i zip_utils.obj
 0001:0004a280       ?RemoveAll@?$CUtlRBTree@VCZipEntry@CZipFile@@HP6A_NABV12@0@Z@@QAEXXZ 0044b280 f i zip_utils.obj
 0001:0004a340       ?FirstInorder@?$CUtlRBTree@VCZipEntry@CZipFile@@HP6A_NABV12@0@Z@@QBEHXZ 0044b340 f i zip_utils.obj
 0001:0004a3d0       ?NextInorder@?$CUtlRBTree@VCZipEntry@CZipFile@@HP6A_NABV12@0@Z@@QBEHH@Z 0044b3d0 f i zip_utils.obj
 0001:0004a520       ?InsertRebalance@?$CUtlRBTree@VCZipEntry@CZipFile@@HP6A_NABV12@0@Z@@IAEXH@Z 0044b520 f i zip_utils.obj
 0001:0004a950       ?RemoveRebalance@?$CUtlRBTree@VCZipEntry@CZipFile@@HP6A_NABV12@0@Z@@IAEXH@Z 0044b950 f i zip_utils.obj
 0001:0004b250       ??0CZipFile@@QAE@XZ        0044c250 f   zip_utils.obj
 0001:0004b2a0       ?ReadFileFromZip@CZipFile@@QAE_NPBD_NAAVCUtlBuffer@@@Z 0044c2a0 f   zip_utils.obj
 0001:0004b3b0       ?FileExistsInZip@CZipFile@@QAE_NPBD@Z 0044c3b0 f   zip_utils.obj
 0001:0004b450       ?CalculateSize@CZipFile@@QAEHXZ 0044c450 f   zip_utils.obj
 0001:0004b510       ?PrintDirectory@CZipFile@@QAEXXZ 0044c510 f   zip_utils.obj
 0001:0004b560       ?GetNextFilename@CZipFile@@QAEHHPADHAAH@Z 0044c560 f   zip_utils.obj
 0001:0004b5d0       ?SaveDirectory@CZipFile@@AAEXAAVIWriteStream@@@Z 0044c5d0 f   zip_utils.obj
 0001:0004b9a0       ?Reset@CZipFile@@QAEXXZ    0044c9a0 f   zip_utils.obj
 0001:0004b9b0       ?FileExistsInZip@CZip@@UAE_NPBD@Z 0044c9b0 f   zip_utils.obj
 0001:0004b9c0       ?ReadFileFromZip@CZip@@UAE_NPBD_NAAVCUtlBuffer@@@Z 0044c9c0 f   zip_utils.obj
 0001:0004b9d0       ?GetNextFilename@CZip@@UAEHHPADHAAH@Z 0044c9d0 f   zip_utils.obj
 0001:0004b9e0       ?PrintDirectory@CZip@@UAEXXZ 0044c9e0 f   zip_utils.obj
 0001:0004b9f0       ?Reset@CZip@@UAEXXZ        0044c9f0 f   zip_utils.obj
 0001:0004ba00       ?EstimateSize@CZip@@UAEHXZ 0044ca00 f   zip_utils.obj
 0001:0004ba10       ?LinkToParent@?$CUtlRBTree@VCZipEntry@CZipFile@@HP6A_NABV12@0@Z@@IAEXHH_N@Z 0044ca10 f i zip_utils.obj
 0001:0004ba80       ?Unlink@?$CUtlRBTree@VCZipEntry@CZipFile@@HP6A_NABV12@0@Z@@IAEXH@Z 0044ca80 f i zip_utils.obj
 0001:0004bcb0       ??1CZipFile@@QAE@XZ        0044ccb0 f   zip_utils.obj
 0001:0004bcf0       ?SaveToDisk@CZipFile@@QAEXPAU_iobuf@@@Z 0044ccf0 f   zip_utils.obj
 0001:0004bd20       ?SaveToBuffer@CZipFile@@QAEXAAVCUtlBuffer@@@Z 0044cd20 f   zip_utils.obj
 0001:0004bd50       ??0CZip@@QAE@XZ            0044cd50 f   zip_utils.obj
 0001:0004bd70       ??1CZip@@UAE@XZ            0044cd70 f   zip_utils.obj
 0001:0004bdc0       ?SaveToBuffer@CZip@@UAEXAAVCUtlBuffer@@@Z 0044cdc0 f   zip_utils.obj
 0001:0004bdf0       ?SaveToDisk@CZip@@UAEXPAU_iobuf@@@Z 0044cdf0 f   zip_utils.obj
 0001:0004be20       ?RemoveAt@?$CUtlRBTree@VCZipEntry@CZipFile@@HP6A_NABV12@0@Z@@QAEXH@Z 0044ce20 f i zip_utils.obj
 0001:0004be70       ?InsertAt@?$CUtlRBTree@VCZipEntry@CZipFile@@HP6A_NABV12@0@Z@@IAEHH_N@Z 0044ce70 f i zip_utils.obj
 0001:0004bea0       ??_GCZip@@UAEPAXI@Z        0044cea0 f i zip_utils.obj
 0001:0004bea0       ??_ECZip@@UAEPAXI@Z        0044cea0 f i zip_utils.obj
 0001:0004bec0       ?Insert@?$CUtlRBTree@VCZipEntry@CZipFile@@HP6A_NABV12@0@Z@@QAEHABVCZipEntry@CZipFile@@@Z 0044cec0 f i zip_utils.obj
 0001:0004bf20       ?Remove@?$CUtlRBTree@VCZipEntry@CZipFile@@HP6A_NABV12@0@Z@@QAE_NABVCZipEntry@CZipFile@@@Z 0044cf20 f i zip_utils.obj
 0001:0004bf50       ?ParseFromBuffer@CZipFile@@QAEXPAEH@Z 0044cf50 f   zip_utils.obj
 0001:0004c340       ?AddBufferToZip@CZipFile@@QAEXPBDPAXH_N@Z 0044d340 f   zip_utils.obj
 0001:0004c500       ?AddFileToZip@CZipFile@@QAEXPBD0@Z 0044d500 f   zip_utils.obj
 0001:0004c580       ?RemoveFileFromZip@CZipFile@@QAEXPBD@Z 0044d580 f   zip_utils.obj
 0001:0004c630       ?AddFileToZip@CZip@@UAEXPBD0@Z 0044d630 f   zip_utils.obj
 0001:0004c640       ?RemoveFileFromZip@CZip@@UAEXPBD@Z 0044d640 f   zip_utils.obj
 0001:0004c650       ?AddBufferToZip@CZip@@UAEXPBDPAXH_N@Z 0044d650 f   zip_utils.obj
 0001:0004c660       ?ParseFromBuffer@CZip@@UAEXPAEH@Z 0044d660 f   zip_utils.obj
 0001:0004c690       _ceilf                     0044d690 f i bsplib.obj
 0001:0004c6b0       ?ceil@@YAMM@Z              0044d6b0 f i bsplib.obj
 0001:0004c6d0       ??0dmodel_t@@QAE@XZ        0044d6d0 f i bsplib.obj
 0001:0004c6e0       ??0dvertex_t@@QAE@XZ       0044d6e0 f i bsplib.obj
 0001:0004c6f0       ??0dprimvert_t@@QAE@XZ     0044d6f0 f i bsplib.obj
 0001:0004c700       ??0dworldlight_t@@QAE@XZ   0044d700 f i bsplib.obj
 0001:0004c710       ??0doverlay_t@@QAE@XZ      0044d710 f i bsplib.obj
 0001:0004c720       ??0dwateroverlay_t@@QAE@XZ 0044d720 f i bsplib.obj
 0001:0004c730       ?GetPakFile@@YAPAVIZip@@XZ 0044d730 f   bsplib.obj
 0001:0004c740       ?ForceAlignment@@YAX_NI@Z  0044d740 f   bsplib.obj
 0001:0004c760       ?ClearPackFile@@YAXXZ      0044d760 f   bsplib.obj
 0001:0004c770       ?AddFileToPack@@YAXPBD0@Z  0044d770 f   bsplib.obj
 0001:0004c790       ?AddBufferToPack@@YAXPBDPAXH_N@Z 0044d790 f   bsplib.obj
 0001:0004c7c0       ?FileExistsInPack@@YA_NPBD@Z 0044d7c0 f   bsplib.obj
 0001:0004c7e0       ?ReadFileFromPack@@YA_NPBD_NAAVCUtlBuffer@@@Z 0044d7e0 f   bsplib.obj
 0001:0004c800       ?RemoveFileFromPack@@YAXPBD@Z 0044d800 f   bsplib.obj
 0001:0004c820       ?GetNextFilename@@YAHHPADHAAH@Z 0044d820 f   bsplib.obj
 0001:0004c850       ?InvalidGameLump@@YAGXZ    0044d850 f   bsplib.obj
 0001:0004c860       ?CompressVis@@YAHPAE0@Z    0044d860 f   bsplib.obj
 0001:0004c8d0       ?DecompressVis@@YAXPAE0@Z  0044d8d0 f   bsplib.obj
 0001:0004c960       ?LumpVersion@@YAHH@Z       0044d960 f   bsplib.obj
 0001:0004c980       ?HasLump@@YA_NH@Z          0044d980 f   bsplib.obj
 0001:0004c9a0       ?CopyLump@@YAHHPAXHH@Z     0044d9a0 f   bsplib.obj
 0001:0004ca30       ?CopyVariableLump@@YAHHPAPAXHH@Z 0044da30 f   bsplib.obj
 0001:0004cac0       ?Lumps_Init@@YAXXZ         0044dac0 f   bsplib.obj
 0001:0004cae0       ?Lumps_Parse@@YAXXZ        0044dae0 f   bsplib.obj
 0001:0004cb60       ?OpenBSPFile@@YAXPAD@Z     0044db60 f   bsplib.obj
 0001:0004cc00       ?CloseBSPFile@@YAXXZ       0044dc00 f   bsplib.obj
 0001:0004cc10       ?LoadBSPFile_FileSystemOnly@@YAXPAD@Z 0044dc10 f   bsplib.obj
 0001:0004cd00       ?ExtractZipFileFromBSP@@YAXPAD0@Z 0044dd00 f   bsplib.obj
 0001:0004cf40       ?GenerateNextLumpFileName@@YA_NPBDPADH@Z 0044df40 f   bsplib.obj
 0001:0004cf90       ?WriteLumpToFile@@YAXPADH@Z 0044df90 f   bsplib.obj
 0001:0004d090       ?ArrayUsage@@YAHPADHHH@Z   0044e090 f   bsplib.obj
 0001:0004d160       ?GlobUsage@@YAHPADHH@Z     0044e160 f   bsplib.obj
 0001:0004d220       ?PrintBSPPackDirectory@@YAXXZ 0044e220 f   bsplib.obj
 0001:0004d230       ??0entity_t@@QAE@XZ        0044e230 f i bsplib.obj
 0001:0004d240       ?StripTrailing@@YAXPAD@Z   0044e240 f   bsplib.obj
 0001:0004d280       ?ParseEpair@@YAPAUepair_t@@XZ 0044e280 f   bsplib.obj
 0001:0004d330       ?ParseEntity@@YAHXZ        0044e330 f   bsplib.obj
 0001:0004d3e0       ?PrintEntity@@YAXPAUentity_t@@@Z 0044e3e0 f   bsplib.obj
 0001:0004d420       ?SetKeyValue@@YAXPAUentity_t@@PBD1@Z 0044e420 f   bsplib.obj
 0001:0004d4c0       ?ValueForKey@@YAPADPAUentity_t@@PAD@Z 0044e4c0 f   bsplib.obj
 0001:0004d520       ?FloatForKey@@YAMPAUentity_t@@PAD@Z 0044e520 f   bsplib.obj
 0001:0004d550       ?IntForKey@@YAHPAUentity_t@@PAD@Z 0044e550 f   bsplib.obj
 0001:0004d570       ?GetVectorForKey@@YAXPAUentity_t@@PADAAVVector@@@Z 0044e570 f   bsplib.obj
 0001:0004d5d0       ?GetVector2DForKey@@YAXPAUentity_t@@PADAAVVector2D@@@Z 0044e5d0 f   bsplib.obj
 0001:0004d620       ?GetAnglesForKey@@YAXPAUentity_t@@PADAAVQAngle@@@Z 0044e620 f   bsplib.obj
 0001:0004d680       ?BuildFaceCalcWindingData@@YAXPAUdface_t@@PAH@Z 0044e680 f   bsplib.obj
 0001:0004d6d0       ?TriStripToTriList@@YAXPBGHPAPAGPAH@Z 0044e6d0 f   bsplib.obj
 0001:0004d7a0       ?CalcTextureCoordsAtPoints@@YAXQAY03$$CBMQBHPBVVector@@HPAVVector2D@@@Z 0044e7a0 f   bsplib.obj
 0001:0004d870       ?LeafCount@CToolBSPTree@@UBEHXZ 0044e870 f   bsplib.obj
 0001:0004d880       ?EnumerateLeavesAtPoint@CToolBSPTree@@UAE_NABVVector@@PAVISpatialLeafEnumerator@@H@Z 0044e880 f   bsplib.obj
 0001:0004da40       ?EnumerateLeavesInBox@CToolBSPTree@@UAE_NABVVector@@0PAVISpatialLeafEnumerator@@H@Z 0044ea40 f   bsplib.obj
 0001:0004db40       ?EnumerateLeavesInSphere@CToolBSPTree@@UAE_NABVVector@@MPAVISpatialLeafEnumerator@@H@Z 0044eb40 f   bsplib.obj
 0001:0004dd90       ?EnumerateLeavesAlongRay@CToolBSPTree@@UAE_NABURay_t@@PAVISpatialLeafEnumerator@@H@Z 0044ed90 f   bsplib.obj
 0001:0004de40       ??0ISpatialQuery@@QAE@XZ   0044ee40 f i bsplib.obj
 0001:0004e080       ?EnumerateNodesAlongRay@@YA_NABURay_t@@PAVIBSPNodeEnumerator@@H@Z 0044f080 f   bsplib.obj
 0001:0004e0b0       ?GetPlatformMapPath@@YAXPBDPADHH@Z 0044f0b0 f   bsplib.obj
 0001:0004e0e0       ?SetHDRMode@@YAX_N@Z       0044f0e0 f   bsplib.obj
 0001:0004e140       ?Count@?$CUtlVector@VCDispVert@@V?$CUtlMemory@VCDispVert@@@@@@QBEHXZ 0044f140 f i bsplib.obj
 0001:0004e150       ?Count@?$CUtlVector@VCDispTri@@V?$CUtlMemory@VCDispTri@@@@@@QBEHXZ 0044f150 f i bsplib.obj
 0001:0004e160       ?Base@?$CUtlMemory@UCompressedLightCube@@@@QAEPAUCompressedLightCube@@XZ 0044f160 f i bsplib.obj
 0001:0004e170       ?Count@?$CUtlVector@UCompressedLightCube@@V?$CUtlMemory@UCompressedLightCube@@@@@@QBEHXZ 0044f170 f i bsplib.obj
 0001:0004e180       ?Count@?$CUtlLinkedList@UGameLump_t@@G@@QBEHXZ 0044f180 f i bsplib.obj
 0001:0004e190       ?InvalidIndex@?$CUtlLinkedList@UGameLump_t@@G@@SAGXZ 0044f190 f i bsplib.obj
 0001:0004e1a0       ?Count@?$CUtlVector@VCFaceMacroTextureInfo@@V?$CUtlMemory@VCFaceMacroTextureInfo@@@@@@QBEHXZ 0044f1a0 f i bsplib.obj
 0001:0004e1b0       ?Count@?$CUtlVector@Udlightmappage_t@@V?$CUtlMemory@Udlightmappage_t@@@@@@QBEHXZ 0044f1b0 f i bsplib.obj
 0001:0004e1c0       ?Base@?$CUtlMemory@Udlightmappage_t@@@@QAEPAUdlightmappage_t@@XZ 0044f1c0 f i bsplib.obj
 0001:0004e1d0       ?Count@?$CUtlVector@Udlightmappageinfo_t@@V?$CUtlMemory@Udlightmappageinfo_t@@@@@@QBEHXZ 0044f1d0 f i bsplib.obj
 0001:0004e1e0       ?Base@?$CUtlMemory@Udlightmappageinfo_t@@@@QAEPAUdlightmappageinfo_t@@XZ 0044f1e0 f i bsplib.obj
 0001:0004e1f0       ?Base@?$CUtlMemory@Uclusterlist_t@@@@QAEPAUclusterlist_t@@XZ 0044f1f0 f i bsplib.obj
 0001:0004e200       ?ConstructList@?$CUtlLinkedList@UGameLump_t@@G@@IAEXXZ 0044f200 f i bsplib.obj
 0001:0004e220       ??A?$CUtlMemory@UListElem_t@?$CUtlLinkedList@UGameLump_t@@G@@@@QAEAAUListElem_t@?$CUtlLinkedList@UGameLump_t@@G@@H@Z 0044f220 f i bsplib.obj
 0001:0004e230       ?Base@?$CUtlMemory@UListElem_t@?$CUtlLinkedList@UGameLump_t@@G@@@@QAEPAUListElem_t@?$CUtlLinkedList@UGameLump_t@@G@@XZ 0044f230 f i bsplib.obj
 0001:0004e240       ?ValidateGrowSize@?$CUtlMemory@E@@IAEXXZ 0044f240 f i bsplib.obj
 0001:0004e250       ?ValidateGrowSize@?$CUtlMemory@Vddispinfo_t@@@@IAEXXZ 0044f250 f i bsplib.obj
 0001:0004e260       ?ValidateGrowSize@?$CUtlMemory@VCDispVert@@@@IAEXXZ 0044f260 f i bsplib.obj
 0001:0004e270       ?ValidateGrowSize@?$CUtlMemory@VCDispTri@@@@IAEXXZ 0044f270 f i bsplib.obj
 0001:0004e280       ?ValidateGrowSize@?$CUtlMemory@VCFaceMacroTextureInfo@@@@IAEXXZ 0044f280 f i bsplib.obj
 0001:0004e290       ?ValidateGrowSize@?$CUtlMemory@Udoccluderdata_t@@@@IAEXXZ 0044f290 f i bsplib.obj
 0001:0004e2a0       ?ValidateGrowSize@?$CUtlMemory@Udoccluderpolydata_t@@@@IAEXXZ 0044f2a0 f i bsplib.obj
 0001:0004e2b0       ?ValidateGrowSize@?$CUtlMemory@Udlightmappage_t@@@@IAEXXZ 0044f2b0 f i bsplib.obj
 0001:0004e2c0       ?ValidateGrowSize@?$CUtlMemory@Udlightmappageinfo_t@@@@IAEXXZ 0044f2c0 f i bsplib.obj
 0001:0004e2d0       ?ValidateGrowSize@?$CUtlMemory@Uclusterlist_t@@@@IAEXXZ 0044f2d0 f i bsplib.obj
 0001:0004e2e0       ?ValidateGrowSize@?$CUtlMemory@UCompressedLightCube@@@@IAEXXZ 0044f2e0 f i bsplib.obj
 0001:0004e2f0       ?ValidateGrowSize@?$CUtlMemory@UListElem_t@?$CUtlLinkedList@UGameLump_t@@G@@@@IAEXXZ 0044f2f0 f i bsplib.obj
 0001:0004e300       ??$Destruct@UCompressedLightCube@@@@YAXPAUCompressedLightCube@@@Z 0044f300 f i bsplib.obj
 0001:0004e310       ??A?$CUtlMemory@UListElem_t@?$CUtlLinkedList@UGameLump_t@@G@@@@QBEABUListElem_t@?$CUtlLinkedList@UGameLump_t@@G@@H@Z 0044f310 f i bsplib.obj
 0001:0004e320       ??4doccluderdata_t@@QAEAAU0@ABU0@@Z 0044f320 f i bsplib.obj
 0001:0004e370       ??$Destruct@E@@YAXPAE@Z    0044f370 f i bsplib.obj
 0001:0004e380       ??$Destruct@Udlightmappage_t@@@@YAXPAUdlightmappage_t@@@Z 0044f380 f i bsplib.obj
 0001:0004e390       ?IsExternallyAllocated@?$CUtlMemory@Udlightmappage_t@@@@QBE_NXZ 0044f390 f i bsplib.obj
 0001:0004e3a0       ??$Destruct@Udlightmappageinfo_t@@@@YAXPAUdlightmappageinfo_t@@@Z 0044f3a0 f i bsplib.obj
 0001:0004e3b0       ?IsExternallyAllocated@?$CUtlMemory@Udlightmappageinfo_t@@@@QBE_NXZ 0044f3b0 f i bsplib.obj
 0001:0004e3c0       ?IsExternallyAllocated@?$CUtlMemory@Uclusterlist_t@@@@QBE_NXZ 0044f3c0 f i bsplib.obj
 0001:0004e3d0       ?IsExternallyAllocated@?$CUtlMemory@UCompressedLightCube@@@@QBE_NXZ 0044f3d0 f i bsplib.obj
 0001:0004e3e0       ??$Construct@UCompressedLightCube@@@@YAXPAUCompressedLightCube@@@Z 0044f3e0 f i bsplib.obj
 0001:0004e3f0       ?NumAllocated@?$CUtlMemory@UListElem_t@?$CUtlLinkedList@UGameLump_t@@G@@@@QBEHXZ 0044f3f0 f i bsplib.obj
 0001:0004e400       ?IsExternallyAllocated@?$CUtlMemory@UListElem_t@?$CUtlLinkedList@UGameLump_t@@G@@@@QBE_NXZ 0044f400 f i bsplib.obj
 0001:0004e410       ?NumAllocated@?$CUtlMemory@Uclusterlist_t@@@@QBEHXZ 0044f410 f i bsplib.obj
 0001:0004e420       ?Grow@?$CUtlMemory@Uclusterlist_t@@@@QAEXH@Z 0044f420 f i bsplib.obj
 0001:0004e4a0       ?NumAllocated@?$CUtlMemory@UCompressedLightCube@@@@QBEHXZ 0044f4a0 f i bsplib.obj
 0001:0004e4b0       ?Grow@?$CUtlMemory@UCompressedLightCube@@@@QAEXH@Z 0044f4b0 f i bsplib.obj
 0001:0004e530       ?InternalElement@?$CUtlLinkedList@UGameLump_t@@G@@IBEABUListElem_t@1@G@Z 0044f530 f i bsplib.obj
 0001:0004e540       ??$Construct@E@@YAXPAE@Z   0044f540 f i bsplib.obj
 0001:0004e550       ??$Construct@Udlightmappage_t@@@@YAXPAUdlightmappage_t@@@Z 0044f550 f i bsplib.obj
 0001:0004e560       ??$Construct@Udlightmappageinfo_t@@@@YAXPAUdlightmappageinfo_t@@@Z 0044f560 f i bsplib.obj
 0001:0004e570       ?NumAllocated@?$CUtlMemory@Udlightmappage_t@@@@QBEHXZ 0044f570 f i bsplib.obj
 0001:0004e580       ?Grow@?$CUtlMemory@Udlightmappage_t@@@@QAEXH@Z 0044f580 f i bsplib.obj
 0001:0004e5f0       ?NumAllocated@?$CUtlMemory@Udlightmappageinfo_t@@@@QBEHXZ 0044f5f0 f i bsplib.obj
 0001:0004e600       ?Grow@?$CUtlMemory@Udlightmappageinfo_t@@@@QAEXH@Z 0044f600 f i bsplib.obj
 0001:0004e730       ?FirstGameLump@@YAGXZ      0044f730 f   bsplib.obj
 0001:0004e750       ?NextGameLump@@YAGG@Z      0044f750 f   bsplib.obj
 0001:0004e770       ?Lumps_Write@@YAXXZ        0044f770 f   bsplib.obj
 0001:0004e840       ??0CToolBSPTree@@QAE@XZ    0044f840 f i bsplib.obj
 0001:0004e850       ?Base@?$CUtlVector@UCompressedLightCube@@V?$CUtlMemory@UCompressedLightCube@@@@@@QAEPAUCompressedLightCube@@XZ 0044f850 f i bsplib.obj
 0001:0004e860       ?EnsureCapacity@?$CUtlMemory@E@@QAEXH@Z 0044f860 f i bsplib.obj
 0001:0004e8b0       ??$GetType@H@CUtlBuffer@@IAEXAAHPBD@Z 0044f8b0 f i bsplib.obj
 0001:0004e910       ??A?$CUtlVector@UCompressedLightCube@@V?$CUtlMemory@UCompressedLightCube@@@@@@QAEAAUCompressedLightCube@@H@Z 0044f910 f i bsplib.obj
 0001:0004e920       ??A?$CUtlLinkedList@UGameLump_t@@G@@QAEAAUGameLump_t@@G@Z 0044f920 f i bsplib.obj
 0001:0004e9d0       ?Base@?$CUtlVector@Udlightmappage_t@@V?$CUtlMemory@Udlightmappage_t@@@@@@QAEPAUdlightmappage_t@@XZ 0044f9d0 f i bsplib.obj
 0001:0004e9e0       ?ResetDbgInfo@?$CUtlVector@Udlightmappage_t@@V?$CUtlMemory@Udlightmappage_t@@@@@@IAEXXZ 0044f9e0 f i bsplib.obj
 0001:0004e9f0       ?Base@?$CUtlVector@Udlightmappageinfo_t@@V?$CUtlMemory@Udlightmappageinfo_t@@@@@@QAEPAUdlightmappageinfo_t@@XZ 0044f9f0 f i bsplib.obj
 0001:0004ea00       ?ResetDbgInfo@?$CUtlVector@Udlightmappageinfo_t@@V?$CUtlMemory@Udlightmappageinfo_t@@@@@@IAEXXZ 0044fa00 f i bsplib.obj
 0001:0004ea10       ?Base@?$CUtlVector@Uclusterlist_t@@V?$CUtlMemory@Uclusterlist_t@@@@@@QAEPAUclusterlist_t@@XZ 0044fa10 f i bsplib.obj
 0001:0004ea20       ?ResetDbgInfo@?$CUtlVector@Uclusterlist_t@@V?$CUtlMemory@Uclusterlist_t@@@@@@IAEXXZ 0044fa20 f i bsplib.obj
 0001:0004ea30       ?ResetDbgInfo@?$CUtlVector@UCompressedLightCube@@V?$CUtlMemory@UCompressedLightCube@@@@@@IAEXXZ 0044fa30 f i bsplib.obj
 0001:0004ea40       ?InternalElement@?$CUtlLinkedList@UGameLump_t@@G@@IAEAAUListElem_t@1@G@Z 0044fa40 f i bsplib.obj
 0001:0004ea50       ?ResetDbgInfo@?$CUtlLinkedList@UGameLump_t@@G@@IAEXXZ 0044fa50 f i bsplib.obj
 0001:0004ea60       ??0?$CUtlMemory@E@@QAE@HH@Z 0044fa60 f i bsplib.obj
 0001:0004eaa0       ??0?$CUtlMemory@Vddispinfo_t@@@@QAE@HH@Z 0044faa0 f i bsplib.obj
 0001:0004eae0       ??0?$CUtlMemory@VCDispVert@@@@QAE@HH@Z 0044fae0 f i bsplib.obj
 0001:0004eb20       ??0?$CUtlMemory@VCDispTri@@@@QAE@HH@Z 0044fb20 f i bsplib.obj
 0001:0004eb60       ??0?$CUtlMemory@VCFaceMacroTextureInfo@@@@QAE@HH@Z 0044fb60 f i bsplib.obj
 0001:0004eba0       ??0?$CUtlMemory@Udoccluderdata_t@@@@QAE@HH@Z 0044fba0 f i bsplib.obj
 0001:0004ebe0       ??0?$CUtlMemory@Udoccluderpolydata_t@@@@QAE@HH@Z 0044fbe0 f i bsplib.obj
 0001:0004ec20       ??0?$CUtlMemory@Udlightmappage_t@@@@QAE@HH@Z 0044fc20 f i bsplib.obj
 0001:0004ec60       ??0?$CUtlMemory@Udlightmappageinfo_t@@@@QAE@HH@Z 0044fc60 f i bsplib.obj
 0001:0004eca0       ??0?$CUtlMemory@Uclusterlist_t@@@@QAE@HH@Z 0044fca0 f i bsplib.obj
 0001:0004ece0       ??0?$CUtlMemory@UCompressedLightCube@@@@QAE@HH@Z 0044fce0 f i bsplib.obj
 0001:0004ed20       ?Element@?$CUtlLinkedList@UGameLump_t@@G@@QAEAAUGameLump_t@@G@Z 0044fd20 f i bsplib.obj
 0001:0004ed30       ?IsValidIndex@?$CUtlLinkedList@UGameLump_t@@G@@QBE_NG@Z 0044fd30 f i bsplib.obj
 0001:0004ed60       ??0?$CUtlMemory@UListElem_t@?$CUtlLinkedList@UGameLump_t@@G@@@@QAE@HH@Z 0044fd60 f i bsplib.obj
 0001:0004eda0       ?RemoveAll@?$CUtlVector@EV?$CUtlMemory@E@@@@QAEXXZ 0044fda0 f i bsplib.obj
 0001:0004edb0       ?Purge@?$CUtlMemory@VCDispVert@@@@QAEXXZ 0044fdb0 f i bsplib.obj
 0001:0004ede0       ?Purge@?$CUtlMemory@VCDispTri@@@@QAEXXZ 0044fde0 f i bsplib.obj
 0001:0004ee10       ?Purge@?$CUtlMemory@VCFaceMacroTextureInfo@@@@QAEXXZ 0044fe10 f i bsplib.obj
 0001:0004ee40       ?Purge@?$CUtlMemory@Udoccluderdata_t@@@@QAEXXZ 0044fe40 f i bsplib.obj
 0001:0004ee70       ?Purge@?$CUtlMemory@Udoccluderpolydata_t@@@@QAEXXZ 0044fe70 f i bsplib.obj
 0001:0004eea0       ?Purge@?$CUtlMemory@Udlightmappage_t@@@@QAEXXZ 0044fea0 f i bsplib.obj
 0001:0004eed0       ?Purge@?$CUtlMemory@Udlightmappageinfo_t@@@@QAEXXZ 0044fed0 f i bsplib.obj
 0001:0004ef00       ?Element@?$CUtlVector@Uclusterlist_t@@V?$CUtlMemory@Uclusterlist_t@@@@@@QAEAAUclusterlist_t@@H@Z 0044ff00 f i bsplib.obj
 0001:0004ef10       ?Purge@?$CUtlMemory@Uclusterlist_t@@@@QAEXXZ 0044ff10 f i bsplib.obj
 0001:0004ef40       ?Purge@?$CUtlMemory@UCompressedLightCube@@@@QAEXXZ 0044ff40 f i bsplib.obj
 0001:0004ef70       ?Element@?$CUtlVector@UCompressedLightCube@@V?$CUtlMemory@UCompressedLightCube@@@@@@QAEAAUCompressedLightCube@@H@Z 0044ff70 f i bsplib.obj
 0001:0004ef80       ?Purge@?$CUtlMemory@UListElem_t@?$CUtlLinkedList@UGameLump_t@@G@@@@QAEXXZ 0044ff80 f i bsplib.obj
 0001:0004efb0       ?Element@?$CUtlVector@Udlightmappage_t@@V?$CUtlMemory@Udlightmappage_t@@@@@@QAEAAUdlightmappage_t@@H@Z 0044ffb0 f i bsplib.obj
 0001:0004efc0       ?Element@?$CUtlVector@Udlightmappageinfo_t@@V?$CUtlMemory@Udlightmappageinfo_t@@@@@@QAEAAUdlightmappageinfo_t@@H@Z 0044ffc0 f i bsplib.obj
 0001:0004efd0       ?GrowVector@?$CUtlVector@Uclusterlist_t@@V?$CUtlMemory@Uclusterlist_t@@@@@@IAEXH@Z 0044ffd0 f i bsplib.obj
 0001:0004f000       ?ShiftElementsRight@?$CUtlVector@Uclusterlist_t@@V?$CUtlMemory@Uclusterlist_t@@@@@@IAEXHH@Z 00450000 f i bsplib.obj
 0001:0004f050       ?GrowVector@?$CUtlVector@UCompressedLightCube@@V?$CUtlMemory@UCompressedLightCube@@@@@@IAEXH@Z 00450050 f i bsplib.obj
 0001:0004f080       ?ShiftElementsRight@?$CUtlVector@UCompressedLightCube@@V?$CUtlMemory@UCompressedLightCube@@@@@@IAEXHH@Z 00450080 f i bsplib.obj
 0001:0004f0d0       ?Grow@?$CUtlMemory@UListElem_t@?$CUtlLinkedList@UGameLump_t@@G@@@@QAEXH@Z 004500d0 f i bsplib.obj
 0001:0004f150       ?Previous@?$CUtlLinkedList@UGameLump_t@@G@@QBEGG@Z 00450150 f i bsplib.obj
 0001:0004f170       ?GrowVector@?$CUtlVector@Udlightmappage_t@@V?$CUtlMemory@Udlightmappage_t@@@@@@IAEXH@Z 00450170 f i bsplib.obj
 0001:0004f1a0       ?ShiftElementsRight@?$CUtlVector@Udlightmappage_t@@V?$CUtlMemory@Udlightmappage_t@@@@@@IAEXHH@Z 004501a0 f i bsplib.obj
 0001:0004f1f0       ?GrowVector@?$CUtlVector@Udlightmappageinfo_t@@V?$CUtlMemory@Udlightmappageinfo_t@@@@@@IAEXH@Z 004501f0 f i bsplib.obj
 0001:0004f220       ?ShiftElementsRight@?$CUtlVector@Udlightmappageinfo_t@@V?$CUtlMemory@Udlightmappageinfo_t@@@@@@IAEXHH@Z 00450220 f i bsplib.obj
 0001:0004f260       ?GetInt@CUtlBuffer@@QAEHXZ 00450260 f i bsplib.obj
 0001:0004f280       ?GetGameLumpHandle@@YAGH@Z 00450280 f   bsplib.obj
 0001:0004f2b0       ?GetGameLumpId@@YAHG@Z     004502b0 f   bsplib.obj
 0001:0004f2d0       ?GetGameLumpFlags@@YAHG@Z  004502d0 f   bsplib.obj
 0001:0004f2f0       ?GetGameLumpVersion@@YAHG@Z 004502f0 f   bsplib.obj
 0001:0004f310       ?GetGameLump@@YAPAXG@Z     00450310 f   bsplib.obj
 0001:0004f330       ?GameLumpSize@@YAHG@Z      00450330 f   bsplib.obj
 0001:0004f350       ?TexDataStringTable_GetString@@YAPBDH@Z 00450350 f   bsplib.obj
 0001:0004f660       ?PrintBSPFileSizes@@YAXXZ  00450660 f   bsplib.obj
 0001:0004fc30       ?ParseEntities@@YAXXZ      00450c30 f   bsplib.obj
 0001:0004fc60       ?CalcFaceExtents@@YAXPAUdface_t@@QAH1@Z 00450c60 f   bsplib.obj
 0001:0004ff50       ?UpdateAllFaceLightmapExtents@@YAXXZ 00450f50 f   bsplib.obj
 0001:0004ffa0       ?ToolBSPTree@@YAPAVISpatialQuery@@XZ 00450fa0 f   bsplib.obj
 0001:0004ffd0       ??0?$CUtlVector@EV?$CUtlMemory@E@@@@QAE@HH@Z 00450fd0 f i bsplib.obj
 0001:00050010       ??A?$CUtlVector@Uclusterlist_t@@V?$CUtlMemory@Uclusterlist_t@@@@@@QAEAAUclusterlist_t@@H@Z 00451010 f i bsplib.obj
 0001:000500e0       ?Purge@?$CUtlVector@EV?$CUtlMemory@E@@@@QAEXXZ 004510e0 f i bsplib.obj
 0001:00050130       ??1?$CUtlMemory@Vddispinfo_t@@@@QAE@XZ 00451130 f i bsplib.obj
 0001:00050160       ??1?$CUtlMemory@VCDispVert@@@@QAE@XZ 00451160 f i bsplib.obj
 0001:00050190       ??1?$CUtlMemory@VCDispTri@@@@QAE@XZ 00451190 f i bsplib.obj
 0001:000501c0       ??1?$CUtlMemory@VCFaceMacroTextureInfo@@@@QAE@XZ 004511c0 f i bsplib.obj
 0001:000501f0       ??1?$CUtlMemory@Udoccluderdata_t@@@@QAE@XZ 004511f0 f i bsplib.obj
 0001:00050220       ?Purge@?$CUtlVector@Udoccluderdata_t@@V?$CUtlMemory@Udoccluderdata_t@@@@@@QAEXXZ 00451220 f i bsplib.obj
 0001:00050270       ??1?$CUtlMemory@Udoccluderpolydata_t@@@@QAE@XZ 00451270 f i bsplib.obj
 0001:000502a0       ?Purge@?$CUtlVector@Udoccluderpolydata_t@@V?$CUtlMemory@Udoccluderpolydata_t@@@@@@QAEXXZ 004512a0 f i bsplib.obj
 0001:000502f0       ??1?$CUtlMemory@Udlightmappage_t@@@@QAE@XZ 004512f0 f i bsplib.obj
 0001:00050320       ??1?$CUtlMemory@Udlightmappageinfo_t@@@@QAE@XZ 00451320 f i bsplib.obj
 0001:00050350       ??1?$CUtlMemory@Uclusterlist_t@@@@QAE@XZ 00451350 f i bsplib.obj
 0001:00050380       ??1?$CUtlMemory@UCompressedLightCube@@@@QAE@XZ 00451380 f i bsplib.obj
 0001:000503b0       ?RemoveAll@?$CUtlVector@UCompressedLightCube@@V?$CUtlMemory@UCompressedLightCube@@@@@@QAEXXZ 004513b0 f i bsplib.obj
 0001:000503c0       ?Purge@?$CUtlVector@UCompressedLightCube@@V?$CUtlMemory@UCompressedLightCube@@@@@@QAEXXZ 004513c0 f i bsplib.obj
 0001:00050410       ??1?$CUtlMemory@UListElem_t@?$CUtlLinkedList@UGameLump_t@@G@@@@QAE@XZ 00451410 f i bsplib.obj
 0001:00050440       ??1GameLump_t@@QAE@XZ      00451440 f i bsplib.obj
 0001:00050470       ?InsertMultipleBefore@?$CUtlVector@Udoccluderdata_t@@V?$CUtlMemory@Udoccluderdata_t@@@@@@QAEHHHPBUdoccluderdata_t@@@Z 00451470 f i bsplib.obj
 0001:000506c0       ?InsertMultipleBefore@?$CUtlVector@Udoccluderpolydata_t@@V?$CUtlMemory@Udoccluderpolydata_t@@@@@@QAEHHHPBUdoccluderpolydata_t@@@Z 004516c0 f i bsplib.obj
 0001:00050770       ?RemoveAll@?$CUtlVector@Udlightmappage_t@@V?$CUtlMemory@Udlightmappage_t@@@@@@QAEXXZ 00451770 f i bsplib.obj
 0001:00050780       ?RemoveAll@?$CUtlVector@Udlightmappageinfo_t@@V?$CUtlMemory@Udlightmappageinfo_t@@@@@@QAEXXZ 00451780 f i bsplib.obj
 0001:00050790       ?InsertMultipleBefore@?$CUtlVector@UCompressedLightCube@@V?$CUtlMemory@UCompressedLightCube@@@@@@QAEHHHPBUCompressedLightCube@@@Z 00451790 f i bsplib.obj
 0001:00050850       ?AllocInternal@?$CUtlLinkedList@UGameLump_t@@G@@IAEG_N@Z 00451850 f i bsplib.obj
 0001:00050900       ??0GameLump_t@@QAE@XZ      00451900 f i bsplib.obj
 0001:00050910       ?IsInList@?$CUtlLinkedList@UGameLump_t@@G@@QBE_NG@Z 00451910 f i bsplib.obj
 0001:00050940       ?InsertMultipleBefore@?$CUtlVector@EV?$CUtlMemory@E@@@@QAEHHHPBE@Z 00451940 f i bsplib.obj
 0001:000509d0       ?InsertMultipleBefore@?$CUtlVector@Udlightmappage_t@@V?$CUtlMemory@Udlightmappage_t@@@@@@QAEHHHPBUdlightmappage_t@@@Z 004519d0 f i bsplib.obj
 0001:00050a90       ?InsertMultipleBefore@?$CUtlVector@Udlightmappageinfo_t@@V?$CUtlMemory@Udlightmappageinfo_t@@@@@@QAEHHHPBUdlightmappageinfo_t@@@Z 00451a90 f i bsplib.obj
 0001:00050b30       ??1?$CUtlVector@EV?$CUtlMemory@E@@@@QAE@XZ 00451b30 f i bsplib.obj
 0001:00050ba0       ??0?$CUtlVector@Vddispinfo_t@@V?$CUtlMemory@Vddispinfo_t@@@@@@QAE@HH@Z 00451ba0 f i bsplib.obj
 0001:00050bf0       ??0?$CUtlVector@VCDispVert@@V?$CUtlMemory@VCDispVert@@@@@@QAE@HH@Z 00451bf0 f i bsplib.obj
 0001:00050c40       ??0?$CUtlVector@VCDispTri@@V?$CUtlMemory@VCDispTri@@@@@@QAE@HH@Z 00451c40 f i bsplib.obj
 0001:00050c90       ??0?$CUtlVector@VCFaceMacroTextureInfo@@V?$CUtlMemory@VCFaceMacroTextureInfo@@@@@@QAE@HH@Z 00451c90 f i bsplib.obj
 0001:00050ce0       ??0?$CUtlVector@Udoccluderdata_t@@V?$CUtlMemory@Udoccluderdata_t@@@@@@QAE@HH@Z 00451ce0 f i bsplib.obj
 0001:00050d30       ??1?$CUtlVector@Udoccluderdata_t@@V?$CUtlMemory@Udoccluderdata_t@@@@@@QAE@XZ 00451d30 f i bsplib.obj
 0001:00050da0       ??0?$CUtlVector@Udoccluderpolydata_t@@V?$CUtlMemory@Udoccluderpolydata_t@@@@@@QAE@HH@Z 00451da0 f i bsplib.obj
 0001:00050df0       ??1?$CUtlVector@Udoccluderpolydata_t@@V?$CUtlMemory@Udoccluderpolydata_t@@@@@@QAE@XZ 00451df0 f i bsplib.obj
 0001:00050e60       ??0?$CUtlVector@Udlightmappage_t@@V?$CUtlMemory@Udlightmappage_t@@@@@@QAE@HH@Z 00451e60 f i bsplib.obj
 0001:00050eb0       ??0?$CUtlVector@Udlightmappageinfo_t@@V?$CUtlMemory@Udlightmappageinfo_t@@@@@@QAE@HH@Z 00451eb0 f i bsplib.obj
 0001:00050f00       ??0?$CUtlVector@Uclusterlist_t@@V?$CUtlMemory@Uclusterlist_t@@@@@@QAE@HH@Z 00451f00 f i bsplib.obj
 0001:00050f50       ??0?$CUtlVector@UCompressedLightCube@@V?$CUtlMemory@UCompressedLightCube@@@@@@QAE@HH@Z 00451f50 f i bsplib.obj
 0001:00050fa0       ??1?$CUtlVector@UCompressedLightCube@@V?$CUtlMemory@UCompressedLightCube@@@@@@QAE@XZ 00451fa0 f i bsplib.obj
 0001:00051010       ??0?$CUtlLinkedList@UGameLump_t@@G@@QAE@HH@Z 00452010 f i bsplib.obj
 0001:00051070       ?Purge@?$CUtlVector@VCDispVert@@V?$CUtlMemory@VCDispVert@@@@@@QAEXXZ 00452070 f i bsplib.obj
 0001:000510c0       ?Purge@?$CUtlVector@VCDispTri@@V?$CUtlMemory@VCDispTri@@@@@@QAEXXZ 004520c0 f i bsplib.obj
 0001:00051110       ?Purge@?$CUtlVector@VCFaceMacroTextureInfo@@V?$CUtlMemory@VCFaceMacroTextureInfo@@@@@@QAEXXZ 00452110 f i bsplib.obj
 0001:00051160       ?AddMultipleToTail@?$CUtlVector@Udoccluderdata_t@@V?$CUtlMemory@Udoccluderdata_t@@@@@@QAEHHPBUdoccluderdata_t@@@Z 00452160 f i bsplib.obj
 0001:00051180       ?AddMultipleToTail@?$CUtlVector@Udoccluderpolydata_t@@V?$CUtlMemory@Udoccluderpolydata_t@@@@@@QAEHHPBUdoccluderpolydata_t@@@Z 00452180 f i bsplib.obj
 0001:000511a0       ?Purge@?$CUtlVector@Udlightmappage_t@@V?$CUtlMemory@Udlightmappage_t@@@@@@QAEXXZ 004521a0 f i bsplib.obj
 0001:000511f0       ?Purge@?$CUtlVector@Udlightmappageinfo_t@@V?$CUtlMemory@Udlightmappageinfo_t@@@@@@QAEXXZ 004521f0 f i bsplib.obj
 0001:00051240       ?AddMultipleToTail@?$CUtlVector@UCompressedLightCube@@V?$CUtlMemory@UCompressedLightCube@@@@@@QAEHHPBUCompressedLightCube@@@Z 00452240 f i bsplib.obj
 0001:00051260       ??_GGameLump_t@@QAEPAXI@Z  00452260 f i bsplib.obj
 0001:000512b0       ?Unlink@?$CUtlLinkedList@UGameLump_t@@G@@QAEXG@Z 004522b0 f i bsplib.obj
 0001:00051350       ??$Construct@UGameLump_t@@@@YAXPAUGameLump_t@@@Z 00452350 f i bsplib.obj
 0001:00051370       ??1clusterlist_t@@QAE@XZ   00452370 f i bsplib.obj
 0001:00051380       ?AddMultipleToTail@?$CUtlVector@EV?$CUtlMemory@E@@@@QAEHHPBE@Z 00452380 f i bsplib.obj
 0001:000513a0       ?AddMultipleToTail@?$CUtlVector@Udlightmappage_t@@V?$CUtlMemory@Udlightmappage_t@@@@@@QAEHHPBUdlightmappage_t@@@Z 004523a0 f i bsplib.obj
 0001:000513c0       ?AddMultipleToTail@?$CUtlVector@Udlightmappageinfo_t@@V?$CUtlMemory@Udlightmappageinfo_t@@@@@@QAEHHPBUdlightmappageinfo_t@@@Z 004523c0 f i bsplib.obj
 0001:000513e0       ??0clusterlist_t@@QAE@XZ   004523e0 f i bsplib.obj
 0001:000514c0       ?LoadBSPFileTexinfo@@YAXPAD@Z 004524c0 f   bsplib.obj
 0001:00051660       ??1?$CUtlVector@Vddispinfo_t@@V?$CUtlMemory@Vddispinfo_t@@@@@@QAE@XZ 00452660 f i bsplib.obj
 0001:000516d0       ??1?$CUtlVector@VCDispVert@@V?$CUtlMemory@VCDispVert@@@@@@QAE@XZ 004526d0 f i bsplib.obj
 0001:00051740       ??1?$CUtlVector@VCDispTri@@V?$CUtlMemory@VCDispTri@@@@@@QAE@XZ 00452740 f i bsplib.obj
 0001:000517b0       ??1?$CUtlVector@VCFaceMacroTextureInfo@@V?$CUtlMemory@VCFaceMacroTextureInfo@@@@@@QAE@XZ 004527b0 f i bsplib.obj
 0001:00051820       ?SetCount@?$CUtlVector@Udoccluderdata_t@@V?$CUtlMemory@Udoccluderdata_t@@@@@@QAEXH@Z 00452820 f i bsplib.obj
 0001:00051840       ?SetCount@?$CUtlVector@Udoccluderpolydata_t@@V?$CUtlMemory@Udoccluderpolydata_t@@@@@@QAEXH@Z 00452840 f i bsplib.obj
 0001:00051860       ??1?$CUtlVector@Udlightmappage_t@@V?$CUtlMemory@Udlightmappage_t@@@@@@QAE@XZ 00452860 f i bsplib.obj
 0001:000518d0       ??1?$CUtlVector@Udlightmappageinfo_t@@V?$CUtlMemory@Udlightmappageinfo_t@@@@@@QAE@XZ 004528d0 f i bsplib.obj
 0001:00051940       ?SetCount@?$CUtlVector@UCompressedLightCube@@V?$CUtlMemory@UCompressedLightCube@@@@@@QAEXH@Z 00452940 f i bsplib.obj
 0001:00051960       ?SetSize@?$CUtlVector@UCompressedLightCube@@V?$CUtlMemory@UCompressedLightCube@@@@@@QAEXH@Z 00452960 f i bsplib.obj
 0001:00051980       ??$Destruct@UGameLump_t@@@@YAXPAUGameLump_t@@@Z 00452980 f i bsplib.obj
 0001:000519c0       ?SetCount@?$CUtlVector@EV?$CUtlMemory@E@@@@QAEXH@Z 004529c0 f i bsplib.obj
 0001:00051a10       ?SetCount@?$CUtlVector@Udlightmappage_t@@V?$CUtlMemory@Udlightmappage_t@@@@@@QAEXH@Z 00452a10 f i bsplib.obj
 0001:00051a30       ?SetCount@?$CUtlVector@Udlightmappageinfo_t@@V?$CUtlMemory@Udlightmappageinfo_t@@@@@@QAEXH@Z 00452a30 f i bsplib.obj
 0001:00051a50       ?LinkBefore@?$CUtlLinkedList@UGameLump_t@@G@@QAEXGG@Z 00452a50 f i bsplib.obj
 0001:00051ad0       ??_Gclusterlist_t@@QAEPAXI@Z 00452ad0 f i bsplib.obj
 0001:00051b00       ??$Construct@Uclusterlist_t@@@@YAXPAUclusterlist_t@@@Z 00452b00 f i bsplib.obj
 0001:00051b20       ?TexDataStringTable_AddOrFindString@@YAHPBD@Z 00452b20 f   bsplib.obj
 0001:00051d80       ?LoadLeafs@@YAHXZ          00452d80 f   bsplib.obj
 0001:00051ed0       ?WriteBSPFile@@YAXPAD0@Z   00452ed0 f   bsplib.obj
 0001:000525d0       ?RemoveAll@?$CUtlLinkedList@UGameLump_t@@G@@QAEXXZ 004535d0 f i bsplib.obj
 0001:00052690       ??$CopyLump@Utexinfo_s@@@@YAXHAAV?$CUtlVector@Utexinfo_s@@V?$CUtlMemory@Utexinfo_s@@@@@@H@Z 00453690 f i bsplib.obj
 0001:00052740       ??$CopyOptionalLump@UCompressedLightCube@@@@YAXHAAV?$CUtlVector@UCompressedLightCube@@V?$CUtlMemory@UCompressedLightCube@@@@@@H@Z 00453740 f i bsplib.obj
 0001:000527f0       ??$CopyLump@D@@YAXHAAV?$CUtlVector@DV?$CUtlMemory@D@@@@H@Z 004537f0 f i bsplib.obj
 0001:00052890       ??$CopyLump@H@@YAXHAAV?$CUtlVector@HV?$CUtlMemory@H@@@@H@Z 00453890 f i bsplib.obj
 0001:00052930       ?SetSize@?$CUtlVector@EV?$CUtlMemory@E@@@@QAEXH@Z 00453930 f i bsplib.obj
 0001:00052980       ?SetSize@?$CUtlVector@Udlightmappage_t@@V?$CUtlMemory@Udlightmappage_t@@@@@@QAEXH@Z 00453980 f i bsplib.obj
 0001:000529a0       ?SetSize@?$CUtlVector@Udlightmappageinfo_t@@V?$CUtlMemory@Udlightmappageinfo_t@@@@@@QAEXH@Z 004539a0 f i bsplib.obj
 0001:000529c0       ?InsertBefore@?$CUtlLinkedList@UGameLump_t@@G@@QAEGG@Z 004539c0 f i bsplib.obj
 0001:00052a10       ?Free@?$CUtlLinkedList@UGameLump_t@@G@@QAEXG@Z 00453a10 f i bsplib.obj
 0001:00052a70       ??$Destruct@Uclusterlist_t@@@@YAXPAUclusterlist_t@@@Z 00453a70 f i bsplib.obj
 0001:00052a80       ?DestroyAllGameLumps@@YAXXZ 00453a80 f   bsplib.obj
 0001:00052a90       ?UnparseEntities@@YAXXZ    00453a90 f   bsplib.obj
 0001:00052cc0       ??1?$CUtlLinkedList@UGameLump_t@@G@@QAE@XZ 00453cc0 f i bsplib.obj
 0001:00052d00       ?AddToTail@?$CUtlLinkedList@UGameLump_t@@G@@QAEGXZ 00453d00 f i bsplib.obj
 0001:00052d80       ?Remove@?$CUtlLinkedList@UGameLump_t@@G@@QAEXG@Z 00453d80 f i bsplib.obj
 0001:00052d90       ??$CopyLump@Vddispinfo_t@@@@YAXHAAV?$CUtlVector@Vddispinfo_t@@V?$CUtlMemory@Vddispinfo_t@@@@@@H@Z 00453d90 f i bsplib.obj
 0001:00052e40       ??$CopyLump@VCDispVert@@@@YAXHAAV?$CUtlVector@VCDispVert@@V?$CUtlMemory@VCDispVert@@@@@@H@Z 00453e40 f i bsplib.obj
 0001:00052ef0       ??$CopyLump@VCDispTri@@@@YAXHAAV?$CUtlVector@VCDispTri@@V?$CUtlMemory@VCDispTri@@@@@@H@Z 00453ef0 f i bsplib.obj
 0001:00052f80       ??$CopyLump@E@@YAXHAAV?$CUtlVector@EV?$CUtlMemory@E@@@@H@Z 00453f80 f i bsplib.obj
 0001:00053020       ??$CopyLump@VCFaceMacroTextureInfo@@@@YAXHAAV?$CUtlVector@VCFaceMacroTextureInfo@@V?$CUtlMemory@VCFaceMacroTextureInfo@@@@@@H@Z 00454020 f i bsplib.obj
 0001:000530b0       ??$CopyOptionalLump@E@@YAXHAAV?$CUtlVector@EV?$CUtlMemory@E@@@@H@Z 004540b0 f i bsplib.obj
 0001:00053160       ??$CopyOptionalLump@Udlightmappage_t@@@@YAXHAAV?$CUtlVector@Udlightmappage_t@@V?$CUtlMemory@Udlightmappage_t@@@@@@H@Z 00454160 f i bsplib.obj
 0001:00053210       ??$CopyOptionalLump@Udlightmappageinfo_t@@@@YAXHAAV?$CUtlVector@Udlightmappageinfo_t@@V?$CUtlMemory@Udlightmappageinfo_t@@@@@@H@Z 00454210 f i bsplib.obj
 0001:000532b0       ?RemoveAll@?$CUtlVector@Uclusterlist_t@@V?$CUtlMemory@Uclusterlist_t@@@@@@QAEXXZ 004542b0 f i bsplib.obj
 0001:00053350       ?Purge@?$CUtlVector@Uclusterlist_t@@V?$CUtlMemory@Uclusterlist_t@@@@@@QAEXXZ 00454350 f i bsplib.obj
 0001:00053390       ?CreateGameLump@@YAGHHHH@Z 00454390 f   bsplib.obj
 0001:00053430       ?DestroyGameLump@@YAXG@Z   00454430 f   bsplib.obj
 0001:000534d0       ?LoadBSPFile@@YAXPAD@Z     004544d0 f   bsplib.obj
 0001:000543b0       ??1?$CUtlVector@Uclusterlist_t@@V?$CUtlMemory@Uclusterlist_t@@@@@@QAE@XZ 004553b0 f i bsplib.obj
 0001:00054410       ??4clusterlist_t@@QAEAAU0@ABU0@@Z 00455410 f i bsplib.obj
 0001:00054440       ?InsertMultipleBefore@?$CUtlVector@Uclusterlist_t@@V?$CUtlMemory@Uclusterlist_t@@@@@@QAEHHHPBUclusterlist_t@@@Z 00455440 f i bsplib.obj
 0001:000545b0       ?AddMultipleToTail@?$CUtlVector@Uclusterlist_t@@V?$CUtlMemory@Uclusterlist_t@@@@@@QAEHHPBUclusterlist_t@@@Z 004555b0 f i bsplib.obj
 0001:000545d0       ?SetCount@?$CUtlVector@Uclusterlist_t@@V?$CUtlMemory@Uclusterlist_t@@@@@@QAEXH@Z 004555d0 f i bsplib.obj
 0001:000545f0       ?BuildClusterTable@@YAXXZ  004555f0 f   bsplib.obj
 0001:00054700       ?Vector2DClear@@YAXAAVVector2D@@@Z 00455700 f i builddisp.obj
 0001:00054710       ?Vector2DAdd@@YAXABVVector2D@@0AAV1@@Z 00455710 f i builddisp.obj
 0001:00054730       ?Vector2DMultiply@@YAXABVVector2D@@MAAV1@@Z 00455730 f i builddisp.obj
 0001:00054750       ?VectorFill@@YAXAAVVector@@M@Z 00455750 f i builddisp.obj
 0001:00054770       ?GetCornerNeighbors@CCoreDispSurface@@QAEPAVCDispCornerNeighbors@@H@Z 00455770 f i builddisp.obj
 0001:00054790       ?GetEdgeNeighbor@CCoreDispSurface@@QAEPAVCDispNeighbor@@H@Z 00455790 f i builddisp.obj
 0001:000547b0       ?GetPointCount@CCoreDispSurface@@QBEHXZ 004557b0 f i builddisp.obj
 0001:000547c0       ?GetTexCoord@CCoreDispSurface@@QBEXHAAVVector2D@@@Z 004557c0 f i builddisp.obj
 0001:000547e0       ?GetLuxelCoord@CCoreDispSurface@@QBEXHHAAVVector2D@@@Z 004557e0 f i builddisp.obj
 0001:00054810       ?SetFlags@CCoreDispSurface@@QAEXH@Z 00455810 f i builddisp.obj
 0001:00054820       ?GetSAxis@CCoreDispSurface@@QAEXAAVVector@@@Z 00455820 f i builddisp.obj
 0001:00054850       ?GetTAxis@CCoreDispSurface@@QAEXAAVVector@@@Z 00455850 f i builddisp.obj
 0001:00054880       ?GetNormal@CCoreDispSurface@@QAEXAAVVector@@@Z 00455880 f i builddisp.obj
 0001:00054920       ?SetBoundingBox@CCoreDispNode@@QAEXABVVector@@0@Z 00455920 f i builddisp.obj
 0001:00054950       ?SetErrorTerm@CCoreDispNode@@QAEXM@Z 00455950 f i builddisp.obj
 0001:00054960       ?GetErrorTerm@CCoreDispNode@@QAEMXZ 00455960 f i builddisp.obj
 0001:00054970       ?SetCenterVertIndex@CCoreDispNode@@QAEXH@Z 00455970 f i builddisp.obj
 0001:00054980       ?GetCenterVertIndex@CCoreDispNode@@QAEHXZ 00455980 f i builddisp.obj
 0001:00054990       ?SetNeighborVertIndex@CCoreDispNode@@QAEXHH@Z 00455990 f i builddisp.obj
 0001:000549a0       ?GetNeighborVertIndex@CCoreDispNode@@QAEHH@Z 004559a0 f i builddisp.obj
 0001:000549b0       ?SetTriBoundingBox@CCoreDispNode@@QAEXHABVVector@@0@Z 004559b0 f i builddisp.obj
 0001:000549f0       ?GetTriBoundingBox@CCoreDispNode@@QAEXHAAVVector@@0@Z 004559f0 f i builddisp.obj
 0001:00054a30       ?SetTriPlane@CCoreDispNode@@QAEXHABVVector@@M@Z 00455a30 f i builddisp.obj
 0001:00054a70       ?SetRayBoundingBox@CCoreDispNode@@QAEXHABVVector@@0@Z 00455a70 f i builddisp.obj
 0001:00054ac0       ?IsTriTag@CCoreDispInfo@@QAE_NHG@Z 00455ac0 f i builddisp.obj
 0001:00054ae0       ?GetPostSpacing@CCoreDispInfo@@QAEHXZ 00455ae0 f i builddisp.obj
 0001:00054af0       ?GetFlatVert@CCoreDispInfo@@QBEXHAAVVector@@@Z 00455af0 f i builddisp.obj
 0001:00054b20       ?GetElevation@CCoreDispInfo@@QAEMXZ 00455b20 f i builddisp.obj
 0001:00054b30       ?SetFieldVector@CCoreDispInfo@@QAEXHABVVector@@@Z 00455b30 f i builddisp.obj
 0001:00054b60       ?GetSubdivPosition@CCoreDispInfo@@QAEXHAAVVector@@@Z 00455b60 f i builddisp.obj
 0001:00054b90       ?SetFieldDistance@CCoreDispInfo@@QAEXHM@Z 00455b90 f i builddisp.obj
 0001:00054bb0       ?CalcBarycentricCooefs@@YA_NABVVector@@000AAM11@Z 00455bb0 f   builddisp.obj
 0001:00054f50       ?Init@CCoreDispSurface@@QAEXXZ 00455f50 f   builddisp.obj
 0001:00055110       ?SetNeighborData@CCoreDispSurface@@QAEXQBVCDispNeighbor@@QBVCDispCornerNeighbors@@@Z 00456110 f   builddisp.obj
 0001:00055190       ?GeneratePointStartIndexFromMappingAxes@CCoreDispSurface@@QAEXABVVector@@0@Z 00456190 f   builddisp.obj
 0001:00055390       ?GenerateSurfPointStartIndex@CCoreDispSurface@@QAEHXZ 00456390 f   builddisp.obj
 0001:000554f0       ?FindSurfPointStartIndex@CCoreDispSurface@@QAEHXZ 004564f0 f   builddisp.obj
 0001:000555e0       ?AdjustSurfPointData@CCoreDispSurface@@QAEXXZ 004565e0 f   builddisp.obj
 0001:00055920       ?Init@CCoreDispNode@@QAEXXZ 00456920 f   builddisp.obj
 0001:00055a50       ?GetDispNodeTriVerts@@YAXPAVCCoreDispInfo@@HHAAVVector@@11@Z 00456a50 f   builddisp.obj
 0001:00055ce0       ??0CDispUtilsHelper@@QAE@XZ 00456ce0 f i builddisp.obj
 0001:00055d00       ??1CCoreDispInfo@@QAE@XZ   00456d00 f   builddisp.obj
 0001:00055da0       ??0CoreDispVert_t@@QAE@XZ  00456da0 f i builddisp.obj
 0001:00055e30       ?SetDispUtilsHelperInfo@CCoreDispInfo@@QAEXPAPAV1@H@Z 00456e30 f   builddisp.obj
 0001:00055e60       ?GetPowerInfo@CCoreDispInfo@@UBEPBVCPowerInfo@@XZ 00456e60 f   builddisp.obj
 0001:00055e80       ?GetEdgeNeighbor@CCoreDispInfo@@UAEPAVCDispNeighbor@@H@Z 00456e80 f   builddisp.obj
 0001:00055ea0       ?GetCornerNeighbors@CCoreDispInfo@@UAEPAVCDispCornerNeighbors@@H@Z 00456ea0 f   builddisp.obj
 0001:00055ec0       ?GetDispUtilsByIndex@CCoreDispInfo@@UAEPAVCDispUtilsHelper@@H@Z 00456ec0 f   builddisp.obj
 0001:00055f00       ?BuildTriTLtoBR@CCoreDispInfo@@AAEXH@Z 00456f00 f   builddisp.obj
 0001:00056000       ?BuildTriBLtoTR@CCoreDispInfo@@AAEXH@Z 00457000 f   builddisp.obj
 0001:00056100       ?GenerateCollisionSurface@CCoreDispInfo@@AAEXXZ 00457100 f   builddisp.obj
 0001:000561d0       ?GenerateCollisionData@CCoreDispInfo@@AAEXXZ 004571d0 f   builddisp.obj
 0001:000561f0       ?CalcTriSurfPlanes@CCoreDispInfo@@AAEXHQAY02H@Z 004571f0 f   builddisp.obj
 0001:000563e0       ?CalcRayBoundingBoxes@CCoreDispInfo@@AAEXHQAY02H@Z 004573e0 f   builddisp.obj
 0001:00056b60       ?CalcTriSurfBoundingBoxes@CCoreDispInfo@@AAEXHQAY02H@Z 00457b60 f   builddisp.obj
 0001:00056ee0       ?CalcTriSurfIndices@CCoreDispInfo@@AAEXHQAY02H@Z 00457ee0 f   builddisp.obj
 0001:00057140       ?CalcTriSurfInfoAtNode@CCoreDispInfo@@AAEXH@Z 00458140 f   builddisp.obj
 0001:00057190       ?CalcNeighborVertIndicesAtNode@CCoreDispInfo@@AAEXHH@Z 00458190 f   builddisp.obj
 0001:00057320       ?GetNodeVertIndexFromParentIndex@CCoreDispInfo@@AAEHHHH@Z 00458320 f   builddisp.obj
 0001:00057400       ?CalcDispSurfCoords@CCoreDispInfo@@QAEX_NH@Z 00458400 f   builddisp.obj
 0001:00057710       ?GenerateDispSurfTangentSpaces@CCoreDispInfo@@AAEXXZ 00458710 f   builddisp.obj
 0001:00057990       ?CalcNormalFromEdges@CCoreDispInfo@@AAEXHHQA_NAAVVector@@@Z 00458990 f   builddisp.obj
 0001:000585a0       ?DoesEdgeExist@CCoreDispInfo@@AAE_NHHHH@Z 004595a0 f   builddisp.obj
 0001:00058630       ?GenerateDispSurfNormals@CCoreDispInfo@@AAEXXZ 00459630 f   builddisp.obj
 0001:00058730       ?GenerateDispSurf@CCoreDispInfo@@AAEXXZ 00459730 f   builddisp.obj
 0001:00058c70       ?GetNodeLevel@@YAHH@Z      00459c70 f   builddisp.obj
 0001:00058cb0       ?GetNodeCount@@YAHH@Z      00459cb0 f   builddisp.obj
 0001:00058cd0       ?GetNodeParent@@YAHH@Z     00459cd0 f   builddisp.obj
 0001:00058ce0       ?GetNodeChild@@YAHHHH@Z    00459ce0 f   builddisp.obj
 0001:00058cf0       ?GetNodeMinNodeAtLevel@@YAHH@Z 00459cf0 f   builddisp.obj
 0001:00058d50       ?GetComponentsFromNodeIndex@@YAXHPAH0@Z 00459d50 f   builddisp.obj
 0001:00058dc0       ?GetNodeIndexFromComponents@@YAHHH@Z 00459dc0 f   builddisp.obj
 0001:00058e40       ?BaseFacePlaneToDispUV@CCoreDispInfo@@QAEXABVVector@@AAVVector2D@@@Z 00459e40 f   builddisp.obj
 0001:00058ec0       ?DispUVToSurf_TriTLToBR_2@CCoreDispInfo@@AAEXABVVector@@HHHHAAV2@PAV2@PAM_N@Z 00459ec0 f   builddisp.obj
 0001:000596b0       ?DispUVToSurf_TriBLToTR_2@CCoreDispInfo@@AAEXABVVector@@HHHHAAV2@PAV2@PAM_N@Z 0045a6b0 f   builddisp.obj
 0001:00059eb0       ?CreateBoundingBoxes@CCoreDispInfo@@AAEXPAUCoreDispBBox_t@@H@Z 0045aeb0 f   builddisp.obj
 0001:0005a0c0       ?PointInDispBBox@@YA_NPAUCoreDispBBox_t@@ABVVector@@@Z 0045b0c0 f i builddisp.obj
 0001:0005a130       ?GetTriangleIndicesForDispBBox@CCoreDispInfo@@AAEXHQAY02H@Z 0045b130 f   builddisp.obj
 0001:0005a190       ??0CoreDispBBox_t@@QAE@XZ  0045b190 f i builddisp.obj
 0001:0005a1a0       ?GetTriCount@CCoreDispInfo@@QAEHXZ 0045b1a0 f   builddisp.obj
 0001:0005a1b0       ?GetTriIndices@CCoreDispInfo@@QAEXHAAG00@Z 0045b1b0 f   builddisp.obj
 0001:0005a200       ?SetTriIndices@CCoreDispInfo@@QAEXHGGG@Z 0045b200 f   builddisp.obj
 0001:0005a250       ?GetTriPos@CCoreDispInfo@@QAEXHAAVVector@@00@Z 0045b250 f   builddisp.obj
 0001:0005a310       ?InitTris@CCoreDispInfo@@AAEXXZ 0045b310 f   builddisp.obj
 0001:0005a360       ?CreateTris@CCoreDispInfo@@AAEXXZ 0045b360 f   builddisp.obj
 0001:0005a3e0       ?IsTriWalkable@CCoreDispInfo@@QAE_NH@Z 0045b3e0 f   builddisp.obj
 0001:0005a410       ?IsTriBuildable@CCoreDispInfo@@QAE_NH@Z 0045b410 f   builddisp.obj
 0001:0005a440       ?Position_Update@CCoreDispInfo@@QAEXHVVector@@@Z 0045b440 f   builddisp.obj
 0001:0005a580       ??0?$CBitVec@$0BCB@@@QAE@XZ 0045b580 f i builddisp.obj
 0001:0005a5b0       ??0CCoreDispSurface@@QAE@XZ 0045b5b0 f   builddisp.obj
 0001:0005a650       ??0CCoreDispInfo@@QAE@XZ   0045b650 f   builddisp.obj
 0001:0005a740       ??0CCoreDispNode@@QAE@XZ   0045b740 f i builddisp.obj
 0001:0005a7b0       ?CalcMinMaxBoundingBoxAtNode@CCoreDispInfo@@AAEXHAAVVector@@0@Z 0045b7b0 f   builddisp.obj
 0001:0005a9e0       ?CalcBoundingBoxAtNode@CCoreDispInfo@@AAEXH@Z 0045b9e0 f   builddisp.obj
 0001:0005afb0       ?GetMaxErrorFromChildren@CCoreDispInfo@@AAEMHH@Z 0045bfb0 f   builddisp.obj
 0001:0005b040       ?CalcErrorTermAtNode@CCoreDispInfo@@AAEXHH@Z 0045c040 f   builddisp.obj
 0001:0005b660       ?CalcNodeInfo@CCoreDispInfo@@AAEXHH@Z 0045c660 f   builddisp.obj
 0001:0005b710       ?CalcVertIndicesAtNodes@CCoreDispInfo@@AAEXH@Z 0045c710 f   builddisp.obj
 0001:0005b7f0       ?GenerateLODTree@CCoreDispInfo@@AAEXXZ 0045c7f0 f   builddisp.obj
 0001:0005b860       ?Create@CCoreDispInfo@@QAE_NXZ 0045c860 f   builddisp.obj
 0001:0005b8f0       ?CreateWithoutLOD@CCoreDispInfo@@QAE_NXZ 0045c8f0 f   builddisp.obj
 0001:0005b980       ?GetNodeNeighborNode@@YAHHHHH@Z 0045c980 f   builddisp.obj
 0001:0005baa0       ?GetNodeNeighborNodeFromNeighborSurf@@YAHHHHHH@Z 0045caa0 f   builddisp.obj
 0001:0005bdc0       ?DispUVToSurf_TriTLToBR_1@CCoreDispInfo@@AAEXABVVector@@HHHHAAV2@PAV2@PAM_N@Z 0045cdc0 f   builddisp.obj
 0001:0005c5b0       ?DispUVToSurf_TriTLToBR@CCoreDispInfo@@AAEXAAVVector@@PAV2@PAMMMABV2@@Z 0045d5b0 f   builddisp.obj
 0001:0005c660       ?DispUVToSurf_TriBLToTR_1@CCoreDispInfo@@AAEXABVVector@@HHHHAAV2@PAV2@PAM_N@Z 0045d660 f   builddisp.obj
 0001:0005cea0       ?DispUVToSurf_TriBLToTR@CCoreDispInfo@@AAEXAAVVector@@PAV2@PAMMMABV2@@Z 0045dea0 f   builddisp.obj
 0001:0005cf50       ?DispUVToSurf@CCoreDispInfo@@QAEXABVVector2D@@AAVVector@@PAV3@PAM@Z 0045df50 f   builddisp.obj
 0001:0005d090       ?SurfToBaseFacePlane@CCoreDispInfo@@QAE_NABVVector@@AAV2@@Z 0045e090 f   builddisp.obj
 0001:0005d380       ?InitDispInfo@CCoreDispInfo@@QAEXHHMPAMPAVVector@@0@Z 0045e380 f   builddisp.obj
 0001:0005d870       ?InitDispInfo@CCoreDispInfo@@QAEXHHMPBVCDispVert@@PBVCDispTri@@@Z 0045e870 f   builddisp.obj
 0001:0005d9f0       ?GetPositionOnSurface@CCoreDispInfo@@QAEXMMAAVVector@@PAV2@PAM@Z 0045e9f0 f   builddisp.obj
 0001:0005da30       ?assign@?$char_traits@D@std@@SAPADPADID@Z 0045ea30 f i ChunkFile.obj
 0001:0005da50       ?eq_int_type@?$char_traits@D@std@@SA_NABH0@Z 0045ea50 f i ChunkFile.obj
 0001:0005da70       ?eof@?$char_traits@D@std@@SAHXZ 0045ea70 f i ChunkFile.obj
 0001:0005da80       ?_Decref@facet@locale@std@@QAEPAV123@XZ 0045ea80 f i ChunkFile.obj
 0001:0005dac0       ??1locale@std@@QAE@XZ      0045eac0 f i ChunkFile.obj
 0001:0005db10       ??1ios_base@std@@UAE@XZ    0045eb10 f i ChunkFile.obj
 0001:0005db20       ??_Eios_base@std@@UAEPAXI@Z 0045eb20 f i ChunkFile.obj
 0001:0005db20       ??_Gios_base@std@@UAEPAXI@Z 0045eb20 f i ChunkFile.obj
 0001:0005db50       ??0CChunkHandlerMap@@QAE@XZ 0045eb50 f   ChunkFile.obj
 0001:0005db70       ??1CChunkHandlerMap@@QAE@XZ 0045eb70 f   ChunkFile.obj
 0001:0005dbb0       ?AddHandler@CChunkHandlerMap@@QAEXPBDP6A?AW4ChunkFileResult_t@@PAVCChunkFile@@PAX@Z2@Z 0045ebb0 f   ChunkFile.obj
 0001:0005dc40       ?SetErrorHandler@CChunkHandlerMap@@QAEXP6A_NPAVCChunkFile@@PBDPAX@Z2@Z 0045ec40 f   ChunkFile.obj
 0001:0005dc60       ?GetErrorHandler@CChunkHandlerMap@@QAEP6A_NPAVCChunkFile@@PBDPAX@ZPAPAX@Z 0045ec60 f   ChunkFile.obj
 0001:0005dc80       ?GetHandler@CChunkHandlerMap@@QAEP6A?AW4ChunkFileResult_t@@PAVCChunkFile@@PAX@ZPBDPAPAX@Z 0045ec80 f   ChunkFile.obj
 0001:0005dce0       ?BuildIndentString@CChunkFile@@IAEXPADH@Z 0045ece0 f   ChunkFile.obj
 0001:0005dd30       ?Close@CChunkFile@@QAE?AW4ChunkFileResult_t@@XZ 0045ed30 f   ChunkFile.obj
 0001:0005dd70       ?GetErrorText@CChunkFile@@QAEPBDW4ChunkFileResult_t@@@Z 0045ed70 f   ChunkFile.obj
 0001:0005de70       ?HandleError@CChunkFile@@QAEXPBDW4ChunkFileResult_t@@@Z 0045ee70 f   ChunkFile.obj
 0001:0005de80       ?Open@CChunkFile@@QAE?AW4ChunkFileResult_t@@PBDW4ChunkFileOpenMode_t@@@Z 0045ee80 f   ChunkFile.obj
 0001:0005df00       ?PopHandlers@CChunkFile@@QAEXXZ 0045ef00 f   ChunkFile.obj
 0001:0005df30       ?SetDefaultChunkHandler@CChunkFile@@QAEXP6A?AW4ChunkFileResult_t@@PAV1@PAXPBD@Z1@Z 0045ef30 f   ChunkFile.obj
 0001:0005df60       ?PushHandlers@CChunkFile@@QAEXPAVCChunkHandlerMap@@@Z 0045ef60 f   ChunkFile.obj
 0001:0005dfb0       ?ReadNext@CChunkFile@@QAE?AW4ChunkFileResult_t@@PAD0HAAW4ChunkType_t@@@Z 0045efb0 f   ChunkFile.obj
 0001:0005e1e0       ?ReadKeyValueBool@CChunkFile@@SA_NPBDAA_N@Z 0045f1e0 f   ChunkFile.obj
 0001:0005e210       ?ReadKeyValueFloat@CChunkFile@@SA_NPBDAAM@Z 0045f210 f   ChunkFile.obj
 0001:0005e230       ?ReadKeyValueInt@CChunkFile@@SA_NPBDAAH@Z 0045f230 f   ChunkFile.obj
 0001:0005e250       ?ReadKeyValueColor@CChunkFile@@SA_NPBDAAE11@Z 0045f250 f   ChunkFile.obj
 0001:0005e2a0       ?ReadKeyValuePoint@CChunkFile@@SA_NPBDAAVVector@@@Z 0045f2a0 f   ChunkFile.obj
 0001:0005e2e0       ?ReadKeyValueVector2@CChunkFile@@SA_NPBDAAVVector2D@@@Z 0045f2e0 f   ChunkFile.obj
 0001:0005e320       ?ReadKeyValueVector3@CChunkFile@@SA_NPBDAAVVector@@@Z 0045f320 f   ChunkFile.obj
 0001:0005e360       ?ReadKeyValueVector4@CChunkFile@@SA_NPBDAAVVector4D@@@Z 0045f360 f   ChunkFile.obj
 0001:0005e3c0       ?WriteLine@CChunkFile@@QAE?AW4ChunkFileResult_t@@PBD@Z 0045f3c0 f   ChunkFile.obj
 0001:0005e4b0       ??1?$basic_ios@DU?$char_traits@D@std@@@std@@UAE@XZ 0045f4b0 f i ChunkFile.obj
 0001:0005e4d0       ??1?$basic_istream@DU?$char_traits@D@std@@@std@@UAE@XZ 0045f4d0 f i ChunkFile.obj
 0001:0005e4f0       ??_E?$basic_ios@DU?$char_traits@D@std@@@std@@UAEPAXI@Z 0045f4f0 f i ChunkFile.obj
 0001:0005e4f0       ??_G?$basic_ios@DU?$char_traits@D@std@@@std@@UAEPAXI@Z 0045f4f0 f i ChunkFile.obj
 0001:0005e530       ??_Glocale@std@@QAEPAXI@Z  0045f530 f i ChunkFile.obj
 0001:0005e560       ??_D?$basic_istream@DU?$char_traits@D@std@@@std@@QAEXXZ 0045f560 f i ChunkFile.obj
 0001:0005e5b0       ?setg@?$basic_streambuf@DU?$char_traits@D@std@@@std@@IAEXPAD00@Z 0045f5b0 f i ChunkFile.obj
 0001:0005e5f0       ?_Init@?$basic_streambuf@DU?$char_traits@D@std@@@std@@IAEXPAPAD0PAH001@Z 0045f5f0 f i ChunkFile.obj
 0001:0005e640       ??D?$_String_const_iterator@DU?$char_traits@D@std@@V?$allocator@D@2@@std@@QBEABDXZ 0045f640 f i ChunkFile.obj
 0001:0005e6b0       ?unshift@?$codecvt@DDH@std@@QBEHAAHPAD1AAPAD@Z 0045f6b0 f i ChunkFile.obj
 0001:0005e6e0       ?setp@?$basic_streambuf@DU?$char_traits@D@std@@@std@@IAEXPAD0@Z 0045f6e0 f i ChunkFile.obj
 0001:0005e720       ??0?$_Ranit_base@DHPBDABDU_Iterator_base@std@@@std@@QAE@XZ 0045f720 f i ChunkFile.obj
 0001:0005e740       ?BeginChunk@CChunkFile@@QAE?AW4ChunkFileResult_t@@PBD@Z 0045f740 f   ChunkFile.obj
 0001:0005e7f0       ?EndChunk@CChunkFile@@QAE?AW4ChunkFileResult_t@@XZ 0045f7f0 f   ChunkFile.obj
 0001:0005e850       ?HandleChunk@CChunkFile@@QAE?AW4ChunkFileResult_t@@PBD@Z 0045f850 f   ChunkFile.obj
 0001:0005e990       ?ReadChunk@CChunkFile@@QAE?AW4ChunkFileResult_t@@P6A?AW42@PBD0PAX@Z1@Z 0045f990 f   ChunkFile.obj
 0001:0005ea30       ?WriteKeyValue@CChunkFile@@QAE?AW4ChunkFileResult_t@@PBD0@Z 0045fa30 f   ChunkFile.obj
 0001:0005ea90       ?WriteKeyValueBool@CChunkFile@@QAE?AW4ChunkFileResult_t@@PBD_N@Z 0045fa90 f   ChunkFile.obj
 0001:0005eaf0       ?WriteKeyValueInt@CChunkFile@@QAE?AW4ChunkFileResult_t@@PBDH@Z 0045faf0 f   ChunkFile.obj
 0001:0005eb50       ?WriteKeyValueFloat@CChunkFile@@QAE?AW4ChunkFileResult_t@@PBDM@Z 0045fb50 f   ChunkFile.obj
 0001:0005ebb0       ?WriteKeyValueColor@CChunkFile@@QAE?AW4ChunkFileResult_t@@PBDEEE@Z 0045fbb0 f   ChunkFile.obj
 0001:0005ec10       ?WriteKeyValuePoint@CChunkFile@@QAE?AW4ChunkFileResult_t@@PBDABVVector@@@Z 0045fc10 f   ChunkFile.obj
 0001:0005ec90       ?WriteKeyValueVector2@CChunkFile@@QAE?AW4ChunkFileResult_t@@PBDABVVector2D@@@Z 0045fc90 f   ChunkFile.obj
 0001:0005ed00       ?WriteKeyValueVector3@CChunkFile@@QAE?AW4ChunkFileResult_t@@PBDABVVector@@@Z 0045fd00 f   ChunkFile.obj
 0001:0005ed80       ?WriteKeyValueVector4@CChunkFile@@QAE?AW4ChunkFileResult_t@@PBDABVVector4D@@@Z 0045fd80 f   ChunkFile.obj
 0001:0005ee00       ??1?$basic_streambuf@DU?$char_traits@D@std@@@std@@UAE@XZ 0045fe00 f i ChunkFile.obj
 0001:0005ee70       ?to_char_type@?$char_traits@D@std@@SADABH@Z 0045fe70 f i ChunkFile.obj
 0001:0005ee80       ?to_int_type@?$char_traits@D@std@@SAHABD@Z 0045fe80 f i ChunkFile.obj
 0001:0005ee90       ?overflow@?$basic_streambuf@DU?$char_traits@D@std@@@std@@MAEHH@Z 0045fe90 f i ChunkFile.obj
 0001:0005eeb0       ?pbackfail@?$basic_streambuf@DU?$char_traits@D@std@@@std@@MAEHH@Z 0045feb0 f i ChunkFile.obj
 0001:0005eed0       ?showmanyc@?$basic_streambuf@DU?$char_traits@D@std@@@std@@MAEHXZ 0045fed0 f i ChunkFile.obj
 0001:0005eee0       ?underflow@?$basic_streambuf@DU?$char_traits@D@std@@@std@@MAEHXZ 0045fee0 f i ChunkFile.obj
 0001:0005eef0       ?xsgetn@?$basic_streambuf@DU?$char_traits@D@std@@@std@@MAEHPADH@Z 0045fef0 f i ChunkFile.obj
 0001:0005ef20       ?setbuf@?$basic_streambuf@DU?$char_traits@D@std@@@std@@MAEPAV12@PADH@Z 0045ff20 f i ChunkFile.obj
 0001:0005ef30       ?sync@?$basic_streambuf@DU?$char_traits@D@std@@@std@@MAEHXZ 0045ff30 f i ChunkFile.obj
 0001:0005ef40       ?imbue@?$basic_streambuf@DU?$char_traits@D@std@@@std@@MAEXABVlocale@2@@Z 0045ff40 f i ChunkFile.obj
 0001:0005ef50       ?gptr@?$basic_streambuf@DU?$char_traits@D@std@@@std@@IBEPADXZ 0045ff50 f i ChunkFile.obj
 0001:0005ef70       ?pptr@?$basic_streambuf@DU?$char_traits@D@std@@@std@@IBEPADXZ 0045ff70 f i ChunkFile.obj
 0001:0005ef90       ?gbump@?$basic_streambuf@DU?$char_traits@D@std@@@std@@IAEXH@Z 0045ff90 f i ChunkFile.obj
 0001:0005efd0       ?_Gninc@?$basic_streambuf@DU?$char_traits@D@std@@@std@@IAEPADXZ 0045ffd0 f i ChunkFile.obj
 0001:0005f020       ?_Gnavail@?$basic_streambuf@DU?$char_traits@D@std@@@std@@IBEHXZ 00460020 f i ChunkFile.obj
 0001:0005f050       ?pbump@?$basic_streambuf@DU?$char_traits@D@std@@@std@@IAEXH@Z 00460050 f i ChunkFile.obj
 0001:0005f090       ?_Pnavail@?$basic_streambuf@DU?$char_traits@D@std@@@std@@IBEHXZ 00460090 f i ChunkFile.obj
 0001:0005f0c0       ??0?$fpos@H@std@@QAE@J@Z   004600c0 f i ChunkFile.obj
 0001:0005f100       ?uflow@?$basic_streambuf@DU?$char_traits@D@std@@@std@@MAEHXZ 00460100 f i ChunkFile.obj
 0001:0005f160       ?seekoff@?$basic_streambuf@DU?$char_traits@D@std@@@std@@MAE?AV?$fpos@H@2@JHH@Z 00460160 f i ChunkFile.obj
 0001:0005f1a0       ?seekpos@?$basic_streambuf@DU?$char_traits@D@std@@@std@@MAE?AV?$fpos@H@2@V32@H@Z 004601a0 f i ChunkFile.obj
 0001:0005f1e0       ??_E?$basic_istream@DU?$char_traits@D@std@@@std@@UAEPAXI@Z 004601e0 f i ChunkFile.obj
 0001:0005f1e0       ??_G?$basic_istream@DU?$char_traits@D@std@@@std@@UAEPAXI@Z 004601e0 f i ChunkFile.obj
 0001:0005f220       ??_E?$basic_streambuf@DU?$char_traits@D@std@@@std@@UAEPAXI@Z 00460220 f i ChunkFile.obj
 0001:0005f220       ??_G?$basic_streambuf@DU?$char_traits@D@std@@@std@@UAEPAXI@Z 00460220 f i ChunkFile.obj
 0001:0005f250       ??D?$_String_iterator@DU?$char_traits@D@std@@V?$allocator@D@2@@std@@QBEAADXZ 00460250 f i ChunkFile.obj
 0001:0005f270       ?_Chassign@?$basic_string@DU?$char_traits@D@std@@V?$allocator@D@2@@std@@IAEXIID@Z 00460270 f i ChunkFile.obj
 0001:0005f2f0       ?_Init@?$basic_streambuf@DU?$char_traits@D@std@@@std@@IAEXXZ 004602f0 f i ChunkFile.obj
 0001:0005f390       ??0?$_String_const_iterator@DU?$char_traits@D@std@@V?$allocator@D@2@@std@@QAE@PBDPBU_Container_base@1@@Z 00460390 f i ChunkFile.obj
 0001:0005f420       ?_Xsgetn_s@?$basic_streambuf@DU?$char_traits@D@std@@@std@@MAEHPADIH@Z 00460420 f i ChunkFile.obj
 0001:0005f560       ?xsputn@?$basic_streambuf@DU?$char_traits@D@std@@@std@@MAEHPBDH@Z 00460560 f i ChunkFile.obj
 0001:0005f6a0       ?_Init@?$basic_filebuf@DU?$char_traits@D@std@@@std@@IAEXPAU_iobuf@@W4_Initfl@12@@Z 004606a0 f i ChunkFile.obj
 0001:0005f760       ??0?$_String_iterator@DU?$char_traits@D@std@@V?$allocator@D@2@@std@@QAE@PADPBU_Container_base@1@@Z 00460760 f i ChunkFile.obj
 0001:0005f780       ?begin@?$basic_string@DU?$char_traits@D@std@@V?$allocator@D@2@@std@@QAE?AV?$_String_iterator@DU?$char_traits@D@std@@V?$allocator@D@2@@2@XZ 00460780 f i ChunkFile.obj
 0001:0005f7c0       ?append@?$basic_string@DU?$char_traits@D@std@@V?$allocator@D@2@@std@@QAEAAV12@ID@Z 004607c0 f i ChunkFile.obj
 0001:0005f870       ?assign@?$basic_string@DU?$char_traits@D@std@@V?$allocator@D@2@@std@@QAEAAV12@ID@Z 00460870 f i ChunkFile.obj
 0001:0005f900       ??0?$basic_string@DU?$char_traits@D@std@@V?$allocator@D@2@@std@@QAE@ID@Z 00460900 f i ChunkFile.obj
 0001:0005f940       ?_Endwrite@?$basic_filebuf@DU?$char_traits@D@std@@@std@@IAE_NXZ 00460940 f i ChunkFile.obj
 0001:0005fbd0       ?close@?$basic_filebuf@DU?$char_traits@D@std@@@std@@QAEPAV12@XZ 00460bd0 f i ChunkFile.obj
 0001:0005fc50       ??1?$basic_filebuf@DU?$char_traits@D@std@@@std@@UAE@XZ 00460c50 f i ChunkFile.obj
 0001:0005fca0       ?not_eof@?$char_traits@D@std@@SAHABH@Z 00460ca0 f i ChunkFile.obj
 0001:0005fcc0       ??Bid@locale@std@@QAEIXZ   00460cc0 f i ChunkFile.obj
 0001:0005fd00       ?_Incref@facet@locale@std@@QAEXXZ 00460d00 f i ChunkFile.obj
 0001:0005fd30       ?_Register@facet@locale@std@@QAEXXZ 00460d30 f i ChunkFile.obj
 0001:0005fd40       ??1facet@locale@std@@UAE@XZ 00460d40 f i ChunkFile.obj
 0001:0005fd50       ??0facet@locale@std@@IAE@I@Z 00460d50 f i ChunkFile.obj
 0001:0005fd70       ?_Getfacet@locale@std@@QBEPBVfacet@12@I@Z 00460d70 f i ChunkFile.obj
 0001:0005fdb0       ??_Efacet@locale@std@@UAEPAXI@Z 00460db0 f i ChunkFile.obj
 0001:0005fdb0       ??_Gfacet@locale@std@@UAEPAXI@Z 00460db0 f i ChunkFile.obj
 0001:0005fdd0       ??0codecvt_base@std@@QAE@I@Z 00460dd0 f i ChunkFile.obj
 0001:0005fdf0       ?always_noconv@codecvt_base@std@@QBE_NXZ 00460df0 f i ChunkFile.obj
 0001:0005fe00       ??1codecvt_base@std@@UAE@XZ 00460e00 f i ChunkFile.obj
 0001:0005fe10       ?do_always_noconv@codecvt_base@std@@MBE_NXZ 00460e10 f i ChunkFile.obj
 0001:0005fe20       ?do_max_length@codecvt_base@std@@MBEHXZ 00460e20 f i ChunkFile.obj
 0001:0005fe30       ?do_encoding@codecvt_base@std@@MBEHXZ 00460e30 f i ChunkFile.obj
 0001:0005fe40       ??_Gcodecvt_base@std@@UAEPAXI@Z 00460e40 f i ChunkFile.obj
 0001:0005fe40       ??_Ecodecvt_base@std@@UAEPAXI@Z 00460e40 f i ChunkFile.obj
 0001:0005fe60       ??$_Fgetc@D@std@@YA_NAADPAU_iobuf@@@Z 00460e60 f i ChunkFile.obj
 0001:0005fe80       ??$_Fputc@D@std@@YA_NDPAU_iobuf@@@Z 00460e80 f i ChunkFile.obj
 0001:0005fea0       ??$_Ungetc@D@std@@YA_NABDPAU_iobuf@@@Z 00460ea0 f i ChunkFile.obj
 0001:0005fec0       ?sync@?$basic_filebuf@DU?$char_traits@D@std@@@std@@MAEHXZ 00460ec0 f i ChunkFile.obj
 0001:0005ff40       ?eback@?$basic_streambuf@DU?$char_traits@D@std@@@std@@IBEPADXZ 00460f40 f i ChunkFile.obj
 0001:0005ff60       ?egptr@?$basic_streambuf@DU?$char_traits@D@std@@@std@@IBEPADXZ 00460f60 f i ChunkFile.obj
 0001:0005ff80       ?epptr@?$basic_streambuf@DU?$char_traits@D@std@@@std@@IBEPADXZ 00460f80 f i ChunkFile.obj
 0001:0005ffa0       ?_Gndec@?$basic_streambuf@DU?$char_traits@D@std@@@std@@IAEPADXZ 00460fa0 f i ChunkFile.obj
 0001:0005ffe0       ?_Pninc@?$basic_streambuf@DU?$char_traits@D@std@@@std@@IAEPADXZ 00460fe0 f i ChunkFile.obj
 0001:00060030       ??0?$fpos@H@std@@QAE@H_J@Z 00461030 f i ChunkFile.obj
 0001:00060070       ?state@?$fpos@H@std@@QBEHXZ 00461070 f i ChunkFile.obj
 0001:00060090       ?seekpos@?$fpos@H@std@@QBE_JXZ 00461090 f i ChunkFile.obj
 0001:000600b0       ??B?$fpos@H@std@@QBEJXZ    004610b0 f i ChunkFile.obj
 0001:000600d0       ?in@?$codecvt@DDH@std@@QBEHAAHPBD1AAPBDPAD3AAPAD@Z 004610d0 f i ChunkFile.obj
 0001:00060110       ?out@?$codecvt@DDH@std@@QBEHAAHPBD1AAPBDPAD3AAPAD@Z 00461110 f i ChunkFile.obj
 0001:00060150       ?_Init@?$codecvt@DDH@std@@IAEXABV_Locinfo@2@@Z 00461150 f i ChunkFile.obj
 0001:00060160       ?pbackfail@?$basic_filebuf@DU?$char_traits@D@std@@@std@@MAEHH@Z 00461160 f i ChunkFile.obj
 0001:000602e0       ?underflow@?$basic_filebuf@DU?$char_traits@D@std@@@std@@MAEHXZ 004612e0 f i ChunkFile.obj
 0001:00060390       ?_Initcvt@?$basic_filebuf@DU?$char_traits@D@std@@@std@@IAEXPAV?$codecvt@DDH@2@@Z 00461390 f i ChunkFile.obj
 0001:000603d0       ??0?$basic_string@DU?$char_traits@D@std@@V?$allocator@D@2@@std@@QAE@XZ 004613d0 f i ChunkFile.obj
 0001:00060400       ?setbuf@?$basic_filebuf@DU?$char_traits@D@std@@@std@@MAEPAV?$basic_streambuf@DU?$char_traits@D@std@@@2@PADH@Z 00461400 f i ChunkFile.obj
 0001:00060470       ??1_Locinfo@std@@QAE@XZ    00461470 f i ChunkFile.obj
 0001:000604b0       ?uflow@?$basic_filebuf@DU?$char_traits@D@std@@@std@@MAEHXZ 004614b0 f i ChunkFile.obj
 0001:000608a0       ??0runtime_error@std@@QAE@ABV?$basic_string@DU?$char_traits@D@std@@V?$allocator@D@2@@1@@Z 004618a0 f i ChunkFile.obj
 0001:000608d0       ?what@runtime_error@std@@UBEPBDXZ 004618d0 f i ChunkFile.obj
 0001:000608e0       ??1runtime_error@std@@UAE@XZ 004618e0 f i ChunkFile.obj
 0001:00060900       ??_Gruntime_error@std@@UAEPAXI@Z 00461900 f i ChunkFile.obj
 0001:00060900       ??_Eruntime_error@std@@UAEPAXI@Z 00461900 f i ChunkFile.obj
 0001:00060930       ?overflow@?$basic_filebuf@DU?$char_traits@D@std@@@std@@MAEHH@Z 00461930 f i ChunkFile.obj
 0001:00060d30       ?seekoff@?$basic_filebuf@DU?$char_traits@D@std@@@std@@MAE?AV?$fpos@H@2@JHH@Z 00461d30 f i ChunkFile.obj
 0001:00060ee0       ?seekpos@?$basic_filebuf@DU?$char_traits@D@std@@@std@@MAE?AV?$fpos@H@2@V32@H@Z 00461ee0 f i ChunkFile.obj
 0001:000610b0       ??0_Locinfo@std@@QAE@PBD@Z 004620b0 f i ChunkFile.obj
 0001:00061140       ??0runtime_error@std@@QAE@ABV01@@Z 00462140 f i ChunkFile.obj
 0001:00061170       ??_E?$basic_filebuf@DU?$char_traits@D@std@@@std@@UAEPAXI@Z 00462170 f i ChunkFile.obj
 0001:00061170       ??_G?$basic_filebuf@DU?$char_traits@D@std@@@std@@UAEPAXI@Z 00462170 f i ChunkFile.obj
 0001:000611e0       ??0?$codecvt@DDH@std@@QAE@I@Z 004621e0 f i ChunkFile.obj
 0001:00061230       ??1?$codecvt@DDH@std@@MAE@XZ 00462230 f i ChunkFile.obj
 0001:00061250       ?do_in@?$codecvt@DDH@std@@MBEHAAHPBD1AAPBDPAD3AAPAD@Z 00462250 f i ChunkFile.obj
 0001:00061280       ?do_out@?$codecvt@DDH@std@@MBEHAAHPBD1AAPBDPAD3AAPAD@Z 00462280 f i ChunkFile.obj
 0001:000612b0       ?do_unshift@?$codecvt@DDH@std@@MBEHAAHPAD1AAPAD@Z 004622b0 f i ChunkFile.obj
 0001:000612d0       ?do_length@?$codecvt@DDH@std@@MBEHABHPBD1I@Z 004622d0 f i ChunkFile.obj
 0001:00061300       ??_G?$codecvt@DDH@std@@MAEPAXI@Z 00462300 f i ChunkFile.obj
 0001:00061300       ??_E?$codecvt@DDH@std@@MAEPAXI@Z 00462300 f i ChunkFile.obj
 0001:00061340       ??1?$basic_ifstream@DU?$char_traits@D@std@@@std@@UAE@XZ 00462340 f i ChunkFile.obj
 0001:000613b0       ??_D?$basic_ifstream@DU?$char_traits@D@std@@@std@@QAEXXZ 004623b0 f i ChunkFile.obj
 0001:000613f0       ?_Getcat@?$codecvt@DDH@std@@SAIPAPBVfacet@locale@2@@Z 004623f0 f i ChunkFile.obj
 0001:00061470       ??1TokenReader@@UAE@XZ     00462470 f i ChunkFile.obj
 0001:00061480       ??_E?$basic_ifstream@DU?$char_traits@D@std@@@std@@UAEPAXI@Z 00462480 f i ChunkFile.obj
 0001:00061480       ??_G?$basic_ifstream@DU?$char_traits@D@std@@@std@@UAEPAXI@Z 00462480 f i ChunkFile.obj
 0001:000614e0       ??$use_facet@V?$codecvt@DDH@std@@@std@@YAABV?$codecvt@DDH@0@ABVlocale@0@@Z 004624e0 f i ChunkFile.obj
 0001:000615a0       ??_DTokenReader@@QAEXXZ    004625a0 f i ChunkFile.obj
 0001:000615c0       ??0CChunkFile@@QAE@XZ      004625c0 f   ChunkFile.obj
 0001:00061620       ??1CChunkFile@@QAE@XZ      00462620 f   ChunkFile.obj
 0001:00061660       ?imbue@?$basic_filebuf@DU?$char_traits@D@std@@@std@@MAEXABVlocale@2@@Z 00462660 f i ChunkFile.obj
 0001:000616b0       ?strstr@@YAPADPADPBD@Z     004626b0 f i cmdlib.obj
 0001:000616d0       ?CmdLib_FGets@@YAPADPADHPAX@Z 004626d0 f   cmdlib.obj
 0001:00061740       ??1CExitStopper@@QAE@XZ    00462740 f i cmdlib.obj
 0001:00061890       ?CmdLib_AllocError@@YAXK@Z 00462890 f   cmdlib.obj
 0001:000618b0       ?CmdLib_NewHandler@@YAHI@Z 004628b0 f   cmdlib.obj
 0001:000618d0       ?InstallAllocationFunctions@@YAXXZ 004628d0 f   cmdlib.obj
 0001:000618f0       ?CloseSpewFunctionLogFile@@YAXXZ 004628f0 f   cmdlib.obj
 0001:00061920       ?CmdLib_Exit@@YAXH@Z       00462920 f   cmdlib.obj
 0001:00061930       ?qprintf@@YAXPADZZ         00462930 f   cmdlib.obj
 0001:000619b0       ?ExpandArg@@YAPADPAD@Z     004629b0 f   cmdlib.obj
 0001:00061a30       ?ExpandPath@@YAPADPAD@Z    00462a30 f   cmdlib.obj
 0001:00061a70       ?copystring@@YAPADPBD@Z    00462a70 f   cmdlib.obj
 0001:00061ab0       ?GetHourMinuteSeconds@@YAXHAAH00@Z 00462ab0 f   cmdlib.obj
 0001:00061ac0       ?GetHourMinuteSecondsString@@YAXHPADH@Z 00462ac0 f   cmdlib.obj
 0001:00061bd0       ?Q_mkdir@@YAXPAD@Z         00462bd0 f   cmdlib.obj
 0001:00061c00       ?CmdLib_InitFileSystem@@YAXPBDH@Z 00462c00 f   cmdlib.obj
 0001:00061c30       ?CmdLib_TermFileSystem@@YAXXZ 00462c30 f   cmdlib.obj
 0001:00061c40       ?CmdLib_GetFileSystemFactory@@YAP6APAXPBDPAH@ZXZ 00462c40 f   cmdlib.obj
 0001:00061c50       ?FileTime@@YAHPAD@Z        00462c50 f   cmdlib.obj
 0001:00061c80       ?COM_Parse@@YAPADPAD@Z     00462c80 f   cmdlib.obj
 0001:00061ca0       ?CheckParm@@YAHPAD@Z       00462ca0 f   cmdlib.obj
 0001:00061ce0       ?Q_filelength@@YAHPAX@Z    00462ce0 f   cmdlib.obj
 0001:00061d00       ?SafeOpenWrite@@YAPAXPAD@Z 00462d00 f   cmdlib.obj
 0001:00061d40       ?CmdLib_AddBasePath@@YAXPBD@Z 00462d40 f   cmdlib.obj
 0001:00061d90       ?CmdLib_HasBasePath@@YA_NPBDAAH@Z 00462d90 f   cmdlib.obj
 0001:00061e60       ?CmdLib_GetNumBasePaths@@YAHXZ 00462e60 f   cmdlib.obj
 0001:00061e70       ?CmdLib_GetBasePath@@YAPBDH@Z 00462e70 f   cmdlib.obj
 0001:00061e80       ?SafeOpenRead@@YAPAXPAD@Z  00462e80 f   cmdlib.obj
 0001:00061fa0       ?SafeRead@@YAXPAX0H@Z      00462fa0 f   cmdlib.obj
 0001:00061fd0       ?SafeWrite@@YAXPAX0H@Z     00462fd0 f   cmdlib.obj
 0001:00062000       ?FileExists@@YAHPAD@Z      00463000 f   cmdlib.obj
 0001:00062040       ?LoadFile@@YAHPADPAPAX@Z   00463040 f   cmdlib.obj
 0001:000620c0       ?SaveFile@@YAXPADPAXH@Z    004630c0 f   cmdlib.obj
 0001:00062130       ?ParseHex@@YAHPAD@Z        00463130 f   cmdlib.obj
 0001:000621a0       ?ParseNum@@YAHPAD@Z        004631a0 f   cmdlib.obj
 0001:000621e0       ?CreatePath@@YAXPAD@Z      004631e0 f   cmdlib.obj
 0001:00062240       ?SafeCreatePath@@YAXPAD@Z  00463240 f   cmdlib.obj
 0001:00062290       ?QCopyFile@@YAXPAD0@Z      00463290 f   cmdlib.obj
 0001:000622d0       ?InvalidIndex@?$CUtlLinkedList@P6AXXZG@@SAGXZ 004632d0 f i cmdlib.obj
 0001:000622e0       ?InvalidIndex@?$CUtlLinkedList@P6AXPBD@ZG@@SAGXZ 004632e0 f i cmdlib.obj
 0001:000622f0       ?Head@?$CUtlLinkedList@P6AXXZG@@QBEGXZ 004632f0 f i cmdlib.obj
 0001:00062300       ?Head@?$CUtlLinkedList@P6AXPBD@ZG@@QBEGXZ 00463300 f i cmdlib.obj
 0001:00062310       ?ConstructList@?$CUtlLinkedList@P6AXXZG@@IAEXXZ 00463310 f i cmdlib.obj
 0001:00062330       ??A?$CUtlMemory@UListElem_t@?$CUtlLinkedList@P6AXXZG@@@@QBEABUListElem_t@?$CUtlLinkedList@P6AXXZG@@H@Z 00463330 f i cmdlib.obj
 0001:00062340       ??A?$CUtlMemory@UListElem_t@?$CUtlLinkedList@P6AXXZG@@@@QAEAAUListElem_t@?$CUtlLinkedList@P6AXXZG@@H@Z 00463340 f i cmdlib.obj
 0001:00062350       ?Base@?$CUtlMemory@UListElem_t@?$CUtlLinkedList@P6AXXZG@@@@QAEPAUListElem_t@?$CUtlLinkedList@P6AXXZG@@XZ 00463350 f i cmdlib.obj
 0001:00062360       ?ConstructList@?$CUtlLinkedList@P6AXPBD@ZG@@IAEXXZ 00463360 f i cmdlib.obj
 0001:00062380       ??A?$CUtlMemory@UListElem_t@?$CUtlLinkedList@P6AXPBD@ZG@@@@QBEABUListElem_t@?$CUtlLinkedList@P6AXPBD@ZG@@H@Z 00463380 f i cmdlib.obj
 0001:00062390       ??A?$CUtlMemory@UListElem_t@?$CUtlLinkedList@P6AXPBD@ZG@@@@QAEAAUListElem_t@?$CUtlLinkedList@P6AXPBD@ZG@@H@Z 00463390 f i cmdlib.obj
 0001:000623a0       ?Base@?$CUtlMemory@UListElem_t@?$CUtlLinkedList@P6AXPBD@ZG@@@@QAEPAUListElem_t@?$CUtlLinkedList@P6AXPBD@ZG@@XZ 004633a0 f i cmdlib.obj
 0001:000623b0       ?InternalElement@?$CUtlLinkedList@P6AXXZG@@IAEAAUListElem_t@1@G@Z 004633b0 f i cmdlib.obj
 0001:000623c0       ?ValidateGrowSize@?$CUtlMemory@UListElem_t@?$CUtlLinkedList@P6AXXZG@@@@IAEXXZ 004633c0 f i cmdlib.obj
 0001:000623d0       ?InternalElement@?$CUtlLinkedList@P6AXPBD@ZG@@IAEAAUListElem_t@1@G@Z 004633d0 f i cmdlib.obj
 0001:000623e0       ?ValidateGrowSize@?$CUtlMemory@UListElem_t@?$CUtlLinkedList@P6AXPBD@ZG@@@@IAEXXZ 004633e0 f i cmdlib.obj
 0001:000623f0       ?Element@?$CUtlLinkedList@P6AXXZG@@QAEAAP6AXXZG@Z 004633f0 f i cmdlib.obj
 0001:00062400       ?IsValidIndex@?$CUtlLinkedList@P6AXXZG@@QBE_NG@Z 00463400 f i cmdlib.obj
 0001:00062430       ??$CopyConstruct@P6AXXZ@@YAXPAP6AXXZABQ6AXXZ@Z 00463430 f i cmdlib.obj
 0001:00062450       ??$Destruct@P6AXXZ@@YAXPAP6AXXZ@Z 00463450 f i cmdlib.obj
 0001:00062460       ?Element@?$CUtlLinkedList@P6AXPBD@ZG@@QAEAAP6AXPBD@ZG@Z 00463460 f i cmdlib.obj
 0001:00062470       ?IsValidIndex@?$CUtlLinkedList@P6AXPBD@ZG@@QBE_NG@Z 00463470 f i cmdlib.obj
 0001:000624a0       ??$CopyConstruct@P6AXPBD@Z@@YAXPAP6AXPBD@ZABQ6AX0@Z@Z 004634a0 f i cmdlib.obj
 0001:000624c0       ??$Destruct@P6AXPBD@Z@@YAXPAP6AXPBD@Z@Z 004634c0 f i cmdlib.obj
 0001:000624d0       ?NumAllocated@?$CUtlMemory@UListElem_t@?$CUtlLinkedList@P6AXXZG@@@@QBEHXZ 004634d0 f i cmdlib.obj
 0001:000624e0       ?IsExternallyAllocated@?$CUtlMemory@UListElem_t@?$CUtlLinkedList@P6AXXZG@@@@QBE_NXZ 004634e0 f i cmdlib.obj
 0001:000624f0       ?NumAllocated@?$CUtlMemory@UListElem_t@?$CUtlLinkedList@P6AXPBD@ZG@@@@QBEHXZ 004634f0 f i cmdlib.obj
 0001:00062500       ?IsExternallyAllocated@?$CUtlMemory@UListElem_t@?$CUtlLinkedList@P6AXPBD@ZG@@@@QBE_NXZ 00463500 f i cmdlib.obj
 0001:00062510       ?ExpandWildcards@@YAXPAHPAPAPAD@Z 00463510 f   cmdlib.obj
 0001:00062680       ??A?$CUtlLinkedList@P6AXXZG@@QAEAAP6AXXZG@Z 00463680 f i cmdlib.obj
 0001:00062690       ??A?$CUtlLinkedList@P6AXPBD@ZG@@QAEAAP6AXPBD@ZG@Z 00463690 f i cmdlib.obj
 0001:000626a0       ?InternalElement@?$CUtlLinkedList@P6AXXZG@@IBEABUListElem_t@1@G@Z 004636a0 f i cmdlib.obj
 0001:000626b0       ?ResetDbgInfo@?$CUtlLinkedList@P6AXXZG@@IAEXXZ 004636b0 f i cmdlib.obj
 0001:000626c0       ?InternalElement@?$CUtlLinkedList@P6AXPBD@ZG@@IBEABUListElem_t@1@G@Z 004636c0 f i cmdlib.obj
 0001:000626d0       ?ResetDbgInfo@?$CUtlLinkedList@P6AXPBD@ZG@@IAEXXZ 004636d0 f i cmdlib.obj
 0001:000626e0       ?RemoveAll@?$CUtlLinkedList@P6AXXZG@@QAEXXZ 004636e0 f i cmdlib.obj
 0001:00062740       ??0?$CUtlMemory@UListElem_t@?$CUtlLinkedList@P6AXXZG@@@@QAE@HH@Z 00463740 f i cmdlib.obj
 0001:00062780       ?RemoveAll@?$CUtlLinkedList@P6AXPBD@ZG@@QAEXXZ 00463780 f i cmdlib.obj
 0001:000627e0       ??0?$CUtlMemory@UListElem_t@?$CUtlLinkedList@P6AXPBD@ZG@@@@QAE@HH@Z 004637e0 f i cmdlib.obj
 0001:00062820       ?Purge@?$CUtlMemory@UListElem_t@?$CUtlLinkedList@P6AXXZG@@@@QAEXXZ 00463820 f i cmdlib.obj
 0001:00062850       ?Purge@?$CUtlMemory@UListElem_t@?$CUtlLinkedList@P6AXPBD@ZG@@@@QAEXXZ 00463850 f i cmdlib.obj
 0001:00062880       ?Grow@?$CUtlMemory@UListElem_t@?$CUtlLinkedList@P6AXXZG@@@@QAEXH@Z 00463880 f i cmdlib.obj
 0001:000628f0       ?Grow@?$CUtlMemory@UListElem_t@?$CUtlLinkedList@P6AXPBD@ZG@@@@QAEXH@Z 004638f0 f i cmdlib.obj
 0001:00062960       ?Previous@?$CUtlLinkedList@P6AXXZG@@QBEGG@Z 00463960 f i cmdlib.obj
 0001:00062970       ?Previous@?$CUtlLinkedList@P6AXPBD@ZG@@QBEGG@Z 00463970 f i cmdlib.obj
 0001:00062980       ?Next@?$CUtlLinkedList@P6AXXZG@@QBEGG@Z 00463980 f i cmdlib.obj
 0001:00062990       ?Next@?$CUtlLinkedList@P6AXPBD@ZG@@QBEGG@Z 00463990 f i cmdlib.obj
 0001:000629a0       ??1?$CUtlMemory@UListElem_t@?$CUtlLinkedList@P6AXXZG@@@@QAE@XZ 004639a0 f i cmdlib.obj
 0001:000629d0       ??1?$CUtlMemory@UListElem_t@?$CUtlLinkedList@P6AXPBD@ZG@@@@QAE@XZ 004639d0 f i cmdlib.obj
 0001:00062a00       ?AllocInternal@?$CUtlLinkedList@P6AXXZG@@IAEG_N@Z 00463a00 f i cmdlib.obj
 0001:00062aa0       ?AllocInternal@?$CUtlLinkedList@P6AXPBD@ZG@@IAEG_N@Z 00463aa0 f i cmdlib.obj
 0001:00062b40       ?IsInList@?$CUtlLinkedList@P6AXXZG@@QBE_NG@Z 00463b40 f i cmdlib.obj
 0001:00062b70       ?IsInList@?$CUtlLinkedList@P6AXPBD@ZG@@QBE_NG@Z 00463b70 f i cmdlib.obj
 0001:00062ba0       ?CmdLib_Cleanup@@YAXXZ     00463ba0 f   cmdlib.obj
 0001:00062c10       ??0?$CUtlLinkedList@P6AXXZG@@QAE@HH@Z 00463c10 f i cmdlib.obj
 0001:00062c70       ??1?$CUtlLinkedList@P6AXXZG@@QAE@XZ 00463c70 f i cmdlib.obj
 0001:00062cb0       ??0?$CUtlLinkedList@P6AXPBD@ZG@@QAE@HH@Z 00463cb0 f i cmdlib.obj
 0001:00062d10       ??1?$CUtlLinkedList@P6AXPBD@ZG@@QAE@XZ 00463d10 f i cmdlib.obj
 0001:00062d50       ?Unlink@?$CUtlLinkedList@P6AXXZG@@QAEXG@Z 00463d50 f i cmdlib.obj
 0001:00062de0       ?Unlink@?$CUtlLinkedList@P6AXPBD@ZG@@QAEXG@Z 00463de0 f i cmdlib.obj
 0001:00062e70       ?LinkBefore@?$CUtlLinkedList@P6AXXZG@@QAEXGG@Z 00463e70 f i cmdlib.obj
 0001:00062ef0       ?LinkBefore@?$CUtlLinkedList@P6AXPBD@ZG@@QAEXGG@Z 00463ef0 f i cmdlib.obj
 0001:00062f70       ?CmdLib_FPrintf@@YAXPAXPBDZZ 00463f70 f   cmdlib.obj
 0001:00063100       ?CmdLib_SpewOutputFunc@@YA?AW4SpewRetval_t@@W4SpewType_t@@PBD@Z 00464100 f   cmdlib.obj
 0001:00063390       ?InstallSpewFunction@@YAXXZ 00464390 f   cmdlib.obj
 0001:000633d0       ?SetSpewFunctionLogFile@@YAXPBD@Z 004643d0 f   cmdlib.obj
 0001:00063420       ?InsertBefore@?$CUtlLinkedList@P6AXXZG@@QAEGGABQ6AXXZ@Z 00464420 f i cmdlib.obj
 0001:00063460       ?InsertBefore@?$CUtlLinkedList@P6AXPBD@ZG@@QAEGGABQ6AXPBD@Z@Z 00464460 f i cmdlib.obj
 0001:000634a0       ?AddToTail@?$CUtlLinkedList@P6AXXZG@@QAEGABQ6AXXZ@Z 004644a0 f i cmdlib.obj
 0001:00063510       ?AddToTail@?$CUtlLinkedList@P6AXPBD@ZG@@QAEGABQ6AXPBD@Z@Z 00464510 f i cmdlib.obj
 0001:00063580       ?InstallExtraSpewHook@@YAXP6AXPBD@Z@Z 00464580 f   cmdlib.obj
 0001:00063590       ?CmdLib_AtCleanup@@YAXP6AXXZ@Z 00464590 f   cmdlib.obj
 0001:000635e0       ?ParseFile@@YAPBDPBDPADPA_NPAUcharacterset_s@@@Z 004645e0 f   filesystem_helpers.obj
 0001:00063740       ?ParseFile@@YAPADPAD0PA_N@Z 00464740 f   filesystem_helpers.obj
 0001:00063760       ?V_strstr@@YAPADPBD0@Z     00464760 f i filesystem_init.obj
 0001:00063770       ?SetRestoreOriginalValue@CTempEnvVar@@QAEX_N@Z 00464770 f i filesystem_init.obj
 0001:00063780       ?GetValue@CTempEnvVar@@QAEHPADH@Z 00464780 f i filesystem_init.obj
 0001:000637b0       ?SetValue@CTempEnvVar@@QAAXPBDZZ 004647b0 f i filesystem_init.obj
 0001:00063820       ?ClearValue@CTempEnvVar@@QAEXXZ 00464820 f i filesystem_init.obj
 0001:00063850       ?SetRestoreOriginalValue_ALL@CSteamEnvVars@@QAEX_N@Z 00464850 f i filesystem_init.obj
 0001:00063870       ?Q_getwd@@YAXPADH@Z        00464870 f   filesystem_init.obj
 0001:000638a0       ??0CFSSearchPathsInit@@QAE@XZ 004648a0 f   filesystem_init.obj
 0001:000638b0       ??0CFSSteamSetupInfo@@QAE@XZ 004648b0 f   filesystem_init.obj
 0001:000638d0       ??0CFSLoadModuleInfo@@QAE@XZ 004648d0 f   filesystem_init.obj
 0001:00063900       ??0CFSMountContentInfo@@QAE@XZ 00464900 f   filesystem_init.obj
 0001:00063910       ?FileSystem_GetLastErrorString@@YAPBDXZ 00464910 f   filesystem_init.obj
 0001:00063920       ?AddLanguageGameDir@@YAXPAVIFileSystem@@PBD1@Z 00464920 f   filesystem_init.obj
 0001:000639f0       ?AddGameBinDir@@YAXPAVIFileSystem@@PBD@Z 004649f0 f   filesystem_init.obj
 0001:00063a60       ?FileSystem_GetExecutableDir@@YA_NPADH@Z 00464a60 f   filesystem_init.obj
 0001:00063b20       ?LaunchVConfig@@YAXXZ      00464b20 f   filesystem_init.obj
 0001:00063b90       ?GetVProjectCmdLineValue@@YAPBDXZ 00464b90 f   filesystem_init.obj
 0001:00063bd0       ?SetupFileSystemError@@YA?AW4FSReturnCode_t@@_NW41@PBDZZ 00464bd0 f   filesystem_init.obj
 0001:00063c60       ?IsLowViolenceBuild@@YA_NXZ 00464c60 f   filesystem_init.obj
 0001:00063d30       ?DoesFileExistIn@@YA_NPBD0@Z 00464d30 f   filesystem_init.obj
 0001:00063da0       ?LocateGameInfoFile@@YA?AW4FSReturnCode_t@@ABVCFSSteamSetupInfo@@PADH@Z 00464da0 f   filesystem_init.obj
 0001:00063f80       ?DoesPathExistAlready@@YA_NPBD0@Z 00464f80 f   filesystem_init.obj
 0001:000640c0       ?SetSteamInstallPath@@YA?AW4FSReturnCode_t@@PADHAAVCSteamEnvVars@@_N@Z 004650c0 f   filesystem_init.obj
 0001:00064260       ?GetSteamCfgPath@@YA?AW4FSReturnCode_t@@PADH@Z 00465260 f   filesystem_init.obj
 0001:000643a0       ?SetSteamUserPassphrase@@YAXPAVKeyValues@@AAVCSteamEnvVars@@@Z 004653a0 f   filesystem_init.obj
 0001:00064400       ?SetSteamAppId@@YAXPAVKeyValues@@PBDAAVCSteamEnvVars@@@Z 00465400 f   filesystem_init.obj
 0001:00064450       ?FileSystem_SetBasePaths@@YA?AW4FSReturnCode_t@@PAVIFileSystem@@@Z 00465450 f   filesystem_init.obj
 0001:000644c0       ?FileSystem_GetFileSystemDLLName@@YA?AW4FSReturnCode_t@@PADHAA_N@Z 004654c0 f   filesystem_init.obj
 0001:00064590       ?FileSystem_SetErrorMode@@YAXW4FSErrorMode_t@@@Z 00465590 f   filesystem_init.obj
 0001:000645a0       ?FileSystem_AddSearchPath_Platform@@YAXPAVIFileSystem@@PBD@Z 004655a0 f   filesystem_init.obj
 0001:00064630       ??1CTempEnvVar@@QAE@XZ     00465630 f i filesystem_init.obj
 0001:000646a0       ??1CSteamEnvVars@@QAE@XZ   004656a0 f i filesystem_init.obj
 0001:000646d0       ??0CTempEnvVar@@QAE@PBD@Z  004656d0 f i filesystem_init.obj
 0001:00064770       ??0CSteamEnvVars@@QAE@XZ   00465770 f i filesystem_init.obj
 0001:000647b0       ?ReadKeyValuesFile@@YAPAVKeyValues@@PBD@Z 004657b0 f   filesystem_init.obj
 0001:00064890       ?LoadGameInfoFile@@YA?AW4FSReturnCode_t@@PBDAAPAVKeyValues@@11@Z 00465890 f   filesystem_init.obj
 0001:00064980       ?FileSystem_LoadSearchPaths@@YA?AW4FSReturnCode_t@@AAVCFSSearchPathsInit@@@Z 00465980 f   filesystem_init.obj
 0001:00064c30       ?SetSteamAppUser@@YAXPAVKeyValues@@PBDAAVCSteamEnvVars@@@Z 00465c30 f   filesystem_init.obj
 0001:00064d60       ?SetupSteamStartupEnvironment@@YA?AW4FSReturnCode_t@@PAVKeyValues@@PBDAAVCSteamEnvVars@@@Z 00465d60 f   filesystem_init.obj
 0001:00064e50       ?GetSteamExtraAppId@@YA?AW4FSReturnCode_t@@PBDPAH@Z 00465e50 f   filesystem_init.obj
 0001:00064ea0       ?FileSystem_SetupSteamInstallPath@@YA?AW4FSReturnCode_t@@XZ 00465ea0 f   filesystem_init.obj
 0001:00064f30       ?FileSystem_SetupSteamEnvironment@@YA?AW4FSReturnCode_t@@AAVCFSSteamSetupInfo@@@Z 00465f30 f   filesystem_init.obj
 0001:00065060       ?FileSystem_LoadFileSystemModule@@YA?AW4FSReturnCode_t@@AAVCFSLoadModuleInfo@@@Z 00466060 f   filesystem_init.obj
 0001:00065120       ?FileSystem_MountContent@@YA?AW4FSReturnCode_t@@AAVCFSMountContentInfo@@@Z 00466120 f   filesystem_init.obj
 0001:00065240       ?FileSystem_ClearSteamEnvVars@@YAXXZ 00466240 f   filesystem_init.obj
 0001:000652f0       ?FileSystem_Init_Normal@@YA_NPBDW4FSInitType_t@@_N@Z 004662f0 f   filesystem_tools.obj
 0001:00065570       ?FileSystem_Init@@YA_NPBDHW4FSInitType_t@@_N@Z 00466570 f   filesystem_tools.obj
 0001:00065590       ?FileSystem_Term@@YAXXZ    00466590 f   filesystem_tools.obj
 0001:000655e0       ?FileSystem_GetFactory@@YAP6APAXPBDPAH@ZXZ 004665e0 f   filesystem_tools.obj
 0001:000655f0       ?FileSystem_SetGame@@YA_NPBD@Z 004665f0 f   filesystem_tools.obj
 0001:00065660       ?LoadEntityKeyCallback@@YA?AW4ChunkFileResult_t@@PBD0PAULoadEntity_t@@@Z 00466660 f   map_shared.obj
 0001:000657e0       ?LoadEntsFromMapFile@@YA_NPBD@Z 004667e0 f   map_shared.obj
 0001:000658a0       ??$clamp@H@@YAHABH00@Z     004668a0 f i pacifier.obj
 0001:000658c0       ?UpdatePacifier@@YAXM@Z    004668c0 f   pacifier.obj
 0001:00065950       ?EndPacifier@@YAX_N@Z      00466950 f   pacifier.obj
 0001:00065980       ?StartPacifier@@YAXPBD@Z   00466980 f   pacifier.obj
 0001:000659b0       ?pw@@YAXPAUwinding_t@@@Z   004669b0 f   polylib.obj
 0001:00065a00       ?AllocWinding@@YAPAUwinding_t@@H@Z 00466a00 f   polylib.obj
 0001:00065a90       ?FreeWinding@@YAXPAUwinding_t@@@Z 00466a90 f   polylib.obj
 0001:00065ad0       ?RemoveColinearPoints@@YAXPAUwinding_t@@@Z 00466ad0 f   polylib.obj
 0001:00065c30       ?WindingPlane@@YAXPAUwinding_t@@AAVVector@@PAM@Z 00466c30 f   polylib.obj
 0001:00065d10       ?WindingArea@@YAMPAUwinding_t@@@Z 00466d10 f   polylib.obj
 0001:00065e20       ?WindingBounds@@YAXPAUwinding_t@@AAVVector@@1@Z 00466e20 f   polylib.obj
 0001:00065f00       ?WindingCenter@@YAXPAUwinding_t@@AAVVector@@@Z 00466f00 f   polylib.obj
 0001:00065f90       ?WindingAreaAndBalancePoint@@YAMPAUwinding_t@@AAVVector@@@Z 00466f90 f   polylib.obj
 0001:00066180       ?BaseWindingForPlane@@YAPAUwinding_t@@ABVVector@@M@Z 00467180 f   polylib.obj
 0001:00066480       ?CopyWinding@@YAPAUwinding_t@@PAU1@@Z 00467480 f   polylib.obj
 0001:000664c0       ?ReverseWinding@@YAPAUwinding_t@@PAU1@@Z 004674c0 f   polylib.obj
 0001:00066520       ?ClipWindingEpsilon@@YAXPAUwinding_t@@ABVVector@@MMPAPAU1@2@Z 00467520 f   polylib.obj
 0001:00066b30       ?ClassifyWindingEpsilon@@YAXPAUwinding_t@@ABVVector@@MMPAPAU1@22@Z 00467b30 f   polylib.obj
 0001:00066f20       ?ChopWindingInPlace@@YAXPAPAUwinding_t@@ABVVector@@MM@Z 00467f20 f   polylib.obj
 0001:00067250       ?ChopWinding@@YAPAUwinding_t@@PAU1@ABVVector@@M@Z 00468250 f   polylib.obj
 0001:00067310       ?CheckWinding@@YAXPAUwinding_t@@@Z 00468310 f   polylib.obj
 0001:000675c0       ?WindingOnPlaneSide@@YAHPAUwinding_t@@ABVVector@@M@Z 004685c0 f   polylib.obj
 0001:00067680       ?PointInWinding@@YA_NABVVector@@PAUwinding_t@@@Z 00468680 f   polylib.obj
 0001:00067870       ?TranslateWinding@@YAXPAUwinding_t@@ABVVector@@@Z 00468870 f   polylib.obj
 0001:000678b0       ?ClipWindingEpsilon_Offset@@YAXPAUwinding_t@@ABVVector@@MMPAPAU1@21@Z 004688b0 f   polylib.obj
 0001:000679b0       ?ClassifyWindingEpsilon_Offset@@YAXPAUwinding_t@@ABVVector@@MMPAPAU1@221@Z 004689b0 f   polylib.obj
 0001:00067af0       ?AddScriptToStack@@YAXPADW4ScriptPathMode_t@@@Z 00468af0 f   scriplib.obj
 0001:00067ba0       _LoadScriptFile            00468ba0 f   scriplib.obj
 0001:00067bd0       ?AddMacroToStack@@YA_NPAD@Z 00468bd0 f   scriplib.obj
 0001:00067da0       ?ExpandMacroToken@@YA_NAAPAD@Z 00468da0 f   scriplib.obj
 0001:00067ed0       _ParseFromMemory           00468ed0 f   scriplib.obj
 0001:00067f40       _UnGetToken                00468f40 f   scriplib.obj
 0001:00067f50       ?EndOfScript@@YAHH@Z       00468f50 f   scriplib.obj
 0001:00067ff0       _TokenAvailable            00468ff0 f   scriplib.obj
 0001:00068050       _GetTokenizerStatus        00469050 f   scriplib.obj
 0001:00068090       ?DefineMacro@@YAXPAD@Z     00469090 f   scriplib.obj
 0001:00068240       _GetToken                  00469240 f   scriplib.obj
 0001:000685e0       _GetExprToken              004695e0 f   scriplib.obj
 0001:00068940       ??0CCritInit@@QAE@XZ       00469940 f i threads.obj
 0001:00068960       ?SetLowPriority@@YAXXZ     00469960 f   threads.obj
 0001:00068970       ?ThreadSetDefault@@YAXXZ   00469970 f   threads.obj
 0001:000689c0       ?ThreadLock@@YAXXZ         004699c0 f   threads.obj
 0001:00068a00       ?ThreadUnlock@@YAXXZ       00469a00 f   threads.obj
 0001:00068a40       ?InternalRunThreadsFn@@YGKPAX@Z 00469a40 f   threads.obj
 0001:00068a60       ?RunThreads_Start@@YAXP6AXHPAX@Z0@Z 00469a60 f   threads.obj
 0001:00068af0       ?RunThreads_End@@YAXXZ     00469af0 f   threads.obj
 0001:00068b50       ?RunThreadsOn@@YAXHHP6AXHPAX@Z0@Z 00469b50 f   threads.obj
 0001:00068bd0       ?GetThreadWork@@YAHXZ      00469bd0 f   threads.obj
 0001:00068cc0       ?ThreadWorkerFunction@@YAXHPAX@Z 00469cc0 f   threads.obj
 0001:00068cf0       ?RunThreadsOnIndividual@@YAXHHP6AXHH@Z@Z 00469cf0 f   threads.obj
 0001:00068d80       ?EnableFullMinidumps@@YAX_N@Z 00469d80 f   tools_minidump.obj
 0001:00068d90       ?SetupDefaultToolsMinidumpHandler@@YAXXZ 00469d90 f   tools_minidump.obj
 0001:00068da0       ?SetupToolsMinidumpHandler@@YAXP6AXK@Z@Z 00469da0 f   tools_minidump.obj
 0001:00068db6       _GetModuleFileNameA@12     00469db6 f   kernel32:KERNEL32.dll
 0001:00068dbc       _VirtualQuery@12           00469dbc f   kernel32:KERNEL32.dll
 0001:00068dc2       _HeapAlloc@12              00469dc2 f   kernel32:KERNEL32.dll
 0001:00068dc8       _GetProcessHeap@0          00469dc8 f   kernel32:KERNEL32.dll
 0001:00068dce       _Sleep@4                   00469dce f   kernel32:KERNEL32.dll
 0001:00068dd4       _GetConsoleScreenBufferInfo@8 00469dd4 f   kernel32:KERNEL32.dll
 0001:00068dda       _GetStdHandle@4            00469dda f   kernel32:KERNEL32.dll
 0001:00068de0       _SetConsoleTextAttribute@8 00469de0 f   kernel32:KERNEL32.dll
 0001:00068de6       _TerminateProcess@8        00469de6 f   kernel32:KERNEL32.dll
 0001:00068dec       _GetCurrentProcess@0       00469dec f   kernel32:KERNEL32.dll
 0001:00068df2       _LeaveCriticalSection@4    00469df2 f   kernel32:KERNEL32.dll
 0001:00068df8       _OutputDebugStringA@4      00469df8 f   kernel32:KERNEL32.dll
 0001:00068dfe       _EnterCriticalSection@4    00469dfe f   kernel32:KERNEL32.dll
 0001:00068e04       _InitializeCriticalSection@4 00469e04 f   kernel32:KERNEL32.dll
 0001:00068e0a       _GetEnvironmentVariableA@12 00469e0a f   kernel32:KERNEL32.dll
 0001:00068e10       _GetModuleHandleA@4        00469e10 f   kernel32:KERNEL32.dll
 0001:00068e16       _SetPriorityClass@8        00469e16 f   kernel32:KERNEL32.dll
 0001:00068e1c       _GetSystemInfo@4           00469e1c f   kernel32:KERNEL32.dll
 0001:00068e22       _SetThreadPriority@8       00469e22 f   kernel32:KERNEL32.dll
 0001:00068e28       _CreateThread@24           00469e28 f   kernel32:KERNEL32.dll
 0001:00068e2e       _CloseHandle@4             00469e2e f   kernel32:KERNEL32.dll
 0001:00068e34       _WaitForMultipleObjects@16 00469e34 f   kernel32:KERNEL32.dll
 0001:00068e3a       _SetUnhandledExceptionFilter@4 00469e3a f   kernel32:KERNEL32.dll
 0001:00068e40       _RegCloseKey@4             00469e40 f   advapi32:ADVAPI32.dll
 0001:00068e46       _RegQueryValueExA@24       00469e46 f   advapi32:ADVAPI32.dll
 0001:00068e4c       _RegOpenKeyExA@20          00469e4c f   advapi32:ADVAPI32.dll
 0001:00068e60       ?_V_strlen@@YAHPBDH0@Z     00469e60 f   tier1:strtools.obj
 0001:00068e90       ?_V_wcslen@@YAHPBDHPB_W@Z  00469e90 f   tier1:strtools.obj
 0001:00068eb0       ?_V_strrchr@@YAPADPBDH0D@Z 00469eb0 f   tier1:strtools.obj
 0001:00068f00       ?_V_strcmp@@YAHPBDH00@Z    00469f00 f   tier1:strtools.obj
 0001:00068f60       ?_V_wcscmp@@YAHPBDHPB_W1@Z 00469f60 f   tier1:strtools.obj
 0001:00068f90       ?_V_stricmp@@YAHPBDH00@Z   00469f90 f   tier1:strtools.obj
 0001:00068fc0       ?_V_strstr@@YAPADPBDH00@Z  00469fc0 f   tier1:strtools.obj
 0001:00068ff0       ?_V_strupr@@YAPADPBDHPAD@Z 00469ff0 f   tier1:strtools.obj
 0001:00069010       ?_V_strlower@@YAPADPBDHPAD@Z 0046a010 f   tier1:strtools.obj
 0001:00069030       ?V_strncmp@@YAHPBD0H@Z     0046a030 f   tier1:strtools.obj
 0001:00069090       ?V_strnlwr@@YAPADPADI@Z    0046a090 f   tier1:strtools.obj
 0001:000690d0       ?V_strncasecmp@@YAHPBD0H@Z 0046a0d0 f   tier1:strtools.obj
 0001:00069150       ?V_strcasecmp@@YAHPBD0@Z   0046a150 f   tier1:strtools.obj
 0001:00069190       ?V_strnicmp@@YAHPBD0H@Z    0046a190 f   tier1:strtools.obj
 0001:000691d0       ?V_atoi@@YAHPBD@Z          0046a1d0 f   tier1:strtools.obj
 0001:00069290       ?V_atof@@YAMPBD@Z          0046a290 f   tier1:strtools.obj
 0001:00069420       ?V_normalizeFloatString@@YAXPAD@Z 0046a420 f   tier1:strtools.obj
 0001:00069480       ?V_stristr@@YAPBDPBD0@Z    0046a480 f   tier1:strtools.obj
 0001:00069550       ?V_stristr@@YAPADPADPBD@Z  0046a550 f   tier1:strtools.obj
 0001:00069580       ?V_strnistr@@YAPBDPBD0H@Z  0046a580 f   tier1:strtools.obj
 0001:00069680       ?V_strnchr@@YAPBDPBDDH@Z   0046a680 f   tier1:strtools.obj
 0001:000696b0       ?V_strncat@@YAPADPADPBDIH@Z 0046a6b0 f   tier1:strtools.obj
 0001:00069770       ?V_hextobinary@@YAXPBDHPAEH@Z 0046a770 f   tier1:strtools.obj
 0001:00069850       ?V_StripTrailingSlash@@YAXPAD@Z 0046a850 f   tier1:strtools.obj
 0001:00069890       ?V_DefaultExtension@@YAXPADPBDH@Z 0046a890 f   tier1:strtools.obj
 0001:00069940       ?V_StripFilename@@YAXPAD@Z 0046a940 f   tier1:strtools.obj
 0001:00069980       ?V_FixSlashes@@YAXPADD@Z   0046a980 f   tier1:strtools.obj
 0001:000699b0       ?V_UnqualifiedFileName@@YAPBDPBD@Z 0046a9b0 f   tier1:strtools.obj
 0001:000699f0       ?V_ExtractFilePath@@YA_NPBDPADH@Z 0046a9f0 f   tier1:strtools.obj
 0001:00069a60       ?V_GetFileExtension@@YAPBDPBD@Z 0046aa60 f   tier1:strtools.obj
 0001:00069ab0       ?V_RemoveDotSlashes@@YA_NPAD@Z 0046aab0 f   tier1:strtools.obj
 0001:00069bd0       ?V_AppendSlash@@YAXPADH@Z  0046abd0 f   tier1:strtools.obj
 0001:00069c30       ?V_IsAbsolutePath@@YA_NPBD@Z 0046ac30 f   tier1:strtools.obj
 0001:00069cb0       ?V_StrSlice@@YAXPBDHHPADH@Z 0046acb0 f   tier1:strtools.obj
 0001:00069d70       ?V_StrLeft@@YAXPBDHPADH@Z  0046ad70 f   tier1:strtools.obj
 0001:00069db0       ?V_strtowcs@@YAXPBDHPA_WH@Z 0046adb0 f   tier1:strtools.obj
 0001:00069de0       ?V_wcstostr@@YAXPB_WHPADH@Z 0046ade0 f   tier1:strtools.obj
 0001:00069e10       ??$AssertValidWritePtr@X@@YAXPAXH@Z 0046ae10 f i tier1:strtools.obj
 0001:00069e20       ??$AssertValidReadPtr@$$CBX@@YAXPBXH@Z 0046ae20 f i tier1:strtools.obj
 0001:00069e30       ??$AssertValidWritePtr@D@@YAXPADH@Z 0046ae30 f i tier1:strtools.obj
 0001:00069e40       ??$AssertValidWritePtr@_W@@YAXPA_WH@Z 0046ae40 f i tier1:strtools.obj
 0001:00069e50       ??$AssertValidReadPtr@$$CB_W@@YAXPB_WH@Z 0046ae50 f i tier1:strtools.obj
 0001:00069e60       ??$CopyConstruct@PAD@@YAXPAPADABQAD@Z 0046ae60 f i tier1:strtools.obj
 0001:00069e80       ?_V_memset@@YAXPBDHPAXHH@Z 0046ae80 f   tier1:strtools.obj
 0001:00069eb0       ?_V_memcpy@@YAXPBDHPAXPBXH@Z 0046aeb0 f   tier1:strtools.obj
 0001:00069ee0       ?_V_memmove@@YAXPBDHPAXPBXH@Z 0046aee0 f   tier1:strtools.obj
 0001:00069f10       ?_V_memcmp@@YAHPBDHPBX1H@Z 0046af10 f   tier1:strtools.obj
 0001:00069fc0       ?_V_strcpy@@YAXPBDHPAD0@Z  0046afc0 f   tier1:strtools.obj
 0001:0006a000       ?V_strncpy@@YAXPADPBDH@Z   0046b000 f   tier1:strtools.obj
 0001:0006a040       ?V_wcsncpy@@YAXPA_WPB_WH@Z 0046b040 f   tier1:strtools.obj
 0001:0006a080       ?V_snprintf@@YAHPADHPBDZZ  0046b080 f   tier1:strtools.obj
 0001:0006a0d0       ?V_vsnprintf@@YAHPADHPBD0@Z 0046b0d0 f   tier1:strtools.obj
 0001:0006a120       ?V_pretifymem@@YAPADMH_N@Z 0046b120 f   tier1:strtools.obj
 0001:0006a2e0       ?V_pretifynum@@YAPAD_J@Z   0046b2e0 f   tier1:strtools.obj
 0001:0006a590       ?V_UTF8ToUnicode@@YAHPBDPA_WH@Z 0046b590 f   tier1:strtools.obj
 0001:0006a5e0       ?V_UnicodeToUTF8@@YAHPB_WPADH@Z 0046b5e0 f   tier1:strtools.obj
 0001:0006a630       ?V_binarytohex@@YAXPBEHPADH@Z 0046b630 f   tier1:strtools.obj
 0001:0006a710       ?V_FileBase@@YAXPBDPADH@Z  0046b710 f   tier1:strtools.obj
 0001:0006a7d0       ?V_StripExtension@@YAXPBDPADH@Z 0046b7d0 f   tier1:strtools.obj
 0001:0006a850       ?V_SetExtension@@YAXPADPBDH@Z 0046b850 f   tier1:strtools.obj
 0001:0006a880       ?V_StripLastDir@@YA_NPADH@Z 0046b880 f   tier1:strtools.obj
 0001:0006a920       ?V_ComposeFileName@@YAXPBD0PADH@Z 0046b920 f   tier1:strtools.obj
 0001:0006a9e0       ?V_ExtractFileExtension@@YAXPBDPADH@Z 0046b9e0 f   tier1:strtools.obj
 0001:0006aa30       ?V_MakeAbsolutePath@@YAXPADHPBD1@Z 0046ba30 f   tier1:strtools.obj
 0001:0006ab50       ?V_StrSubst@@YA_NPBD00PADH_N@Z 0046bb50 f   tier1:strtools.obj
 0001:0006acd0       ?AllocString@@YAPADPBDH@Z  0046bcd0 f   tier1:strtools.obj
 0001:0006ad50       ?V_StrRight@@YAXPBDHPADH@Z 0046bd50 f   tier1:strtools.obj
 0001:0006ade0       ?InsertBefore@?$CUtlVector@PADV?$CUtlMemory@PAD@@@@QAEHHABQAD@Z 0046bde0 f i tier1:strtools.obj
 0001:0006ae50       ?AddToTail@?$CUtlVector@PADV?$CUtlMemory@PAD@@@@QAEHABQAD@Z 0046be50 f i tier1:strtools.obj
 0001:0006ae70       ?V_SplitString2@@YAXPBDPAPBDHAAV?$CUtlVector@PADV?$CUtlMemory@PAD@@@@@Z 0046be70 f   tier1:strtools.obj
 0001:0006b040       ?V_SplitString@@YAXPBD0AAV?$CUtlVector@PADV?$CUtlMemory@PAD@@@@@Z 0046c040 f   tier1:strtools.obj
 0001:0006b060       ?TellMaxPut@CUtlBuffer@@QBEHXZ 0046c060 f i tier1:utlbuffer.obj
 0001:0006b070       ?IsGrowable@CUtlBuffer@@QBE_NXZ 0046c070 f i tier1:utlbuffer.obj
 0001:0006b080       ?IsValid@CUtlBuffer@@QBE_NXZ 0046c080 f i tier1:utlbuffer.obj
 0001:0006b090       ?ContainsCRLF@CUtlBuffer@@QBE_NXZ 0046c090 f i tier1:utlbuffer.obj
 0001:0006b0b0       ?IsReadOnly@CUtlBuffer@@QBE_NXZ 0046c0b0 f i tier1:utlbuffer.obj
 0001:0006b0c0       ?GetCStringCharConversion@@YAPAVCUtlCharConversion@@XZ 0046c0c0 f   tier1:utlbuffer.obj
 0001:0006b0d0       ?GetNoEscCharConversion@@YAPAVCUtlCharConversion@@XZ 0046c0d0 f   tier1:utlbuffer.obj
 0001:0006b0e0       ?FindConversion@CUtlCStringConversion@@UAEDPBDPAH@Z 0046c0e0 f   tier1:utlbuffer.obj
 0001:0006b100       ??0CUtlCharConversion@@QAE@DPBDHPAUConversionArray_t@0@@Z 0046c100 f   tier1:utlbuffer.obj
 0001:0006b1b0       ?GetEscapeChar@CUtlCharConversion@@QBEDXZ 0046c1b0 f   tier1:utlbuffer.obj
 0001:0006b1c0       ?GetDelimiter@CUtlCharConversion@@QBEPBDXZ 0046c1c0 f   tier1:utlbuffer.obj
 0001:0006b1d0       ?GetDelimiterLength@CUtlCharConversion@@QBEHXZ 0046c1d0 f   tier1:utlbuffer.obj
 0001:0006b1e0       ?GetConversionString@CUtlCharConversion@@QBEPBDD@Z 0046c1e0 f   tier1:utlbuffer.obj
 0001:0006b1f0       ?GetConversionLength@CUtlCharConversion@@QBEHD@Z 0046c1f0 f   tier1:utlbuffer.obj
 0001:0006b200       ?MaxConversionLength@CUtlCharConversion@@QBEHXZ 0046c200 f   tier1:utlbuffer.obj
 0001:0006b210       ?FindConversion@CUtlCharConversion@@UAEDPBDPAH@Z 0046c210 f   tier1:utlbuffer.obj
 0001:0006b290       ?SetBufferType@CUtlBuffer@@QAEX_N0@Z 0046c290 f   tier1:utlbuffer.obj
 0001:0006b2c0       ?SeekGet@CUtlBuffer@@QAEXW4SeekType_t@1@H@Z 0046c2c0 f   tier1:utlbuffer.obj
 0001:0006b310       ?SetOverflowFuncs@CUtlBuffer@@IAEXP81@AE_NH@Z0@Z 0046c310 f   tier1:utlbuffer.obj
 0001:0006b330       ?OnPutOverflow@CUtlBuffer@@IAE_NH@Z 0046c330 f   tier1:utlbuffer.obj
 0001:0006b340       ?OnGetOverflow@CUtlBuffer@@IAE_NH@Z 0046c340 f   tier1:utlbuffer.obj
 0001:0006b350       ?GetOverflow@CUtlBuffer@@IAE_NH@Z 0046c350 f   tier1:utlbuffer.obj
 0001:0006b360       ?SetLittleEndian@CUtlBuffer@@QAEX_N@Z 0046c360 f   tier1:utlbuffer.obj
 0001:0006b370       ??0?$CUtlMemory@E@@QAE@PAEH@Z 0046c370 f i tier1:utlbuffer.obj
 0001:0006b390       ?Size@CUtlBuffer@@QBEHXZ   0046c390 f i tier1:utlbuffer.obj
 0001:0006b3a0       ??0CUtlNoEscConversion@@QAE@DPBDHPAUConversionArray_t@CUtlCharConversion@@@Z 0046c3a0 f i tier1:utlbuffer.obj
 0001:0006b3d0       ?FindConversion@CUtlNoEscConversion@@UAEDPBDPAH@Z 0046c3d0 f i tier1:utlbuffer.obj
 0001:0006b3e0       ??0CUtlCStringConversion@@QAE@DPBDHPAUConversionArray_t@CUtlCharConversion@@@Z 0046c3e0 f   tier1:utlbuffer.obj
 0001:0006b450       ?CheckGet@CUtlBuffer@@IAE_NH@Z 0046c450 f   tier1:utlbuffer.obj
 0001:0006b4b0       ?CheckPeekGet@CUtlBuffer@@IAE_NHH@Z 0046c4b0 f   tier1:utlbuffer.obj
 0001:0006b4e0       ?CheckArbitraryPeekGet@CUtlBuffer@@IAE_NHAAH@Z 0046c4e0 f   tier1:utlbuffer.obj
 0001:0006b550       ?PeekGet@CUtlBuffer@@QAEPBXHH@Z 0046c550 f   tier1:utlbuffer.obj
 0001:0006b590       ?GetToken@CUtlBuffer@@QAE_NPBD@Z 0046c590 f   tier1:utlbuffer.obj
 0001:0006b6e0       ?CheckPut@CUtlBuffer@@IAE_NH@Z 0046c6e0 f   tier1:utlbuffer.obj
 0001:0006b730       ?AddNullTermination@CUtlBuffer@@IAEXXZ 0046c730 f   tier1:utlbuffer.obj
 0001:0006b780       ?ConvertToGrowableMemory@?$CUtlMemory@E@@QAEXH@Z 0046c780 f i tier1:utlbuffer.obj
 0001:0006b7d0       ??$GetType@D@CUtlBuffer@@IAEXAADPBD@Z 0046c7d0 f i tier1:utlbuffer.obj
 0001:0006b830       ?GetChar@CUtlBuffer@@QAEDXZ 0046c830 f i tier1:utlbuffer.obj
 0001:0006b880       ?Purge@CUtlBuffer@@QAEXXZ  0046c880 f i tier1:utlbuffer.obj
 0001:0006b8c0       ?EnsureCapacity@CUtlBuffer@@QAEXH@Z 0046c8c0 f   tier1:utlbuffer.obj
 0001:0006b920       ?Get@CUtlBuffer@@QAEXPAXH@Z 0046c920 f   tier1:utlbuffer.obj
 0001:0006b960       ?GetUpTo@CUtlBuffer@@QAEHPAXH@Z 0046c960 f   tier1:utlbuffer.obj
 0001:0006b9a0       ?EatWhiteSpace@CUtlBuffer@@QAEXXZ 0046c9a0 f   tier1:utlbuffer.obj
 0001:0006ba10       ?EatCPPComment@CUtlBuffer@@QAE_NXZ 0046ca10 f   tier1:utlbuffer.obj
 0001:0006ba80       ?PeekWhiteSpace@CUtlBuffer@@IAEHH@Z 0046ca80 f   tier1:utlbuffer.obj
 0001:0006bb20       ?PeekStringLength@CUtlBuffer@@QAEHXZ 0046cb20 f   tier1:utlbuffer.obj
 0001:0006bc80       ?PeekLineLength@CUtlBuffer@@IAEHXZ 0046cc80 f   tier1:utlbuffer.obj
 0001:0006bd70       ?PeekStringMatch@CUtlBuffer@@IAE_NHPBDH@Z 0046cd70 f   tier1:utlbuffer.obj
 0001:0006bdd0       ?PeekDelimitedStringLength@CUtlBuffer@@QAEHPAVCUtlCharConversion@@_N@Z 0046cdd0 f   tier1:utlbuffer.obj
 0001:0006bf20       ?GetString@CUtlBuffer@@QAEXPADH@Z 0046cf20 f   tier1:utlbuffer.obj
 0001:0006bfd0       ?GetLine@CUtlBuffer@@QAEXPADH@Z 0046cfd0 f   tier1:utlbuffer.obj
 0001:0006c070       ?GetDelimitedCharInternal@CUtlBuffer@@IAEDPAVCUtlCharConversion@@@Z 0046d070 f   tier1:utlbuffer.obj
 0001:0006c0e0       ?GetDelimitedChar@CUtlBuffer@@QAEDPAVCUtlCharConversion@@@Z 0046d0e0 f   tier1:utlbuffer.obj
 0001:0006c100       ?GetDelimitedString@CUtlBuffer@@QAEXPAVCUtlCharConversion@@PADH@Z 0046d100 f   tier1:utlbuffer.obj
 0001:0006c200       ?VaScanf@CUtlBuffer@@QAEHPBDPAD@Z 0046d200 f   tier1:utlbuffer.obj
 0001:0006c520       ?Scanf@CUtlBuffer@@QAAHPBDZZ 0046d520 f   tier1:utlbuffer.obj
 0001:0006c540       ?ParseToken@CUtlBuffer@@QAE_NPBD0PADH@Z 0046d540 f   tier1:utlbuffer.obj
 0001:0006c740       ?Put@CUtlBuffer@@QAEXPBXH@Z 0046d740 f   tier1:utlbuffer.obj
 0001:0006c7b0       ?PutOverflow@CUtlBuffer@@IAE_NH@Z 0046d7b0 f   tier1:utlbuffer.obj
 0001:0006c800       ?SeekPut@CUtlBuffer@@QAEXW4SeekType_t@1@H@Z 0046d800 f   tier1:utlbuffer.obj
 0001:0006c880       ?SetExternalBuffer@?$CUtlMemory@E@@QAEXPAEH@Z 0046d880 f i tier1:utlbuffer.obj
 0001:0006c8d0       ??0CUtlBuffer@@QAE@HHH@Z   0046d8d0 f   tier1:utlbuffer.obj
 0001:0006c980       ??0CUtlBuffer@@QAE@PBXHH@Z 0046d980 f   tier1:utlbuffer.obj
 0001:0006ca30       ?SetExternalBuffer@CUtlBuffer@@QAEXPAXHHH@Z 0046da30 f   tier1:utlbuffer.obj
 0001:0006cad0       ?PutString@CUtlBuffer@@QAEXPBD@Z 0046dad0 f   tier1:utlbuffer.obj
 0001:0006cbb0       ?PutDelimitedCharInternal@CUtlBuffer@@IAEXPAVCUtlCharConversion@@D@Z 0046dbb0 f i tier1:utlbuffer.obj
 0001:0006cc60       ?PutDelimitedChar@CUtlBuffer@@QAEXPAVCUtlCharConversion@@D@Z 0046dc60 f   tier1:utlbuffer.obj
 0001:0006ccc0       ?PutDelimitedString@CUtlBuffer@@QAEXPAVCUtlCharConversion@@PBD@Z 0046dcc0 f   tier1:utlbuffer.obj
 0001:0006cda0       ?VaPrintf@CUtlBuffer@@QAEXPBDPAD@Z 0046dda0 f   tier1:utlbuffer.obj
 0001:0006ce00       ?Printf@CUtlBuffer@@QAAXPBDZZ 0046de00 f   tier1:utlbuffer.obj
 0001:0006ce20       ?ConvertCRLF@CUtlBuffer@@QAE_NAAV1@@Z 0046de20 f   tier1:utlbuffer.obj
 0001:0006d080       ??3@YAXPAX0@Z              0046e080 f i tier1:utlsymbol.obj
 0001:0006d090       ??0CUtlSymbol@@QAE@G@Z     0046e090 f i tier1:utlsymbol.obj
 0001:0006d0a0       ?IsValid@CUtlSymbol@@QBE_NXZ 0046e0a0 f i tier1:utlsymbol.obj
 0001:0006d0b0       ??0CStringPoolIndex@CUtlSymbolTable@@QAE@XZ 0046e0b0 f i tier1:utlsymbol.obj
 0001:0006d0c0       ??0CStringPoolIndex@CUtlSymbolTable@@QAE@GG@Z 0046e0c0 f i tier1:utlsymbol.obj
 0001:0006d0e0       ??8CStringPoolIndex@CUtlSymbolTable@@QBE_NABV01@@Z 0046e0e0 f i tier1:utlsymbol.obj
 0001:0006d110       ??0CLess@CUtlSymbolTable@@QAE@H@Z 0046e110 f i tier1:utlsymbol.obj
 0001:0006d120       ??0FileNameHandleInternal_t@CUtlFilenameSymbolTable@@QAE@XZ 0046e120 f i tier1:utlsymbol.obj
 0001:0006d130       ?DisableStaticSymbolTable@CUtlSymbol@@SAXXZ 0046e130 f   tier1:utlsymbol.obj
 0001:0006d140       ?FindOrAddFileName@CUtlFilenameSymbolTable@@QAEPAXPBD@Z 0046e140 f   tier1:utlsymbol.obj
 0001:0006d230       ?FindFileName@CUtlFilenameSymbolTable@@QAEPAXPBD@Z 0046e230 f   tier1:utlsymbol.obj
 0001:0006d340       ?String@CUtlFilenameSymbolTable@@QAE_NABQAXPADH@Z 0046e340 f   tier1:utlsymbol.obj
 0001:0006d3b0       ?Count@?$CUtlVector@PAUStringPool_t@CUtlSymbolTable@@V?$CUtlMemory@PAUStringPool_t@CUtlSymbolTable@@@@@@QBEHXZ 0046e3b0 f i tier1:utlsymbol.obj
 0001:0006d3c0       ?InvalidIndex@?$CUtlRBTree@VCStringPoolIndex@CUtlSymbolTable@@GVCLess@2@@@SAGXZ 0046e3c0 f i tier1:utlsymbol.obj
 0001:0006d3d0       ?Base@?$CUtlMemory@UNode_t@?$CUtlRBTree@VCStringPoolIndex@CUtlSymbolTable@@GVCLess@2@@@@@QAEPAUNode_t@?$CUtlRBTree@VCStringPoolIndex@CUtlSymbolTable@@GVCLess@2@@@XZ 0046e3d0 f i tier1:utlsymbol.obj
 0001:0006d3e0       ??$CopyConstruct@VCStringPoolIndex@CUtlSymbolTable@@@@YAXPAVCStringPoolIndex@CUtlSymbolTable@@ABV01@@Z 0046e3e0 f i tier1:utlsymbol.obj
 0001:0006d400       ??$Destruct@VCStringPoolIndex@CUtlSymbolTable@@@@YAXPAVCStringPoolIndex@CUtlSymbolTable@@@Z 0046e400 f i tier1:utlsymbol.obj
 0001:0006d410       ?Base@?$CUtlMemory@PAUStringPool_t@CUtlSymbolTable@@@@QBEPBQAUStringPool_t@CUtlSymbolTable@@XZ 0046e410 f i tier1:utlsymbol.obj
 0001:0006d420       ?Base@?$CUtlMemory@PAUStringPool_t@CUtlSymbolTable@@@@QAEPAPAUStringPool_t@CUtlSymbolTable@@XZ 0046e420 f i tier1:utlsymbol.obj
 0001:0006d430       ??$Destruct@PAUStringPool_t@CUtlSymbolTable@@@@YAXPAPAUStringPool_t@CUtlSymbolTable@@@Z 0046e430 f i tier1:utlsymbol.obj
 0001:0006d440       ?ValidateGrowSize@?$CUtlMemory@UNode_t@?$CUtlRBTree@VCStringPoolIndex@CUtlSymbolTable@@GVCLess@2@@@@@IAEXXZ 0046e440 f i tier1:utlsymbol.obj
 0001:0006d450       ?ValidateGrowSize@?$CUtlMemory@PAUStringPool_t@CUtlSymbolTable@@@@IAEXXZ 0046e450 f i tier1:utlsymbol.obj
 0001:0006d460       ??A?$CUtlMemory@UNode_t@?$CUtlRBTree@VCStringPoolIndex@CUtlSymbolTable@@GVCLess@2@@@@@QBEABUNode_t@?$CUtlRBTree@VCStringPoolIndex@CUtlSymbolTable@@GVCLess@2@@@H@Z 0046e460 f i tier1:utlsymbol.obj
 0001:0006d470       ??A?$CUtlMemory@UNode_t@?$CUtlRBTree@VCStringPoolIndex@CUtlSymbolTable@@GVCLess@2@@@@@QAEAAUNode_t@?$CUtlRBTree@VCStringPoolIndex@CUtlSymbolTable@@GVCLess@2@@@H@Z 0046e470 f i tier1:utlsymbol.obj
 0001:0006d480       ?IsIdxValid@?$CUtlMemory@UNode_t@?$CUtlRBTree@VCStringPoolIndex@CUtlSymbolTable@@GVCLess@2@@@@@QBE_NH@Z 0046e480 f i tier1:utlsymbol.obj
 0001:0006d4a0       ??$CopyConstruct@PAUStringPool_t@CUtlSymbolTable@@@@YAXPAPAUStringPool_t@CUtlSymbolTable@@ABQAU01@@Z 0046e4a0 f i tier1:utlsymbol.obj
 0001:0006d4c0       ?NumAllocated@?$CUtlMemory@UNode_t@?$CUtlRBTree@VCStringPoolIndex@CUtlSymbolTable@@GVCLess@2@@@@@QBEHXZ 0046e4c0 f i tier1:utlsymbol.obj
 0001:0006d4d0       ?IsExternallyAllocated@?$CUtlMemory@UNode_t@?$CUtlRBTree@VCStringPoolIndex@CUtlSymbolTable@@GVCLess@2@@@@@QBE_NXZ 0046e4d0 f i tier1:utlsymbol.obj
 0001:0006d4e0       ??$Construct@VCStringPoolIndex@CUtlSymbolTable@@@@YAXPAVCStringPoolIndex@CUtlSymbolTable@@@Z 0046e4e0 f i tier1:utlsymbol.obj
 0001:0006d4f0       ?NumAllocated@?$CUtlMemory@PAUStringPool_t@CUtlSymbolTable@@@@QBEHXZ 0046e4f0 f i tier1:utlsymbol.obj
 0001:0006d500       ?IsExternallyAllocated@?$CUtlMemory@PAUStringPool_t@CUtlSymbolTable@@@@QBE_NXZ 0046e500 f i tier1:utlsymbol.obj
 0001:0006d510       ?IsRoot@?$CUtlRBTree@VCStringPoolIndex@CUtlSymbolTable@@GVCLess@2@@@QBE_NG@Z 0046e510 f i tier1:utlsymbol.obj
 0001:0006d530       ?ResetDbgInfo@?$CUtlRBTree@VCStringPoolIndex@CUtlSymbolTable@@GVCLess@2@@@IAEXXZ 0046e530 f i tier1:utlsymbol.obj
 0001:0006d540       ?Base@?$CUtlVector@PAUStringPool_t@CUtlSymbolTable@@V?$CUtlMemory@PAUStringPool_t@CUtlSymbolTable@@@@@@QAEPAPAUStringPool_t@CUtlSymbolTable@@XZ 0046e540 f i tier1:utlsymbol.obj
 0001:0006d550       ?Base@?$CUtlVector@PAUStringPool_t@CUtlSymbolTable@@V?$CUtlMemory@PAUStringPool_t@CUtlSymbolTable@@@@@@QBEPBQAUStringPool_t@CUtlSymbolTable@@XZ 0046e550 f i tier1:utlsymbol.obj
 0001:0006d560       ?ResetDbgInfo@?$CUtlVector@PAUStringPool_t@CUtlSymbolTable@@V?$CUtlMemory@PAUStringPool_t@CUtlSymbolTable@@@@@@IAEXXZ 0046e560 f i tier1:utlsymbol.obj
 0001:0006d570       ?Element@?$CUtlRBTree@VCStringPoolIndex@CUtlSymbolTable@@GVCLess@2@@@QBEABVCStringPoolIndex@CUtlSymbolTable@@G@Z 0046e570 f i tier1:utlsymbol.obj
 0001:0006d590       ?Element@?$CUtlRBTree@VCStringPoolIndex@CUtlSymbolTable@@GVCLess@2@@@QAEAAVCStringPoolIndex@CUtlSymbolTable@@G@Z 0046e590 f i tier1:utlsymbol.obj
 0001:0006d5b0       ??0?$CUtlMemory@UNode_t@?$CUtlRBTree@VCStringPoolIndex@CUtlSymbolTable@@GVCLess@2@@@@@QAE@HH@Z 0046e5b0 f i tier1:utlsymbol.obj
 0001:0006d5f0       ?Element@?$CUtlVector@PAUStringPool_t@CUtlSymbolTable@@V?$CUtlMemory@PAUStringPool_t@CUtlSymbolTable@@@@@@QAEAAPAUStringPool_t@CUtlSymbolTable@@H@Z 0046e5f0 f i tier1:utlsymbol.obj
 0001:0006d600       ??0?$CUtlMemory@PAUStringPool_t@CUtlSymbolTable@@@@QAE@HH@Z 0046e600 f i tier1:utlsymbol.obj
 0001:0006d640       ?Links@?$CUtlRBTree@VCStringPoolIndex@CUtlSymbolTable@@GVCLess@2@@@IAEAAULinks_t@1@G@Z 0046e640 f i tier1:utlsymbol.obj
 0001:0006d660       ?Links@?$CUtlRBTree@VCStringPoolIndex@CUtlSymbolTable@@GVCLess@2@@@IBEABULinks_t@1@G@Z 0046e660 f i tier1:utlsymbol.obj
 0001:0006d6c0       ?Purge@?$CUtlMemory@UNode_t@?$CUtlRBTree@VCStringPoolIndex@CUtlSymbolTable@@GVCLess@2@@@@@QAEXXZ 0046e6c0 f i tier1:utlsymbol.obj
 0001:0006d6f0       ?ShiftElementsRight@?$CUtlVector@PAUStringPool_t@CUtlSymbolTable@@V?$CUtlMemory@PAUStringPool_t@CUtlSymbolTable@@@@@@IAEXHH@Z 0046e6f0 f i tier1:utlsymbol.obj
 0001:0006d730       ?Purge@?$CUtlMemory@PAUStringPool_t@CUtlSymbolTable@@@@QAEXXZ 0046e730 f i tier1:utlsymbol.obj
 0001:0006d760       ?Grow@?$CUtlMemory@UNode_t@?$CUtlRBTree@VCStringPoolIndex@CUtlSymbolTable@@GVCLess@2@@@@@QAEXH@Z 0046e760 f i tier1:utlsymbol.obj
 0001:0006d7d0       ?Grow@?$CUtlMemory@PAUStringPool_t@CUtlSymbolTable@@@@QAEXH@Z 0046e7d0 f i tier1:utlsymbol.obj
 0001:0006d840       ?Parent@?$CUtlRBTree@VCStringPoolIndex@CUtlSymbolTable@@GVCLess@2@@@QBEGG@Z 0046e840 f i tier1:utlsymbol.obj
 0001:0006d860       ?IsRed@?$CUtlRBTree@VCStringPoolIndex@CUtlSymbolTable@@GVCLess@2@@@IBE_NG@Z 0046e860 f i tier1:utlsymbol.obj
 0001:0006d880       ?Color@?$CUtlRBTree@VCStringPoolIndex@CUtlSymbolTable@@GVCLess@2@@@IBE?AW4NodeColor_t@1@G@Z 0046e880 f i tier1:utlsymbol.obj
 0001:0006d8a0       ?SetColor@?$CUtlRBTree@VCStringPoolIndex@CUtlSymbolTable@@GVCLess@2@@@IAEXGW4NodeColor_t@1@@Z 0046e8a0 f i tier1:utlsymbol.obj
 0001:0006d8c0       ?SetParent@?$CUtlRBTree@VCStringPoolIndex@CUtlSymbolTable@@GVCLess@2@@@IAEXGG@Z 0046e8c0 f i tier1:utlsymbol.obj
 0001:0006d8e0       ??A?$CUtlRBTree@VCStringPoolIndex@CUtlSymbolTable@@GVCLess@2@@@QBEABVCStringPoolIndex@CUtlSymbolTable@@G@Z 0046e8e0 f i tier1:utlsymbol.obj
 0001:0006d900       ??A?$CUtlVector@PAUStringPool_t@CUtlSymbolTable@@V?$CUtlMemory@PAUStringPool_t@CUtlSymbolTable@@@@@@QBEABQAUStringPool_t@CUtlSymbolTable@@H@Z 0046e900 f i tier1:utlsymbol.obj
 0001:0006d910       ??A?$CUtlVector@PAUStringPool_t@CUtlSymbolTable@@V?$CUtlMemory@PAUStringPool_t@CUtlSymbolTable@@@@@@QAEAAPAUStringPool_t@CUtlSymbolTable@@H@Z 0046e910 f i tier1:utlsymbol.obj
 0001:0006d920       ?RemoveAll@?$CUtlVector@PAUStringPool_t@CUtlSymbolTable@@V?$CUtlMemory@PAUStringPool_t@CUtlSymbolTable@@@@@@QAEXXZ 0046e920 f i tier1:utlsymbol.obj
 0001:0006d930       ?LeftChild@?$CUtlRBTree@VCStringPoolIndex@CUtlSymbolTable@@GVCLess@2@@@QBEGG@Z 0046e930 f i tier1:utlsymbol.obj
 0001:0006d940       ?RightChild@?$CUtlRBTree@VCStringPoolIndex@CUtlSymbolTable@@GVCLess@2@@@QBEGG@Z 0046e940 f i tier1:utlsymbol.obj
 0001:0006d960       ?IsValidIndex@?$CUtlRBTree@VCStringPoolIndex@CUtlSymbolTable@@GVCLess@2@@@QBE_NG@Z 0046e960 f i tier1:utlsymbol.obj
 0001:0006d990       ?Purge@?$CUtlRBTree@VCStringPoolIndex@CUtlSymbolTable@@GVCLess@2@@@QAEXXZ 0046e990 f i tier1:utlsymbol.obj
 0001:0006da30       ?SetLeftChild@?$CUtlRBTree@VCStringPoolIndex@CUtlSymbolTable@@GVCLess@2@@@IAEXGG@Z 0046ea30 f i tier1:utlsymbol.obj
 0001:0006da50       ?SetRightChild@?$CUtlRBTree@VCStringPoolIndex@CUtlSymbolTable@@GVCLess@2@@@IAEXGG@Z 0046ea50 f i tier1:utlsymbol.obj
 0001:0006da70       ??1?$CUtlMemory@UNode_t@?$CUtlRBTree@VCStringPoolIndex@CUtlSymbolTable@@GVCLess@2@@@@@QAE@XZ 0046ea70 f i tier1:utlsymbol.obj
 0001:0006daa0       ?Purge@?$CUtlVector@PAUStringPool_t@CUtlSymbolTable@@V?$CUtlMemory@PAUStringPool_t@CUtlSymbolTable@@@@@@QAEXXZ 0046eaa0 f i tier1:utlsymbol.obj
 0001:0006daf0       ??1?$CUtlMemory@PAUStringPool_t@CUtlSymbolTable@@@@QAE@XZ 0046eaf0 f i tier1:utlsymbol.obj
 0001:0006db20       ?NewNode@?$CUtlRBTree@VCStringPoolIndex@CUtlSymbolTable@@GVCLess@2@@@QAEGXZ 0046eb20 f i tier1:utlsymbol.obj
 0001:0006db80       ?GrowVector@?$CUtlVector@PAUStringPool_t@CUtlSymbolTable@@V?$CUtlMemory@PAUStringPool_t@CUtlSymbolTable@@@@@@IAEXH@Z 0046eb80 f i tier1:utlsymbol.obj
 0001:0006dbb0       ?IsLeftChild@?$CUtlRBTree@VCStringPoolIndex@CUtlSymbolTable@@GVCLess@2@@@QBE_NG@Z 0046ebb0 f i tier1:utlsymbol.obj
 0001:0006dbe0       ?IsRightChild@?$CUtlRBTree@VCStringPoolIndex@CUtlSymbolTable@@GVCLess@2@@@QBE_NG@Z 0046ebe0 f i tier1:utlsymbol.obj
 0001:0006dc10       ?RotateLeft@?$CUtlRBTree@VCStringPoolIndex@CUtlSymbolTable@@GVCLess@2@@@IAEXG@Z 0046ec10 f i tier1:utlsymbol.obj
 0001:0006dd10       ?RotateRight@?$CUtlRBTree@VCStringPoolIndex@CUtlSymbolTable@@GVCLess@2@@@IAEXG@Z 0046ed10 f i tier1:utlsymbol.obj
 0001:0006de10       ?StringFromIndex@CUtlSymbolTable@@ABEPBDABVCStringPoolIndex@1@@Z 0046ee10 f i tier1:utlsymbol.obj
 0001:0006de30       ??RCLess@CUtlSymbolTable@@QBE_NABVCStringPoolIndex@1@0@Z 0046ee30 f   tier1:utlsymbol.obj
 0001:0006def0       ?FindPoolWithSpace@CUtlSymbolTable@@ABEHH@Z 0046eef0 f   tier1:utlsymbol.obj
 0001:0006df30       ?String@CUtlSymbolTable@@QBEPBDVCUtlSymbol@@@Z 0046ef30 f   tier1:utlsymbol.obj
 0001:0006df70       ??0?$CUtlRBTree@VCStringPoolIndex@CUtlSymbolTable@@GVCLess@2@@@QAE@HHABVCLess@CUtlSymbolTable@@@Z 0046ef70 f i tier1:utlsymbol.obj
 0001:0006dfd0       ??1?$CUtlRBTree@VCStringPoolIndex@CUtlSymbolTable@@GVCLess@2@@@QAE@XZ 0046efd0 f i tier1:utlsymbol.obj
 0001:0006e050       ?Find@?$CUtlRBTree@VCStringPoolIndex@CUtlSymbolTable@@GVCLess@2@@@QBEGABVCStringPoolIndex@CUtlSymbolTable@@@Z 0046f050 f i tier1:utlsymbol.obj
 0001:0006e160       ?RemoveAll@?$CUtlRBTree@VCStringPoolIndex@CUtlSymbolTable@@GVCLess@2@@@QAEXXZ 0046f160 f i tier1:utlsymbol.obj
 0001:0006e200       ??0?$CUtlVector@PAUStringPool_t@CUtlSymbolTable@@V?$CUtlMemory@PAUStringPool_t@CUtlSymbolTable@@@@@@QAE@HH@Z 0046f200 f i tier1:utlsymbol.obj
 0001:0006e250       ??1?$CUtlVector@PAUStringPool_t@CUtlSymbolTable@@V?$CUtlMemory@PAUStringPool_t@CUtlSymbolTable@@@@@@QAE@XZ 0046f250 f i tier1:utlsymbol.obj
 0001:0006e2e0       ?FindInsertionPosition@?$CUtlRBTree@VCStringPoolIndex@CUtlSymbolTable@@GVCLess@2@@@IAEXABVCStringPoolIndex@CUtlSymbolTable@@AAGAA_N@Z 0046f2e0 f i tier1:utlsymbol.obj
 0001:0006e3f0       ?InsertBefore@?$CUtlVector@PAUStringPool_t@CUtlSymbolTable@@V?$CUtlMemory@PAUStringPool_t@CUtlSymbolTable@@@@@@QAEHHABQAUStringPool_t@CUtlSymbolTable@@@Z 0046f3f0 f i tier1:utlsymbol.obj
 0001:0006e460       ?InsertRebalance@?$CUtlRBTree@VCStringPoolIndex@CUtlSymbolTable@@GVCLess@2@@@IAEXG@Z 0046f460 f i tier1:utlsymbol.obj
 0001:0006e9d0       ??0CTree@CUtlSymbolTable@@QAE@HH@Z 0046f9d0 f i tier1:utlsymbol.obj
 0001:0006e9f0       ?String@CUtlSymbolTableMT@@QBEPBDVCUtlSymbol@@@Z 0046f9f0 f i tier1:utlsymbol.obj
 0001:0006ea50       ??1CTree@CUtlSymbolTable@@QAE@XZ 0046fa50 f i tier1:utlsymbol.obj
 0001:0006ea60       ?Find@CUtlSymbolTable@@QAE?AVCUtlSymbol@@PBD@Z 0046fa60 f   tier1:utlsymbol.obj
 0001:0006eaa0       ?RemoveAll@CUtlSymbolTable@@QAEXXZ 0046faa0 f   tier1:utlsymbol.obj
 0001:0006eae0       ?AddToTail@?$CUtlVector@PAUStringPool_t@CUtlSymbolTable@@V?$CUtlMemory@PAUStringPool_t@CUtlSymbolTable@@@@@@QAEHABQAUStringPool_t@CUtlSymbolTable@@@Z 0046fae0 f i tier1:utlsymbol.obj
 0001:0006eb00       ?LinkToParent@?$CUtlRBTree@VCStringPoolIndex@CUtlSymbolTable@@GVCLess@2@@@IAEXGG_N@Z 0046fb00 f i tier1:utlsymbol.obj
 0001:0006eb70       ??0CUtlSymbolTable@@QAE@HH_N@Z 0046fb70 f   tier1:utlsymbol.obj
 0001:0006ebe0       ??1CUtlSymbolTable@@QAE@XZ 0046fbe0 f   tier1:utlsymbol.obj
 0001:0006ec50       ?InsertAt@?$CUtlRBTree@VCStringPoolIndex@CUtlSymbolTable@@GVCLess@2@@@IAEGG_N@Z 0046fc50 f i tier1:utlsymbol.obj
 0001:0006ec80       ??0CUtlSymbolTableMT@@QAE@HH_N@Z 0046fc80 f i tier1:utlsymbol.obj
 0001:0006ecc0       ?Initialize@CUtlSymbol@@KAXXZ 0046fcc0 f   tier1:utlsymbol.obj
 0001:0006ed50       ??1CUtlSymbolTableMT@@QAE@XZ 0046fd50 f i tier1:utlsymbol.obj
 0001:0006ed70       ?CurrTable@CUtlSymbol@@KAPAVCUtlSymbolTableMT@@XZ 0046fd70 f   tier1:utlsymbol.obj
 0001:0006ed80       ?String@CUtlSymbol@@QBEPBDXZ 0046fd80 f   tier1:utlsymbol.obj
 0001:0006eda0       ??8CUtlSymbol@@QBE_NPBD@Z  0046fda0 f   tier1:utlsymbol.obj
 0001:0006ee10       ?Insert@?$CUtlRBTree@VCStringPoolIndex@CUtlSymbolTable@@GVCLess@2@@@QAEGABVCStringPoolIndex@CUtlSymbolTable@@@Z 0046fe10 f i tier1:utlsymbol.obj
 0001:0006ee70       ??_GCUtlSymbolTableMT@@QAEPAXI@Z 0046fe70 f i tier1:utlsymbol.obj
 0001:0006eea0       ?AddString@CUtlSymbolTable@@QAE?AVCUtlSymbol@@PBD@Z 0046fea0 f   tier1:utlsymbol.obj
 0001:0006efa0       ?AddString@CUtlSymbolTableMT@@QAE?AVCUtlSymbol@@PBD@Z 0046ffa0 f i tier1:utlsymbol.obj
 0001:0006efd0       ??1CCleanupUtlSymbolTable@@QAE@XZ 0046ffd0 f i tier1:utlsymbol.obj
 0001:0006f010       ??0CUtlSymbol@@QAE@PBD@Z   00470010 f   tier1:utlsymbol.obj
 0001:0006f060       ?swprintf@@YAHPA_WPB_WZZ   00470060 f i tier1:KeyValues.obj
 0001:0006f080       ?V_memcpy@@YAXPAXPBXH@Z    00470080 f i tier1:KeyValues.obj
 0001:0006f090       ?SetColor@Color@@QAEXHHHH@Z 00470090 f i tier1:KeyValues.obj
 0001:0006f0b0       ??AColor@@QAEAAEH@Z        004700b0 f i tier1:KeyValues.obj
 0001:0006f0c0       ??0CKeyValuesErrorStack@@QAE@XZ 004700c0 f i tier1:KeyValues.obj
 0001:0006f0e0       ?SetFilename@CKeyValuesErrorStack@@QAEXPBD@Z 004700e0 f i tier1:KeyValues.obj
 0001:0006f100       ?Push@CKeyValuesErrorStack@@QAEHH@Z 00470100 f i tier1:KeyValues.obj
 0001:0006f140       ?Pop@CKeyValuesErrorStack@@QAEXXZ 00470140 f i tier1:KeyValues.obj
 0001:0006f150       ?Reset@CKeyValuesErrorStack@@QAEXHH@Z 00470150 f i tier1:KeyValues.obj
 0001:0006f160       ?ReportError@CKeyValuesErrorStack@@QAEXPBD@Z 00470160 f i tier1:KeyValues.obj
 0001:0006f200       ??1CKeyErrorContext@@QAE@XZ 00470200 f i tier1:KeyValues.obj
 0001:0006f210       ?Reset@CKeyErrorContext@@QAEXH@Z 00470210 f i tier1:KeyValues.obj
 0001:0006f220       ?Init@CKeyErrorContext@@AAEXH@Z 00470220 f i tier1:KeyValues.obj
 0001:0006f260       ?Init@KeyValues@@AAEXXZ    00470260 f   tier1:KeyValues.obj
 0001:0006f290       ??1KeyValues@@AAE@XZ       00470290 f   tier1:KeyValues.obj
 0001:0006f2a0       ?ChainKeyValue@KeyValues@@QAEXPAV1@@Z 004702a0 f   tier1:KeyValues.obj
 0001:0006f2b0       ?GetName@KeyValues@@QBEPBDXZ 004702b0 f   tier1:KeyValues.obj
 0001:0006f2d0       ?GetNameSymbol@KeyValues@@QBEHXZ 004702d0 f   tier1:KeyValues.obj
 0001:0006f2e0       ?ReadToken@KeyValues@@AAEPBDAAVCUtlBuffer@@AA_N@Z 004702e0 f   tier1:KeyValues.obj
 0001:0006f430       ?UsesEscapeSequences@KeyValues@@QAEX_N@Z 00470430 f   tier1:KeyValues.obj
 0001:0006f440       ?InternalWrite@KeyValues@@AAEXPAVIBaseFileSystem@@PAXPAVCUtlBuffer@@PBXH@Z 00470440 f   tier1:KeyValues.obj
 0001:0006f480       ?FindKey@KeyValues@@QBEPAV1@H@Z 00470480 f   tier1:KeyValues.obj
 0001:0006f4a0       ?RemoveSubKey@KeyValues@@QAEXPAV1@@Z 004704a0 f   tier1:KeyValues.obj
 0001:0006f4f0       ?GetFirstSubKey@KeyValues@@QAEPAV1@XZ 004704f0 f   tier1:KeyValues.obj
 0001:0006f500       ?GetNextKey@KeyValues@@QAEPAV1@XZ 00470500 f   tier1:KeyValues.obj
 0001:0006f510       ?SetNextKey@KeyValues@@QAEXPAV1@@Z 00470510 f   tier1:KeyValues.obj
 0001:0006f520       ?GetFirstTrueSubKey@KeyValues@@QAEPAV1@XZ 00470520 f   tier1:KeyValues.obj
 0001:0006f540       ?GetNextTrueSubKey@KeyValues@@QAEPAV1@XZ 00470540 f   tier1:KeyValues.obj
 0001:0006f560       ?GetFirstValue@KeyValues@@QAEPAV1@XZ 00470560 f   tier1:KeyValues.obj
 0001:0006f580       ?GetNextValue@KeyValues@@QAEPAV1@XZ 00470580 f   tier1:KeyValues.obj
 0001:0006f5a0       ?SetStringValue@KeyValues@@QAEXPBD@Z 004705a0 f   tier1:KeyValues.obj
 0001:0006f600       ?SetName@KeyValues@@QAEXPBD@Z 00470600 f   tier1:KeyValues.obj
 0001:0006f620       ?CopySubkeys@KeyValues@@QBEXPAV1@@Z 00470620 f   tier1:KeyValues.obj
 0001:0006f660       ??2KeyValues@@SAPAXI@Z     00470660 f   tier1:KeyValues.obj
 0001:0006f680       ??2KeyValues@@SAPAXIHPBDH@Z 00470680 f   tier1:KeyValues.obj
 0001:0006f6a0       ??3KeyValues@@SAXPAX@Z     004706a0 f   tier1:KeyValues.obj
 0001:0006f6c0       ??3KeyValues@@SAXPAXHPBDH@Z 004706c0 f   tier1:KeyValues.obj
 0001:0006f6e0       ??$AlignValue@I@@YAIII@Z   004706e0 f i tier1:KeyValues.obj
 0001:0006f700       ?Count@?$CUtlVector@PAVKeyValues@@V?$CUtlMemory@PAVKeyValues@@@@@@QBEHXZ 00470700 f i tier1:KeyValues.obj
 0001:0006f710       ?Base@?$CUtlMemory@PAVKeyValues@@@@QAEPAPAVKeyValues@@XZ 00470710 f i tier1:KeyValues.obj
 0001:0006f720       ?ValidateGrowSize@?$CUtlMemory@PAVKeyValues@@@@IAEXXZ 00470720 f i tier1:KeyValues.obj
 0001:0006f730       ??$CopyConstruct@PAVKeyValues@@@@YAXPAPAVKeyValues@@ABQAV0@@Z 00470730 f i tier1:KeyValues.obj
 0001:0006f750       ??$Destruct@PAVKeyValues@@@@YAXPAPAVKeyValues@@@Z 00470750 f i tier1:KeyValues.obj
 0001:0006f760       ?NumAllocated@?$CUtlMemory@PAVKeyValues@@@@QBEHXZ 00470760 f i tier1:KeyValues.obj
 0001:0006f770       ?IsExternallyAllocated@?$CUtlMemory@PAVKeyValues@@@@QBE_NXZ 00470770 f i tier1:KeyValues.obj
 0001:0006f780       ??0Color@@QAE@HHHH@Z       00470780 f i tier1:KeyValues.obj
 0001:0006f7a0       ?GetOptimalReadSize@IFileSystem@@QAEIPAXI@Z 004707a0 f i tier1:KeyValues.obj
 0001:0006f7e0       ??0CKeyErrorContext@@QAE@PAVKeyValues@@@Z 004707e0 f i tier1:KeyValues.obj
 0001:0006f820       ??0CKeyErrorContext@@QAE@H@Z 00470820 f i tier1:KeyValues.obj
 0001:0006f860       ??0KeyValues@@QAE@PBD@Z    00470860 f   tier1:KeyValues.obj
 0001:0006f8b0       ??_GKeyValues@@AAEPAXI@Z   004708b0 f i tier1:KeyValues.obj
 0001:0006f8e0       ?LoadFromFile@KeyValues@@QAE_NPAVIBaseFileSystem@@PBD1@Z 004708e0 f   tier1:KeyValues.obj
 0001:0006fa40       ?WriteIndents@KeyValues@@AAEXPAVIBaseFileSystem@@PAXPAVCUtlBuffer@@H@Z 00470a40 f   tier1:KeyValues.obj
 0001:0006faa0       ?WriteConvertedString@KeyValues@@AAEXPAVIBaseFileSystem@@PAXPAVCUtlBuffer@@PBD@Z 00470aa0 f   tier1:KeyValues.obj
 0001:0006fb60       ?RecursiveSaveToFile@KeyValues@@AAEXPAVIBaseFileSystem@@PAXPAVCUtlBuffer@@H@Z 00470b60 f   tier1:KeyValues.obj
 0001:000701f0       ?FindKey@KeyValues@@QAEPAV1@PBD_N@Z 004711f0 f   tier1:KeyValues.obj
 0001:00070370       ?AddSubKey@KeyValues@@QAEXPAV1@@Z 00471370 f   tier1:KeyValues.obj
 0001:000703a0       ?GetInt@KeyValues@@QAEHPBDH@Z 004713a0 f   tier1:KeyValues.obj
 0001:00070420       ?GetUint64@KeyValues@@QAE_KPBD_K@Z 00471420 f   tier1:KeyValues.obj
 0001:000704b0       ?GetPtr@KeyValues@@QAEPAXPBDPAX@Z 004714b0 f   tier1:KeyValues.obj
 0001:000704e0       ?GetFloat@KeyValues@@QAEMPBDM@Z 004714e0 f   tier1:KeyValues.obj
 0001:000705a0       ?GetColor@KeyValues@@QAE?AVColor@@PBD@Z 004715a0 f   tier1:KeyValues.obj
 0001:00070720       ?SetColor@KeyValues@@QAEXPBDVColor@@@Z 00471720 f   tier1:KeyValues.obj
 0001:00070750       ?SetString@KeyValues@@QAEXPBD0@Z 00471750 f   tier1:KeyValues.obj
 0001:000707c0       ?SetWString@KeyValues@@QAEXPBDPB_W@Z 004717c0 f   tier1:KeyValues.obj
 0001:00070850       ?SetInt@KeyValues@@QAEXPBDH@Z 00471850 f   tier1:KeyValues.obj
 0001:00070870       ?SetUint64@KeyValues@@QAEXPBD_K@Z 00471870 f   tier1:KeyValues.obj
 0001:000708c0       ?SetFloat@KeyValues@@QAEXPBDM@Z 004718c0 f   tier1:KeyValues.obj
 0001:000708e0       ?SetPtr@KeyValues@@QAEXPBDPAX@Z 004718e0 f   tier1:KeyValues.obj
 0001:00070900       ?RecursiveCopyKeyValues@KeyValues@@AAEXAAV1@@Z 00471900 f   tier1:KeyValues.obj
 0001:00070b80       ?MakeCopy@KeyValues@@QBEPAV1@XZ 00471b80 f   tier1:KeyValues.obj
 0001:00070d60       ?IsEmpty@KeyValues@@QAE_NPBD@Z 00471d60 f   tier1:KeyValues.obj
 0001:00070d90       ?Clear@KeyValues@@QAEXXZ   00471d90 f   tier1:KeyValues.obj
 0001:00070dc0       ?GetDataType@KeyValues@@QAE?AW4types_t@1@PBD@Z 00471dc0 f   tier1:KeyValues.obj
 0001:00070de0       ?deleteThis@KeyValues@@QAEXXZ 00471de0 f   tier1:KeyValues.obj
 0001:00070e00       ??$GetType@E@CUtlBuffer@@IAEXAAEPBD@Z 00471e00 f i tier1:KeyValues.obj
 0001:00070e60       ??$GetType@I@CUtlBuffer@@IAEXAAIPBD@Z 00471e60 f i tier1:KeyValues.obj
 0001:00070ec0       ??$GetType@M@CUtlBuffer@@IAEXAAMPBD@Z 00471ec0 f i tier1:KeyValues.obj
 0001:00070f20       ??$GetType@N@CUtlBuffer@@IAEXAANPBD@Z 00471f20 f i tier1:KeyValues.obj
 0001:00070f80       ?Base@?$CUtlVector@PAVKeyValues@@V?$CUtlMemory@PAVKeyValues@@@@@@QAEPAPAVKeyValues@@XZ 00471f80 f i tier1:KeyValues.obj
 0001:00070f90       ?ResetDbgInfo@?$CUtlVector@PAVKeyValues@@V?$CUtlMemory@PAVKeyValues@@@@@@IAEXXZ 00471f90 f i tier1:KeyValues.obj
 0001:00070fa0       ??$PutTypeBin@E@CUtlBuffer@@IAEXE@Z 00471fa0 f i tier1:KeyValues.obj
 0001:00070fd0       ??$PutTypeBin@I@CUtlBuffer@@IAEXI@Z 00471fd0 f i tier1:KeyValues.obj
 0001:00071020       ??$PutTypeBin@M@CUtlBuffer@@IAEXM@Z 00472020 f i tier1:KeyValues.obj
 0001:00071070       ??$PutTypeBin@N@CUtlBuffer@@IAEXN@Z 00472070 f i tier1:KeyValues.obj
 0001:000710c0       ??0?$CUtlMemory@PAVKeyValues@@@@QAE@HH@Z 004720c0 f i tier1:KeyValues.obj
 0001:00071100       ?Element@?$CUtlVector@PAVKeyValues@@V?$CUtlMemory@PAVKeyValues@@@@@@QAEAAPAVKeyValues@@H@Z 00472100 f i tier1:KeyValues.obj
 0001:00071110       ?RemoveAll@?$CUtlVector@PAVKeyValues@@V?$CUtlMemory@PAVKeyValues@@@@@@QAEXXZ 00472110 f i tier1:KeyValues.obj
 0001:00071120       ?ShiftElementsRight@?$CUtlVector@PAVKeyValues@@V?$CUtlMemory@PAVKeyValues@@@@@@IAEXHH@Z 00472120 f i tier1:KeyValues.obj
 0001:00071160       ?Purge@?$CUtlMemory@PAVKeyValues@@@@QAEXXZ 00472160 f i tier1:KeyValues.obj
 0001:00071190       ?Grow@?$CUtlMemory@PAVKeyValues@@@@QAEXH@Z 00472190 f i tier1:KeyValues.obj
 0001:00071200       ?GetUnsignedChar@CUtlBuffer@@QAEEXZ 00472200 f i tier1:KeyValues.obj
 0001:00071250       ?GetUnsignedInt@CUtlBuffer@@QAEIXZ 00472250 f i tier1:KeyValues.obj
 0001:00071270       ?GetFloat@CUtlBuffer@@QAEMXZ 00472270 f i tier1:KeyValues.obj
 0001:000712d0       ?GetDouble@CUtlBuffer@@QAENXZ 004722d0 f i tier1:KeyValues.obj
 0001:00071330       ??0KeyValues@@QAE@PBD00@Z  00472330 f   tier1:KeyValues.obj
 0001:00071390       ??0KeyValues@@QAE@PBD0PB_W@Z 00472390 f   tier1:KeyValues.obj
 0001:000713f0       ??0KeyValues@@QAE@PBD0H@Z  004723f0 f   tier1:KeyValues.obj
 0001:00071460       ??0KeyValues@@QAE@PBD0000@Z 00472460 f   tier1:KeyValues.obj
 0001:000714d0       ??0KeyValues@@QAE@PBD0H0H@Z 004724d0 f   tier1:KeyValues.obj
 0001:00071560       ?RemoveEverything@KeyValues@@AAEXXZ 00472560 f   tier1:KeyValues.obj
 0001:000715f0       ?RecursiveSaveToFile@KeyValues@@QAEXAAVCUtlBuffer@@H@Z 004725f0 f   tier1:KeyValues.obj
 0001:00071610       ?SaveToFile@KeyValues@@QAE_NPAVIBaseFileSystem@@PBD1@Z 00472610 f   tier1:KeyValues.obj
 0001:00071690       ?CreateKey@KeyValues@@AAEPAV1@PBD@Z 00472690 f   tier1:KeyValues.obj
 0001:00071760       ?GetString@KeyValues@@QAEPBDPBD0@Z 00472760 f   tier1:KeyValues.obj
 0001:000718e0       ?GetWString@KeyValues@@QAEPB_WPBDPB_W@Z 004728e0 f   tier1:KeyValues.obj
 0001:00071a20       ??4KeyValues@@QAEAAV0@AAV0@@Z 00472a20 f   tier1:KeyValues.obj
 0001:00071a60       ?RecursiveLoadFromBuffer@KeyValues@@AAEXPBDAAVCUtlBuffer@@@Z 00472a60 f   tier1:KeyValues.obj
 0001:00071cb0       ?ReadAsBinary@KeyValues@@QAE_NAAVCUtlBuffer@@@Z 00472cb0 f   tier1:KeyValues.obj
 0001:00071fe0       ??$PutType@E@CUtlBuffer@@IAEXEPBD@Z 00472fe0 f i tier1:KeyValues.obj
 0001:00072030       ??$PutType@I@CUtlBuffer@@IAEXIPBD@Z 00473030 f i tier1:KeyValues.obj
 0001:00072060       ??$PutType@M@CUtlBuffer@@IAEXMPBD@Z 00473060 f i tier1:KeyValues.obj
 0001:000720a0       ??$PutType@N@CUtlBuffer@@IAEXNPBD@Z 004730a0 f i tier1:KeyValues.obj
 0001:000720d0       ??A?$CUtlVector@PAVKeyValues@@V?$CUtlMemory@PAVKeyValues@@@@@@QAEAAPAVKeyValues@@H@Z 004730d0 f i tier1:KeyValues.obj
 0001:000720e0       ?Purge@?$CUtlVector@PAVKeyValues@@V?$CUtlMemory@PAVKeyValues@@@@@@QAEXXZ 004730e0 f i tier1:KeyValues.obj
 0001:00072130       ??1?$CUtlMemory@PAVKeyValues@@@@QAE@XZ 00473130 f i tier1:KeyValues.obj
 0001:00072160       ?GrowVector@?$CUtlVector@PAVKeyValues@@V?$CUtlMemory@PAVKeyValues@@@@@@IAEXH@Z 00473160 f i tier1:KeyValues.obj
 0001:00072190       ?PutUnsignedChar@CUtlBuffer@@QAEXE@Z 00473190 f i tier1:KeyValues.obj
 0001:000721e0       ?PutUnsignedInt@CUtlBuffer@@QAEXI@Z 004731e0 f i tier1:KeyValues.obj
 0001:00072210       ?PutFloat@CUtlBuffer@@QAEXM@Z 00473210 f i tier1:KeyValues.obj
 0001:00072250       ?PutDouble@CUtlBuffer@@QAEXN@Z 00473250 f i tier1:KeyValues.obj
 0001:00072280       ?CreateNewKey@KeyValues@@QAEPAV1@XZ 00473280 f   tier1:KeyValues.obj
 0001:00072300       ?AppendIncludedKeys@KeyValues@@AAEXAAV?$CUtlVector@PAVKeyValues@@V?$CUtlMemory@PAVKeyValues@@@@@@@Z 00473300 f   tier1:KeyValues.obj
 0001:00072350       ?WriteAsBinary@KeyValues@@QAE_NAAVCUtlBuffer@@@Z 00473350 f   tier1:KeyValues.obj
 0001:00072500       ??0?$CUtlVector@PAVKeyValues@@V?$CUtlMemory@PAVKeyValues@@@@@@QAE@HH@Z 00473500 f i tier1:KeyValues.obj
 0001:00072550       ??1?$CUtlVector@PAVKeyValues@@V?$CUtlMemory@PAVKeyValues@@@@@@QAE@XZ 00473550 f i tier1:KeyValues.obj
 0001:000725e0       ?InsertBefore@?$CUtlVector@PAVKeyValues@@V?$CUtlMemory@PAVKeyValues@@@@@@QAEHHABQAVKeyValues@@@Z 004735e0 f i tier1:KeyValues.obj
 0001:00072650       ?AddToTail@?$CUtlVector@PAVKeyValues@@V?$CUtlMemory@PAVKeyValues@@@@@@QAEHABQAVKeyValues@@@Z 00473650 f i tier1:KeyValues.obj
 0001:00072670       ?ParseIncludedKeys@KeyValues@@AAEXPBD0PAVIBaseFileSystem@@0AAV?$CUtlVector@PAVKeyValues@@V?$CUtlMemory@PAVKeyValues@@@@@@@Z 00473670 f   tier1:KeyValues.obj
 0001:00072810       ?LoadFromBuffer@KeyValues@@QAE_NPBDAAVCUtlBuffer@@PAVIBaseFileSystem@@0@Z 00473810 f   tier1:KeyValues.obj
 0001:00072a20       ?LoadFromBuffer@KeyValues@@QAE_NPBD0PAVIBaseFileSystem@@0@Z 00473a20 f   tier1:KeyValues.obj
 0001:00072af0       ??0InterfaceReg@@QAE@P6APAXXZPBD@Z 00473af0 f   tier1:interface.obj
 0001:00072b10       _CreateInterface           00473b10 f   tier1:interface.obj
 0001:00072bf0       ?Sys_LoadLibrary@@YAPAUHINSTANCE__@@PBD@Z 00473bf0 f   tier1:interface.obj
 0001:00072c80       ?Sys_LoadModule@@YAPAVCSysModule@@PBD@Z 00473c80 f   tier1:interface.obj
 0001:00072d90       ?Sys_UnloadModule@@YAXPAVCSysModule@@@Z 00473d90 f   tier1:interface.obj
 0001:00072da0       ?Sys_GetFactory@@YAP6APAXPBDPAH@ZPAVCSysModule@@@Z 00473da0 f   tier1:interface.obj
 0001:00072dc0       ?Sys_GetFactoryThis@@YAP6APAXPBDPAH@ZXZ 00473dc0 f   tier1:interface.obj
 0001:00072dd0       ?Sys_GetFactory@@YAP6APAXPBDPAH@Z0@Z 00473dd0 f   tier1:interface.obj
 0001:00072df0       ?Sys_LoadInterface@@YA_NPBD0PAPAVCSysModule@@PAPAX@Z 00473df0 f   tier1:interface.obj
 0001:00072e50       ?CRC32_Init@@YAXPAK@Z      00473e50 f   tier1:checksum_crc.obj
 0001:00072e60       ?CRC32_Final@@YAXPAK@Z     00473e60 f   tier1:checksum_crc.obj
 0001:00072e70       ?CRC32_GetTableEntry@@YAKI@Z 00473e70 f   tier1:checksum_crc.obj
 0001:00072e80       ?CRC32_ProcessBuffer@@YAXPAKPBXH@Z 00473e80 f   tier1:checksum_crc.obj
 0001:00073060       ?eq@?$char_traits@D@std@@SA_NABD0@Z 00474060 f i tier1:tokenreader.obj
 0001:00073080       ??0_Iterator_base_secure@std@@QAE@XZ 00474080 f i tier1:tokenreader.obj
 0001:00073090       ?_Getctype@_Locinfo@std@@QBE?AU_Ctypevec@@XZ 00474090 f i tier1:tokenreader.obj
 0001:000730c0       ??0locale@std@@QAE@XZ      004740c0 f i tier1:tokenreader.obj
 0001:00073100       ??0locale@std@@QAE@ABV01@@Z 00474100 f i tier1:tokenreader.obj
 0001:00073140       ??0ctype_base@std@@QAE@I@Z 00474140 f i tier1:tokenreader.obj
 0001:00073160       ??1ctype_base@std@@UAE@XZ  00474160 f i tier1:tokenreader.obj
 0001:00073170       ??_Ectype_base@std@@UAEPAXI@Z 00474170 f i tier1:tokenreader.obj
 0001:00073170       ??_Gctype_base@std@@UAEPAXI@Z 00474170 f i tier1:tokenreader.obj
 0001:00073190       ?is@?$ctype@D@std@@QBE_NFD@Z 00474190 f i tier1:tokenreader.obj
 0001:000731b0       ?widen@?$ctype@D@std@@QBEDD@Z 004741b0 f i tier1:tokenreader.obj
 0001:000731c0       ?_Init@?$ctype@D@std@@IAEXABV_Locinfo@2@@Z 004741c0 f i tier1:tokenreader.obj
 0001:00073200       ?_Tidy@?$ctype@D@std@@IAEXXZ 00474200 f i tier1:tokenreader.obj
 0001:00073230       ?rdstate@ios_base@std@@QBEHXZ 00474230 f i tier1:tokenreader.obj
 0001:00073240       ?good@ios_base@std@@QBE_NXZ 00474240 f i tier1:tokenreader.obj
 0001:00073250       ?eof@ios_base@std@@QBE_NXZ 00474250 f i tier1:tokenreader.obj
 0001:00073260       ?fail@ios_base@std@@QBE_NXZ 00474260 f i tier1:tokenreader.obj
 0001:00073270       ?flags@ios_base@std@@QBEHXZ 00474270 f i tier1:tokenreader.obj
 0001:00073280       ?getloc@ios_base@std@@QBE?AVlocale@2@XZ 00474280 f i tier1:tokenreader.obj
 0001:000732c0       ??0ios_base@std@@IAE@XZ    004742c0 f i tier1:tokenreader.obj
 0001:000732d0       ?Error@TokenReader@@QAAPBDPADZZ 004742d0 f   tier1:tokenreader.obj
 0001:00073320       ?Stuff@TokenReader@@QAEXW4trtoken_t@@PBD@Z 00474320 f   tier1:tokenreader.obj
 0001:00073360       ?rdbuf@?$basic_ios@DU?$char_traits@D@std@@@std@@QBEPAV?$basic_streambuf@DU?$char_traits@D@std@@@2@XZ 00474360 f i tier1:tokenreader.obj
 0001:00073370       ??0?$basic_ios@DU?$char_traits@D@std@@@std@@IAE@XZ 00474370 f i tier1:tokenreader.obj
 0001:00073380       ??Bsentry@?$basic_istream@DU?$char_traits@D@std@@@std@@QBE_NXZ 00474380 f i tier1:tokenreader.obj
 0001:00073390       ?pubsync@?$basic_streambuf@DU?$char_traits@D@std@@@std@@QAEHXZ 00474390 f i tier1:tokenreader.obj
 0001:000733a0       ?_Unlock@?$basic_streambuf@DU?$char_traits@D@std@@@std@@QAEXXZ 004743a0 f i tier1:tokenreader.obj
 0001:000733b0       ?_Gnpreinc@?$basic_streambuf@DU?$char_traits@D@std@@@std@@IAEPADXZ 004743b0 f i tier1:tokenreader.obj
 0001:000733d0       ?is_open@?$basic_filebuf@DU?$char_traits@D@std@@@std@@QBE_NXZ 004743d0 f i tier1:tokenreader.obj
 0001:000733e0       ?tie@?$basic_ios@DU?$char_traits@D@std@@@std@@QBEPAV?$basic_ostream@DU?$char_traits@D@std@@@2@XZ 004743e0 f i tier1:tokenreader.obj
 0001:000733f0       ?getloc@?$basic_streambuf@DU?$char_traits@D@std@@@std@@QBE?AVlocale@2@XZ 004743f0 f i tier1:tokenreader.obj
 0001:00073430       ?_Lock@?$basic_streambuf@DU?$char_traits@D@std@@@std@@QAEXXZ 00474430 f i tier1:tokenreader.obj
 0001:00073440       ??0?$_Ranit_base@DHPBDABDU_Iterator_base_secure@std@@@std@@QAE@XZ 00474440 f i tier1:tokenreader.obj
 0001:00073450       ??1_Sentry_base@?$basic_istream@DU?$char_traits@D@std@@@std@@QAE@XZ 00474450 f i tier1:tokenreader.obj
 0001:00073470       ?sgetc@?$basic_streambuf@DU?$char_traits@D@std@@@std@@QAEHXZ 00474470 f i tier1:tokenreader.obj
 0001:00073490       ?is_open@?$basic_ifstream@DU?$char_traits@D@std@@@std@@QBE_NXZ 00474490 f i tier1:tokenreader.obj
 0001:000734a0       ??0_Sentry_base@?$basic_istream@DU?$char_traits@D@std@@@std@@QAE@AAV12@@Z 004744a0 f i tier1:tokenreader.obj
 0001:000734d0       ?sbumpc@?$basic_streambuf@DU?$char_traits@D@std@@@std@@QAEHXZ 004744d0 f i tier1:tokenreader.obj
 0001:00073500       ?sputbackc@?$basic_streambuf@DU?$char_traits@D@std@@@std@@QAEHD@Z 00474500 f i tier1:tokenreader.obj
 0001:00073540       ??0?$_String_const_iterator@DU?$char_traits@D@std@@V?$allocator@D@2@@std@@QAE@PBD@Z 00474540 f i tier1:tokenreader.obj
 0001:00073560       ??1sentry@?$basic_istream@DU?$char_traits@D@std@@@std@@QAE@XZ 00474560 f i tier1:tokenreader.obj
 0001:00073580       ?snextc@?$basic_streambuf@DU?$char_traits@D@std@@@std@@QAEHXZ 00474580 f i tier1:tokenreader.obj
 0001:00073600       ??0?$basic_streambuf@DU?$char_traits@D@std@@@std@@IAE@XZ 00474600 f i tier1:tokenreader.obj
 0001:000736b0       ??0?$_String_iterator@DU?$char_traits@D@std@@V?$allocator@D@2@@std@@QAE@PAD@Z 004746b0 f i tier1:tokenreader.obj
 0001:000736d0       ??0?$basic_filebuf@DU?$char_traits@D@std@@@std@@QAE@PAU_iobuf@@@Z 004746d0 f i tier1:tokenreader.obj
 0001:00073730       ??0failure@ios_base@std@@QAE@ABV?$basic_string@DU?$char_traits@D@std@@V?$allocator@D@2@@2@@Z 00474730 f i tier1:tokenreader.obj
 0001:00073750       ??1failure@ios_base@std@@UAE@XZ 00474750 f i tier1:tokenreader.obj
 0001:00073790       ??_Gfailure@ios_base@std@@UAEPAXI@Z 00474790 f i tier1:tokenreader.obj
 0001:00073790       ??_Efailure@ios_base@std@@UAEPAXI@Z 00474790 f i tier1:tokenreader.obj
 0001:000737e0       ??0?$ctype@D@std@@QAE@PBF_NI@Z 004747e0 f i tier1:tokenreader.obj
 0001:000738e0       ?do_tolower@?$ctype@D@std@@MBEDD@Z 004748e0 f i tier1:tokenreader.obj
 0001:00073900       ?do_tolower@?$ctype@D@std@@MBEPBDPADPBD@Z 00474900 f i tier1:tokenreader.obj
 0001:00073930       ?do_toupper@?$ctype@D@std@@MBEDD@Z 00474930 f i tier1:tokenreader.obj
 0001:00073950       ?do_toupper@?$ctype@D@std@@MBEPBDPADPBD@Z 00474950 f i tier1:tokenreader.obj
 0001:00073980       ?do_widen@?$ctype@D@std@@MBEDD@Z 00474980 f i tier1:tokenreader.obj
 0001:00073990       ?do_widen@?$ctype@D@std@@MBEPBDPBD0PAD@Z 00474990 f i tier1:tokenreader.obj
 0001:000739c0       ?_Do_widen_s@?$ctype@D@std@@MBEPBDPBD0PADI@Z 004749c0 f i tier1:tokenreader.obj
 0001:00073a00       ?do_narrow@?$ctype@D@std@@MBEDDD@Z 00474a00 f i tier1:tokenreader.obj
 0001:00073a10       ?do_narrow@?$ctype@D@std@@MBEPBDPBD0DPAD@Z 00474a10 f i tier1:tokenreader.obj
 0001:00073a40       ?_Do_narrow_s@?$ctype@D@std@@MBEPBDPBD0DPADI@Z 00474a40 f i tier1:tokenreader.obj
 0001:00073a80       ??1?$ctype@D@std@@MAE@XZ   00474a80 f i tier1:tokenreader.obj
 0001:00073ac0       ??_G?$ctype@D@std@@MAEPAXI@Z 00474ac0 f i tier1:tokenreader.obj
 0001:00073ac0       ??_E?$ctype@D@std@@MAEPAXI@Z 00474ac0 f i tier1:tokenreader.obj
 0001:00073b10       ?_Getcat@?$ctype@D@std@@SAIPAPBVfacet@locale@2@@Z 00474b10 f i tier1:tokenreader.obj
 0001:00073b90       ?clear@ios_base@std@@QAEXH_N@Z 00474b90 f i tier1:tokenreader.obj
 0001:00073cc0       ??0failure@ios_base@std@@QAE@ABV012@@Z 00474cc0 f i tier1:tokenreader.obj
 0001:00073ce0       ?clear@ios_base@std@@QAEXH@Z 00474ce0 f i tier1:tokenreader.obj
 0001:00073cf0       ?_Init@ios_base@std@@IAEXXZ 00474cf0 f i tier1:tokenreader.obj
 0001:00073d70       ?clear@?$basic_ios@DU?$char_traits@D@std@@@std@@QAEXH_N@Z 00474d70 f i tier1:tokenreader.obj
 0001:00073d90       ?setstate@?$basic_ios@DU?$char_traits@D@std@@@std@@QAEXH_N@Z 00474d90 f i tier1:tokenreader.obj
 0001:00073dc0       ?close@?$basic_ifstream@DU?$char_traits@D@std@@@std@@QAEXXZ 00474dc0 f i tier1:tokenreader.obj
 0001:00073df0       ??$use_facet@V?$ctype@D@std@@@std@@YAABV?$ctype@D@0@ABVlocale@0@@Z 00474df0 f i tier1:tokenreader.obj
 0001:00073f20       ?Close@TokenReader@@QAEXXZ 00474f20 f   tier1:tokenreader.obj
 0001:00073f50       ?flush@?$basic_ostream@DU?$char_traits@D@std@@@std@@QAEAAV12@XZ 00474f50 f i tier1:tokenreader.obj
 0001:00073fa0       ?_Ipfx@?$basic_istream@DU?$char_traits@D@std@@@std@@QAE_N_N@Z 00474fa0 f i tier1:tokenreader.obj
 0001:00074140       ?widen@?$basic_ios@DU?$char_traits@D@std@@@std@@QBEDD@Z 00475140 f i tier1:tokenreader.obj
 0001:00074200       ??0sentry@?$basic_istream@DU?$char_traits@D@std@@@std@@QAE@AAV12@_N@Z 00475200 f i tier1:tokenreader.obj
 0001:00074270       ?init@?$basic_ios@DU?$char_traits@D@std@@@std@@IAEXPAV?$basic_streambuf@DU?$char_traits@D@std@@@2@_N@Z 00475270 f i tier1:tokenreader.obj
 0001:000742d0       ?get@?$basic_istream@DU?$char_traits@D@std@@@std@@QAEHXZ 004752d0 f i tier1:tokenreader.obj
 0001:00074410       ?get@?$basic_istream@DU?$char_traits@D@std@@@std@@QAEAAV12@PADHD@Z 00475410 f i tier1:tokenreader.obj
 0001:00074580       ?ignore@?$basic_istream@DU?$char_traits@D@std@@@std@@QAEAAV12@HH@Z 00475580 f i tier1:tokenreader.obj
 0001:000746e0       ?peek@?$basic_istream@DU?$char_traits@D@std@@@std@@QAEHXZ 004756e0 f i tier1:tokenreader.obj
 0001:00074810       ?putback@?$basic_istream@DU?$char_traits@D@std@@@std@@QAEAAV12@D@Z 00475810 f i tier1:tokenreader.obj
 0001:00074950       ??0?$basic_istream@DU?$char_traits@D@std@@@std@@QAE@PAV?$basic_streambuf@DU?$char_traits@D@std@@@1@_N@Z 00475950 f i tier1:tokenreader.obj
 0001:000749e0       ?open@?$basic_filebuf@DU?$char_traits@D@std@@@std@@QAEPAV12@PBDHH@Z 004759e0 f i tier1:tokenreader.obj
 0001:00074b00       ?SkipWhiteSpace@TokenReader@@AAE_NXZ 00475b00 f   tier1:tokenreader.obj
 0001:00074b90       ??0?$basic_ifstream@DU?$char_traits@D@std@@@std@@QAE@XZ 00475b90 f i tier1:tokenreader.obj
 0001:00074c90       ?open@?$basic_ifstream@DU?$char_traits@D@std@@@std@@QAEXPBDHH@Z 00475c90 f i tier1:tokenreader.obj
 0001:00074ce0       ??0TokenReader@@QAE@XZ     00475ce0 f   tier1:tokenreader.obj
 0001:00074d70       ??_ETokenReader@@UAEPAXI@Z 00475d70 f i tier1:tokenreader.obj
 0001:00074d70       ??_GTokenReader@@UAEPAXI@Z 00475d70 f i tier1:tokenreader.obj
 0001:00074db0       ?Open@TokenReader@@QAE_NPBD@Z 00475db0 f   tier1:tokenreader.obj
 0001:00074e20       ?GetString@TokenReader@@AAE?AW4trtoken_t@@PADH@Z 00475e20 f   tier1:tokenreader.obj
 0001:00074f80       ?NextToken@TokenReader@@QAE?AW4trtoken_t@@PADH@Z 00475f80 f   tier1:tokenreader.obj
 0001:000751b0       ?IgnoreTill@TokenReader@@QAEXW4trtoken_t@@PBD@Z 004761b0 f   tier1:tokenreader.obj
 0001:00075260       ?Expecting@TokenReader@@QAE_NW4trtoken_t@@PBD@Z 00476260 f   tier1:tokenreader.obj
 0001:000752e0       ?PeekTokenType@TokenReader@@QAE?AW4trtoken_t@@PADH@Z 004762e0 f   tier1:tokenreader.obj
 0001:00075340       ?NextTokenDynamic@TokenReader@@QAE?AW4trtoken_t@@PAPAD@Z 00476340 f   tier1:tokenreader.obj
 0001:000753d0       ?CharacterSetBuild@@YAXPAUcharacterset_s@@PBD@Z 004763d0 f   tier1:characterset.obj
 0001:00075420       ?StrLess@@YA_NABQBD0@Z     00476420 f   tier1:stringpool.obj
 0001:00075440       ?Count@?$CUtlRBTree@PBDGP6A_NABQBD0@Z@@QBEIXZ 00476440 f i tier1:stringpool.obj
 0001:00075450       ?InvalidIndex@?$CUtlRBTree@PBDGP6A_NABQBD0@Z@@SAGXZ 00476450 f i tier1:stringpool.obj
 0001:00075460       ?Count@?$CUtlVector@Uhash_item_t@CCountedStringPool@@V?$CUtlMemory@Uhash_item_t@CCountedStringPool@@@@@@QBEHXZ 00476460 f i tier1:stringpool.obj
 0001:00075470       ?IsIdxValid@?$CUtlMemory@UNode_t@?$CUtlRBTree@PBDGP6A_NABQBD0@Z@@@@QBE_NH@Z 00476470 f i tier1:stringpool.obj
 0001:00075490       ?Base@?$CUtlMemory@UNode_t@?$CUtlRBTree@PBDGP6A_NABQBD0@Z@@@@QAEPAUNode_t@?$CUtlRBTree@PBDGP6A_NABQBD0@Z@@XZ 00476490 f i tier1:stringpool.obj
 0001:000754a0       ??$CopyConstruct@PBD@@YAXPAPBDABQBD@Z 004764a0 f i tier1:stringpool.obj
 0001:000754c0       ??$Destruct@PBD@@YAXPAPBD@Z 004764c0 f i tier1:stringpool.obj
 0001:000754d0       ?Base@?$CUtlMemory@Uhash_item_t@CCountedStringPool@@@@QAEPAUhash_item_t@CCountedStringPool@@XZ 004764d0 f i tier1:stringpool.obj
 0001:000754e0       ?ValidateGrowSize@?$CUtlMemory@UNode_t@?$CUtlRBTree@PBDGP6A_NABQBD0@Z@@@@IAEXXZ 004764e0 f i tier1:stringpool.obj
 0001:000754f0       ?ValidateGrowSize@?$CUtlMemory@Uhash_item_t@CCountedStringPool@@@@IAEXXZ 004764f0 f i tier1:stringpool.obj
 0001:00075500       ??A?$CUtlMemory@UNode_t@?$CUtlRBTree@PBDGP6A_NABQBD0@Z@@@@QBEABUNode_t@?$CUtlRBTree@PBDGP6A_NABQBD0@Z@@H@Z 00476500 f i tier1:stringpool.obj
 0001:00075510       ??A?$CUtlMemory@UNode_t@?$CUtlRBTree@PBDGP6A_NABQBD0@Z@@@@QAEAAUNode_t@?$CUtlRBTree@PBDGP6A_NABQBD0@Z@@H@Z 00476510 f i tier1:stringpool.obj
 0001:00075520       ??$Construct@Uhash_item_t@CCountedStringPool@@@@YAXPAUhash_item_t@CCountedStringPool@@@Z 00476520 f i tier1:stringpool.obj
 0001:00075530       ??$Destruct@Uhash_item_t@CCountedStringPool@@@@YAXPAUhash_item_t@CCountedStringPool@@@Z 00476530 f i tier1:stringpool.obj
 0001:00075540       ?NumAllocated@?$CUtlMemory@UNode_t@?$CUtlRBTree@PBDGP6A_NABQBD0@Z@@@@QBEHXZ 00476540 f i tier1:stringpool.obj
 0001:00075550       ?IsExternallyAllocated@?$CUtlMemory@UNode_t@?$CUtlRBTree@PBDGP6A_NABQBD0@Z@@@@QBE_NXZ 00476550 f i tier1:stringpool.obj
 0001:00075560       ??$Construct@PBD@@YAXPAPBD@Z 00476560 f i tier1:stringpool.obj
 0001:00075570       ??$Construct@G@@YAXPAG@Z   00476570 f i tier1:stringpool.obj
 0001:00075580       ?NumAllocated@?$CUtlMemory@Uhash_item_t@CCountedStringPool@@@@QBEHXZ 00476580 f i tier1:stringpool.obj
 0001:00075590       ?IsExternallyAllocated@?$CUtlMemory@Uhash_item_t@CCountedStringPool@@@@QBE_NXZ 00476590 f i tier1:stringpool.obj
 0001:000755a0       ?IsRoot@?$CUtlRBTree@PBDGP6A_NABQBD0@Z@@QBE_NG@Z 004765a0 f i tier1:stringpool.obj
 0001:000755c0       ?Count@CStringPool@@QBEIXZ 004765c0 f   tier1:stringpool.obj
 0001:000755d0       ?ResetDbgInfo@?$CUtlRBTree@PBDGP6A_NABQBD0@Z@@IAEXXZ 004765d0 f i tier1:stringpool.obj
 0001:000755e0       ?Base@?$CUtlVector@Uhash_item_t@CCountedStringPool@@V?$CUtlMemory@Uhash_item_t@CCountedStringPool@@@@@@QAEPAUhash_item_t@CCountedStringPool@@XZ 004765e0 f i tier1:stringpool.obj
 0001:000755f0       ?ResetDbgInfo@?$CUtlVector@Uhash_item_t@CCountedStringPool@@V?$CUtlMemory@Uhash_item_t@CCountedStringPool@@@@@@IAEXXZ 004765f0 f i tier1:stringpool.obj
 0001:00075600       ?Element@?$CUtlRBTree@PBDGP6A_NABQBD0@Z@@QBEABQBDG@Z 00476600 f i tier1:stringpool.obj
 0001:00075620       ?Element@?$CUtlRBTree@PBDGP6A_NABQBD0@Z@@QAEAAPBDG@Z 00476620 f i tier1:stringpool.obj
 0001:00075640       ??0?$CUtlMemory@UNode_t@?$CUtlRBTree@PBDGP6A_NABQBD0@Z@@@@QAE@HH@Z 00476640 f i tier1:stringpool.obj
 0001:00075680       ??0?$CUtlMemory@Uhash_item_t@CCountedStringPool@@@@QAE@HH@Z 00476680 f i tier1:stringpool.obj
 0001:000756c0       ?Links@?$CUtlRBTree@PBDGP6A_NABQBD0@Z@@IAEAAULinks_t@1@G@Z 004766c0 f i tier1:stringpool.obj
 0001:000756e0       ?Links@?$CUtlRBTree@PBDGP6A_NABQBD0@Z@@IBEABULinks_t@1@G@Z 004766e0 f i tier1:stringpool.obj
 0001:00075740       ?Purge@?$CUtlMemory@UNode_t@?$CUtlRBTree@PBDGP6A_NABQBD0@Z@@@@QAEXXZ 00476740 f i tier1:stringpool.obj
 0001:00075770       ?Element@?$CUtlVector@Uhash_item_t@CCountedStringPool@@V?$CUtlMemory@Uhash_item_t@CCountedStringPool@@@@@@QAEAAUhash_item_t@CCountedStringPool@@H@Z 00476770 f i tier1:stringpool.obj
 0001:00075790       ?ShiftElementsRight@?$CUtlVector@Uhash_item_t@CCountedStringPool@@V?$CUtlMemory@Uhash_item_t@CCountedStringPool@@@@@@IAEXHH@Z 00476790 f i tier1:stringpool.obj
 0001:000757e0       ?Purge@?$CUtlMemory@Uhash_item_t@CCountedStringPool@@@@QAEXXZ 004767e0 f i tier1:stringpool.obj
 0001:00075810       ?Grow@?$CUtlMemory@UNode_t@?$CUtlRBTree@PBDGP6A_NABQBD0@Z@@@@QAEXH@Z 00476810 f i tier1:stringpool.obj
 0001:00075880       ?Grow@?$CUtlMemory@Uhash_item_t@CCountedStringPool@@@@QAEXH@Z 00476880 f i tier1:stringpool.obj
 0001:00075900       ?IsRed@?$CUtlRBTree@PBDGP6A_NABQBD0@Z@@IBE_NG@Z 00476900 f i tier1:stringpool.obj
 0001:00075920       ?Color@?$CUtlRBTree@PBDGP6A_NABQBD0@Z@@IBE?AW4NodeColor_t@1@G@Z 00476920 f i tier1:stringpool.obj
 0001:00075940       ?SetColor@?$CUtlRBTree@PBDGP6A_NABQBD0@Z@@IAEXGW4NodeColor_t@1@@Z 00476940 f i tier1:stringpool.obj
 0001:00075960       ?SetParent@?$CUtlRBTree@PBDGP6A_NABQBD0@Z@@IAEXGG@Z 00476960 f i tier1:stringpool.obj
 0001:00075980       ??A?$CUtlRBTree@PBDGP6A_NABQBD0@Z@@QAEAAPBDG@Z 00476980 f i tier1:stringpool.obj
 0001:000759a0       ??A?$CUtlVector@Uhash_item_t@CCountedStringPool@@V?$CUtlMemory@Uhash_item_t@CCountedStringPool@@@@@@QAEAAUhash_item_t@CCountedStringPool@@H@Z 004769a0 f i tier1:stringpool.obj
 0001:000759c0       ?Parent@?$CUtlRBTree@PBDGP6A_NABQBD0@Z@@QBEGG@Z 004769c0 f i tier1:stringpool.obj
 0001:000759e0       ?LeftChild@?$CUtlRBTree@PBDGP6A_NABQBD0@Z@@QBEGG@Z 004769e0 f i tier1:stringpool.obj
 0001:000759f0       ?RightChild@?$CUtlRBTree@PBDGP6A_NABQBD0@Z@@QBEGG@Z 004769f0 f i tier1:stringpool.obj
 0001:00075a10       ?IsRightChild@?$CUtlRBTree@PBDGP6A_NABQBD0@Z@@QBE_NG@Z 00476a10 f i tier1:stringpool.obj
 0001:00075a40       ?SetLeftChild@?$CUtlRBTree@PBDGP6A_NABQBD0@Z@@IAEXGG@Z 00476a40 f i tier1:stringpool.obj
 0001:00075a60       ?SetRightChild@?$CUtlRBTree@PBDGP6A_NABQBD0@Z@@IAEXGG@Z 00476a60 f i tier1:stringpool.obj
 0001:00075a80       ?FindInsertionPosition@?$CUtlRBTree@PBDGP6A_NABQBD0@Z@@IAEXABQBDAAGAA_N@Z 00476a80 f i tier1:stringpool.obj
 0001:00075b90       ??1?$CUtlMemory@UNode_t@?$CUtlRBTree@PBDGP6A_NABQBD0@Z@@@@QAE@XZ 00476b90 f i tier1:stringpool.obj
 0001:00075bc0       ?RemoveAll@?$CUtlVector@Uhash_item_t@CCountedStringPool@@V?$CUtlMemory@Uhash_item_t@CCountedStringPool@@@@@@QAEXXZ 00476bc0 f i tier1:stringpool.obj
 0001:00075bd0       ?Purge@?$CUtlVector@Uhash_item_t@CCountedStringPool@@V?$CUtlMemory@Uhash_item_t@CCountedStringPool@@@@@@QAEXXZ 00476bd0 f i tier1:stringpool.obj
 0001:00075c20       ??1?$CUtlMemory@Uhash_item_t@CCountedStringPool@@@@QAE@XZ 00476c20 f i tier1:stringpool.obj
 0001:00075c50       ?NewNode@?$CUtlRBTree@PBDGP6A_NABQBD0@Z@@QAEGXZ 00476c50 f i tier1:stringpool.obj
 0001:00075cb0       ?InsertMultipleBefore@?$CUtlVector@GV?$CUtlMemory@G@@@@QAEHHHPBG@Z 00476cb0 f i tier1:stringpool.obj
 0001:00075d50       ?GrowVector@?$CUtlVector@Uhash_item_t@CCountedStringPool@@V?$CUtlMemory@Uhash_item_t@CCountedStringPool@@@@@@IAEXH@Z 00476d50 f i tier1:stringpool.obj
 0001:00075d80       ?IsLeftChild@?$CUtlRBTree@PBDGP6A_NABQBD0@Z@@QBE_NG@Z 00476d80 f i tier1:stringpool.obj
 0001:00075db0       ?RotateLeft@?$CUtlRBTree@PBDGP6A_NABQBD0@Z@@IAEXG@Z 00476db0 f i tier1:stringpool.obj
 0001:00075eb0       ?RotateRight@?$CUtlRBTree@PBDGP6A_NABQBD0@Z@@IAEXG@Z 00476eb0 f i tier1:stringpool.obj
 0001:00075fb0       ?FindStringHandle@CCountedStringPool@@QAEGPBD@Z 00476fb0 f   tier1:stringpool.obj
 0001:00076030       ?FindString@CCountedStringPool@@QAEPADPBD@Z 00477030 f   tier1:stringpool.obj
 0001:00076060       ?DereferenceString@CCountedStringPool@@QAEXPBD@Z 00477060 f   tier1:stringpool.obj
 0001:00076180       ?HandleToString@CCountedStringPool@@QAEPADG@Z 00477180 f   tier1:stringpool.obj
 0001:00076210       ??0?$CUtlRBTree@PBDGP6A_NABQBD0@Z@@QAE@HHABQ6A_NABQBD0@Z@Z 00477210 f i tier1:stringpool.obj
 0001:00076280       ?IsValidIndex@?$CUtlRBTree@PBDGP6A_NABQBD0@Z@@QBE_NG@Z 00477280 f i tier1:stringpool.obj
 0001:000762b0       ?Find@?$CUtlRBTree@PBDGP6A_NABQBD0@Z@@QBEGABQBD@Z 004772b0 f i tier1:stringpool.obj
 0001:000763c0       ?RemoveAll@?$CUtlRBTree@PBDGP6A_NABQBD0@Z@@QAEXXZ 004773c0 f i tier1:stringpool.obj
 0001:00076460       ?FirstInorder@?$CUtlRBTree@PBDGP6A_NABQBD0@Z@@QBEGXZ 00477460 f i tier1:stringpool.obj
 0001:00076520       ?NextInorder@?$CUtlRBTree@PBDGP6A_NABQBD0@Z@@QBEGG@Z 00477520 f i tier1:stringpool.obj
 0001:000766e0       ??0?$CUtlVector@Uhash_item_t@CCountedStringPool@@V?$CUtlMemory@Uhash_item_t@CCountedStringPool@@@@@@QAE@HH@Z 004776e0 f i tier1:stringpool.obj
 0001:00076730       ??1?$CUtlVector@Uhash_item_t@CCountedStringPool@@V?$CUtlMemory@Uhash_item_t@CCountedStringPool@@@@@@QAE@XZ 00477730 f i tier1:stringpool.obj
 0001:000767c0       ?Purge@?$CUtlRBTree@PBDGP6A_NABQBD0@Z@@QAEXXZ 004777c0 f i tier1:stringpool.obj
 0001:00076860       ?AddMultipleToTail@?$CUtlVector@GV?$CUtlMemory@G@@@@QAEHHPBG@Z 00477860 f i tier1:stringpool.obj
 0001:00076880       ?InsertBefore@?$CUtlVector@Uhash_item_t@CCountedStringPool@@V?$CUtlMemory@Uhash_item_t@CCountedStringPool@@@@@@QAEHH@Z 00477880 f i tier1:stringpool.obj
 0001:000768e0       ?InsertMultipleBefore@?$CUtlVector@Uhash_item_t@CCountedStringPool@@V?$CUtlMemory@Uhash_item_t@CCountedStringPool@@@@@@QAEHHHPBUhash_item_t@CCountedStringPool@@@Z 004778e0 f i tier1:stringpool.obj
 0001:00076970       ?InsertRebalance@?$CUtlRBTree@PBDGP6A_NABQBD0@Z@@IAEXG@Z 00477970 f i tier1:stringpool.obj
 0001:00076ee0       ?Find@CStringPool@@QAEPBDPBD@Z 00477ee0 f   tier1:stringpool.obj
 0001:00076f30       ?FreeAll@CStringPool@@QAEXXZ 00477f30 f   tier1:stringpool.obj
 0001:00076f80       ??1?$CUtlRBTree@PBDGP6A_NABQBD0@Z@@QAE@XZ 00477f80 f i tier1:stringpool.obj
 0001:00077000       ?EnsureCount@?$CUtlVector@GV?$CUtlMemory@G@@@@QAEXH@Z 00478000 f i tier1:stringpool.obj
 0001:00077020       ?AddToTail@?$CUtlVector@Uhash_item_t@CCountedStringPool@@V?$CUtlMemory@Uhash_item_t@CCountedStringPool@@@@@@QAEHXZ 00478020 f i tier1:stringpool.obj
 0001:00077030       ?AddMultipleToTail@?$CUtlVector@Uhash_item_t@CCountedStringPool@@V?$CUtlMemory@Uhash_item_t@CCountedStringPool@@@@@@QAEHHPBUhash_item_t@CCountedStringPool@@@Z 00478030 f i tier1:stringpool.obj
 0001:00077050       ?LinkToParent@?$CUtlRBTree@PBDGP6A_NABQBD0@Z@@IAEXGG_N@Z 00478050 f i tier1:stringpool.obj
 0001:000770c0       ??0CStringPool@@QAE@XZ     004780c0 f   tier1:stringpool.obj
 0001:00077120       ??1CStringPool@@QAE@XZ     00478120 f   tier1:stringpool.obj
 0001:00077180       ??0CCountedStringPool@@QAE@XZ 00478180 f   tier1:stringpool.obj
 0001:00077290       ?ReferenceStringHandle@CCountedStringPool@@QAEGPBD@Z 00478290 f   tier1:stringpool.obj
 0001:000773d0       ?ReferenceString@CCountedStringPool@@QAEPADPBD@Z 004783d0 f   tier1:stringpool.obj
 0001:00077400       ?SetCount@?$CUtlVector@Uhash_item_t@CCountedStringPool@@V?$CUtlMemory@Uhash_item_t@CCountedStringPool@@@@@@QAEXH@Z 00478400 f i tier1:stringpool.obj
 0001:00077440       ?InsertAt@?$CUtlRBTree@PBDGP6A_NABQBD0@Z@@IAEGG_N@Z 00478440 f i tier1:stringpool.obj
 0001:00077470       ?FreeAll@CCountedStringPool@@QAEXXZ 00478470 f   tier1:stringpool.obj
 0001:00077520       ?Insert@?$CUtlRBTree@PBDGP6A_NABQBD0@Z@@QAEGABQBD@Z 00478520 f i tier1:stringpool.obj
 0001:00077580       ?Allocate@CStringPool@@QAEPBDPBD@Z 00478580 f   tier1:stringpool.obj
 0001:000775e0       ??1CCountedStringPool@@UAE@XZ 004785e0 f   tier1:stringpool.obj
 0001:00077650       ??_ECCountedStringPool@@UAEPAXI@Z 00478650 f i tier1:stringpool.obj
 0001:00077650       ??_GCCountedStringPool@@UAEPAXI@Z 00478650 f i tier1:stringpool.obj
 0001:00077670       ?HashString@@YAIPBD@Z      00478670 f   tier1:generichash.obj
 0001:000776b0       ?HashStringCaseless@@YAIPBD@Z 004786b0 f   tier1:generichash.obj
 0001:00077720       ?HashStringCaselessConventional@@YAIPBD@Z 00478720 f   tier1:generichash.obj
 0001:00077760       ?Hash4@@YAIPBX@Z           00478760 f   tier1:generichash.obj
 0001:000777c0       ?Hash8@@YAIPBX@Z           004787c0 f   tier1:generichash.obj
 0001:00077850       ?Hash12@@YAIPBX@Z          00478850 f   tier1:generichash.obj
 0001:00077920       ?Hash16@@YAIPBX@Z          00478920 f   tier1:generichash.obj
 0001:00077a20       ?HashBlock@@YAIPBXI@Z      00478a20 f   tier1:generichash.obj
 0001:00077a70       ?GetString@ConVar@@QBEPBDXZ 00478a70 f i tier1:convar.obj
 0001:00077a90       ?OneTimeInit@ConCommandBaseMgr@@SAXPAVIConCommandBaseAccessor@@@Z 00478a90 f   tier1:convar.obj
 0001:00077ac0       ??0ConCommandBase@@QAE@XZ  00478ac0 f   tier1:convar.obj
 0001:00077ae0       ??1ConCommandBase@@UAE@XZ  00478ae0 f   tier1:convar.obj
 0001:00077af0       ?IsCommand@ConCommandBase@@UBE_NXZ 00478af0 f   tier1:convar.obj
 0001:00077b00       ?Create@ConCommandBase@@MAEXPBD0H@Z 00478b00 f   tier1:convar.obj
 0001:00077b50       ?Init@ConCommandBase@@MAEXXZ 00478b50 f   tier1:convar.obj
 0001:00077b70       ?GetCommands@ConCommandBase@@SAPBV1@XZ 00478b70 f   tier1:convar.obj
 0001:00077b80       ?AddToList@ConCommandBase@@SAXPAV1@@Z 00478b80 f   tier1:convar.obj
 0001:00077ba0       ?GetName@ConCommandBase@@UBEPBDXZ 00478ba0 f   tier1:convar.obj
 0001:00077bb0       ?RemoveFlaggedCommands@ConCommandBase@@SAXH@Z 00478bb0 f   tier1:convar.obj
 0001:00077bf0       ?IsBitSet@ConCommandBase@@UBE_NH@Z 00478bf0 f   tier1:convar.obj
 0001:00077c00       ?AddFlags@ConCommandBase@@UAEXH@Z 00478c00 f   tier1:convar.obj
 0001:00077c10       ?GetNext@ConCommandBase@@QBEPBV1@XZ 00478c10 f   tier1:convar.obj
 0001:00077c20       ?SetNext@ConCommandBase@@QAEXPAV1@@Z 00478c20 f   tier1:convar.obj
 0001:00077c30       ?CopyString@ConCommandBase@@IAEPADPBD@Z 00478c30 f   tier1:convar.obj
 0001:00077c80       ?GetHelpText@ConCommandBase@@UBEPBDXZ 00478c80 f   tier1:convar.obj
 0001:00077c90       ?IsRegistered@ConCommandBase@@UBE_NXZ 00478c90 f   tier1:convar.obj
 0001:00077ca0       ??1ConCommand@@UAE@XZ      00478ca0 f   tier1:convar.obj
 0001:00077cb0       ?IsCommand@ConCommand@@UBE_NXZ 00478cb0 f   tier1:convar.obj
 0001:00077cc0       ?Dispatch@ConCommand@@UAEXXZ 00478cc0 f   tier1:convar.obj
 0001:00077cd0       ?DefaultCompletionFunc@@YAHPBDQAY0EA@D@Z 00478cd0 f   tier1:convar.obj
 0001:00077ce0       ?Create@ConCommand@@EAEXPBDP6AXXZ0HP6AH0QAY0EA@D@Z@Z 00478ce0 f   tier1:convar.obj
 0001:00077d60       ?AutoCompleteSuggest@ConCommand@@UAEHPBDQAY0EA@D@Z 00478d60 f   tier1:convar.obj
 0001:00077d80       ?CanAutoComplete@ConCommand@@UAE_NXZ 00478d80 f   tier1:convar.obj
 0001:00077d90       ??1ConVar@@UAE@XZ          00478d90 f   tier1:convar.obj
 0001:00077e00       ?InstallChangeCallback@ConVar@@QAEXP6AXPAV1@PBD@Z@Z 00478e00 f   tier1:convar.obj
 0001:00077e20       ?IsBitSet@ConVar@@UBE_NH@Z 00478e20 f   tier1:convar.obj
 0001:00077e30       ?GetHelpText@ConVar@@UBEPBDXZ 00478e30 f   tier1:convar.obj
 0001:00077e40       ?AddFlags@ConVar@@UAEXH@Z  00478e40 f   tier1:convar.obj
 0001:00077e50       ?IsRegistered@ConVar@@UBE_NXZ 00478e50 f   tier1:convar.obj
 0001:00077e60       ?GetName@ConVar@@UBEPBDXZ  00478e60 f   tier1:convar.obj
 0001:00077e70       ?IsCommand@ConVar@@UBE_NXZ 00478e70 f   tier1:convar.obj
 0001:00077e80       ?Init@ConVar@@EAEXXZ       00478e80 f   tier1:convar.obj
 0001:00077ea0       ?InternalSetValue@ConVar@@EAEXPBD@Z 00478ea0 f   tier1:convar.obj
 0001:00077f30       ?ChangeStringValue@ConVar@@EAEXPBD@Z 00478f30 f   tier1:convar.obj
 0001:00077fe0       ?ClampValue@ConVar@@EAE_NAAM@Z 00478fe0 f   tier1:convar.obj
 0001:00078030       ?InternalSetFloatValue@ConVar@@EAEXM@Z 00479030 f   tier1:convar.obj
 0001:000780d0       ?InternalSetIntValue@ConVar@@EAEXH@Z 004790d0 f   tier1:convar.obj
 0001:00078160       ?Create@ConVar@@EAEXPBD0H0_NM1MP6AXPAV1@0@Z@Z 00479160 f   tier1:convar.obj
 0001:00078240       ?SetValue@ConVar@@UAEXPBD@Z 00479240 f   tier1:convar.obj
 0001:00078250       ?SetValue@ConVar@@UAEXM@Z  00479250 f   tier1:convar.obj
 0001:00078270       ?SetValue@ConVar@@UAEXH@Z  00479270 f   tier1:convar.obj
 0001:00078280       ?Revert@ConVar@@QAEXXZ     00479280 f   tier1:convar.obj
 0001:00078290       ?RevertAll@ConVar@@SAXXZ   00479290 f   tier1:convar.obj
 0001:000782d0       ?GetMin@ConVar@@QBE_NAAM@Z 004792d0 f   tier1:convar.obj
 0001:000782f0       ?GetMax@ConVar@@QBE_NAAM@Z 004792f0 f   tier1:convar.obj
 0001:00078310       ?GetDefault@ConVar@@QBEPBDXZ 00479310 f   tier1:convar.obj
 0001:00078320       ??_GConCommandBase@@UAEPAXI@Z 00479320 f i tier1:convar.obj
 0001:00078320       ??_EConCommandBase@@UAEPAXI@Z 00479320 f i tier1:convar.obj
 0001:00078340       ??0ConCommandBase@@QAE@PBD0H@Z 00479340 f   tier1:convar.obj
 0001:000783a0       ?FindCommand@ConCommandBase@@SAPBV1@PBD@Z 004793a0 f   tier1:convar.obj
 0001:000783e0       ?RevertFlaggedCvars@ConCommandBase@@SAXH@Z 004793e0 f   tier1:convar.obj
 0001:00078460       ??0ConCommand@@QAE@PBDP6AXXZ0HP6AH0QAY0EA@D@Z@Z 00479460 f   tier1:convar.obj
 0001:000784e0       ??_EConCommand@@UAEPAXI@Z  004794e0 f i tier1:convar.obj
 0001:000784e0       ??_GConCommand@@UAEPAXI@Z  004794e0 f i tier1:convar.obj
 0001:00078500       ??0ConVar@@QAE@PBD0H@Z     00479500 f   tier1:convar.obj
 0001:00078580       ??_EConVar@@UAEPAXI@Z      00479580 f i tier1:convar.obj
 0001:00078580       ??_GConVar@@UAEPAXI@Z      00479580 f i tier1:convar.obj
 0001:000785a0       ??0ConVar@@QAE@PBD0H0@Z    004795a0 f   tier1:convar.obj
 0001:00078620       ??0ConVar@@QAE@PBD0H0_NM1M@Z 00479620 f   tier1:convar.obj
 0001:000786b0       ??0ConVar@@QAE@PBD0H0P6AXPAV0@0@Z@Z 004796b0 f   tier1:convar.obj
 0001:00078740       ??0ConVar@@QAE@PBD0H0_NM1MP6AXPAV0@0@Z@Z 00479740 f   tier1:convar.obj
 0001:000787e0       _asinf                     004797e0 f i mathlib:mathlib_base.obj
 0001:00078800       _logf                      00479800 f i mathlib:mathlib_base.obj
 0001:00078820       _powf                      00479820 f i mathlib:mathlib_base.obj
 0001:00078840       ?asin@@YAMM@Z              00479840 f i mathlib:mathlib_base.obj
 0001:00078860       ?log@@YAMM@Z               00479860 f i mathlib:mathlib_base.obj
 0001:00078880       ?pow@@YAMMM@Z              00479880 f i mathlib:mathlib_base.obj
 0001:000788a0       ?MulAdd@Vector2D@@QAEXABV1@0M@Z 004798a0 f i mathlib:mathlib_base.obj
 0001:000788d0       ?DotProduct2D@@YAMABVVector2D@@0@Z 004798d0 f i mathlib:mathlib_base.obj
 0001:000788f0       ?Dot@Vector2D@@QBEMABV1@@Z 004798f0 f i mathlib:mathlib_base.obj
 0001:00078910       ?Vector2DLength@@YAMABVVector2D@@@Z 00479910 f i mathlib:mathlib_base.obj
 0001:00078940       ?Length@Vector2D@@QBEMXZ   00479940 f i mathlib:mathlib_base.obj
 0001:00078970       ?DistTo@Vector2D@@QBEMABV1@@Z 00479970 f i mathlib:mathlib_base.obj
 0001:000789c0       ?MulAdd@Vector@@QAEXABV1@0M@Z 004799c0 f i mathlib:mathlib_base.obj
 0001:00078a00       ?DotProductAbs@@YAMABVVector@@PBM@Z 00479a00 f i mathlib:mathlib_base.obj
 0001:00078a70       ?DistTo@Vector@@QBEMABV1@@Z 00479a70 f i mathlib:mathlib_base.obj
 0001:00078ad0       ??0Quaternion@@QAE@XZ      00479ad0 f i mathlib:mathlib_base.obj
 0001:00078ae0       ??AQuaternion@@QAEAAMH@Z   00479ae0 f i mathlib:mathlib_base.obj
 0001:00078af0       ??AQuaternion@@QBEMH@Z     00479af0 f i mathlib:mathlib_base.obj
 0001:00078b00       ??0RadianEuler@@QAE@XZ     00479b00 f i mathlib:mathlib_base.obj
 0001:00078b10       ?Init@RadianEuler@@QAEXMMM@Z 00479b10 f i mathlib:mathlib_base.obj
 0001:00078b30       ??0QAngle@@QAE@MMM@Z       00479b30 f i mathlib:mathlib_base.obj
 0001:00078b50       ?VectorNormalizeFast@@YAXAAVVector@@@Z 00479b50 f i mathlib:mathlib_base.obj
 0001:00078b60       ?GetPlane@Frustum_t@@QBEPBUcplane_t@@H@Z 00479b60 f i mathlib:mathlib_base.obj
 0001:00078b70       ?Base@matrix3x4_t@@QAEPAMXZ 00479b70 f i mathlib:mathlib_base.obj
 0001:00078b80       ?Base@matrix3x4_t@@QBEPBMXZ 00479b80 f i mathlib:mathlib_base.obj
 0001:00078b90       ?VectorScale@@YAXPBMMPAM@Z 00479b90 f i mathlib:mathlib_base.obj
 0001:00078bc0       ?anglemod@@YAMM@Z          00479bc0 f i mathlib:mathlib_base.obj
 0001:00078c20       ?TexLightToLinear@@YAMHH@Z 00479c20 f i mathlib:mathlib_base.obj
 0001:00078c40       ?RoundFloatToInt@@YAHM@Z   00479c40 f i mathlib:mathlib_base.obj
 0001:00078c50       ?Floor2Int@@YAHM@Z         00479c50 f i mathlib:mathlib_base.obj
 0001:00078c80       ?_sqrtf@@YAMM@Z            00479c80 f   mathlib:mathlib_base.obj
 0001:00078ca0       ?_rsqrtf@@YAMM@Z           00479ca0 f   mathlib:mathlib_base.obj
 0001:00078cc0       ?_VectorNormalize@@YIMAAVVector@@@Z 00479cc0 f   mathlib:mathlib_base.obj
 0001:00078d30       ?_VectorNormalizeFast@@YIXAAVVector@@@Z 00479d30 f   mathlib:mathlib_base.obj
 0001:00078d90       ?_InvRSquared@@YAMPBM@Z    00479d90 f   mathlib:mathlib_base.obj
 0001:00078de0       ?_3DNow_Sqrt@@YAMM@Z       00479de0 f   mathlib:mathlib_base.obj
 0001:00078e10       ?_3DNow_RSqrt@@YAMM@Z      00479e10 f   mathlib:mathlib_base.obj
 0001:00078e30       ?_3DNow_VectorNormalize@@YIMAAVVector@@@Z 00479e30 f   mathlib:mathlib_base.obj
 0001:00078eb0       ?_3DNow_VectorNormalizeFast@@YIXAAVVector@@@Z 00479eb0 f   mathlib:mathlib_base.obj
 0001:00078ec0       ?_3DNow_InvRSquared@@YAMPBM@Z 00479ec0 f   mathlib:mathlib_base.obj
 0001:00078f00       ?_SSE_Sqrt@@YAMM@Z         00479f00 f   mathlib:mathlib_base.obj
 0001:00078f20       ?_SSE_RSqrtAccurate@@YAMM@Z 00479f20 f i mathlib:mathlib_base.obj
 0001:00078f70       ?_SSE_RSqrtFast@@YAMM@Z    00479f70 f i mathlib:mathlib_base.obj
 0001:00078f90       ?_SSE_VectorNormalize@@YIMAAVVector@@@Z 00479f90 f   mathlib:mathlib_base.obj
 0001:00079030       ?_SSE_VectorNormalizeFast@@YIXAAVVector@@@Z 0047a030 f   mathlib:mathlib_base.obj
 0001:000790c0       ?_SSE_InvRSquared@@YAMPBM@Z 0047a0c0 f   mathlib:mathlib_base.obj
 0001:00079100       ?_SSE_SinCos@@YAXMPAM0@Z   0047a100 f   mathlib:mathlib_base.obj
 0001:00079240       ?_SSE_cos@@YAMM@Z          0047a240 f   mathlib:mathlib_base.obj
 0001:00079310       ?_SSE2_SinCos@@YAXMPAM0@Z  0047a310 f   mathlib:mathlib_base.obj
 0001:00079430       ?_SSE2_cos@@YAMM@Z         0047a430 f   mathlib:mathlib_base.obj
 0001:00079500       ?InitSinCosTable@@YAXXZ    0047a500 f   mathlib:mathlib_base.obj
 0001:00079540       ?VectorsEqual@@YAHPBM0@Z   0047a540 f   mathlib:mathlib_base.obj
 0001:00079580       ?LineSphereIntersection@@YAHABVVector@@M00PAM1@Z 0047a580 f   mathlib:mathlib_base.obj
 0001:000796a0       ?MatrixAngles@@YAXABUmatrix3x4_t@@PAM@Z 0047a6a0 f   mathlib:mathlib_base.obj
 0001:000797d0       ?VectorTransform@@YAXPBMABUmatrix3x4_t@@PAM@Z 0047a7d0 f   mathlib:mathlib_base.obj
 0001:00079850       ?VectorTransformSSE@@YAXPBMABUmatrix3x4_t@@PAM@Z 0047a850 f   mathlib:mathlib_base.obj
 0001:000798f0       ?VectorITransform@@YAXPBMABUmatrix3x4_t@@PAM@Z 0047a8f0 f   mathlib:mathlib_base.obj
 0001:00079980       ?VectorRotate@@YAXPBMABUmatrix3x4_t@@PAM@Z 0047a980 f   mathlib:mathlib_base.obj
 0001:000799e0       ?VectorRotateSSE@@YAXPBMABUmatrix3x4_t@@PAM@Z 0047a9e0 f   mathlib:mathlib_base.obj
 0001:00079a70       ?TransformAndRotate@@YAXABVVector@@0ABUmatrix3x4_t@@AAV1@2@Z 0047aa70 f   mathlib:mathlib_base.obj
 0001:00079b90       ?VectorIRotate@@YAXPBMABUmatrix3x4_t@@PAM@Z 0047ab90 f   mathlib:mathlib_base.obj
 0001:00079bf0       ?MatrixCopy@@YAXABUmatrix3x4_t@@AAU1@@Z 0047abf0 f   mathlib:mathlib_base.obj
 0001:00079c10       ?MatrixGetColumn@@YAXABUmatrix3x4_t@@HAAVVector@@@Z 0047ac10 f   mathlib:mathlib_base.obj
 0001:00079c30       ?MatrixSetColumn@@YAXABVVector@@HAAUmatrix3x4_t@@@Z 0047ac30 f   mathlib:mathlib_base.obj
 0001:00079c50       ?VectorCompare@@YAHPBM0@Z  0047ac50 f   mathlib:mathlib_base.obj
 0001:00079c90       ?VectorMA@@YAXPBMM0PAM@Z   0047ac90 f   mathlib:mathlib_base.obj
 0001:00079cd0       ?_SSE_VectorMA@@YAXPBMM0PAM@Z 0047acd0 f   mathlib:mathlib_base.obj
 0001:00079d00       ?CrossProduct@@YAXPBM0PAM@Z 0047ad00 f   mathlib:mathlib_base.obj
 0001:00079d40       ?Q_log2@@YAHH@Z            0047ad40 f   mathlib:mathlib_base.obj
 0001:00079d60       ?VectorMatrix@@YAXABVVector@@AAUmatrix3x4_t@@@Z 0047ad60 f   mathlib:mathlib_base.obj
 0001:00079e70       ?VectorVectors@@YAXABVVector@@AAV1@1@Z 0047ae70 f   mathlib:mathlib_base.obj
 0001:00079f30       ?VectorAngles@@YAXPBMPAM@Z 0047af30 f   mathlib:mathlib_base.obj
 0001:0007a040       ?ConcatRotations@@YAXQAY02$$CBM0QAY02M@Z 0047b040 f   mathlib:mathlib_base.obj
 0001:0007a130       ?ConcatTransforms@@YAXABUmatrix3x4_t@@0AAU1@@Z 0047b130 f   mathlib:mathlib_base.obj
 0001:0007a2d0       ?FloorDivMod@@YAXNNPAH0@Z  0047b2d0 f   mathlib:mathlib_base.obj
 0001:0007a3e0       ?GreatestCommonDivisor@@YAHHH@Z 0047b3e0 f   mathlib:mathlib_base.obj
 0001:0007a420       ?IsDenormal@@YA_NABM@Z     0047b420 f   mathlib:mathlib_base.obj
 0001:0007a440       ?SignbitsForPlane@@YAHPAUcplane_t@@@Z 0047b440 f   mathlib:mathlib_base.obj
 0001:0007a480       ?BoxOnPlaneSide@@YAHPBM0PBUcplane_t@@@Z 0047b480 f   mathlib:mathlib_base.obj
 0001:0007a6e0       ?VectorMA@@YAXABVVector@@M0AAV1@@Z 0047b6e0 f   mathlib:mathlib_base.obj
 0001:0007a720       ?AngleVectors@@YAXABVQAngle@@PAVVector@@@Z 0047b720 f   mathlib:mathlib_base.obj
 0001:0007a7b0       ?AngleVectors@@YAXABVQAngle@@PAVVector@@11@Z 0047b7b0 f   mathlib:mathlib_base.obj
 0001:0007a910       ?AngleVectorsTranspose@@YAXABVQAngle@@PAVVector@@11@Z 0047b910 f   mathlib:mathlib_base.obj
 0001:0007aa60       ?VectorAngles@@YAXABVVector@@AAVQAngle@@@Z 0047ba60 f   mathlib:mathlib_base.obj
 0001:0007ab90       ?VectorAngles@@YAXABVVector@@0AAVQAngle@@@Z 0047bb90 f   mathlib:mathlib_base.obj
 0001:0007ace0       ?SetIdentityMatrix@@YAXAAUmatrix3x4_t@@@Z 0047bce0 f   mathlib:mathlib_base.obj
 0001:0007ad00       ?AngleMatrix@@YAXABVQAngle@@AAUmatrix3x4_t@@@Z 0047bd00 f   mathlib:mathlib_base.obj
 0001:0007ae40       ?AngleIMatrix@@YAXABVQAngle@@AAUmatrix3x4_t@@@Z 0047be40 f   mathlib:mathlib_base.obj
 0001:0007af80       ?SphereToAABBIntersection@@YA_NABVVector@@M00@Z 0047bf80 f   mathlib:mathlib_base.obj
 0001:0007b070       ?ClearBounds@@YAXAAVVector@@0@Z 0047c070 f   mathlib:mathlib_base.obj
 0001:0007b0a0       ?AddPointToBounds@@YAXABVVector@@AAV1@1@Z 0047c0a0 f   mathlib:mathlib_base.obj
 0001:0007b140       ?GammaToLinearFullRange@@YAMM@Z 0047c140 f   mathlib:mathlib_base.obj
 0001:0007b160       ?LinearToGammaFullRange@@YAMM@Z 0047c160 f   mathlib:mathlib_base.obj
 0001:0007b180       ?GammaToLinear@@YAMM@Z     0047c180 f   mathlib:mathlib_base.obj
 0001:0007b1d0       ?LinearToGamma@@YAMM@Z     0047c1d0 f   mathlib:mathlib_base.obj
 0001:0007b220       ?TextureToLinear@@YAMH@Z   0047c220 f   mathlib:mathlib_base.obj
 0001:0007b240       ?LinearToTexture@@YAHM@Z   0047c240 f   mathlib:mathlib_base.obj
 0001:0007b280       ?LinearToScreenGamma@@YAHM@Z 0047c280 f   mathlib:mathlib_base.obj
 0001:0007b2c0       ?SolveQuadratic@@YA_NMMMAAM0@Z 0047c2c0 f   mathlib:mathlib_base.obj
 0001:0007b390       ?SolveInverseQuadratic@@YA_NMMMMMMAAM00@Z 0047c390 f   mathlib:mathlib_base.obj
 0001:0007b490       ?SolveInverseReciprocalQuadratic@@YA_NMMMMMMAAM00@Z 0047c490 f   mathlib:mathlib_base.obj
 0001:0007b5c0       ?VectorYawRotate@@YAXABVVector@@MAAV1@@Z 0047c5c0 f   mathlib:mathlib_base.obj
 0001:0007b670       ?Bias@@YAMMM@Z             0047c670 f   mathlib:mathlib_base.obj
 0001:0007b6c0       ?Gain@@YAMMM@Z             0047c6c0 f   mathlib:mathlib_base.obj
 0001:0007b750       ?SmoothCurve@@YAMM@Z       0047c750 f   mathlib:mathlib_base.obj
 0001:0007b780       ?MovePeak@@YAMMM@Z         0047c780 f i mathlib:mathlib_base.obj
 0001:0007b7d0       ?SmoothCurve_Tweak@@YAMMMM@Z 0047c7d0 f   mathlib:mathlib_base.obj
 0001:0007b840       ?QuaternionAlign@@YAXABVQuaternion@@0AAV1@@Z 0047c840 f   mathlib:mathlib_base.obj
 0001:0007b930       ?QuaternionSlerpNoAlign@@YAXABVQuaternion@@0MAAV1@@Z 0047c930 f   mathlib:mathlib_base.obj
 0001:0007baf0       ?QuaternionConjugate@@YAXABVQuaternion@@AAV1@@Z 0047caf0 f   mathlib:mathlib_base.obj
 0001:0007bb20       ?QuaternionNormalize@@YAMAAVQuaternion@@@Z 0047cb20 f   mathlib:mathlib_base.obj
 0001:0007bba0       ?QuaternionScale@@YAXABVQuaternion@@MAAV1@@Z 0047cba0 f   mathlib:mathlib_base.obj
 0001:0007bca0       ?QuaternionAdd@@YAXABVQuaternion@@0AAV1@@Z 0047cca0 f   mathlib:mathlib_base.obj
 0001:0007bcf0       ?QuaternionDotProduct@@YAMABVQuaternion@@0@Z 0047ccf0 f   mathlib:mathlib_base.obj
 0001:0007bd20       ?QuaternionMult@@YAXABVQuaternion@@0AAV1@@Z 0047cd20 f   mathlib:mathlib_base.obj
 0001:0007be10       ?QuaternionMatrix@@YAXABVQuaternion@@AAUmatrix3x4_t@@@Z 0047ce10 f   mathlib:mathlib_base.obj
 0001:0007bee0       ?QuaternionAxisAngle@@YAXABVQuaternion@@AAVVector@@AAM@Z 0047cee0 f   mathlib:mathlib_base.obj
 0001:0007bf50       ?AxisAngleQuaternion@@YAXABVVector@@MAAVQuaternion@@@Z 0047cf50 f   mathlib:mathlib_base.obj
 0001:0007bfc0       ?AngleQuaternion@@YAXABVRadianEuler@@AAVQuaternion@@@Z 0047cfc0 f   mathlib:mathlib_base.obj
 0001:0007c0e0       ?Spline_Normalize@@YAXABVVector@@000AAV1@1@Z 0047d0e0 f   mathlib:mathlib_base.obj
 0001:0007c1e0       ?Catmull_Rom_Spline@@YAXABVVector@@000MAAV1@@Z 0047d1e0 f   mathlib:mathlib_base.obj
 0001:0007c540       ?Catmull_Rom_Spline_Tangent@@YAXABVVector@@000MAAV1@@Z 0047d540 f   mathlib:mathlib_base.obj
 0001:0007c870       ?Catmull_Rom_Spline_Normalize@@YAXABVVector@@000MAAV1@@Z 0047d870 f   mathlib:mathlib_base.obj
 0001:0007c940       ?Catmull_Rom_Spline_NormalizeX@@YAXABVVector@@000MAAV1@@Z 0047d940 f   mathlib:mathlib_base.obj
 0001:0007c9a0       ?Hermite_Spline@@YAXABVVector@@000MAAV1@@Z 0047d9a0 f   mathlib:mathlib_base.obj
 0001:0007ca70       ?Hermite_Spline@@YAMMMMMM@Z 0047da70 f   mathlib:mathlib_base.obj
 0001:0007cb20       ?Hermite_SplineBasis@@YAXMQAM@Z 0047db20 f   mathlib:mathlib_base.obj
 0001:0007cb80       ?Hermite_Spline@@YAXABVVector@@00MAAV1@@Z 0047db80 f   mathlib:mathlib_base.obj
 0001:0007cc20       ?Hermite_Spline@@YAMMMMM@Z 0047dc20 f   mathlib:mathlib_base.obj
 0001:0007cc70       ?Hermite_Spline@@YAXABVQuaternion@@00MAAV1@@Z 0047dc70 f   mathlib:mathlib_base.obj
 0001:0007cde0       ?Kochanek_Bartels_Spline@@YAXMMMABVVector@@000MAAV1@@Z 0047dde0 f   mathlib:mathlib_base.obj
 0001:0007d260       ?Kochanek_Bartels_Spline_NormalizeX@@YAXMMMABVVector@@000MAAV1@@Z 0047e260 f   mathlib:mathlib_base.obj
 0001:0007d2d0       ?Cubic_Spline@@YAXABVVector@@000MAAV1@@Z 0047e2d0 f   mathlib:mathlib_base.obj
 0001:0007d460       ?Cubic_Spline_NormalizeX@@YAXABVVector@@000MAAV1@@Z 0047e460 f   mathlib:mathlib_base.obj
 0001:0007d4c0       ?BSpline@@YAXABVVector@@000MAAV1@@Z 0047e4c0 f   mathlib:mathlib_base.obj
 0001:0007d880       ?BSpline_NormalizeX@@YAXABVVector@@000MAAV1@@Z 0047e880 f   mathlib:mathlib_base.obj
 0001:0007d8e0       ?Parabolic_Spline@@YAXABVVector@@000MAAV1@@Z 0047e8e0 f   mathlib:mathlib_base.obj
 0001:0007db00       ?Parabolic_Spline_NormalizeX@@YAXABVVector@@000MAAV1@@Z 0047eb00 f   mathlib:mathlib_base.obj
 0001:0007db60       ?RangeCompressor@@YAMMMMM@Z 0047eb60 f   mathlib:mathlib_base.obj
 0001:0007dc70       ?CalcSqrDistanceToAABB@@YAMABVVector@@00@Z 0047ec70 f   mathlib:mathlib_base.obj
 0001:0007dd60       ?CalcClosestPointOnAABB@@YAXABVVector@@00AAV1@@Z 0047ed60 f   mathlib:mathlib_base.obj
 0001:0007de00       ?CalcClosestPointToLineT@@YAMABVVector@@00AAV1@@Z 0047ee00 f   mathlib:mathlib_base.obj
 0001:0007deb0       ?CalcClosestPointOnLine@@YAXABVVector@@00AAV1@PAM@Z 0047eeb0 f   mathlib:mathlib_base.obj
 0001:0007df10       ?CalcDistanceToLine@@YAMABVVector@@00PAM@Z 0047ef10 f   mathlib:mathlib_base.obj
 0001:0007df50       ?CalcClosestPointOnLineSegment@@YAXABVVector@@00AAV1@PAM@Z 0047ef50 f   mathlib:mathlib_base.obj
 0001:0007dfe0       ?CalcDistanceToLineSegment@@YAMABVVector@@00PAM@Z 0047efe0 f   mathlib:mathlib_base.obj
 0001:0007e020       ?CalcClosestPointToLineT2D@@YAMABVVector2D@@00AAV1@@Z 0047f020 f   mathlib:mathlib_base.obj
 0001:0007e0b0       ?CalcClosestPointOnLine2D@@YAXABVVector2D@@00AAV1@PAM@Z 0047f0b0 f   mathlib:mathlib_base.obj
 0001:0007e100       ?CalcDistanceToLine2D@@YAMABVVector2D@@00PAM@Z 0047f100 f   mathlib:mathlib_base.obj
 0001:0007e190       ?CalcDistanceSqrToLine2D@@YAMABVVector2D@@00PAM@Z 0047f190 f   mathlib:mathlib_base.obj
 0001:0007e210       ?CalcClosestPointOnLineSegment2D@@YAXABVVector2D@@00AAV1@PAM@Z 0047f210 f   mathlib:mathlib_base.obj
 0001:0007e2a0       ?CalcDistanceToLineSegment2D@@YAMABVVector2D@@00PAM@Z 0047f2a0 f   mathlib:mathlib_base.obj
 0001:0007e310       ?CalcDistanceSqrToLineSegment2D@@YAMABVVector2D@@00PAM@Z 0047f310 f   mathlib:mathlib_base.obj
 0001:0007e370       ?CalcLineToLineIntersectionSegment@@YA_NABVVector@@000PAV1@1PAM2@Z 0047f370 f   mathlib:mathlib_base.obj
 0001:0007e5f0       ?MathLib_3DNowEnabled@@YA_NXZ 0047f5f0 f   mathlib:mathlib_base.obj
 0001:0007e600       ?MathLib_MMXEnabled@@YA_NXZ 0047f600 f   mathlib:mathlib_base.obj
 0001:0007e610       ?MathLib_SSEEnabled@@YA_NXZ 0047f610 f   mathlib:mathlib_base.obj
 0001:0007e620       ?MathLib_SSE2Enabled@@YA_NXZ 0047f620 f   mathlib:mathlib_base.obj
 0001:0007e630       ?Approach@@YAMMMM@Z        0047f630 f   mathlib:mathlib_base.obj
 0001:0007e690       ?ApproachAngle@@YAMMMM@Z   0047f690 f   mathlib:mathlib_base.obj
 0001:0007e790       ?AngleDiff@@YAMMM@Z        0047f790 f   mathlib:mathlib_base.obj
 0001:0007e810       ?AngleDistance@@YAMMM@Z    0047f810 f   mathlib:mathlib_base.obj
 0001:0007e860       ?AngleNormalize@@YAMM@Z    0047f860 f   mathlib:mathlib_base.obj
 0001:0007e8c0       ?AngleNormalizePositive@@YAMM@Z 0047f8c0 f   mathlib:mathlib_base.obj
 0001:0007e900       ?AnglesAreEqual@@YA_NMMM@Z 0047f900 f   mathlib:mathlib_base.obj
 0001:0007e940       ?ComputeTrianglePlane@@YAXABVVector@@00AAV1@AAM@Z 0047f940 f   mathlib:mathlib_base.obj
 0001:0007ea00       ?PolyFromPlane@@YAHPAVVector@@ABV1@MM@Z 0047fa00 f   mathlib:mathlib_base.obj
 0001:0007ecc0       ?ClipPolyToPlane@@YAHPAVVector@@H0ABV1@MM@Z 0047fcc0 f   mathlib:mathlib_base.obj
 0001:0007eff0       ?ClipPolyToPlane_Precise@@YAHPANH0PBNNN@Z 0047fff0 f   mathlib:mathlib_base.obj
 0001:0007f240       ?ColorRGBExp32ToVector@@YAXABUColorRGBExp32@@AAVVector@@@Z 00480240 f   mathlib:mathlib_base.obj
 0001:0007f350       ?CeilPow2@@YAHH@Z          00480350 f   mathlib:mathlib_base.obj
 0001:0007f370       ?FloorPow2@@YAHH@Z         00480370 f   mathlib:mathlib_base.obj
 0001:0007f390       ??$_Pow_int@M@@YAMMH@Z     00480390 f i mathlib:mathlib_base.obj
 0001:0007f3e0       ??$swap@M@@YAXAAM0@Z       004803e0 f i mathlib:mathlib_base.obj
 0001:0007f400       ?pow@@YAMMH@Z              00480400 f i mathlib:mathlib_base.obj
 0001:0007f420       ?MatrixAngles@@YAXABUmatrix3x4_t@@AAVQAngle@@@Z 00480420 f i mathlib:mathlib_base.obj
 0001:0007f430       ?MatrixAngles@@YAXABUmatrix3x4_t@@AAVRadianEuler@@@Z 00480430 f i mathlib:mathlib_base.obj
 0001:0007f480       ?MatrixAngles@@YAXABUmatrix3x4_t@@AAVRadianEuler@@AAVVector@@@Z 00480480 f   mathlib:mathlib_base.obj
 0001:0007f4e0       ?MatrixAngles@@YAXABUmatrix3x4_t@@AAVQuaternion@@AAVVector@@@Z 004804e0 f   mathlib:mathlib_base.obj
 0001:0007f610       ?VectorRotate@@YAXABVVector@@ABVQAngle@@AAV1@@Z 00480610 f   mathlib:mathlib_base.obj
 0001:0007f680       ?TransformAnglesToWorldSpace@@YA?AVQAngle@@ABV1@ABUmatrix3x4_t@@@Z 00480680 f   mathlib:mathlib_base.obj
 0001:0007f6c0       ?MatrixInitialize@@YAXAAUmatrix3x4_t@@ABVVector@@111@Z 004806c0 f   mathlib:mathlib_base.obj
 0001:0007f720       ?MatrixInvert@@YAXABUmatrix3x4_t@@AAU1@@Z 00480720 f   mathlib:mathlib_base.obj
 0001:0007f830       ?AngleMatrix@@YAXABVRadianEuler@@AAUmatrix3x4_t@@@Z 00480830 f   mathlib:mathlib_base.obj
 0001:0007f870       ?AngleMatrix@@YAXABVQAngle@@ABVVector@@AAUmatrix3x4_t@@@Z 00480870 f   mathlib:mathlib_base.obj
 0001:0007f8a0       ?AngleIMatrix@@YAXABVRadianEuler@@AAUmatrix3x4_t@@@Z 004808a0 f   mathlib:mathlib_base.obj
 0001:0007f8e0       ?AngleIMatrix@@YAXABVQAngle@@ABVVector@@AAUmatrix3x4_t@@@Z 004808e0 f   mathlib:mathlib_base.obj
 0001:0007f990       ?BuildExponentTable@@YAXXZ 00480990 f   mathlib:mathlib_base.obj
 0001:0007f9d0       ?BuildGammaTable@@YAXMMMH@Z 004809d0 f   mathlib:mathlib_base.obj
 0001:0007fd90       ?SolveInverseQuadraticMonotonic@@YA_NMMMMMMAAM00@Z 00480d90 f   mathlib:mathlib_base.obj
 0001:0007ffc0       ?QuaternionBlendNoAlign@@YAXABVQuaternion@@0MAAV1@@Z 00480fc0 f   mathlib:mathlib_base.obj
 0001:00080030       ?QuaternionIdentityBlend@@YAXABVQuaternion@@MAAV1@@Z 00481030 f   mathlib:mathlib_base.obj
 0001:000800a0       ?QuaternionSlerp@@YAXABVQuaternion@@0MAAV1@@Z 004810a0 f   mathlib:mathlib_base.obj
 0001:000800e0       ?QuaternionAngleDiff@@YAMABVQuaternion@@0@Z 004810e0 f   mathlib:mathlib_base.obj
 0001:00080180       ?QuaternionInvert@@YAXABVQuaternion@@AAV1@@Z 00481180 f   mathlib:mathlib_base.obj
 0001:00080210       ?QuaternionMatrix@@YAXABVQuaternion@@ABVVector@@AAUmatrix3x4_t@@@Z 00481210 f   mathlib:mathlib_base.obj
 0001:00080240       ?AngleQuaternion@@YAXABVQAngle@@AAVQuaternion@@@Z 00481240 f   mathlib:mathlib_base.obj
 0001:00080280       ?QuaternionAngles@@YAXABVQuaternion@@AAVQAngle@@@Z 00481280 f   mathlib:mathlib_base.obj
 0001:000802b0       ?BasisToQuaternion@@YAXABVVector@@00AAVQuaternion@@@Z 004812b0 f   mathlib:mathlib_base.obj
 0001:00080370       ?QuaternionAngles@@YAXABVQuaternion@@AAVRadianEuler@@@Z 00481370 f   mathlib:mathlib_base.obj
 0001:000803d0       ?TransformAABB@@YAXABUmatrix3x4_t@@ABVVector@@1AAV2@2@Z 004813d0 f   mathlib:mathlib_base.obj
 0001:000804e0       ?ITransformAABB@@YAXABUmatrix3x4_t@@ABVVector@@1AAV2@2@Z 004814e0 f   mathlib:mathlib_base.obj
 0001:000806c0       ?RotateAABB@@YAXABUmatrix3x4_t@@ABVVector@@1AAV2@2@Z 004816c0 f   mathlib:mathlib_base.obj
 0001:00080820       ?IRotateAABB@@YAXABUmatrix3x4_t@@ABVVector@@1AAV2@2@Z 00481820 f   mathlib:mathlib_base.obj
 0001:00080a50       ?CalcDistanceSqrToLine@@YAMABVVector@@00PAM@Z 00481a50 f   mathlib:mathlib_base.obj
 0001:00080ac0       ?CalcDistanceSqrToLineSegment@@YAMABVVector@@00PAM@Z 00481ac0 f   mathlib:mathlib_base.obj
 0001:00080b30       ?MathLib_Init@@YAXMMMH_N000@Z 00481b30 f   mathlib:mathlib_base.obj
 0001:00080cd0       ?RotationDeltaAxisAngle@@YAXABVQAngle@@0AAVVector@@AAM@Z 00481cd0 f   mathlib:mathlib_base.obj
 0001:00080d90       ?RotationDelta@@YAXABVQAngle@@0PAV1@@Z 00481d90 f   mathlib:mathlib_base.obj
 0001:00080e20       ?VectorToColorRGBExp32@@YAXABVVector@@AAUColorRGBExp32@@@Z 00481e20 f   mathlib:mathlib_base.obj
 0001:00080fb0       ?R_CullBox@@YA_NABVVector@@0ABVFrustum_t@@@Z 00481fb0 f   mathlib:mathlib_base.obj
 0001:00081040       ?R_CullBoxSkipNear@@YA_NABVVector@@0ABVFrustum_t@@@Z 00482040 f   mathlib:mathlib_base.obj
 0001:000810c0       ?TransformAnglesToLocalSpace@@YA?AVQAngle@@ABV1@ABUmatrix3x4_t@@@Z 004820c0 f   mathlib:mathlib_base.obj
 0001:00081120       ?AngleMatrix@@YAXABVRadianEuler@@ABVVector@@AAUmatrix3x4_t@@@Z 00482120 f   mathlib:mathlib_base.obj
 0001:00081180       ?QuaternionBlend@@YAXABVQuaternion@@0MAAV1@@Z 00482180 f   mathlib:mathlib_base.obj
 0001:000811b6       _Msg                       004821b6 f   tier0:tier0.dll
 0001:000811bc       _Error                     004821bc f   tier0:tier0.dll
 0001:000811c2       _Warning                   004821c2 f   tier0:tier0.dll
 0001:000811c8       _Plat_FloatTime            004821c8 f   tier0:tier0.dll
 0001:000811ce       _SpewActivate              004821ce f   tier0:tier0.dll
 0001:000811d4       _CommandLine_Tier0         004821d4 f   tier0:tier0.dll
 0001:000811da       _SpewOutputFunc            004821da f   tier0:tier0.dll
 0001:000811e0       _WriteMiniDumpUsingExceptionInfo 004821e0 f   tier0:tier0.dll
 0001:000811e6       _AssertValidStringPtr      004821e6 f   tier0:tier0.dll
 0001:000811ec       __AssertValidWritePtr      004821ec f   tier0:tier0.dll
 0001:000811f2       __AssertValidReadPtr       004821f2 f   tier0:tier0.dll
 0001:000811f8       ?Lock@CThreadMutex@@QBEXXZ 004821f8 f   tier0:tier0.dll
 0001:000811fe       ?Lock@CThreadMutex@@QAEXXZ 004821fe f   tier0:tier0.dll
 0001:00081204       _DevMsg                    00482204 f   tier0:tier0.dll
 0001:0008120a       ?DevMsg@@YAXPBDZZ          0048220a f   tier0:tier0.dll
 0001:00081210       _GetCPUInformation         00482210 f   tier0:tier0.dll
 0001:00081220       ?ConnectTier2Libraries@@YAXPAP6APAXPBDPAH@ZH@Z 00482220 f   tier2:tier2.obj
 0001:000814a0       ?DisconnectTier2Libraries@@YAXXZ 004824a0 f   tier2:tier2.obj
 0001:00081520       ?IsValid@Vector2D@@QBE_NXZ 00482520 f i tier2:tier2.obj
 0001:000815b0       ?IsFinite@@YA_NM@Z         004825b0 f i tier2:tier2.obj
 0001:00081602       _RandomGaussianFloat       00482602 f   vstdlib:vstdlib.dll
 0001:00081608       _RandomSeed                00482608 f   vstdlib:vstdlib.dll
 0001:0008160e       _KeyValuesSystem           0048260e f   vstdlib:vstdlib.dll
 0001:00081614       _GetCVarIF                 00482614 f   vstdlib:vstdlib.dll
 0001:00081620       ??0ResampleInfo_t@ImageLoader@@QAE@XZ 00482620 f i vtf:vtf.obj
 0001:00081650       ?SizeInBytes@ImageLoader@@YAHW4ImageFormat@@@Z 00482650 f i vtf:vtf.obj
 0001:00081670       ?IsCompressed@ImageLoader@@YA_NW4ImageFormat@@@Z 00482670 f i vtf:vtf.obj
 0001:00081690       ?IsPowerOfTwo@@YA_NH@Z     00482690 f i vtf:vtf.obj
 0001:000816b0       ??0CEdgePos@@QAE@XZ        004826b0 f i vtf:vtf.obj
 0001:000816c0       ??0CEdgePos@@QAE@HH@Z      004826c0 f i vtf:vtf.obj
 0001:000816e0       ??YCEdgePos@@QAEXABV0@@Z   004826e0 f i vtf:vtf.obj
 0001:00081700       ??_0CEdgePos@@QAEXH@Z      00482700 f i vtf:vtf.obj
 0001:00081720       ??HCEdgePos@@QAE?AV0@ABV0@@Z 00482720 f i vtf:vtf.obj
 0001:00081740       ??8CEdgePos@@QAE_NABV0@@Z  00482740 f i vtf:vtf.obj
 0001:00081760       ?DestroyVTFTexture@@YAXPAVIVTFTexture@@@Z 00482760 f   vtf:vtf.obj
 0001:00081780       ?VTFFileHeaderSize@@YAHHH@Z 00482780 f   vtf:vtf.obj
 0001:000817c0       ??0IVTFTexture@@QAE@XZ     004827c0 f i vtf:vtf.obj
 0001:000817d0       ?ComputeMipCount@CVTFTexture@@ABEHXZ 004827d0 f   vtf:vtf.obj
 0001:000817f0       ?AllocateImageData@CVTFTexture@@AAEXH@Z 004827f0 f   vtf:vtf.obj
 0001:00081830       ?AllocateLowResImageData@CVTFTexture@@AAEXH@Z 00482830 f   vtf:vtf.obj
 0001:00081870       ?Init@CVTFTexture@@UAE_NHHHW4ImageFormat@@HHH@Z 00482870 f   vtf:vtf.obj
 0001:00081960       ?InitLowResImage@CVTFTexture@@UAEXHHW4ImageFormat@@@Z 00482960 f   vtf:vtf.obj
 0001:000819c0       ?SetBumpScale@CVTFTexture@@UAEXM@Z 004829c0 f   vtf:vtf.obj
 0001:000819d0       ?SetReflectivity@CVTFTexture@@UAEXABVVector@@@Z 004829d0 f   vtf:vtf.obj
 0001:000819f0       ?SetAlphaTestThreshholds@CVTFTexture@@UAEXMM@Z 004829f0 f   vtf:vtf.obj
 0001:00081a10       ?Shutdown@CVTFTexture@@AAEXXZ 00482a10 f   vtf:vtf.obj
 0001:00081a50       ?LowResFileInfo@CVTFTexture@@UBEXPAH0@Z 00482a50 f   vtf:vtf.obj
 0001:00081ad0       ?ImageFileInfo@CVTFTexture@@UBEXHHHPAH0@Z 00482ad0 f   vtf:vtf.obj
 0001:00081be0       ?FileSize@CVTFTexture@@UBEHH@Z 00482be0 f   vtf:vtf.obj
 0001:00081c30       ?LoadLowResData@CVTFTexture@@AAE_NAAVCUtlBuffer@@@Z 00482c30 f   vtf:vtf.obj
 0001:00081c80       ?LoadImageData@CVTFTexture@@AAE_NAAVCUtlBuffer@@ABUVTFFileHeader_t@@H@Z 00482c80 f   vtf:vtf.obj
 0001:00081db0       ?ReadHeader@CVTFTexture@@AAE_NAAVCUtlBuffer@@AAUVTFFileHeader_t@@@Z 00482db0 f   vtf:vtf.obj
 0001:00081e60       ?WriteImageData@CVTFTexture@@AAE_NAAVCUtlBuffer@@@Z 00482e60 f   vtf:vtf.obj
 0001:00081ee0       ?Width@CVTFTexture@@UBEHXZ 00482ee0 f   vtf:vtf.obj
 0001:00081ef0       ?Height@CVTFTexture@@UBEHXZ 00482ef0 f   vtf:vtf.obj
 0001:00081f00       ?Depth@CVTFTexture@@UBEHXZ 00482f00 f   vtf:vtf.obj
 0001:00081f10       ?MipCount@CVTFTexture@@UBEHXZ 00482f10 f   vtf:vtf.obj
 0001:00081f20       ?Format@CVTFTexture@@UBE?AW4ImageFormat@@XZ 00482f20 f   vtf:vtf.obj
 0001:00081f30       ?FaceCount@CVTFTexture@@UBEHXZ 00482f30 f   vtf:vtf.obj
 0001:00081f40       ?FrameCount@CVTFTexture@@UBEHXZ 00482f40 f   vtf:vtf.obj
 0001:00081f50       ?Flags@CVTFTexture@@UBEHXZ 00482f50 f   vtf:vtf.obj
 0001:00081f60       ?IsCubeMap@CVTFTexture@@UBE_NXZ 00482f60 f   vtf:vtf.obj
 0001:00081f70       ?IsNormalMap@CVTFTexture@@UBE_NXZ 00482f70 f   vtf:vtf.obj
 0001:00081f80       ?IsVolumeTexture@CVTFTexture@@UBE_NXZ 00482f80 f   vtf:vtf.obj
 0001:00081f90       ?BumpScale@CVTFTexture@@UBEMXZ 00482f90 f   vtf:vtf.obj
 0001:00081fa0       ?Reflectivity@CVTFTexture@@UBEABVVector@@XZ 00482fa0 f   vtf:vtf.obj
 0001:00081fb0       ?ImageData@CVTFTexture@@UAEPAEXZ 00482fb0 f   vtf:vtf.obj
 0001:00081fc0       ?LowResWidth@CVTFTexture@@UBEHXZ 00482fc0 f   vtf:vtf.obj
 0001:00081fd0       ?LowResHeight@CVTFTexture@@UBEHXZ 00482fd0 f   vtf:vtf.obj
 0001:00081fe0       ?LowResFormat@CVTFTexture@@UBE?AW4ImageFormat@@XZ 00482fe0 f   vtf:vtf.obj
 0001:00081ff0       ?LowResImageData@CVTFTexture@@UAEPAEXZ 00482ff0 f   vtf:vtf.obj
 0001:00082000       ?RowSizeInBytes@CVTFTexture@@UBEHH@Z 00483000 f   vtf:vtf.obj
 0001:00082030       ?FaceSizeInBytes@CVTFTexture@@UBEHH@Z 00483030 f   vtf:vtf.obj
 0001:00082070       ?ImageData@CVTFTexture@@UAEPAEHHHHHH@Z 00483070 f   vtf:vtf.obj
 0001:000820d0       ?ComputeMipSize@CVTFTexture@@ABEHHW4ImageFormat@@@Z 004830d0 f i vtf:vtf.obj
 0001:00082110       ?ComputeMipSize@CVTFTexture@@UBEHH@Z 00483110 f   vtf:vtf.obj
 0001:00082160       ?ComputeFaceSize@CVTFTexture@@ABEHHW4ImageFormat@@@Z 00483160 f i vtf:vtf.obj
 0001:000821f0       ?ComputeFaceSize@CVTFTexture@@UBEHH@Z 004831f0 f   vtf:vtf.obj
 0001:00082210       ?ComputeTotalSize@CVTFTexture@@ABEHW4ImageFormat@@@Z 00483210 f i vtf:vtf.obj
 0001:00082230       ?ComputeTotalSize@CVTFTexture@@UBEHXZ 00483230 f   vtf:vtf.obj
 0001:00082250       ?GetImageOffset@CVTFTexture@@ABEHHHHW4ImageFormat@@@Z 00483250 f   vtf:vtf.obj
 0001:000822d0       ?ComputeMipLevelDimensions@CVTFTexture@@UBEXHPAH00@Z 004832d0 f   vtf:vtf.obj
 0001:00082320       ?ComputeMipLevelSubRect@CVTFTexture@@UBEXPAURect_t@@H0@Z 00483320 f   vtf:vtf.obj
 0001:00082440       ?ConvertImageFormat@CVTFTexture@@UAEXW4ImageFormat@@_N@Z 00483440 f   vtf:vtf.obj
 0001:00082bf0       ??0SphereCalc_t@@QAE@XZ    00483bf0 f i vtf:vtf.obj
 0001:00082c00       ?ComputeHemispheremapFrame@CVTFTexture@@AAEXPAPAEPAEW4LookDir_t@@@Z 00483c00 f   vtf:vtf.obj
 0001:00082dd0       ?GenerateHemisphereMap@CVTFTexture@@UAEXPAEHHW4LookDir_t@@H@Z 00483dd0 f   vtf:vtf.obj
 0001:00082ec0       ?FixCubemapFaceOrientation@CVTFTexture@@UAEXXZ 00483ec0 f   vtf:vtf.obj
 0001:00082f80       ?NormalizeTopMipLevel@CVTFTexture@@UAEXXZ 00483f80 f   vtf:vtf.obj
 0001:00083000       ?GenerateMipmaps@CVTFTexture@@UAEXXZ 00484000 f   vtf:vtf.obj
 0001:00083250       ?PutOneOverMipLevelInAlpha@CVTFTexture@@UAEXXZ 00484250 f   vtf:vtf.obj
 0001:00083320       ?ComputeReflectivity@CVTFTexture@@UAEXXZ 00484320 f   vtf:vtf.obj
 0001:00083480       ?ComputeAlphaFlags@CVTFTexture@@UAEXXZ 00484480 f   vtf:vtf.obj
 0001:00083550       ?PostProcess@CVTFTexture@@UAEX_NW4LookDir_t@@0@Z 00484550 f   vtf:vtf.obj
 0001:000835d0       ?SetupFaceVert@CVTFTexture@@AAEXHHAAVCEdgePos@@@Z 004845d0 f   vtf:vtf.obj
 0001:00083630       ?SetupEdgeIncrement@CVTFTexture@@AAEXAAVCEdgePos@@00@Z 00484630 f   vtf:vtf.obj
 0001:00083690       ?SetupTextureEdgeIncrements@CVTFTexture@@AAEXHHH_NPAVCEdgeIncrements@@@Z 00484690 f   vtf:vtf.obj
 0001:000837b0       ?BlendTexels@@YAXPAPAEH@Z  004847b0 f   vtf:vtf.obj
 0001:00083860       ??0CEdgeIncrements@@QAE@XZ 00484860 f i vtf:vtf.obj
 0001:00083870       ?BlendCubeMapFaceCorners@CVTFTexture@@AAEXHHPBVCCornerMatch@@@Z 00484870 f   vtf:vtf.obj
 0001:00083a40       ?BuildCubeMapMatchLists@CVTFTexture@@AAEXQAVCEdgeMatch@@QAVCCornerMatch@@_N@Z 00484a40 f   vtf:vtf.obj
 0001:00083cc0       ?Base@?$CUtlMemory@VS3RGBA@@@@QAEPAVS3RGBA@@XZ 00484cc0 f i vtf:vtf.obj
 0001:00083cd0       ??$swap@E@@YAXAAE0@Z       00484cd0 f i vtf:vtf.obj
 0001:00083cf0       ?ValidateGrowSize@?$CUtlMemory@VS3RGBA@@@@IAEXXZ 00484cf0 f i vtf:vtf.obj
 0001:00083d00       ?IsExternallyAllocated@?$CUtlMemory@VS3RGBA@@@@QBE_NXZ 00484d00 f i vtf:vtf.obj
 0001:00083d10       ??$Destruct@VS3RGBA@@@@YAXPAVS3RGBA@@@Z 00484d10 f i vtf:vtf.obj
 0001:00083d20       ??$Construct@VS3RGBA@@@@YAXPAVS3RGBA@@@Z 00484d20 f i vtf:vtf.obj
 0001:00083d30       ?NumAllocated@?$CUtlMemory@VS3RGBA@@@@QBEHXZ 00484d30 f i vtf:vtf.obj
 0001:00083d40       ?Grow@?$CUtlMemory@VS3RGBA@@@@QAEXH@Z 00484d40 f i vtf:vtf.obj
 0001:00083db0       ??0VectorAligned@@QAE@XZ   00484db0 f i vtf:vtf.obj
 0001:00083dc0       ??9CEdgePos@@QAE_NABV0@@Z  00484dc0 f i vtf:vtf.obj
 0001:00083e00       ??0VTFFileHeaderV7_1_t@@QAE@XZ 00484e00 f i vtf:vtf.obj
 0001:00083e10       ?ImageData@CVTFTexture@@UAEPAEHHH@Z 00484e10 f   vtf:vtf.obj
 0001:00083e40       ?ComputeSpheremapFrame@CVTFTexture@@AAEXPAPAEPAEW4LookDir_t@@@Z 00484e40 f   vtf:vtf.obj
 0001:00084010       ?GenerateSpheremap@CVTFTexture@@UAEXW4LookDir_t@@@Z 00485010 f   vtf:vtf.obj
 0001:000840d0       ?BlendCubeMapFaceEdges@CVTFTexture@@AAEXHHPBVCEdgeMatch@@@Z 004850d0 f   vtf:vtf.obj
 0001:000842a0       ?Base@?$CUtlVector@VS3RGBA@@V?$CUtlMemory@VS3RGBA@@@@@@QAEPAVS3RGBA@@XZ 004852a0 f i vtf:vtf.obj
 0001:000842b0       ??A?$CUtlVector@VS3RGBA@@V?$CUtlMemory@VS3RGBA@@@@@@QAEAAVS3RGBA@@H@Z 004852b0 f i vtf:vtf.obj
 0001:000842c0       ?ResetDbgInfo@?$CUtlVector@VS3RGBA@@V?$CUtlMemory@VS3RGBA@@@@@@IAEXXZ 004852c0 f i vtf:vtf.obj
 0001:000842d0       ??0?$CUtlMemory@VS3RGBA@@@@QAE@HH@Z 004852d0 f i vtf:vtf.obj
 0001:00084310       ?Purge@?$CUtlMemory@VS3RGBA@@@@QAEXXZ 00485310 f i vtf:vtf.obj
 0001:00084340       ?Element@?$CUtlVector@VS3RGBA@@V?$CUtlMemory@VS3RGBA@@@@@@QAEAAVS3RGBA@@H@Z 00485340 f i vtf:vtf.obj
 0001:00084350       ?GrowVector@?$CUtlVector@VS3RGBA@@V?$CUtlMemory@VS3RGBA@@@@@@IAEXH@Z 00485350 f i vtf:vtf.obj
 0001:00084380       ?ShiftElementsRight@?$CUtlVector@VS3RGBA@@V?$CUtlMemory@VS3RGBA@@@@@@IAEXHH@Z 00485380 f i vtf:vtf.obj
 0001:000843c0       ??0VTFFileHeader_t@@QAE@XZ 004853c0 f i vtf:vtf.obj
 0001:000843d0       ?Serialize@CVTFTexture@@UAE_NAAVCUtlBuffer@@@Z 004853d0 f   vtf:vtf.obj
 0001:00084510       ?BlendCubeMapEdgePalettes@CVTFTexture@@AAEXHHPBVCEdgeMatch@@@Z 00485510 f   vtf:vtf.obj
 0001:00084730       ?BlendCubeMapCornerPalettes@CVTFTexture@@AAEXHHPBVCCornerMatch@@@Z 00485730 f   vtf:vtf.obj
 0001:00084890       ?MatchCubeMapS3TCPalettes@CVTFTexture@@AAEXQAVCEdgeMatch@@QAVCCornerMatch@@@Z 00485890 f   vtf:vtf.obj
 0001:00084910       ??1?$CUtlMemory@VS3RGBA@@@@QAE@XZ 00485910 f i vtf:vtf.obj
 0001:00084940       ?RemoveAll@?$CUtlVector@VS3RGBA@@V?$CUtlMemory@VS3RGBA@@@@@@QAEXXZ 00485940 f i vtf:vtf.obj
 0001:00084950       ?InsertMultipleBefore@?$CUtlVector@VS3RGBA@@V?$CUtlMemory@VS3RGBA@@@@@@QAEHHHPBVS3RGBA@@@Z 00485950 f i vtf:vtf.obj
 0001:000849f0       ?Unserialize@CVTFTexture@@UAE_NAAVCUtlBuffer@@_NH@Z 004859f0 f   vtf:vtf.obj
 0001:00084b80       ?ConstructLowResImage@CVTFTexture@@UAE_NXZ 00485b80 f   vtf:vtf.obj
 0001:00084ca0       ??0?$CUtlVector@VS3RGBA@@V?$CUtlMemory@VS3RGBA@@@@@@QAE@HH@Z 00485ca0 f i vtf:vtf.obj
 0001:00084cf0       ?Purge@?$CUtlVector@VS3RGBA@@V?$CUtlMemory@VS3RGBA@@@@@@QAEXXZ 00485cf0 f i vtf:vtf.obj
 0001:00084d30       ?AddMultipleToTail@?$CUtlVector@VS3RGBA@@V?$CUtlMemory@VS3RGBA@@@@@@QAEHHPBVS3RGBA@@@Z 00485d30 f i vtf:vtf.obj
 0001:00084d50       ??1?$CUtlVector@VS3RGBA@@V?$CUtlMemory@VS3RGBA@@@@@@QAE@XZ 00485d50 f i vtf:vtf.obj
 0001:00084db0       ?SetCount@?$CUtlVector@VS3RGBA@@V?$CUtlMemory@VS3RGBA@@@@@@QAEXH@Z 00485db0 f i vtf:vtf.obj
 0001:00084dd0       ??0CVTFTexture@@QAE@XZ     00485dd0 f   vtf:vtf.obj
 0001:00084e50       ??1CVTFTexture@@UAE@XZ     00485e50 f   vtf:vtf.obj
 0001:00084e90       ?SetSize@?$CUtlVector@VS3RGBA@@V?$CUtlMemory@VS3RGBA@@@@@@QAEXH@Z 00485e90 f i vtf:vtf.obj
 0001:00084eb0       ?CreateVTFTexture@@YAPAVIVTFTexture@@XZ 00485eb0 f   vtf:vtf.obj
 0001:00084ed0       ??_ECVTFTexture@@UAEPAXI@Z 00485ed0 f i vtf:vtf.obj
 0001:00084ed0       ??_GCVTFTexture@@UAEPAXI@Z 00485ed0 f i vtf:vtf.obj
 0001:00084f30       ?MatchCubeMapBorders@CVTFTexture@@UAEXHW4ImageFormat@@_N@Z 00485f30 f   vtf:vtf.obj
 0001:000850c2       __ExitOnFatalAssert        004860c2 f   vtf:tier0.dll
 0001:000850c8       _DoNewAssertDialog         004860c8 f   vtf:tier0.dll
 0001:000850ce       _ShouldUseNewAssertDialog  004860ce f   vtf:tier0.dll
 0001:000850d4       __SpewMessage              004860d4 f   vtf:tier0.dll
 0001:000850da       __SpewInfo                 004860da f   vtf:tier0.dll
 0001:000850e0       _MemFreeScratch            004860e0 f   vtf:tier0.dll
 0001:000850e6       _MemAllocScratch           004860e6 f   vtf:tier0.dll
 0001:000850f0       ?ReadBitInt@@YAHPBDHH@Z    004860f0 f   vtf:s3tc_decode.obj
 0001:00085130       ?WriteBitInt@@YAXPADHHH@Z  00486130 f   vtf:s3tc_decode.obj
 0001:00085180       ?S3TC_BytesPerBlock@@YAHW4ImageFormat@@@Z 00486180 f   vtf:s3tc_decode.obj
 0001:000851a0       ?S3TC_GetPixelPaletteIndex@@YA?AVS3PaletteIndex@@W4ImageFormat@@PBDHH@Z 004861a0 f   vtf:s3tc_decode.obj
 0001:00085200       ?S3TC_SetPixelPaletteIndex@@YAXW4ImageFormat@@PADHHVS3PaletteIndex@@@Z 00486200 f   vtf:s3tc_decode.obj
 0001:00085270       ?S3TC_GetBlock@@YAPBDPBXW4ImageFormat@@HHH@Z 00486270 f   vtf:s3tc_decode.obj
 0001:000852a0       ?S3TC_GetBlock@@YAPADPAXW4ImageFormat@@HHH@Z 004862a0 f   vtf:s3tc_decode.obj
 0001:000852d0       ?GenerateRepresentativePalette@@YAXW4ImageFormat@@PAPAVS3RGBA@@HHQAD@Z 004862d0 f   vtf:s3tc_decode.obj
 0001:00085460       ?S3TC_MergeBlocks@@YAXPAPADPAPAVS3RGBA@@HHW4ImageFormat@@@Z 00486460 f   vtf:s3tc_decode.obj
 0001:000857a0       ?S3TC_GetPaletteIndex@@YA?AVS3PaletteIndex@@PAEW4ImageFormat@@HHH@Z 004867a0 f   vtf:s3tc_decode.obj
 0001:00085800       ?S3TC_SetPaletteIndex@@YAXPAEW4ImageFormat@@HHHVS3PaletteIndex@@@Z 00486800 f   vtf:s3tc_decode.obj
 0001:00085860       ?S3TCsetAlphaReference@@YAXH@Z 00486860 f   vtf:S3_intrf.obj
 0001:00085870       ?S3TCgetEncodeSize@@YAIPAU_DDSURFACEDESC@@I@Z 00486870 f   vtf:S3_intrf.obj
 0001:000858a0       ?S3TCencode@@YAXPAU_DDSURFACEDESC@@PAUtagPALETTEENTRY@@0PAXIPAM@Z 004868a0 f   vtf:S3_intrf.obj
 0001:000865c0       ?S3TCencodeEx@@YAHPAU_DDSURFACEDESC@@PAUtagPALETTEENTRY@@0PAXIPAMP6AHM22@Z22@Z 004875c0 f   vtf:S3_intrf.obj
 0001:000865f0       ?S3TCgetDecodeSize@@YAIPAU_DDSURFACEDESC@@@Z 004875f0 f   vtf:S3_intrf.obj
 0001:00086600       ?S3TCdecode@@YAXPAU_DDSURFACEDESC@@0PAX@Z 00487600 f   vtf:S3_intrf.obj
 0001:00086aa0       _CodeRGBBlock              00487aa0 f   vtf:S3_quant.obj
 0001:00089ac0       _CodeAlphaBlock            0048aac0 f   vtf:S3_quant.obj
 0001:0008a870       _memmove                   0048b870 f   LIBCMT:memmove.obj
 0001:0008abd5       __fpclear                  0048bbd5 f   LIBCMT:fpinit.obj
 0001:0008abd6       __cfltcvt_init             0048bbd6 f   LIBCMT:fpinit.obj
 0001:0008ac36       ___setfflag                0048bc36 f   LIBCMT:fpinit.obj
 0001:0008ac46       __fpmath                   0048bc46 f   LIBCMT:fpinit.obj
 0001:0008ac70       _memset                    0048bc70 f   LIBCMT:memset.obj
 0001:0008acf0       _memcpy                    0048bcf0 f   LIBCMT:memcpy.obj
 0001:0008b060       __CIsqrt                   0048c060 f   LIBCMT:sqrt.obj
 0001:0008b074       _sqrt                      0048c074     LIBCMT:sqrt.obj
 0001:0008b120       __ftol2_sse                0048c120 f   LIBCMT:ftol2.obj
 0001:0008b129       __ftol2_pentium4           0048c129 f   LIBCMT:ftol2.obj
 0001:0008b13c       __ftol2_sse_excpt          0048c13c f   LIBCMT:ftol2.obj
 0001:0008b156       __ftol2                    0048c156 f   LIBCMT:ftol2.obj
 0001:0008b1cb       __fclose_nolock            0048c1cb f   LIBCMT:fclose.obj
 0001:0008b23d       _fclose                    0048c23d f   LIBCMT:fclose.obj
 0001:0008b2b9       _fprintf                   0048c2b9 f   LIBCMT:fprintf.obj
 0001:0008b408       __fprintf_l                0048c408 f   LIBCMT:fprintf.obj
 0001:0008b422       __fprintf_s_l              0048c422 f   LIBCMT:fprintf.obj
 0001:0008b43c       _fprintf_s                 0048c43c f   LIBCMT:fprintf.obj
 0001:0008b454       __fprintf_p_l              0048c454 f   LIBCMT:fprintf.obj
 0001:0008b46e       __fprintf_p                0048c46e f   LIBCMT:fprintf.obj
 0001:0008b486       __fsopen                   0048c486 f   LIBCMT:fopen.obj
 0001:0008b54a       _fopen                     0048c54a f   LIBCMT:fopen.obj
 0001:0008b55d       _fopen_s                   0048c55d f   LIBCMT:fopen.obj
 0001:0008b5ad       _sprintf                   0048c5ad f   LIBCMT:sprintf.obj
 0001:0008b628       __sprintf_l                0048c628 f   LIBCMT:sprintf.obj
 0001:0008b642       _sprintf_s                 0048c642 f   LIBCMT:sprintf.obj
 0001:0008b65e       __sprintf_s_l              0048c65e f   LIBCMT:sprintf.obj
 0001:0008b67b       __snprintf_s               0048c67b f   LIBCMT:sprintf.obj
 0001:0008b69a       __snprintf_s_l             0048c69a f   LIBCMT:sprintf.obj
 0001:0008b6ba       __sprintf_p                0048c6ba f   LIBCMT:sprintf.obj
 0001:0008b6d6       __sprintf_p_l              0048c6d6 f   LIBCMT:sprintf.obj
 0001:0008b6f3       __scprintf                 0048c6f3 f   LIBCMT:sprintf.obj
 0001:0008b704       __scprintf_p               0048c704 f   LIBCMT:sprintf.obj
 0001:0008b715       __scprintf_l               0048c715 f   LIBCMT:sprintf.obj
 0001:0008b72b       __scprintf_p_l             0048c72b f   LIBCMT:sprintf.obj
 0001:0008b7a9       _sscanf                    0048c7a9 f   LIBCMT:sscanf.obj
 0001:0008b7c8       __sscanf_l                 0048c7c8 f   LIBCMT:sscanf.obj
 0001:0008b7e9       _sscanf_s                  0048c7e9 f   LIBCMT:sscanf.obj
 0001:0008b808       __sscanf_s_l               0048c808 f   LIBCMT:sscanf.obj
 0001:0008b829       _strtok                    0048c829 f   LIBCMT:strtok.obj
 0001:0008b8f0       __alloca_probe_16          0048c8f0 f   LIBCMT:alloca16.obj
 0001:0008b906       __alloca_probe_8           0048c906     LIBCMT:alloca16.obj
 0001:0008b9d5       ___onexitinit              0048c9d5 f   LIBCMT:onexit.obj
 0001:0008ba04       __onexit                   0048ca04 f   LIBCMT:onexit.obj
 0001:0008ba40       _atexit                    0048ca40 f   LIBCMT:onexit.obj
 0001:0008ba52       _srand                     0048ca52 f   LIBCMT:rand.obj
 0001:0008ba5f       _rand                      0048ca5f f   LIBCMT:rand.obj
 0001:0008bb50       _qsort                     0048cb50 f   LIBCMT:qsort.obj
 0001:0008be00       _strncpy                   0048ce00 f   LIBCMT:strncpy.obj
 0001:0008bf30       _cos                       0048cf30 f   LIBCMT:cos.obj
 0001:0008bf70       __CIcos                    0048cf70 f   LIBCMT:cos.obj
 0001:0008bfab       __CIcos_default            0048cfab f   LIBCMT:cos.obj
 0001:0008bfbf       __cos_default              0048cfbf     LIBCMT:cos.obj
 0001:0008c060       __alloca_probe             0048d060     LIBCMT:chkstk.obj
 0001:0008c060       __chkstk                   0048d060 f   LIBCMT:chkstk.obj
 0001:0008c08b       ??0_LocaleUpdate@@QAE@PAUlocaleinfo_struct@@@Z 0048d08b f i LIBCMT:atof.obj
